; This is a part of the Microsoft Foundation Classes C++ library.
; Copyright (C) 1992-2001 Microsoft Corporation 
; All rights reserved.
;
; This source code is only intended as a supplement to the
; Microsoft Foundation Classes Reference and related
; electronic documentation provided with the library.
; See these sources for detailed information regarding the
; Microsoft Foundation Classes product.
 
LIBRARY  
; For Win32 DLLs, only EXPORTs really required.

EXPORTS
 ??$CopyElements@VCOleVariant@@@@YAXPEAVCOleVariant@@PEBV0@_J@Z @ 256 NONAME
 ??$HashKey@AEBUtagVARIANT@@@@YAIAEBUtagVARIANT@@@Z @ 257 NONAME
 ??$HashKey@PEB_W@@YAIPEB_W@Z @ 258 NONAME
 ??$HashKey@PEBD@@YAIPEBD@Z @ 259 NONAME
 ??$HashKey@VCComBSTR@ATL@@@@YAIVCComBSTR@ATL@@@Z @ 260 NONAME
 ??$SerializeElements@V?$CStringT@_WV?$StrTraitMFC_DLL@_WV?$ChTraitsCRT@_W@ATL@@@@@ATL@@@@YAXAEAVCArchive@@PEAV?$CStringT@_WV?$StrTraitMFC_DLL@_WV?$ChTraitsCRT@_W@ATL@@@@@ATL@@_J@Z @ 261 NONAME
 ??$SerializeElements@V?$CStringT@DV?$StrTraitMFC_DLL@DV?$ChTraitsCRT@D@ATL@@@@@ATL@@@@YAXAEAVCArchive@@PEAV?$CStringT@DV?$StrTraitMFC_DLL@DV?$ChTraitsCRT@D@ATL@@@@@ATL@@_J@Z @ 262 NONAME
 ??$SerializeElements@VCComBSTR@ATL@@@@YAXAEAVCArchive@@PEAVCComBSTR@ATL@@_J@Z @ 263 NONAME
 ??$SerializeElements@VCOleVariant@@@@YAXAEAVCArchive@@PEAVCOleVariant@@_J@Z @ 264 NONAME
 ??_U@YAPEAX_K@Z @ 265 NONAME
 ??_V@YAXPEAX@Z @ 266 NONAME
 ??0?$CSimpleStringT@_W$00@ATL@@QEAA@AEBV?$CSimpleStringT@_W$0A@@1@@Z @ 267 NONAME
 ??0?$CSimpleStringT@_W$00@ATL@@QEAA@AEBV01@@Z @ 268 NONAME
 ??0?$CSimpleStringT@_W$00@ATL@@QEAA@PEAUIAtlStringMgr@1@@Z @ 269 NONAME
 ??0?$CSimpleStringT@_W$00@ATL@@QEAA@PEB_WHPEAUIAtlStringMgr@1@@Z @ 270 NONAME
 ??0?$CSimpleStringT@_W$00@ATL@@QEAA@PEB_WPEAUIAtlStringMgr@1@@Z @ 271 NONAME
 ??0?$CSimpleStringT@D$00@ATL@@QEAA@AEBV?$CSimpleStringT@D$0A@@1@@Z @ 272 NONAME
 ??0?$CSimpleStringT@D$00@ATL@@QEAA@AEBV01@@Z @ 273 NONAME
 ??0?$CSimpleStringT@D$00@ATL@@QEAA@PEAUIAtlStringMgr@1@@Z @ 274 NONAME
 ??0?$CSimpleStringT@D$00@ATL@@QEAA@PEBDHPEAUIAtlStringMgr@1@@Z @ 275 NONAME
 ??0?$CSimpleStringT@D$00@ATL@@QEAA@PEBDPEAUIAtlStringMgr@1@@Z @ 276 NONAME
 ??0?$CStringT@_WV?$StrTraitMFC_DLL@_WV?$ChTraitsCRT@_W@ATL@@@@@ATL@@QEAA@_WH@Z @ 277 NONAME
 ??0?$CStringT@_WV?$StrTraitMFC_DLL@_WV?$ChTraitsCRT@_W@ATL@@@@@ATL@@QEAA@AEBUtagVARIANT@@@Z @ 278 NONAME
 ??0?$CStringT@_WV?$StrTraitMFC_DLL@_WV?$ChTraitsCRT@_W@ATL@@@@@ATL@@QEAA@AEBUtagVARIANT@@PEAUIAtlStringMgr@1@@Z @ 279 NONAME
 ??0?$CStringT@_WV?$StrTraitMFC_DLL@_WV?$ChTraitsCRT@_W@ATL@@@@@ATL@@QEAA@AEBV01@@Z @ 280 NONAME
 ??0?$CStringT@_WV?$StrTraitMFC_DLL@_WV?$ChTraitsCRT@_W@ATL@@@@@ATL@@QEAA@DH@Z @ 281 NONAME
 ??0?$CStringT@_WV?$StrTraitMFC_DLL@_WV?$ChTraitsCRT@_W@ATL@@@@@ATL@@QEAA@PEA_W@Z @ 282 NONAME
 ??0?$CStringT@_WV?$StrTraitMFC_DLL@_WV?$ChTraitsCRT@_W@ATL@@@@@ATL@@QEAA@PEAD@Z @ 283 NONAME
 ??0?$CStringT@_WV?$StrTraitMFC_DLL@_WV?$ChTraitsCRT@_W@ATL@@@@@ATL@@QEAA@PEAE@Z @ 284 NONAME
 ??0?$CStringT@_WV?$StrTraitMFC_DLL@_WV?$ChTraitsCRT@_W@ATL@@@@@ATL@@QEAA@PEAUIAtlStringMgr@1@@Z @ 285 NONAME
 ??0?$CStringT@_WV?$StrTraitMFC_DLL@_WV?$ChTraitsCRT@_W@ATL@@@@@ATL@@QEAA@PEB_W@Z @ 286 NONAME
 ??0?$CStringT@_WV?$StrTraitMFC_DLL@_WV?$ChTraitsCRT@_W@ATL@@@@@ATL@@QEAA@PEB_WH@Z @ 287 NONAME
 ??0?$CStringT@_WV?$StrTraitMFC_DLL@_WV?$ChTraitsCRT@_W@ATL@@@@@ATL@@QEAA@PEB_WHPEAUIAtlStringMgr@1@@Z @ 288 NONAME
 ??0?$CStringT@_WV?$StrTraitMFC_DLL@_WV?$ChTraitsCRT@_W@ATL@@@@@ATL@@QEAA@PEB_WPEAUIAtlStringMgr@1@@Z @ 289 NONAME
 ??0?$CStringT@_WV?$StrTraitMFC_DLL@_WV?$ChTraitsCRT@_W@ATL@@@@@ATL@@QEAA@PEBD@Z @ 290 NONAME
 ??0?$CStringT@_WV?$StrTraitMFC_DLL@_WV?$ChTraitsCRT@_W@ATL@@@@@ATL@@QEAA@PEBDH@Z @ 291 NONAME
 ??0?$CStringT@_WV?$StrTraitMFC_DLL@_WV?$ChTraitsCRT@_W@ATL@@@@@ATL@@QEAA@PEBDHPEAUIAtlStringMgr@1@@Z @ 292 NONAME
 ??0?$CStringT@_WV?$StrTraitMFC_DLL@_WV?$ChTraitsCRT@_W@ATL@@@@@ATL@@QEAA@PEBDPEAUIAtlStringMgr@1@@Z @ 293 NONAME
 ??0?$CStringT@_WV?$StrTraitMFC_DLL@_WV?$ChTraitsCRT@_W@ATL@@@@@ATL@@QEAA@PEBE@Z @ 294 NONAME
 ??0?$CStringT@_WV?$StrTraitMFC_DLL@_WV?$ChTraitsCRT@_W@ATL@@@@@ATL@@QEAA@PEBEPEAUIAtlStringMgr@1@@Z @ 295 NONAME
 ??0?$CStringT@_WV?$StrTraitMFC_DLL@_WV?$ChTraitsCRT@_W@ATL@@@@@ATL@@QEAA@XZ @ 296 NONAME
 ??0?$CStringT@DV?$StrTraitMFC_DLL@DV?$ChTraitsCRT@D@ATL@@@@@ATL@@QEAA@_WH@Z @ 297 NONAME
 ??0?$CStringT@DV?$StrTraitMFC_DLL@DV?$ChTraitsCRT@D@ATL@@@@@ATL@@QEAA@AEBUtagVARIANT@@@Z @ 298 NONAME
 ??0?$CStringT@DV?$StrTraitMFC_DLL@DV?$ChTraitsCRT@D@ATL@@@@@ATL@@QEAA@AEBUtagVARIANT@@PEAUIAtlStringMgr@1@@Z @ 299 NONAME
 ??0?$CStringT@DV?$StrTraitMFC_DLL@DV?$ChTraitsCRT@D@ATL@@@@@ATL@@QEAA@AEBV01@@Z @ 300 NONAME
 ??0?$CStringT@DV?$StrTraitMFC_DLL@DV?$ChTraitsCRT@D@ATL@@@@@ATL@@QEAA@DH@Z @ 301 NONAME
 ??0?$CStringT@DV?$StrTraitMFC_DLL@DV?$ChTraitsCRT@D@ATL@@@@@ATL@@QEAA@PEA_W@Z @ 302 NONAME
 ??0?$CStringT@DV?$StrTraitMFC_DLL@DV?$ChTraitsCRT@D@ATL@@@@@ATL@@QEAA@PEAD@Z @ 303 NONAME
 ??0?$CStringT@DV?$StrTraitMFC_DLL@DV?$ChTraitsCRT@D@ATL@@@@@ATL@@QEAA@PEAE@Z @ 304 NONAME
 ??0?$CStringT@DV?$StrTraitMFC_DLL@DV?$ChTraitsCRT@D@ATL@@@@@ATL@@QEAA@PEAUIAtlStringMgr@1@@Z @ 305 NONAME
 ??0?$CStringT@DV?$StrTraitMFC_DLL@DV?$ChTraitsCRT@D@ATL@@@@@ATL@@QEAA@PEB_W@Z @ 306 NONAME
 ??0?$CStringT@DV?$StrTraitMFC_DLL@DV?$ChTraitsCRT@D@ATL@@@@@ATL@@QEAA@PEB_WH@Z @ 307 NONAME
 ??0?$CStringT@DV?$StrTraitMFC_DLL@DV?$ChTraitsCRT@D@ATL@@@@@ATL@@QEAA@PEB_WHPEAUIAtlStringMgr@1@@Z @ 308 NONAME
 ??0?$CStringT@DV?$StrTraitMFC_DLL@DV?$ChTraitsCRT@D@ATL@@@@@ATL@@QEAA@PEB_WPEAUIAtlStringMgr@1@@Z @ 309 NONAME
 ??0?$CStringT@DV?$StrTraitMFC_DLL@DV?$ChTraitsCRT@D@ATL@@@@@ATL@@QEAA@PEBD@Z @ 310 NONAME
 ??0?$CStringT@DV?$StrTraitMFC_DLL@DV?$ChTraitsCRT@D@ATL@@@@@ATL@@QEAA@PEBDH@Z @ 311 NONAME
 ??0?$CStringT@DV?$StrTraitMFC_DLL@DV?$ChTraitsCRT@D@ATL@@@@@ATL@@QEAA@PEBDHPEAUIAtlStringMgr@1@@Z @ 312 NONAME
 ??0?$CStringT@DV?$StrTraitMFC_DLL@DV?$ChTraitsCRT@D@ATL@@@@@ATL@@QEAA@PEBDPEAUIAtlStringMgr@1@@Z @ 313 NONAME
 ??0?$CStringT@DV?$StrTraitMFC_DLL@DV?$ChTraitsCRT@D@ATL@@@@@ATL@@QEAA@PEBE@Z @ 314 NONAME
 ??0?$CStringT@DV?$StrTraitMFC_DLL@DV?$ChTraitsCRT@D@ATL@@@@@ATL@@QEAA@PEBEPEAUIAtlStringMgr@1@@Z @ 315 NONAME
 ??0?$CStringT@DV?$StrTraitMFC_DLL@DV?$ChTraitsCRT@D@ATL@@@@@ATL@@QEAA@XZ @ 316 NONAME
 ??0_AFX_THREAD_STATE@@QEAA@XZ @ 317 NONAME
 ??0AFX_DDPDATA@@QEAA@PEAXHH0IPEBD@Z @ 318 NONAME
 ??0AFX_EXCEPTION_LINK@@QEAA@XZ @ 319 NONAME
 ??0AFX_MAINTAIN_STATE2@@QEAA@PEAVAFX_MODULE_STATE@@@Z @ 320 NONAME
 ??0AFX_MODULE_STATE@@QEAA@HP6A_JPEAUHWND__@@I_K_J@ZKH@Z @ 321 NONAME
 ??0AFX_MODULE_THREAD_STATE@@QEAA@XZ @ 322 NONAME
 ??0CArchive@@QEAA@PEAVCFile@@IHPEAX@Z @ 323 NONAME
 ??0CArchivePropExchange@@QEAA@AEAVCArchive@@@Z @ 324 NONAME
 ??0CArchiveStream@@QEAA@PEAVCArchive@@@Z @ 325 NONAME
 ??0CAsyncMonikerFile@@QEAA@XZ @ 326 NONAME
 ??0CAsyncPropExchange@@QEAA@K@Z @ 327 NONAME
 ??0CAsyncSocket@@QEAA@XZ @ 328 NONAME
 ??0CBlobProperty@@QEAA@PEAX@Z @ 329 NONAME
 ??0CBrowserControlSite@@QEAA@PEAVCOleControlContainer@@PEAVCDHtmlDialog@@@Z @ 330 NONAME
 ??0CBrush@@QEAA@HK@Z @ 331 NONAME
 ??0CBrush@@QEAA@K@Z @ 332 NONAME
 ??0CBrush@@QEAA@PEAVCBitmap@@@Z @ 333 NONAME
 ??0CByteArray@@QEAA@XZ @ 334 NONAME
 ??0CChevronOwnerDrawMenu@@QEAA@XZ @ 335 NONAME
 ??0CClientDC@@QEAA@PEAVCWnd@@@Z @ 336 NONAME
 ??0CCmdTarget@@QEAA@XZ @ 337 NONAME
 ??0CCmdUI@@QEAA@XZ @ 338 NONAME
 ??0CColorDialog@@QEAA@KKPEAVCWnd@@@Z @ 339 NONAME
 ??0CCommandLineInfo@@QEAA@XZ @ 340 NONAME
 ??0CConnectionPoint@@QEAA@XZ @ 341 NONAME
 ??0CControlBar@@IEAA@XZ @ 342 NONAME
 ??0CControlBarInfo@@QEAA@XZ @ 343 NONAME
 ??0CControlCreationInfo@@QEAA@XZ @ 344 NONAME
 ??0CControlDataSource@COleControl@@QEAA@PEAV1@@Z @ 345 NONAME
 ??0CControlFrameWnd@@QEAA@PEAVCOleControl@@@Z @ 346 NONAME
 ??0CControlSiteFactoryMgr@@QEAA@XZ @ 347 NONAME
 ??0CCtrlView@@QEAA@PEBDK@Z @ 348 NONAME
 ??0CDatabase@@QEAA@XZ @ 349 NONAME
 ??0CDataBoundProperty@@QEAA@PEAV0@JG@Z @ 350 NONAME
 ??0CDataExchange@@QEAA@PEAVCWnd@@H@Z @ 351 NONAME
 ??0CDataSourceControl@@QEAA@PEAVCOleControlSite@@@Z @ 352 NONAME
 ??0CDBException@@QEAA@F@Z @ 353 NONAME
 ??0CDBVariant@@QEAA@XZ @ 354 NONAME
 ??0CDC@@QEAA@XZ @ 355 NONAME
 ??0CDHtmlControlSink@@QEAA@PEAUIUnknown@@PEAVCDHtmlSinkHandler@@PEBD_K@Z @ 356 NONAME
 ??0CDHtmlControlSink@@QEAA@XZ @ 357 NONAME
 ??0CDHtmlDialog@@QEAA@IIPEAVCWnd@@@Z @ 358 NONAME
 ??0CDHtmlDialog@@QEAA@PEBD0PEAVCWnd@@@Z @ 359 NONAME
 ??0CDHtmlDialog@@QEAA@XZ @ 360 NONAME
 ??0CDHtmlElementEventSink@@QEAA@PEAVCDHtmlEventSink@@PEAUIDispatch@@@Z @ 361 NONAME
 ??0CDialog@@QEAA@IPEAVCWnd@@@Z @ 362 NONAME
 ??0CDialog@@QEAA@PEBDPEAVCWnd@@@Z @ 363 NONAME
 ??0CDialog@@QEAA@XZ @ 364 NONAME
 ??0CDialogBar@@QEAA@XZ @ 365 NONAME
 ??0CDialogTemplate@@QEAA@PEAX@Z @ 366 NONAME
 ??0CDialogTemplate@@QEAA@PEBUDLGTEMPLATE@@@Z @ 367 NONAME
 ??0CDocItem@@IEAA@XZ @ 368 NONAME
 ??0CDockBar@@QEAA@H@Z @ 369 NONAME
 ??0CDockContext@@QEAA@PEAVCControlBar@@@Z @ 370 NONAME
 ??0CDockState@@QEAA@XZ @ 371 NONAME
 ??0CDocManager@@QEAA@XZ @ 372 NONAME
 ??0CDocObjectServer@@QEAA@PEAVCOleServerDoc@@PEAUIOleDocumentSite@@@Z @ 373 NONAME
 ??0CDocObjectServerItem@@IEAA@PEAVCOleServerDoc@@H@Z @ 374 NONAME
 ??0CDocTemplate@@IEAA@IPEAUCRuntimeClass@@00@Z @ 375 NONAME
 ??0CDocument@@QEAA@XZ @ 376 NONAME
 ??0CDumpContext@@QEAA@PEAVCFile@@@Z @ 377 NONAME
 ??0CDWordArray@@QEAA@XZ @ 378 NONAME
 ??0CDynLinkLibrary@@QEAA@AEAUAFX_EXTENSION_MODULE@@H@Z @ 379 NONAME
 ??0CDynLinkLibrary@@QEAA@PEAUHINSTANCE__@@0@Z @ 380 NONAME
 ??0CEditView@@QEAA@XZ @ 381 NONAME
 ??0CEnumArray@@QEAA@_KPEBXIH@Z @ 382 NONAME
 ??0CEnumConnections@@QEAA@PEBXI@Z @ 383 NONAME
 ??0CEnumConnPoints@@QEAA@PEBXI@Z @ 384 NONAME
 ??0CEnumFormatEtc@@QEAA@XZ @ 385 NONAME
 ??0CEvent@@QEAA@HHPEBDPEAU_SECURITY_ATTRIBUTES@@@Z @ 386 NONAME
 ??0CException@@QEAA@H@Z @ 387 NONAME
 ??0CException@@QEAA@XZ @ 388 NONAME
 ??0CFieldExchange@@QEAA@IPEAVCRecordset@@PEAX@Z @ 389 NONAME
 ??0CFile@@QEAA@PEAX@Z @ 390 NONAME
 ??0CFile@@QEAA@PEBDI@Z @ 391 NONAME
 ??0CFile@@QEAA@XZ @ 392 NONAME
 ??0CFileDialog@@QEAA@HPEBD0K0PEAVCWnd@@K@Z @ 393 NONAME
 ??0CFileFind@@QEAA@XZ @ 394 NONAME
 ??0CFindReplaceDialog@@QEAA@XZ @ 395 NONAME
 ??0CFixedAlloc@@QEAA@II@Z @ 396 NONAME
 ??0CFixedAllocNoSync@@QEAA@II@Z @ 397 NONAME
 ??0CFontDialog@@QEAA@AEBU_charformat@@KPEAVCDC@@PEAVCWnd@@@Z @ 398 NONAME
 ??0CFontDialog@@QEAA@PEAUtagLOGFONTA@@KPEAVCDC@@PEAVCWnd@@@Z @ 399 NONAME
 ??0CFontHolder@@QEAA@PEAUIPropertyNotifySink@@@Z @ 400 NONAME
 ??0CFormView@@IEAA@I@Z @ 401 NONAME
 ??0CFormView@@IEAA@PEBD@Z @ 402 NONAME
 ??0CFrameWnd@@QEAA@XZ @ 403 NONAME
 ??0CFtpConnection@@QEAA@PEAVCInternetSession@@PEAXPEBD_K@Z @ 404 NONAME
 ??0CFtpConnection@@QEAA@PEAVCInternetSession@@PEBD11_KGH@Z @ 405 NONAME
 ??0CFtpFileFind@@QEAA@PEAVCFtpConnection@@_K@Z @ 406 NONAME
 ??0CGopherConnection@@QEAA@PEAVCInternetSession@@PEAXPEBD_K@Z @ 407 NONAME
 ??0CGopherConnection@@QEAA@PEAVCInternetSession@@PEBD11_KG@Z @ 408 NONAME
 ??0CGopherFile@@IEAA@PEAX0PEBDK_K@Z @ 409 NONAME
 ??0CGopherFile@@IEAA@PEAXAEAVCGopherLocator@@PEAVCGopherConnection@@@Z @ 410 NONAME
 ??0CGopherFileFind@@QEAA@PEAVCGopherConnection@@_K@Z @ 411 NONAME
 ??0CGopherLocator@@AEAA@PEBDK@Z @ 412 NONAME
 ??0CHandleMap@@QEAA@PEAUCRuntimeClass@@P6AXPEAVCObject@@@Z2_KH@Z @ 413 NONAME
 ??0CHtmlControlSite@@QEAA@PEAVCOleControlContainer@@@Z @ 414 NONAME
 ??0CHtmlEditCtrl@@QEAA@XZ @ 415 NONAME
 ??0CHtmlEditDoc@@QEAA@XZ @ 416 NONAME
 ??0CHtmlEditView@@QEAA@XZ @ 417 NONAME
 ??0CHtmlView@@IEAA@XZ @ 418 NONAME
 ??0CHttpConnection@@QEAA@PEAVCInternetSession@@PEAXPEBD_K@Z @ 419 NONAME
 ??0CHttpConnection@@QEAA@PEAVCInternetSession@@PEBDG11_K@Z @ 420 NONAME
 ??0CHttpConnection@@QEAA@PEAVCInternetSession@@PEBDKG11_K@Z @ 421 NONAME
 ??0CHttpFile@@IEAA@PEAX0PEBD11_K@Z @ 422 NONAME
 ??0CHttpFile@@IEAA@PEAXPEBD1PEAVCHttpConnection@@@Z @ 423 NONAME
 ??0CImageList@@QEAA@XZ @ 424 NONAME
 ??0CInternetConnection@@QEAA@PEAVCInternetSession@@PEBDG_K@Z @ 425 NONAME
 ??0CInternetException@@QEAA@K@Z @ 426 NONAME
 ??0CInternetFile@@IEAA@PEAX0PEBD1_KH@Z @ 427 NONAME
 ??0CInternetFile@@IEAA@PEAXPEBDPEAVCInternetConnection@@H@Z @ 428 NONAME
 ??0CInternetSession@@QEAA@PEBD_KK00K@Z @ 429 NONAME
 ??0CLongBinary@@QEAA@XZ @ 430 NONAME
 ??0CMapPtrToPtr@@QEAA@_J@Z @ 431 NONAME
 ??0CMapPtrToWord@@QEAA@_J@Z @ 432 NONAME
 ??0CMapStringToOb@@QEAA@_J@Z @ 433 NONAME
 ??0CMapStringToPtr@@QEAA@_J@Z @ 434 NONAME
 ??0CMapStringToString@@QEAA@_J@Z @ 435 NONAME
 ??0CMapWordToOb@@QEAA@_J@Z @ 436 NONAME
 ??0CMapWordToPtr@@QEAA@_J@Z @ 437 NONAME
 ??0CMDIChildWnd@@QEAA@XZ @ 438 NONAME
 ??0CMDIFrameWnd@@QEAA@XZ @ 439 NONAME
 ??0CMemFile@@QEAA@I@Z @ 440 NONAME
 ??0CMemFile@@QEAA@PEAEII@Z @ 441 NONAME
 ??0CMetaFileDC@@QEAA@XZ @ 442 NONAME
 ??0CMiniDockFrameWnd@@QEAA@XZ @ 443 NONAME
 ??0CMiniFrameWnd@@QEAA@XZ @ 444 NONAME
 ??0CMultiDocTemplate@@QEAA@IPEAUCRuntimeClass@@00@Z @ 445 NONAME
 ??0CMultiLock@@QEAA@QEAPEAVCSyncObject@@KH@Z @ 446 NONAME
 ??0CMultiPageDHtmlDialog@@QEAA@IIPEAVCWnd@@@Z @ 447 NONAME
 ??0CMultiPageDHtmlDialog@@QEAA@PEBD0PEAVCWnd@@@Z @ 448 NONAME
 ??0CMultiPageDHtmlDialog@@QEAA@XZ @ 449 NONAME
 ??0CMutex@@QEAA@HPEBDPEAU_SECURITY_ATTRIBUTES@@@Z @ 450 NONAME
 ??0CObArray@@QEAA@XZ @ 451 NONAME
 ??0CObList@@QEAA@_J@Z @ 452 NONAME
 ??0COleBusyDialog@@QEAA@PEAUHTASK__@@HKPEAVCWnd@@@Z @ 453 NONAME
 ??0COleChangeIconDialog@@QEAA@PEAVCOleClientItem@@KPEAVCWnd@@@Z @ 454 NONAME
 ??0COleChangeSourceDialog@@QEAA@PEAVCOleClientItem@@PEAVCWnd@@@Z @ 455 NONAME
 ??0COleClientItem@@QEAA@PEAVCOleDocument@@@Z @ 456 NONAME
 ??0COleCmdUI@@QEAA@PEAU_tagOLECMD@@KPEBU_GUID@@@Z @ 457 NONAME
 ??0COleCntrFrameWnd@@QEAA@PEAVCOleIPFrameWnd@@@Z @ 458 NONAME
 ??0COleControl@@QEAA@XZ @ 459 NONAME
 ??0COleControlContainer@@QEAA@PEAVCWnd@@@Z @ 460 NONAME
 ??0COleControlLock@@QEAA@AEBU_GUID@@@Z @ 461 NONAME
 ??0COleControlSite@@QEAA@PEAVCOleControlContainer@@@Z @ 462 NONAME
 ??0COleControlSiteOrWnd@@QEAA@PEAUHWND__@@H@Z @ 463 NONAME
 ??0COleControlSiteOrWnd@@QEAA@PEAVCOleControlSite@@@Z @ 464 NONAME
 ??0COleControlSiteOrWnd@@QEAA@XZ @ 465 NONAME
 ??0COleConvertDialog@@QEAA@PEAVCOleClientItem@@KPEAU_GUID@@PEAVCWnd@@@Z @ 466 NONAME
 ??0COleCurrency@@QEAA@JJ@Z @ 467 NONAME
 ??0COleDataObject@@QEAA@XZ @ 468 NONAME
 ??0COleDataSource@@QEAA@XZ @ 469 NONAME
 ??0COleDialog@@QEAA@PEAVCWnd@@@Z @ 470 NONAME
 ??0COleDispatchDriver@@QEAA@AEBV0@@Z @ 471 NONAME
 ??0COleDispatchDriver@@QEAA@PEAUIDispatch@@H@Z @ 472 NONAME
 ??0COleDispatchDriver@@QEAA@XZ @ 473 NONAME
 ??0COleDispatchException@@QEAA@PEBDIG@Z @ 474 NONAME
 ??0COleDocIPFrameWnd@@QEAA@XZ @ 475 NONAME
 ??0COleDocObjectItem@@QEAA@PEAVCOleDocument@@@Z @ 476 NONAME
 ??0COleDocument@@QEAA@XZ @ 477 NONAME
 ??0COleDropSource@@QEAA@XZ @ 478 NONAME
 ??0COleDropTarget@@QEAA@XZ @ 479 NONAME
 ??0COleFrameHook@@QEAA@PEAVCFrameWnd@@PEAVCOleClientItem@@@Z @ 480 NONAME
 ??0COleInsertDialog@@QEAA@KPEAVCWnd@@@Z @ 481 NONAME
 ??0COleIPFrameWnd@@QEAA@XZ @ 482 NONAME
 ??0COleLinkingDoc@@QEAA@XZ @ 483 NONAME
 ??0COleLinksDialog@@QEAA@PEAVCOleDocument@@PEAVCView@@KPEAVCWnd@@@Z @ 484 NONAME
 ??0COleMessageFilter@@QEAA@XZ @ 485 NONAME
 ??0COleObjectFactory@@QEAA@AEBU_GUID@@PEAUCRuntimeClass@@HHPEBD@Z @ 486 NONAME
 ??0COleObjectFactory@@QEAA@AEBU_GUID@@PEAUCRuntimeClass@@HPEBD@Z @ 487 NONAME
 ??0COlePasteSpecialDialog@@QEAA@KPEAVCOleDataObject@@PEAVCWnd@@@Z @ 488 NONAME
 ??0COlePropertiesDialog@@QEAA@PEAVCOleClientItem@@IIPEAVCWnd@@@Z @ 489 NONAME
 ??0COlePropertyPage@@QEAA@II@Z @ 490 NONAME
 ??0COleResizeBar@@QEAA@XZ @ 491 NONAME
 ??0COleSafeArray@@QEAA@AEBUtagSAFEARRAY@@G@Z @ 492 NONAME
 ??0COleSafeArray@@QEAA@AEBUtagVARIANT@@@Z @ 493 NONAME
 ??0COleSafeArray@@QEAA@AEBV0@@Z @ 494 NONAME
 ??0COleSafeArray@@QEAA@AEBVCOleVariant@@@Z @ 495 NONAME
 ??0COleSafeArray@@QEAA@PEBUtagSAFEARRAY@@G@Z @ 496 NONAME
 ??0COleSafeArray@@QEAA@PEBUtagVARIANT@@@Z @ 497 NONAME
 ??0COleServerDoc@@QEAA@XZ @ 498 NONAME
 ??0COleServerItem@@IEAA@PEAVCOleServerDoc@@H@Z @ 499 NONAME
 ??0COleStreamFile@@QEAA@PEAUIStream@@@Z @ 500 NONAME
 ??0COleTemplateServer@@QEAA@XZ @ 501 NONAME
 ??0COleUILinkInfo@@QEAA@PEAVCOleDocument@@@Z @ 502 NONAME
 ??0COleUpdateDialog@@QEAA@PEAVCOleDocument@@HHPEAVCWnd@@@Z @ 503 NONAME
 ??0COleVariant@@QEAA@AEBUtagVARIANT@@@Z @ 504 NONAME
 ??0COleVariant@@QEAA@AEBV0@@Z @ 505 NONAME
 ??0COleVariant@@QEAA@FG@Z @ 506 NONAME
 ??0COleVariant@@QEAA@JG@Z @ 507 NONAME
 ??0COleVariant@@QEAA@PEBDG@Z @ 508 NONAME
 ??0COleVariant@@QEAA@PEBUtagVARIANT@@@Z @ 509 NONAME
 ??0COleVariant@@QEAA@PEFBU_ITEMIDLIST@@@Z @ 510 NONAME
 ??0CPageSetupDialog@@QEAA@KPEAVCWnd@@@Z @ 511 NONAME
 ??0CPaintDC@@QEAA@PEAVCWnd@@@Z @ 512 NONAME
 ??0CPen@@QEAA@HHK@Z @ 513 NONAME
 ??0CPen@@QEAA@HHPEBUtagLOGBRUSH@@HPEBK@Z @ 514 NONAME
 ??0CPictureHolder@@QEAA@XZ @ 515 NONAME
 ??0CPreviewDC@@QEAA@XZ @ 516 NONAME
 ??0CPreviewView@@QEAA@XZ @ 517 NONAME
 ??0CPrintDialog@@IEAA@AEAUtagPDA@@@Z @ 518 NONAME
 ??0CPrintDialog@@QEAA@HKPEAVCWnd@@@Z @ 519 NONAME
 ??0CPrintDialogEx@@QEAA@KPEAVCWnd@@@Z @ 520 NONAME
 ??0CPrintInfo@@QEAA@XZ @ 521 NONAME
 ??0CPrintPreviewState@@QEAA@XZ @ 522 NONAME
 ??0CPropbagPropExchange@@QEAA@PEAUIPropertyBag@@PEAUIErrorLog@@HH@Z @ 523 NONAME
 ??0CProperty@@QEAA@KQEAXK@Z @ 524 NONAME
 ??0CProperty@@QEAA@XZ @ 525 NONAME
 ??0CPropertyPage@@QEAA@IIIIK@Z @ 526 NONAME
 ??0CPropertyPage@@QEAA@IIK@Z @ 527 NONAME
 ??0CPropertyPage@@QEAA@PEBDIIIK@Z @ 528 NONAME
 ??0CPropertyPage@@QEAA@PEBDIK@Z @ 529 NONAME
 ??0CPropertyPage@@QEAA@XZ @ 530 NONAME
 ??0CPropertySection@@QEAA@U_GUID@@@Z @ 531 NONAME
 ??0CPropertySection@@QEAA@XZ @ 532 NONAME
 ??0CPropertySet@@QEAA@U_GUID@@@Z @ 533 NONAME
 ??0CPropertySet@@QEAA@XZ @ 534 NONAME
 ??0CPropertySheet@@QEAA@IPEAVCWnd@@I@Z @ 535 NONAME
 ??0CPropertySheet@@QEAA@IPEAVCWnd@@IPEAUHBITMAP__@@PEAUHPALETTE__@@1@Z @ 536 NONAME
 ??0CPropertySheet@@QEAA@PEBDPEAVCWnd@@I@Z @ 537 NONAME
 ??0CPropertySheet@@QEAA@PEBDPEAVCWnd@@IPEAUHBITMAP__@@PEAUHPALETTE__@@2@Z @ 538 NONAME
 ??0CPropertySheet@@QEAA@XZ @ 539 NONAME
 ??0CPropsetPropExchange@@QEAA@AEAVCPropertySection@@PEAUIStorage@@H@Z @ 540 NONAME
 ??0CPtrArray@@QEAA@XZ @ 541 NONAME
 ??0CPtrList@@QEAA@_J@Z @ 542 NONAME
 ??0CReBar@@QEAA@XZ @ 543 NONAME
 ??0CRecentFileList@@QEAA@IPEBD0HH@Z @ 544 NONAME
 ??0CRecordset@@QEAA@PEAVCDatabase@@@Z @ 545 NONAME
 ??0CRecordView@@IEAA@I@Z @ 546 NONAME
 ??0CRecordView@@IEAA@PEBD@Z @ 547 NONAME
 ??0CRectTracker@@QEAA@PEBUtagRECT@@I@Z @ 548 NONAME
 ??0CReObject@@QEAA@PEAVCRichEditCntrItem@@@Z @ 549 NONAME
 ??0CReObject@@QEAA@XZ @ 550 NONAME
 ??0CResetPropExchange@@QEAA@XZ @ 551 NONAME
 ??0CRichEditCntrItem@@QEAA@PEAU_reobject@@PEAVCRichEditDoc@@@Z @ 552 NONAME
 ??0CRichEditDoc@@IEAA@XZ @ 553 NONAME
 ??0CRichEditView@@QEAA@XZ @ 554 NONAME
 ??0CScrollView@@IEAA@XZ @ 555 NONAME
 ??0CSemaphore@@QEAA@JJPEBDPEAU_SECURITY_ATTRIBUTES@@@Z @ 556 NONAME
 ??0CSharedFile@@QEAA@II@Z @ 557 NONAME
 ??0CSingleDocTemplate@@QEAA@IPEAUCRuntimeClass@@00@Z @ 558 NONAME
 ??0CSingleLock@@QEAA@PEAVCSyncObject@@H@Z @ 559 NONAME
 ??0CSocket@@QEAA@XZ @ 560 NONAME
 ??0CSocketFile@@QEAA@PEAVCSocket@@H@Z @ 561 NONAME
 ??0CSocketWnd@@QEAA@XZ @ 562 NONAME
 ??0CSplitterWnd@@QEAA@XZ @ 563 NONAME
 ??0CStatusBar@@QEAA@XZ @ 564 NONAME
 ??0CStdioFile@@QEAA@PEAU_iobuf@@@Z @ 565 NONAME
 ??0CStdioFile@@QEAA@PEBDI@Z @ 566 NONAME
 ??0CStdioFile@@QEAA@XZ @ 567 NONAME
 ??0CStringArray@@QEAA@XZ @ 568 NONAME
 ??0CStringList@@QEAA@_J@Z @ 569 NONAME
 ??0CSyncObject@@QEAA@PEBD@Z @ 570 NONAME
 ??0CTestCmdUI@@QEAA@XZ @ 571 NONAME
 ??0CThreadSlotData@@QEAA@XZ @ 572 NONAME
 ??0CToolBar@@QEAA@XZ @ 573 NONAME
 ??0CToolTipCtrl@@QEAA@XZ @ 574 NONAME
 ??0CUIntArray@@QEAA@XZ @ 575 NONAME
 ??0CView@@IEAA@XZ @ 576 NONAME
 ??0CWinApp@@QEAA@PEBD@Z @ 577 NONAME
 ??0CWindowDC@@QEAA@PEAVCWnd@@@Z @ 578 NONAME
 ??0CWindowlessDC@@QEAA@PEAUHDC__@@AEAVCPoint@@@Z @ 579 NONAME
 ??0CWinThread@@QEAA@P6AIPEAX@Z0@Z @ 580 NONAME
 ??0CWinThread@@QEAA@XZ @ 581 NONAME
 ??0CWnd@@AEAA@PEAUHWND__@@@Z @ 582 NONAME
 ??0CWnd@@QEAA@XZ @ 583 NONAME
 ??0CWordArray@@QEAA@XZ @ 584 NONAME
 ??0PAGE_INFO@CPreviewView@@QEAA@XZ @ 585 NONAME
 ??1?$CSimpleStringT@_W$00@ATL@@QEAA@XZ @ 586 NONAME
 ??1?$CSimpleStringT@D$00@ATL@@QEAA@XZ @ 587 NONAME
 ??1?$CStringT@_WV?$StrTraitMFC_DLL@_WV?$ChTraitsCRT@_W@ATL@@@@@ATL@@QEAA@XZ @ 588 NONAME
 ??1?$CStringT@DV?$StrTraitMFC_DLL@DV?$ChTraitsCRT@D@ATL@@@@@ATL@@QEAA@XZ @ 589 NONAME
 ??1_AFX_THREAD_STATE@@UEAA@XZ @ 590 NONAME
 ??1AFX_MAINTAIN_STATE@@QEAA@XZ @ 591 NONAME
 ??1AFX_MODULE_STATE@@UEAA@XZ @ 592 NONAME
 ??1AFX_MODULE_THREAD_STATE@@UEAA@XZ @ 593 NONAME
 ??1CAnimateCtrl@@UEAA@XZ @ 594 NONAME
 ??1CArchive@@QEAA@XZ @ 595 NONAME
 ??1CAsyncMonikerFile@@UEAA@XZ @ 596 NONAME
 ??1CAsyncSocket@@UEAA@XZ @ 597 NONAME
 ??1CButton@@UEAA@XZ @ 598 NONAME
 ??1CByteArray@@UEAA@XZ @ 599 NONAME
 ??1CClientDC@@UEAA@XZ @ 600 NONAME
 ??1CCmdTarget@@UEAA@XZ @ 601 NONAME
 ??1CComboBox@@UEAA@XZ @ 602 NONAME
 ??1CComboBoxEx@@UEAA@XZ @ 603 NONAME
 ??1CCommandLineInfo@@UEAA@XZ @ 604 NONAME
 ??1CConnectionPoint@@UEAA@XZ @ 605 NONAME
 ??1CControlBar@@UEAA@XZ @ 606 NONAME
 ??1CControlSiteFactoryMgr@@UEAA@XZ @ 607 NONAME
 ??1CCtrlView@@UEAA@XZ @ 608 NONAME
 ??1CDatabase@@UEAA@XZ @ 609 NONAME
 ??1CDataSourceControl@@QEAA@XZ @ 610 NONAME
 ??1CDateTimeCtrl@@UEAA@XZ @ 611 NONAME
 ??1CDBException@@UEAA@XZ @ 612 NONAME
 ??1CDBVariant@@UEAA@XZ @ 613 NONAME
 ??1CDC@@UEAA@XZ @ 614 NONAME
 ??1CDHtmlControlSink@@QEAA@XZ @ 615 NONAME
 ??1CDHtmlDialog@@UEAA@XZ @ 616 NONAME
 ??1CDialog@@UEAA@XZ @ 617 NONAME
 ??1CDialogBar@@UEAA@XZ @ 618 NONAME
 ??1CDialogTemplate@@QEAA@XZ @ 619 NONAME
 ??1CDocItem@@UEAA@XZ @ 620 NONAME
 ??1CDockBar@@UEAA@XZ @ 621 NONAME
 ??1CDockContext@@QEAA@XZ @ 622 NONAME
 ??1CDockState@@UEAA@XZ @ 623 NONAME
 ??1CDocManager@@UEAA@XZ @ 624 NONAME
 ??1CDocObjectServer@@UEAA@XZ @ 625 NONAME
 ??1CDocObjectServerItem@@UEAA@XZ @ 626 NONAME
 ??1CDocTemplate@@UEAA@XZ @ 627 NONAME
 ??1CDocument@@UEAA@XZ @ 628 NONAME
 ??1CDragListBox@@UEAA@XZ @ 629 NONAME
 ??1CDWordArray@@UEAA@XZ @ 630 NONAME
 ??1CDynLinkLibrary@@UEAA@XZ @ 631 NONAME
 ??1CEdit@@UEAA@XZ @ 632 NONAME
 ??1CEditView@@UEAA@XZ @ 633 NONAME
 ??1CEnumArray@@UEAA@XZ @ 634 NONAME
 ??1CEnumConnections@@UEAA@XZ @ 635 NONAME
 ??1CEnumConnPoints@@UEAA@XZ @ 636 NONAME
 ??1CEnumFormatEtc@@UEAA@XZ @ 637 NONAME
 ??1CEnumOleVerb@@UEAA@XZ @ 638 NONAME
 ??1CEnumUnknown@@UEAA@XZ @ 639 NONAME
 ??1CEvent@@UEAA@XZ @ 640 NONAME
 ??1CFile@@UEAA@XZ @ 641 NONAME
 ??1CFileDialog@@UEAA@XZ @ 642 NONAME
 ??1CFileFind@@UEAA@XZ @ 643 NONAME
 ??1CFixedAlloc@@QEAA@XZ @ 644 NONAME
 ??1CFixedAllocNoSync@@QEAA@XZ @ 645 NONAME
 ??1CFontHolder@@QEAA@XZ @ 646 NONAME
 ??1CFrameWnd@@UEAA@XZ @ 647 NONAME
 ??1CFtpConnection@@UEAA@XZ @ 648 NONAME
 ??1CFtpFileFind@@UEAA@XZ @ 649 NONAME
 ??1CGopherConnection@@UEAA@XZ @ 650 NONAME
 ??1CGopherFile@@UEAA@XZ @ 651 NONAME
 ??1CGopherFileFind@@UEAA@XZ @ 652 NONAME
 ??1CGopherLocator@@UEAA@XZ @ 653 NONAME
 ??1CHeaderCtrl@@UEAA@XZ @ 654 NONAME
 ??1CHotKeyCtrl@@UEAA@XZ @ 655 NONAME
 ??1CHtmlControlSite@@UEAA@XZ @ 656 NONAME
 ??1CHtmlEditCtrl@@MEAA@XZ @ 657 NONAME
 ??1CHtmlEditDoc@@UEAA@XZ @ 658 NONAME
 ??1CHtmlEditView@@UEAA@XZ @ 659 NONAME
 ??1CHtmlView@@UEAA@XZ @ 660 NONAME
 ??1CHttpConnection@@UEAA@XZ @ 661 NONAME
 ??1CHttpFile@@UEAA@XZ @ 662 NONAME
 ??1CImageList@@UEAA@XZ @ 663 NONAME
 ??1CInternetConnection@@UEAA@XZ @ 664 NONAME
 ??1CInternetException@@UEAA@XZ @ 665 NONAME
 ??1CInternetFile@@UEAA@XZ @ 666 NONAME
 ??1CInternetSession@@UEAA@XZ @ 667 NONAME
 ??1CIPAddressCtrl@@UEAA@XZ @ 668 NONAME
 ??1CListBox@@UEAA@XZ @ 669 NONAME
 ??1CListCtrl@@UEAA@XZ @ 670 NONAME
 ??1CLongBinary@@UEAA@XZ @ 671 NONAME
 ??1CMapPtrToPtr@@UEAA@XZ @ 672 NONAME
 ??1CMapPtrToWord@@UEAA@XZ @ 673 NONAME
 ??1CMapStringToOb@@UEAA@XZ @ 674 NONAME
 ??1CMapStringToPtr@@UEAA@XZ @ 675 NONAME
 ??1CMapStringToString@@UEAA@XZ @ 676 NONAME
 ??1CMapWordToOb@@UEAA@XZ @ 677 NONAME
 ??1CMapWordToPtr@@UEAA@XZ @ 678 NONAME
 ??1CMemFile@@UEAA@XZ @ 679 NONAME
 ??1CMetaFileDC@@UEAA@XZ @ 680 NONAME
 ??1CMiniFrameWnd@@UEAA@XZ @ 681 NONAME
 ??1CMonikerFile@@UEAA@XZ @ 682 NONAME
 ??1CMonthCalCtrl@@UEAA@XZ @ 683 NONAME
 ??1CMultiDocTemplate@@UEAA@XZ @ 684 NONAME
 ??1CMultiLock@@QEAA@XZ @ 685 NONAME
 ??1CMultiPageDHtmlDialog@@UEAA@XZ @ 686 NONAME
 ??1CMutex@@UEAA@XZ @ 687 NONAME
 ??1CObArray@@UEAA@XZ @ 688 NONAME
 ??1CObList@@UEAA@XZ @ 689 NONAME
 ??1COleBusyDialog@@UEAA@XZ @ 690 NONAME
 ??1COleChangeIconDialog@@UEAA@XZ @ 691 NONAME
 ??1COleChangeSourceDialog@@UEAA@XZ @ 692 NONAME
 ??1COleClientItem@@UEAA@XZ @ 693 NONAME
 ??1COleCntrFrameWnd@@UEAA@XZ @ 694 NONAME
 ??1COleControl@@UEAA@XZ @ 695 NONAME
 ??1COleControlContainer@@UEAA@XZ @ 696 NONAME
 ??1COleControlLock@@UEAA@XZ @ 697 NONAME
 ??1COleControlSite@@UEAA@XZ @ 698 NONAME
 ??1COleControlSiteOrWnd@@QEAA@XZ @ 699 NONAME
 ??1COleConvertDialog@@UEAA@XZ @ 700 NONAME
 ??1COleDataSource@@UEAA@XZ @ 701 NONAME
 ??1COleDispatchException@@UEAA@XZ @ 702 NONAME
 ??1COleDocIPFrameWnd@@UEAA@XZ @ 703 NONAME
 ??1COleDocObjectItem@@UEAA@XZ @ 704 NONAME
 ??1COleDocument@@UEAA@XZ @ 705 NONAME
 ??1COleDropTarget@@UEAA@XZ @ 706 NONAME
 ??1COleFrameHook@@UEAA@XZ @ 707 NONAME
 ??1COleInsertDialog@@UEAA@XZ @ 708 NONAME
 ??1COleIPFrameWnd@@UEAA@XZ @ 709 NONAME
 ??1COleLinkingDoc@@UEAA@XZ @ 710 NONAME
 ??1COleLinksDialog@@UEAA@XZ @ 711 NONAME
 ??1COleMessageFilter@@UEAA@XZ @ 712 NONAME
 ??1COleObjectFactory@@UEAA@XZ @ 713 NONAME
 ??1COlePasteSpecialDialog@@UEAA@XZ @ 714 NONAME
 ??1COlePropertyPage@@UEAA@XZ @ 715 NONAME
 ??1COleResizeBar@@UEAA@XZ @ 716 NONAME
 ??1COleServerDoc@@UEAA@XZ @ 717 NONAME
 ??1COleServerItem@@UEAA@XZ @ 718 NONAME
 ??1COleStreamFile@@UEAA@XZ @ 719 NONAME
 ??1COleUpdateDialog@@UEAA@XZ @ 720 NONAME
 ??1CPaintDC@@UEAA@XZ @ 721 NONAME
 ??1CPictureHolder@@QEAA@XZ @ 722 NONAME
 ??1CPreviewDC@@UEAA@XZ @ 723 NONAME
 ??1CPreviewView@@UEAA@XZ @ 724 NONAME
 ??1CPrintInfo@@QEAA@XZ @ 725 NONAME
 ??1CProcessLocalObject@@QEAA@XZ @ 726 NONAME
 ??1CProgressCtrl@@UEAA@XZ @ 727 NONAME
 ??1CPropbagPropExchange@@UEAA@XZ @ 728 NONAME
 ??1CProperty@@QEAA@XZ @ 729 NONAME
 ??1CPropertyPage@@UEAA@XZ @ 730 NONAME
 ??1CPropertySection@@QEAA@XZ @ 731 NONAME
 ??1CPropertySet@@QEAA@XZ @ 732 NONAME
 ??1CPropertySheet@@UEAA@XZ @ 733 NONAME
 ??1CPtrArray@@UEAA@XZ @ 734 NONAME
 ??1CPtrList@@UEAA@XZ @ 735 NONAME
 ??1CRecentFileList@@UEAA@XZ @ 736 NONAME
 ??1CRecordset@@UEAA@XZ @ 737 NONAME
 ??1CRecordView@@UEAA@XZ @ 738 NONAME
 ??1CRectTracker@@UEAA@XZ @ 739 NONAME
 ??1CReObject@@QEAA@XZ @ 740 NONAME
 ??1CRichEditCntrItem@@UEAA@XZ @ 741 NONAME
 ??1CRichEditCtrl@@UEAA@XZ @ 742 NONAME
 ??1CScrollBar@@UEAA@XZ @ 743 NONAME
 ??1CScrollView@@UEAA@XZ @ 744 NONAME
 ??1CSemaphore@@UEAA@XZ @ 745 NONAME
 ??1CSharedFile@@UEAA@XZ @ 746 NONAME
 ??1CSingleDocTemplate@@UEAA@XZ @ 747 NONAME
 ??1CSliderCtrl@@UEAA@XZ @ 748 NONAME
 ??1CSocket@@UEAA@XZ @ 749 NONAME
 ??1CSocketFile@@UEAA@XZ @ 750 NONAME
 ??1CSpinButtonCtrl@@UEAA@XZ @ 751 NONAME
 ??1CSplitterWnd@@UEAA@XZ @ 752 NONAME
 ??1CStatic@@UEAA@XZ @ 753 NONAME
 ??1CStatusBar@@UEAA@XZ @ 754 NONAME
 ??1CStatusBarCtrl@@UEAA@XZ @ 755 NONAME
 ??1CStdioFile@@UEAA@XZ @ 756 NONAME
 ??1CStringArray@@UEAA@XZ @ 757 NONAME
 ??1CStringList@@UEAA@XZ @ 758 NONAME
 ??1CSyncObject@@UEAA@XZ @ 759 NONAME
 ??1CTabCtrl@@UEAA@XZ @ 760 NONAME
 ??1CThreadLocalObject@@QEAA@XZ @ 761 NONAME
 ??1CThreadSlotData@@QEAA@XZ @ 762 NONAME
 ??1CToolBar@@UEAA@XZ @ 763 NONAME
 ??1CToolBarCtrl@@UEAA@XZ @ 764 NONAME
 ??1CToolTipCtrl@@UEAA@XZ @ 765 NONAME
 ??1CTreeCtrl@@UEAA@XZ @ 766 NONAME
 ??1CUIntArray@@UEAA@XZ @ 767 NONAME
 ??1CView@@UEAA@XZ @ 768 NONAME
 ??1CWinApp@@UEAA@XZ @ 769 NONAME
 ??1CWindowDC@@UEAA@XZ @ 770 NONAME
 ??1CWinThread@@UEAA@XZ @ 771 NONAME
 ??1CWnd@@UEAA@XZ @ 772 NONAME
 ??1CWordArray@@UEAA@XZ @ 773 NONAME
 ??2@YAPEAX_K@Z @ 774 NONAME
 ??2CNoTrackObject@@SAPEAX_K@Z @ 775 NONAME
 ??3@YAXPEAX@Z @ 776 NONAME
 ??3CNoTrackObject@@SAXPEAX@Z @ 777 NONAME
 ??4?$CSimpleStringT@_W$00@ATL@@QEAAAEAV01@AEBV?$CSimpleStringT@_W$0A@@1@@Z @ 778 NONAME
 ??4?$CSimpleStringT@_W$00@ATL@@QEAAAEAV01@AEBV01@@Z @ 779 NONAME
 ??4?$CSimpleStringT@_W$00@ATL@@QEAAAEAV01@PEB_W@Z @ 780 NONAME
 ??4?$CSimpleStringT@D$00@ATL@@QEAAAEAV01@AEBV?$CSimpleStringT@D$0A@@1@@Z @ 781 NONAME
 ??4?$CSimpleStringT@D$00@ATL@@QEAAAEAV01@AEBV01@@Z @ 782 NONAME
 ??4?$CSimpleStringT@D$00@ATL@@QEAAAEAV01@PEBD@Z @ 783 NONAME
 ??4?$CStringT@_WV?$StrTraitMFC_DLL@_WV?$ChTraitsCRT@_W@ATL@@@@@ATL@@QEAAAEAV01@_W@Z @ 784 NONAME
 ??4?$CStringT@_WV?$StrTraitMFC_DLL@_WV?$ChTraitsCRT@_W@ATL@@@@@ATL@@QEAAAEAV01@AEBUtagVARIANT@@@Z @ 785 NONAME
 ??4?$CStringT@_WV?$StrTraitMFC_DLL@_WV?$ChTraitsCRT@_W@ATL@@@@@ATL@@QEAAAEAV01@AEBV01@@Z @ 786 NONAME
 ??4?$CStringT@_WV?$StrTraitMFC_DLL@_WV?$ChTraitsCRT@_W@ATL@@@@@ATL@@QEAAAEAV01@D@Z @ 787 NONAME
 ??4?$CStringT@_WV?$StrTraitMFC_DLL@_WV?$ChTraitsCRT@_W@ATL@@@@@ATL@@QEAAAEAV01@PEB_W@Z @ 788 NONAME
 ??4?$CStringT@_WV?$StrTraitMFC_DLL@_WV?$ChTraitsCRT@_W@ATL@@@@@ATL@@QEAAAEAV01@PEBD@Z @ 789 NONAME
 ??4?$CStringT@_WV?$StrTraitMFC_DLL@_WV?$ChTraitsCRT@_W@ATL@@@@@ATL@@QEAAAEAV01@PEBE@Z @ 790 NONAME
 ??4?$CStringT@DV?$StrTraitMFC_DLL@DV?$ChTraitsCRT@D@ATL@@@@@ATL@@QEAAAEAV01@_W@Z @ 791 NONAME
 ??4?$CStringT@DV?$StrTraitMFC_DLL@DV?$ChTraitsCRT@D@ATL@@@@@ATL@@QEAAAEAV01@AEBUtagVARIANT@@@Z @ 792 NONAME
 ??4?$CStringT@DV?$StrTraitMFC_DLL@DV?$ChTraitsCRT@D@ATL@@@@@ATL@@QEAAAEAV01@AEBV01@@Z @ 793 NONAME
 ??4?$CStringT@DV?$StrTraitMFC_DLL@DV?$ChTraitsCRT@D@ATL@@@@@ATL@@QEAAAEAV01@D@Z @ 794 NONAME
 ??4?$CStringT@DV?$StrTraitMFC_DLL@DV?$ChTraitsCRT@D@ATL@@@@@ATL@@QEAAAEAV01@PEB_W@Z @ 795 NONAME
 ??4?$CStringT@DV?$StrTraitMFC_DLL@DV?$ChTraitsCRT@D@ATL@@@@@ATL@@QEAAAEAV01@PEBD@Z @ 796 NONAME
 ??4?$CStringT@DV?$StrTraitMFC_DLL@DV?$ChTraitsCRT@D@ATL@@@@@ATL@@QEAAAEAV01@PEBE@Z @ 797 NONAME
 ??4COleCurrency@@QEAAAEBV0@AEBUtagVARIANT@@@Z @ 798 NONAME
 ??4COleCurrency@@QEAAAEBV0@AEBV0@@Z @ 799 NONAME
 ??4COleCurrency@@QEAAAEBV0@TtagCY@@@Z @ 800 NONAME
 ??4COleDispatchDriver@@QEAAAEBV0@AEBV0@@Z @ 801 NONAME
 ??4COleSafeArray@@QEAAAEAV0@AEBUtagVARIANT@@@Z @ 802 NONAME
 ??4COleSafeArray@@QEAAAEAV0@AEBV0@@Z @ 803 NONAME
 ??4COleSafeArray@@QEAAAEAV0@AEBVCOleVariant@@@Z @ 804 NONAME
 ??4COleSafeArray@@QEAAAEAV0@PEBUtagVARIANT@@@Z @ 805 NONAME
 ??4COleVariant@@QEAAAEBV0@_J@Z @ 806 NONAME
 ??4COleVariant@@QEAAAEBV0@_K@Z @ 807 NONAME
 ??4COleVariant@@QEAAAEBV0@AEBUtagVARIANT@@@Z @ 808 NONAME
 ??4COleVariant@@QEAAAEBV0@AEBV?$CStringT@DV?$StrTraitMFC_DLL@DV?$ChTraitsCRT@D@ATL@@@@@ATL@@@Z @ 809 NONAME
 ??4COleVariant@@QEAAAEBV0@AEBV0@@Z @ 810 NONAME
 ??4COleVariant@@QEAAAEBV0@AEBVCByteArray@@@Z @ 811 NONAME
 ??4COleVariant@@QEAAAEBV0@AEBVCLongBinary@@@Z @ 812 NONAME
 ??4COleVariant@@QEAAAEBV0@AEBVCOleCurrency@@@Z @ 813 NONAME
 ??4COleVariant@@QEAAAEBV0@AEBVCOleDateTime@ATL@@@Z @ 814 NONAME
 ??4COleVariant@@QEAAAEBV0@E@Z @ 815 NONAME
 ??4COleVariant@@QEAAAEBV0@F@Z @ 816 NONAME
 ??4COleVariant@@QEAAAEBV0@J@Z @ 817 NONAME
 ??4COleVariant@@QEAAAEBV0@M@Z @ 818 NONAME
 ??4COleVariant@@QEAAAEBV0@N@Z @ 819 NONAME
 ??4COleVariant@@QEAAAEBV0@PEBUtagVARIANT@@@Z @ 820 NONAME
 ??4COleVariant@@QEAAAEBV0@QEBD@Z @ 821 NONAME
 ??5@YAAEAVCArchive@@AEAV0@AEAPEAVCByteArray@@@Z @ 822 NONAME
 ??5@YAAEAVCArchive@@AEAV0@AEAPEAVCDocItem@@@Z @ 823 NONAME
 ??5@YAAEAVCArchive@@AEAV0@AEAPEAVCDockState@@@Z @ 824 NONAME
 ??5@YAAEAVCArchive@@AEAV0@AEAPEAVCDWordArray@@@Z @ 825 NONAME
 ??5@YAAEAVCArchive@@AEAV0@AEAPEAVCMapStringToOb@@@Z @ 826 NONAME
 ??5@YAAEAVCArchive@@AEAV0@AEAPEAVCMapStringToString@@@Z @ 827 NONAME
 ??5@YAAEAVCArchive@@AEAV0@AEAPEAVCMapWordToOb@@@Z @ 828 NONAME
 ??5@YAAEAVCArchive@@AEAV0@AEAPEAVCObArray@@@Z @ 829 NONAME
 ??5@YAAEAVCArchive@@AEAV0@AEAPEAVCObList@@@Z @ 830 NONAME
 ??5@YAAEAVCArchive@@AEAV0@AEAPEAVCRichEditCntrItem@@@Z @ 831 NONAME
 ??5@YAAEAVCArchive@@AEAV0@AEAPEAVCStringArray@@@Z @ 832 NONAME
 ??5@YAAEAVCArchive@@AEAV0@AEAPEAVCStringList@@@Z @ 833 NONAME
 ??5@YAAEAVCArchive@@AEAV0@AEAPEAVCWordArray@@@Z @ 834 NONAME
 ??5@YAAEAVCArchive@@AEAV0@AEAVCComBSTR@ATL@@@Z @ 835 NONAME
 ??5@YAAEAVCArchive@@AEAV0@AEAVCOleCurrency@@@Z @ 836 NONAME
 ??5@YAAEAVCArchive@@AEAV0@AEAVCOleDateTime@ATL@@@Z @ 837 NONAME
 ??5@YAAEAVCArchive@@AEAV0@AEAVCOleDateTimeSpan@ATL@@@Z @ 838 NONAME
 ??5@YAAEAVCArchive@@AEAV0@AEAVCOleVariant@@@Z @ 839 NONAME
 ??5@YAAEAVCArchive@@AEAV0@AEAVCTime@ATL@@@Z @ 840 NONAME
 ??5@YAAEAVCArchive@@AEAV0@AEAVCTimeSpan@ATL@@@Z @ 841 NONAME
 ??6@YAAEAVCArchive@@AEAV0@VCComBSTR@ATL@@@Z @ 842 NONAME
 ??6@YAAEAVCArchive@@AEAV0@VCOleCurrency@@@Z @ 843 NONAME
 ??6@YAAEAVCArchive@@AEAV0@VCOleDateTime@ATL@@@Z @ 844 NONAME
 ??6@YAAEAVCArchive@@AEAV0@VCOleDateTimeSpan@ATL@@@Z @ 845 NONAME
 ??6@YAAEAVCArchive@@AEAV0@VCOleVariant@@@Z @ 846 NONAME
 ??6@YAAEAVCArchive@@AEAV0@VCTime@ATL@@@Z @ 847 NONAME
 ??6@YAAEAVCArchive@@AEAV0@VCTimeSpan@ATL@@@Z @ 848 NONAME
 ??6CDumpContext@@QEAAAEAV0@_J@Z @ 849 NONAME
 ??6CDumpContext@@QEAAAEAV0@_K@Z @ 850 NONAME
 ??6CDumpContext@@QEAAAEAV0@AEBVCObject@@@Z @ 851 NONAME
 ??6CDumpContext@@QEAAAEAV0@E@Z @ 852 NONAME
 ??6CDumpContext@@QEAAAEAV0@G@Z @ 853 NONAME
 ??6CDumpContext@@QEAAAEAV0@H@Z @ 854 NONAME
 ??6CDumpContext@@QEAAAEAV0@I@Z @ 855 NONAME
 ??6CDumpContext@@QEAAAEAV0@J@Z @ 856 NONAME
 ??6CDumpContext@@QEAAAEAV0@K@Z @ 857 NONAME
 ??6CDumpContext@@QEAAAEAV0@PEAUHACCEL__@@@Z @ 858 NONAME
 ??6CDumpContext@@QEAAAEAV0@PEAUHDC__@@@Z @ 859 NONAME
 ??6CDumpContext@@QEAAAEAV0@PEAUHFONT__@@@Z @ 860 NONAME
 ??6CDumpContext@@QEAAAEAV0@PEAUHMENU__@@@Z @ 861 NONAME
 ??6CDumpContext@@QEAAAEAV0@PEAUHWND__@@@Z @ 862 NONAME
 ??6CDumpContext@@QEAAAEAV0@PEB_W@Z @ 863 NONAME
 ??6CDumpContext@@QEAAAEAV0@PEBD@Z @ 864 NONAME
 ??6CDumpContext@@QEAAAEAV0@PEBVCObject@@@Z @ 865 NONAME
 ??6CDumpContext@@QEAAAEAV0@PEBX@Z @ 866 NONAME
 ??6CHtmlStream@@QEAAAEAV0@AEBVCByteArray@@@Z @ 867 NONAME
 ??6CHtmlStream@@QEAAAEAV0@AEBVCLongBinary@@@Z @ 868 NONAME
 ??6CHttpServerContext@@QEAAAEAV0@AEBVCByteArray@@@Z @ 869 NONAME
 ??6CHttpServerContext@@QEAAAEAV0@AEBVCLongBinary@@@Z @ 870 NONAME
 ??8COleSafeArray@@QEBAHAEBUtagSAFEARRAY@@@Z @ 871 NONAME
 ??8COleSafeArray@@QEBAHAEBUtagVARIANT@@@Z @ 872 NONAME
 ??8COleSafeArray@@QEBAHAEBV0@@Z @ 873 NONAME
 ??8COleSafeArray@@QEBAHAEBVCOleVariant@@@Z @ 874 NONAME
 ??8COleSafeArray@@QEBAHPEBUtagSAFEARRAY@@@Z @ 875 NONAME
 ??8COleSafeArray@@QEBAHPEBUtagVARIANT@@@Z @ 876 NONAME
 ??8COleVariant@@QEBAHAEBUtagVARIANT@@@Z @ 877 NONAME
 ??A?$CSimpleStringT@_W$00@ATL@@QEBA_WH@Z @ 878 NONAME
 ??A?$CSimpleStringT@D$00@ATL@@QEBADH@Z @ 879 NONAME
 ??ACMapPtrToPtr@@QEAAAEAPEAXPEAX@Z @ 880 NONAME
 ??ACMapPtrToWord@@QEAAAEAGPEAX@Z @ 881 NONAME
 ??ACMapStringToOb@@QEAAAEAPEAVCObject@@PEBD@Z @ 882 NONAME
 ??ACMapStringToPtr@@QEAAAEAPEAXPEBD@Z @ 883 NONAME
 ??ACMapStringToString@@QEAAAEAV?$CStringT@DV?$StrTraitMFC_DLL@DV?$ChTraitsCRT@D@ATL@@@@@ATL@@PEBD@Z @ 884 NONAME
 ??ACMapWordToOb@@QEAAAEAPEAVCObject@@G@Z @ 885 NONAME
 ??ACMapWordToPtr@@QEAAAEAPEAXG@Z @ 886 NONAME
 ??B?$CSimpleStringT@_W$00@ATL@@QEAAAEAV?$CSimpleStringT@_W$0A@@1@XZ @ 887 NONAME
 ??B?$CSimpleStringT@_W$00@ATL@@QEBAPEB_WXZ @ 888 NONAME
 ??B?$CSimpleStringT@D$00@ATL@@QEAAAEAV?$CSimpleStringT@D$0A@@1@XZ @ 889 NONAME
 ??B?$CSimpleStringT@D$00@ATL@@QEBAPEBDXZ @ 890 NONAME
 ??B?$CStringT@_WV?$StrTraitMFC_DLL@_WV?$ChTraitsCRT@_W@ATL@@@@@ATL@@QEAAAEAV?$CSimpleStringT@_W$0A@@1@XZ @ 891 NONAME
 ??B?$CStringT@DV?$StrTraitMFC_DLL@DV?$ChTraitsCRT@D@ATL@@@@@ATL@@QEAAAEAV?$CSimpleStringT@D$0A@@1@XZ @ 892 NONAME
 ??DCOleCurrency@@QEBA?AV0@J@Z @ 893 NONAME
 ??GCOleCurrency@@QEBA?AV0@AEBV0@@Z @ 894 NONAME
 ??GCOleCurrency@@QEBA?AV0@XZ @ 895 NONAME
 ??HCOleCurrency@@QEBA?AV0@AEBV0@@Z @ 896 NONAME
 ??KCOleCurrency@@QEBA?AV0@J@Z @ 897 NONAME
 ??MCOleCurrency@@QEBAHAEBV0@@Z @ 898 NONAME
 ??NCOleCurrency@@QEBAHAEBV0@@Z @ 899 NONAME
 ??OCOleCurrency@@QEBAHAEBV0@@Z @ 900 NONAME
 ??PCOleCurrency@@QEBAHAEBV0@@Z @ 901 NONAME
 ??Y?$CSimpleStringT@_W$00@ATL@@QEAAAEAV01@_W@Z @ 902 NONAME
 ??Y?$CSimpleStringT@_W$00@ATL@@QEAAAEAV01@AEBV01@@Z @ 903 NONAME
 ??Y?$CSimpleStringT@_W$00@ATL@@QEAAAEAV01@D@Z @ 904 NONAME
 ??Y?$CSimpleStringT@_W$00@ATL@@QEAAAEAV01@E@Z @ 905 NONAME
 ??Y?$CSimpleStringT@_W$00@ATL@@QEAAAEAV01@PEB_W@Z @ 906 NONAME
 ??Y?$CSimpleStringT@D$00@ATL@@QEAAAEAV01@_W@Z @ 907 NONAME
 ??Y?$CSimpleStringT@D$00@ATL@@QEAAAEAV01@AEBV01@@Z @ 908 NONAME
 ??Y?$CSimpleStringT@D$00@ATL@@QEAAAEAV01@D@Z @ 909 NONAME
 ??Y?$CSimpleStringT@D$00@ATL@@QEAAAEAV01@E@Z @ 910 NONAME
 ??Y?$CSimpleStringT@D$00@ATL@@QEAAAEAV01@PEBD@Z @ 911 NONAME
 ??Y?$CStringT@_WV?$StrTraitMFC_DLL@_WV?$ChTraitsCRT@_W@ATL@@@@@ATL@@QEAAAEAV01@_W@Z @ 912 NONAME
 ??Y?$CStringT@_WV?$StrTraitMFC_DLL@_WV?$ChTraitsCRT@_W@ATL@@@@@ATL@@QEAAAEAV01@AEBUtagVARIANT@@@Z @ 913 NONAME
 ??Y?$CStringT@_WV?$StrTraitMFC_DLL@_WV?$ChTraitsCRT@_W@ATL@@@@@ATL@@QEAAAEAV01@AEBV?$CSimpleStringT@_W$00@1@@Z @ 914 NONAME
 ??Y?$CStringT@_WV?$StrTraitMFC_DLL@_WV?$ChTraitsCRT@_W@ATL@@@@@ATL@@QEAAAEAV01@D@Z @ 915 NONAME
 ??Y?$CStringT@_WV?$StrTraitMFC_DLL@_WV?$ChTraitsCRT@_W@ATL@@@@@ATL@@QEAAAEAV01@E@Z @ 916 NONAME
 ??Y?$CStringT@_WV?$StrTraitMFC_DLL@_WV?$ChTraitsCRT@_W@ATL@@@@@ATL@@QEAAAEAV01@PEB_W@Z @ 917 NONAME
 ??Y?$CStringT@_WV?$StrTraitMFC_DLL@_WV?$ChTraitsCRT@_W@ATL@@@@@ATL@@QEAAAEAV01@PEBD@Z @ 918 NONAME
 ??Y?$CStringT@DV?$StrTraitMFC_DLL@DV?$ChTraitsCRT@D@ATL@@@@@ATL@@QEAAAEAV01@_W@Z @ 919 NONAME
 ??Y?$CStringT@DV?$StrTraitMFC_DLL@DV?$ChTraitsCRT@D@ATL@@@@@ATL@@QEAAAEAV01@AEBUtagVARIANT@@@Z @ 920 NONAME
 ??Y?$CStringT@DV?$StrTraitMFC_DLL@DV?$ChTraitsCRT@D@ATL@@@@@ATL@@QEAAAEAV01@AEBV?$CSimpleStringT@D$00@1@@Z @ 921 NONAME
 ??Y?$CStringT@DV?$StrTraitMFC_DLL@DV?$ChTraitsCRT@D@ATL@@@@@ATL@@QEAAAEAV01@D@Z @ 922 NONAME
 ??Y?$CStringT@DV?$StrTraitMFC_DLL@DV?$ChTraitsCRT@D@ATL@@@@@ATL@@QEAAAEAV01@E@Z @ 923 NONAME
 ??Y?$CStringT@DV?$StrTraitMFC_DLL@DV?$ChTraitsCRT@D@ATL@@@@@ATL@@QEAAAEAV01@PEB_W@Z @ 924 NONAME
 ??Y?$CStringT@DV?$StrTraitMFC_DLL@DV?$ChTraitsCRT@D@ATL@@@@@ATL@@QEAAAEAV01@PEBD@Z @ 925 NONAME
 ?_AfxFindSiteOrWnd@@YAPEAUCOleControlSiteOrWnd@@PEAVCWnd@@0@Z @ 926 NONAME
 ?_AfxSocketInit@@YAHPEAUWSAData@@@Z @ 927 NONAME
 ?Abort@CArchive@@QEAAXXZ @ 928 NONAME
 ?Abort@CFile@@UEAAXXZ @ 929 NONAME
 ?Abort@CInternetFile@@UEAAXXZ @ 930 NONAME
 ?Abort@CMemFile@@UEAAXXZ @ 931 NONAME
 ?Abort@CMirrorFile@@UEAAXXZ @ 932 NONAME
 ?Abort@COleStreamFile@@UEAAXXZ @ 933 NONAME
 ?Abort@CSocketFile@@UEAAXXZ @ 934 NONAME
 ?Abort@CStdioFile@@UEAAXXZ @ 935 NONAME
 ?AboutToDo@XNotifyDBEvents@COleControlSite@@UEAAJKKQEAUtagDBNOTIFYREASON@@@Z @ 936 NONAME
 ?accDoDefaultAction@CCheckListBox@@MEAAJUtagVARIANT@@@Z @ 937 NONAME
 ?accDoDefaultAction@CWnd@@UEAAJUtagVARIANT@@@Z @ 938 NONAME
 ?accDoDefaultAction@XAccessible@CWnd@@UEAAJUtagVARIANT@@@Z @ 939 NONAME
 ?Accept@CAsyncSocket@@UEAAHAEAV1@PEAUsockaddr@@PEAH@Z @ 940 NONAME
 ?Accept@CSocket@@UEAAHAEAVCAsyncSocket@@PEAUsockaddr@@PEAH@Z @ 941 NONAME
 ?AccessData@COleSafeArray@@QEAAXPEAPEAX@Z @ 942 NONAME
 ?accHitTest@CWnd@@UEAAJJJPEAUtagVARIANT@@@Z @ 943 NONAME
 ?accHitTest@XAccessible@CWnd@@UEAAJJJPEAUtagVARIANT@@@Z @ 944 NONAME
 ?accLocation@CWnd@@UEAAJPEAJ000UtagVARIANT@@@Z @ 945 NONAME
 ?accLocation@XAccessible@CWnd@@UEAAJPEAJ000UtagVARIANT@@@Z @ 946 NONAME
 ?accNavigate@CWnd@@UEAAJJUtagVARIANT@@PEAU2@@Z @ 947 NONAME
 ?accNavigate@XAccessible@CWnd@@UEAAJJUtagVARIANT@@PEAU3@@Z @ 948 NONAME
 ?accSelect@CWnd@@UEAAJJUtagVARIANT@@@Z @ 949 NONAME
 ?accSelect@XAccessible@CWnd@@UEAAJJUtagVARIANT@@@Z @ 950 NONAME
 ?Activate@COleClientItem@@QEAAXJPEAVCView@@PEAUtagMSG@@@Z @ 951 NONAME
 ?Activate@XPropertyPage@COlePropertyPage@@UEAAJPEAUHWND__@@PEBUtagRECT@@H@Z @ 952 NONAME
 ?ActivateAndShow@COleDocObjectItem@@IEAAXXZ @ 953 NONAME
 ?ActivateAs@COleClientItem@@UEAAHPEBDAEBU_GUID@@1@Z @ 954 NONAME
 ?ActivateAs@CRichEditCntrItem@@UEAAHPEBDAEBU_GUID@@1@Z @ 955 NONAME
 ?ActivateDocObject@CDocObjectServer@@QEAAXXZ @ 956 NONAME
 ?ActivateDocObject@COleServerDoc@@QEAAXXZ @ 957 NONAME
 ?ActivateFrame@CFrameWnd@@UEAAXH@Z @ 958 NONAME
 ?ActivateFrame@CMDIChildWnd@@UEAAXH@Z @ 959 NONAME
 ?ActivateInPlace@COleServerDoc@@QEAAHXZ @ 960 NONAME
 ?ActivateMe@XOleDocumentSite@COleDocObjectItem@@UEAAJPEAUIOleDocumentView@@@Z @ 961 NONAME
 ?ActivateNext@CSplitterWnd@@UEAAXH@Z @ 962 NONAME
 ?ActivateTopParent@CWnd@@QEAAXXZ @ 963 NONAME
 ?Add@CRecentFileList@@UEAAXPEBD@Z @ 964 NONAME
 ?AddBar@CReBar@@QEAAHPEAVCWnd@@KKPEBDK@Z @ 965 NONAME
 ?AddBar@CReBar@@QEAAHPEAVCWnd@@PEBDPEAVCBitmap@@K@Z @ 966 NONAME
 ?AddBitmap@CToolBarCtrl@@QEAAHHI@Z @ 967 NONAME
 ?AddBitmap@CToolBarCtrl@@QEAAHHPEAVCBitmap@@@Z @ 968 NONAME
 ?AddCachedData@COleClientItem@@IEAAXPEAVCOleDataSource@@@Z @ 969 NONAME
 ?AddClassIDToList@COleInsertDialog@@IEAAXAEAPEAU_GUID@@AEAH1PEAU2@@Z @ 970 NONAME
 ?AddConnection@CEnumConnections@@QEAAXPEAUtagCONNECTDATA@@@Z @ 971 NONAME
 ?AddConnPoint@CEnumConnPoints@@QEAAXPEAUIConnectionPoint@@@Z @ 972 NONAME
 ?AddDocTemplate@CDocManager@@UEAAXPEAVCDocTemplate@@@Z @ 973 NONAME
 ?AddDocTemplate@CWinApp@@QEAAXPEAVCDocTemplate@@@Z @ 974 NONAME
 ?AddDocument@CDocTemplate@@UEAAXPEAVCDocument@@@Z @ 975 NONAME
 ?AddDocument@CMultiDocTemplate@@UEAAXPEAVCDocument@@@Z @ 976 NONAME
 ?AddDocument@CSingleDocTemplate@@UEAAXPEAVCDocument@@@Z @ 977 NONAME
 ?AddFormat@CEnumFormatEtc@@QEAAXPEBUtagFORMATETC@@@Z @ 978 NONAME
 ?AddFormat@COlePasteSpecialDialog@@QEAAXAEBUtagFORMATETC@@PEAD1K@Z @ 979 NONAME
 ?AddFormat@COlePasteSpecialDialog@@QEAAXIKIHH@Z @ 980 NONAME
 ?AddFrameLevelUI@COleControl@@MEAAXXZ @ 981 NONAME
 ?AddFrameWnd@CFrameWnd@@IEAAXXZ @ 982 NONAME
 ?AddHead@CObList@@QEAAPEAU__POSITION@@PEAVCObject@@@Z @ 983 NONAME
 ?AddHead@CObList@@QEAAXPEAV1@@Z @ 984 NONAME
 ?AddHead@CPtrList@@QEAAPEAU__POSITION@@PEAX@Z @ 985 NONAME
 ?AddHead@CPtrList@@QEAAXPEAV1@@Z @ 986 NONAME
 ?AddHead@CSimpleList@@QEAAXPEAX@Z @ 987 NONAME
 ?AddHead@CStringList@@QEAAPEAU__POSITION@@AEBV?$CStringT@DV?$StrTraitMFC_DLL@DV?$ChTraitsCRT@D@ATL@@@@@ATL@@@Z @ 988 NONAME
 ?AddHead@CStringList@@QEAAPEAU__POSITION@@PEBD@Z @ 989 NONAME
 ?AddHead@CStringList@@QEAAXPEAV1@@Z @ 990 NONAME
 ?AddItem@COleDocument@@UEAAXPEAVCDocItem@@@Z @ 991 NONAME
 ?AddLinkEntry@COlePasteSpecialDialog@@QEAA?AW4tagOLEUIPASTEFLAG@@I@Z @ 992 NONAME
 ?AddNew@CRecordset@@UEAAXXZ @ 993 NONAME
 ?AddOtherClipboardData@COleServerItem@@QEAAXPEAVCOleDataSource@@@Z @ 994 NONAME
 ?AddPage@CPropertySheet@@QEAAXPEAVCPropertyPage@@@Z @ 995 NONAME
 ?AddProperty@CPropertySection@@QEAAXPEAVCProperty@@@Z @ 996 NONAME
 ?AddProperty@CPropertySet@@QEAAXU_GUID@@PEAVCProperty@@@Z @ 997 NONAME
 ?AddRef@CArchiveStream@@UEAAKXZ @ 998 NONAME
 ?AddRef@CBlobProperty@@UEAAKXZ @ 999 NONAME
 ?AddRef@CBrowserControlSite@@MEAAKXZ @ 1000 NONAME
 ?AddRef@CDHtmlControlSink@@UEAAKXZ @ 1001 NONAME
 ?AddRef@CDHtmlElementEventSink@@UEAAKXZ @ 1002 NONAME
 ?AddRef@CDHtmlEventSink@@UEAAKXZ @ 1003 NONAME
 ?AddRef@CInnerUnknown@@UEAAKXZ @ 1004 NONAME
 ?AddRef@COleConnPtContainer@@UEAAKXZ @ 1005 NONAME
 ?AddRef@COleDispatchImpl@@UEAAKXZ @ 1006 NONAME
 ?AddRef@COleUILinkInfo@@UEAAKXZ @ 1007 NONAME
 ?AddRef@CPrintDialogEx@@UEAAKXZ @ 1008 NONAME
 ?AddReplaceBitmap@CToolBar@@QEAAHPEAUHBITMAP__@@@Z @ 1009 NONAME
 ?AddRequestHeaders@CHttpFile@@QEAAHAEAV?$CStringT@DV?$StrTraitMFC_DLL@DV?$ChTraitsCRT@D@ATL@@@@@ATL@@K@Z @ 1010 NONAME
 ?AddRequestHeaders@CHttpFile@@QEAAHPEBDKH@Z @ 1011 NONAME
 ?AddSection@CPropertySet@@QEAAPEAVCPropertySection@@U_GUID@@@Z @ 1012 NONAME
 ?AddSection@CPropertySet@@QEAAXPEAVCPropertySection@@@Z @ 1013 NONAME
 ?AddStandardFormats@COlePasteSpecialDialog@@QEAAXH@Z @ 1014 NONAME
 ?AddString@CToolBarCtrl@@QEAAHI@Z @ 1015 NONAME
 ?AddTail@CObList@@QEAAPEAU__POSITION@@PEAVCObject@@@Z @ 1016 NONAME
 ?AddTail@CObList@@QEAAXPEAV1@@Z @ 1017 NONAME
 ?AddTail@CPtrList@@QEAAPEAU__POSITION@@PEAX@Z @ 1018 NONAME
 ?AddTail@CPtrList@@QEAAXPEAV1@@Z @ 1019 NONAME
 ?AddTail@CStringList@@QEAAPEAU__POSITION@@AEBV?$CStringT@DV?$StrTraitMFC_DLL@DV?$ChTraitsCRT@D@ATL@@@@@ATL@@@Z @ 1020 NONAME
 ?AddTail@CStringList@@QEAAPEAU__POSITION@@PEBD@Z @ 1021 NONAME
 ?AddTail@CStringList@@QEAAXPEAV1@@Z @ 1022 NONAME
 ?AddTool@CToolTipCtrl@@QEAAHPEAVCWnd@@IPEBUtagRECT@@_K@Z @ 1023 NONAME
 ?AddTool@CToolTipCtrl@@QEAAHPEAVCWnd@@PEBDPEBUtagRECT@@_K@Z @ 1024 NONAME
 ?AddToRecentFileList@CWinApp@@UEAAXPEBD@Z @ 1025 NONAME
 ?AddView@CDocument@@QEAAXPEAVCView@@@Z @ 1026 NONAME
 ?AdjustCP@CMetaFileDC@@IEAAXH@Z @ 1027 NONAME
 ?AdjustDialogPosition@CRichEditView@@QEAAXPEAVCDialog@@@Z @ 1028 NONAME
 ?AdjustRect@CRectTracker@@UEAAXHPEAUtagRECT@@@Z @ 1029 NONAME
 ?AdjustRect@XOleIPSite@COleControlSite@@UEAAJPEAUtagRECT@@@Z @ 1030 NONAME
 ?Advise@CDHtmlElementEventSink@@QEAAJPEAUIUnknown@@AEBU_GUID@@@Z @ 1031 NONAME
 ?Advise@XConnPt@CConnectionPoint@@UEAAJPEAUIUnknown@@PEAK@Z @ 1032 NONAME
 ?Advise@XOleObject@CDocObjectServer@@UEAAJPEAUIAdviseSink@@PEAK@Z @ 1033 NONAME
 ?Advise@XOleObject@COleControl@@UEAAJPEAUIAdviseSink@@PEAK@Z @ 1034 NONAME
 ?Advise@XOleObject@COleServerDoc@@UEAAJPEAUIAdviseSink@@PEAK@Z @ 1035 NONAME
 ?Advise@XOleObject@COleServerItem@@UEAAJPEAUIAdviseSink@@PEAK@Z @ 1036 NONAME
 ?AfxA2WHelper@@YAPEA_WPEA_WPEBDH@Z @ 1037 NONAME
 ?AfxAbort@@YAXXZ @ 1038 NONAME
 ?AfxBeginThread@@YAPEAVCWinThread@@P6AIPEAX@Z0HIKPEAU_SECURITY_ATTRIBUTES@@@Z @ 1039 NONAME
 ?AfxBeginThread@@YAPEAVCWinThread@@PEAUCRuntimeClass@@HIKPEAU_SECURITY_ATTRIBUTES@@@Z @ 1040 NONAME
 ?AfxBSTR2ABSTR@@YAPEA_WPEA_W@Z @ 1041 NONAME
 ?AfxBSTR2CString@@YAXPEAV?$CStringT@DV?$StrTraitMFC_DLL@DV?$ChTraitsCRT@D@ATL@@@@@ATL@@PEA_W@Z @ 1042 NONAME
 ?AfxCallWndProc@@YA_JPEAVCWnd@@PEAUHWND__@@I_K_J@Z @ 1043 NONAME
 ?AfxCancelModes@@YAXPEAUHWND__@@@Z @ 1044 NONAME
 ?AfxCheckError@@YAXJ@Z @ 1045 NONAME
 ?AfxClassInit@@YAXPEAUCRuntimeClass@@@Z @ 1046 NONAME
 ?AfxComparePath@@YAHPEBD0@Z @ 1047 NONAME
 ?AfxCompareValueByRef@@YAHPEAX0H@Z @ 1048 NONAME
 ?AfxConnectionAdvise@@YAHPEAUIUnknown@@AEBU_GUID@@0HPEAK@Z @ 1049 NONAME
 ?AfxConnectionUnadvise@@YAHPEAUIUnknown@@AEBU_GUID@@0HK@Z @ 1050 NONAME
 ?AfxCopyValueByRef@@YAXPEAX0PEA_JH@Z @ 1051 NONAME
 ?AfxCoreInitModule@@YAXXZ @ 1052 NONAME
 ?AfxCreateDC@@YAPEAUHDC__@@PEAX0@Z @ 1053 NONAME
 ?AfxCriticalInit@@YAHXZ @ 1054 NONAME
 ?AfxCriticalNewHandler@@YAH_K@Z @ 1055 NONAME
 ?AfxCriticalTerm@@YAXXZ @ 1056 NONAME
 ?AfxCustomLogFont@@YAHIPEAUtagLOGFONTA@@@Z @ 1057 NONAME
 ?afxData@@3UAUX_DATA@@A @ 1058 NONAME DATA
 ?AfxDeleteObject@@YAXPEAPEAX@Z @ 1059 NONAME
 ?AfxDelRegTreeHelper@@YAJPEAUHKEY__@@AEBV?$CStringT@DV?$StrTraitMFC_DLL@DV?$ChTraitsCRT@D@ATL@@@@@ATL@@@Z @ 1060 NONAME
 ?AfxDevModeA2W@@YAPEAU_devicemodeW@@PEAU1@PEAU_devicemodeA@@@Z @ 1061 NONAME
 ?AfxDevModeW2A@@YAPEAU_devicemodeA@@PEAU1@PEAU_devicemodeW@@@Z @ 1062 NONAME
 ?AfxDlgProc@@YA_JPEAUHWND__@@I_K_J@Z @ 1063 NONAME
 ?AfxDllCanUnloadNow@@YAJXZ @ 1064 NONAME
 ?AfxDllGetClassObject@@YAJAEBU_GUID@@0PEAPEAX@Z @ 1065 NONAME
 ?AfxDrawDitheredBitmap@@YAXPEAVCDC@@HHAEBVCBitmap@@KK@Z @ 1066 NONAME
 ?AfxDrawGrayBitmap@@YAXPEAVCDC@@HHAEBVCBitmap@@K@Z @ 1067 NONAME
 ?AfxDynamicDownCast@@YAPEAVCObject@@PEAUCRuntimeClass@@PEAV1@@Z @ 1068 NONAME
 ?AfxEnableControlContainer@@YAXPEAVCOccManager@@@Z @ 1069 NONAME
 ?AfxEndDeferRegisterClass@@YAHJ@Z @ 1070 NONAME
 ?AfxEndThread@@YAXIH@Z @ 1071 NONAME
 ?AfxEnumMetaFileProc@@YAHPEAUHDC__@@PEAUtagHANDLETABLE@@PEAUtagMETARECORD@@H_J@Z @ 1072 NONAME
 ?AfxExtractSubString@@YAHAEAV?$CStringT@DV?$StrTraitMFC_DLL@DV?$ChTraitsCRT@D@ATL@@@@@ATL@@PEBDHD@Z @ 1073 NONAME
 ?AfxFailMaxChars@@YAXPEAVCDataExchange@@H@Z @ 1074 NONAME
 ?AfxFailRadio@@YAXPEAVCDataExchange@@@Z @ 1075 NONAME
 ?AfxFieldText@@YAHPEAVCDataExchange@@HPEAXPEAVCRecordset@@@Z @ 1076 NONAME
 ?AfxFindMessageEntry@@YAPEBUAFX_MSGMAP_ENTRY@@PEBU1@III@Z @ 1077 NONAME
 ?AfxFindResourceHandle@@YAPEAUHINSTANCE__@@PEBD0@Z @ 1078 NONAME
 ?AfxFindStringResourceHandle@@YAPEAUHINSTANCE__@@I@Z @ 1079 NONAME
 ?AfxFormatString1@@YAXAEAV?$CStringT@DV?$StrTraitMFC_DLL@DV?$ChTraitsCRT@D@ATL@@@@@ATL@@IPEBD@Z @ 1080 NONAME
 ?AfxFormatString2@@YAXAEAV?$CStringT@DV?$StrTraitMFC_DLL@DV?$ChTraitsCRT@D@ATL@@@@@ATL@@IPEBD1@Z @ 1081 NONAME
 ?AfxFormatStrings@@YAXAEAV?$CStringT@DV?$StrTraitMFC_DLL@DV?$ChTraitsCRT@D@ATL@@@@@ATL@@IPEBQEBDH@Z @ 1082 NONAME
 ?AfxFormatStrings@@YAXAEAV?$CStringT@DV?$StrTraitMFC_DLL@DV?$ChTraitsCRT@D@ATL@@@@@ATL@@PEBDPEBQEBDH@Z @ 1083 NONAME
 ?AfxFreeLibrary@@YAHPEAUHINSTANCE__@@@Z @ 1084 NONAME
 ?AfxFullPath@@YAHPEADPEBD@Z @ 1085 NONAME
 ?AfxGetAfxWndProc@@YAP6A_JPEAUHWND__@@I_K_J@ZXZ @ 1086 NONAME
 ?AfxGetAppModuleState@@YAPEAVAFX_MODULE_STATE@@XZ @ 1087 NONAME
 ?AfxGetClassIDFromString@@YAJPEBDPEAU_GUID@@@Z @ 1088 NONAME
 ?AfxGetCurrentMessage@@YAPEAUtagMSG@@XZ @ 1089 NONAME
 ?AfxGetDitheredBitmap@@YAXAEBVCBitmap@@PEAV1@KK@Z @ 1090 NONAME
 ?AfxGetDlgItemStartFromHWND@@YAPEAUHWND__@@HPEAU1@@Z @ 1091 NONAME
 ?AfxGetDllVersion@@YAKXZ @ 1092 NONAME
 ?AfxGetFileName@@YAIPEBDPEADI@Z @ 1093 NONAME
 ?AfxGetFileTitle@@YAIPEBDPEADI@Z @ 1094 NONAME
 ?AfxGetGrayBitmap@@YAXAEBVCBitmap@@PEAV1@K@Z @ 1095 NONAME
 ?AfxGetHENV@@YAPEAXXZ @ 1096 NONAME
 ?AfxGetInProcServer@@YAHPEBDAEAV?$CStringT@DV?$StrTraitMFC_DLL@DV?$ChTraitsCRT@D@ATL@@@@@ATL@@@Z @ 1097 NONAME
 ?AfxGetInternetHandleType@@YAKPEAX@Z @ 1098 NONAME
 ?AfxGetModuleShortFileName@@YAXPEAUHINSTANCE__@@AEAV?$CStringT@DV?$StrTraitMFC_DLL@DV?$ChTraitsCRT@D@ATL@@@@@ATL@@@Z @ 1099 NONAME
 ?AfxGetModuleState@@YAPEAVAFX_MODULE_STATE@@XZ @ 1100 NONAME
 ?AfxGetModuleThreadState@@YAPEAVAFX_MODULE_THREAD_STATE@@XZ @ 1101 NONAME
 ?AfxGetNewHandler@@YAP6AH_K@ZXZ @ 1102 NONAME
 ?AfxGetParentOwner@@YAPEAUHWND__@@PEAU1@@Z @ 1103 NONAME
 ?AfxGetPropSheetFont@@YAHAEAV?$CStringT@DV?$StrTraitMFC_DLL@DV?$ChTraitsCRT@D@ATL@@@@@ATL@@AEAGH@Z @ 1104 NONAME
 ?AfxGetRoot@@YAXPEBDAEAV?$CStringT@DV?$StrTraitMFC_DLL@DV?$ChTraitsCRT@D@ATL@@@@@ATL@@@Z @ 1105 NONAME
 ?AfxGetStringManager@@YAPEAUIAtlStringMgr@ATL@@XZ @ 1106 NONAME
 ?AfxGetThread@@YAPEAVCWinThread@@XZ @ 1107 NONAME
 ?AfxGetThreadState@@YAPEAV_AFX_THREAD_STATE@@XZ @ 1108 NONAME
 ?AfxGetTypeLibCache@@YAPEAVCTypeLibCache@@PEBU_GUID@@@Z @ 1109 NONAME
 ?AfxGlobalFree@@YAXPEAX@Z @ 1110 NONAME
 ?AfxHelpEnabled@@YAHXZ @ 1111 NONAME
 ?AfxHookWindowCreate@@YAXPEAVCWnd@@@Z @ 1112 NONAME
 ?AfxHtmlHelp@@YAPEAUHWND__@@PEAU1@PEBDI_K@Z @ 1113 NONAME
 ?AfxInitExtensionModule@@YAHAEAUAFX_EXTENSION_MODULE@@PEAUHINSTANCE__@@@Z @ 1114 NONAME
 ?AfxInitLocalData@@YAXPEAUHINSTANCE__@@@Z @ 1115 NONAME
 ?AfxInitRichEdit@@YAHXZ @ 1116 NONAME
 ?AfxInitRichEdit2@@YAHXZ @ 1117 NONAME
 ?AfxInitThread@@YAXXZ @ 1118 NONAME
 ?AfxInternalIsIdleMessage@@YAHPEAUtagMSG@@@Z @ 1119 NONAME
 ?AfxInternalPreTranslateMessage@@YAHPEAUtagMSG@@@Z @ 1120 NONAME
 ?AfxInternalProcessWndProcException@@YA_JPEAVCException@@PEBUtagMSG@@@Z @ 1121 NONAME
 ?AfxInternalPumpMessage@@YAHXZ @ 1122 NONAME
 ?AfxInternetStatusCallback@@YAXPEAX_KK0K@Z @ 1123 NONAME
 ?AfxIsDescendant@@YAHPEAUHWND__@@0@Z @ 1124 NONAME
 ?AfxIsIdleMessage@@YAHPEAUtagMSG@@@Z @ 1125 NONAME
 ?AfxIsValidAddress@@YAHPEBX_KH@Z @ 1126 NONAME
 ?AfxIsValidString@@YAHPEB_WH@Z @ 1127 NONAME
 ?AfxIsValidString@@YAHPEBDH@Z @ 1128 NONAME
 ?AfxLoadField@@YAXAEAVCRecordset@@IPEAXPEA_J@Z @ 1129 NONAME
 ?AfxLoadLangResourceDLL@@YAPEAUHINSTANCE__@@PEBD@Z @ 1130 NONAME
 ?AfxLoadLibrary@@YAPEAUHINSTANCE__@@PEBD@Z @ 1131 NONAME
 ?AfxLoadString@@YAHIPEA_WI@Z @ 1132 NONAME
 ?AfxLoadString@@YAHIPEADI@Z @ 1133 NONAME
 ?AfxLoadSysColorBitmap@@YAPEAUHBITMAP__@@PEAUHINSTANCE__@@PEAUHRSRC__@@H@Z @ 1134 NONAME
 ?AfxLockGlobals@@YAXH@Z @ 1135 NONAME
 ?AfxLockTempMaps@@YAXXZ @ 1136 NONAME
 ?AfxMergeMenus@@YAPEAUHMENU__@@PEAU1@0PEAJHH@Z @ 1137 NONAME
 ?AfxMessageBox@@YAHIII@Z @ 1138 NONAME
 ?AfxMessageBox@@YAHPEBDII@Z @ 1139 NONAME
 ?AfxOleCanExitApp@@YAHXZ @ 1140 NONAME
 ?AfxOleGetUserCtrl@@YAHXZ @ 1141 NONAME
 ?AfxOleInit@@YAHXZ @ 1142 NONAME
 ?AfxOleInprocRegisterHelper@@YAHPEAUHKEY__@@0H@Z @ 1143 NONAME
 ?AfxOleLockApp@@YAXXZ @ 1144 NONAME
 ?AfxOleLockControl@@YAHAEBU_GUID@@@Z @ 1145 NONAME
 ?AfxOleLockControl@@YAHPEBD@Z @ 1146 NONAME
 ?AfxOleOnReleaseAllObjects@@YAXXZ @ 1147 NONAME
 ?AfxOleRegisterControlClass@@YAHPEAUHINSTANCE__@@AEBU_GUID@@PEBDIIHK1GG@Z @ 1148 NONAME
 ?AfxOleRegisterHelper@@YAHPEBQEBD0HHPEAUHKEY__@@@Z @ 1149 NONAME
 ?AfxOleRegisterPropertyPageClass@@YAHPEAUHINSTANCE__@@AEBU_GUID@@I@Z @ 1150 NONAME
 ?AfxOleRegisterPropertyPageClass@@YAHPEAUHINSTANCE__@@AEBU_GUID@@IH@Z @ 1151 NONAME
 ?AfxOleRegisterServerClass@@YAHAEBU_GUID@@PEBD11W4OLE_APPTYPE@@PEAPEBD3H1@Z @ 1152 NONAME
 ?AfxOleRegisterServerClass@@YAHAEBU_GUID@@PEBD11W4OLE_APPTYPE@@PEAPEBD3H11@Z @ 1153 NONAME
 ?AfxOleRegisterTypeLib@@YAHPEAUHINSTANCE__@@AEBU_GUID@@PEBD2@Z @ 1154 NONAME
 ?AfxOleSetEditMenu@@YAXPEAVCOleClientItem@@PEAVCMenu@@IIII@Z @ 1155 NONAME
 ?AfxOleSetUserCtrl@@YAXH@Z @ 1156 NONAME
 ?AfxOleTerm@@YAXH@Z @ 1157 NONAME
 ?AfxOleTermOrFreeLib@@YAXHH@Z @ 1158 NONAME
 ?AfxOleUnlockAllControls@@YAXXZ @ 1159 NONAME
 ?AfxOleUnlockApp@@YAXXZ @ 1160 NONAME
 ?AfxOleUnlockControl@@YAHAEBU_GUID@@@Z @ 1161 NONAME
 ?AfxOleUnlockControl@@YAHPEBD@Z @ 1162 NONAME
 ?AfxOleUnregisterClass@@YAHAEBU_GUID@@PEBD@Z @ 1163 NONAME
 ?AfxOleUnregisterHelper@@YAHPEBQEBD0HPEAUHKEY__@@@Z @ 1164 NONAME
 ?AfxOleUnregisterServerClass@@YAHAEBU_GUID@@PEBD11W4OLE_APPTYPE@@PEAPEBD3@Z @ 1165 NONAME
 ?AfxOleUnregisterTypeLib@@YAHAEBU_GUID@@GGK@Z @ 1166 NONAME
 ?AfxParseURL@@YAHPEBDAEAKAEAV?$CStringT@DV?$StrTraitMFC_DLL@DV?$ChTraitsCRT@D@ATL@@@@@ATL@@2AEAG@Z @ 1167 NONAME
 ?AfxParseURLEx@@YAHPEBDAEAKAEAV?$CStringT@DV?$StrTraitMFC_DLL@DV?$ChTraitsCRT@D@ATL@@@@@ATL@@2AEAG22K@Z @ 1168 NONAME
 ?AfxPostQuitMessage@@YAXH@Z @ 1169 NONAME
 ?AfxPreTranslateMessage@@YAHPEAUtagMSG@@@Z @ 1170 NONAME
 ?AfxProcessWndProcException@@YA_JPEAVCException@@PEBUtagMSG@@@Z @ 1171 NONAME
 ?AfxPropPageCallback@@YAIPEAUHWND__@@IPEAU_PROPSHEETPAGEA@@@Z @ 1172 NONAME
 ?AfxPropSheetCallback@@YAHPEAUHWND__@@I_J@Z @ 1173 NONAME
 ?AfxPumpMessage@@YAHXZ @ 1174 NONAME
 ?AfxReadStringLength@@YA_KAEAVCArchive@@AEAH@Z @ 1175 NONAME
 ?AfxRegisterClass@@YAHPEAUtagWNDCLASSA@@@Z @ 1176 NONAME
 ?AfxRegisterSiteFactory@@YAHPEAVIControlSiteFactory@@@Z @ 1177 NONAME
 ?AfxRegisterWndClass@@YAPEBDIPEAUHICON__@@PEAUHBRUSH__@@0@Z @ 1178 NONAME
 ?AfxRepositionWindow@@YAXPEAUAFX_SIZEPARENTPARAMS@@PEAUHWND__@@PEBUtagRECT@@@Z @ 1179 NONAME
 ?AfxResetMsgCache@@YAXXZ @ 1180 NONAME
 ?AfxResolveShortcut@@YAHPEAVCWnd@@PEBDPEADH@Z @ 1181 NONAME
 ?AfxRFXBulkDefault@@YAXPEAVCFieldExchange@@PEBDPEAXPEA_JH_K@Z @ 1182 NONAME
 ?AfxSafeArrayInit@@YAXPEAVCOleSafeArray@@@Z @ 1183 NONAME
 ?AfxSetModuleState@@YAPEAVAFX_MODULE_STATE@@PEAV1@@Z @ 1184 NONAME
 ?AfxSetNewHandler@@YAP6AH_K@ZP6AH0@Z@Z @ 1185 NONAME
 ?AfxSetWindowText@@YAXPEAUHWND__@@PEBD@Z @ 1186 NONAME
 ?AfxSocketTerm@@YAXXZ @ 1187 NONAME
 ?AfxStoreField@@YAXAEAVCRecordset@@IPEAX@Z @ 1188 NONAME
 ?AfxStringFromCLSID@@YA?AV?$CStringT@DV?$StrTraitMFC_DLL@DV?$ChTraitsCRT@D@ATL@@@@@ATL@@AEBU_GUID@@@Z @ 1189 NONAME
 ?AfxTaskStringA2W@@YAPEA_WPEBD@Z @ 1190 NONAME
 ?AfxTaskStringW2A@@YAPEADPEB_W@Z @ 1191 NONAME
 ?AfxTermExtensionModule@@YAXAEAUAFX_EXTENSION_MODULE@@H@Z @ 1192 NONAME
 ?AfxTermLocalData@@YAXPEAUHINSTANCE__@@H@Z @ 1193 NONAME
 ?AfxTermThread@@YAXPEAUHINSTANCE__@@@Z @ 1194 NONAME
 ?AfxTextFloatFormat@@YAXPEAVCDataExchange@@HPEAXNH@Z @ 1195 NONAME
 ?AfxTextMetricA2W@@YAPEAUtagTEXTMETRICW@@PEAU1@PEAUtagTEXTMETRICA@@@Z @ 1196 NONAME
 ?AfxTextMetricW2A@@YAPEAUtagTEXTMETRICA@@PEAU1@PEAUtagTEXTMETRICW@@@Z @ 1197 NONAME
 ?AfxThrowArchiveException@@YAXHPEBD@Z @ 1198 NONAME
 ?AfxThrowDBException@@YAXFPEAVCDatabase@@PEAX@Z @ 1199 NONAME
 ?AfxThrowFileException@@YAXHJPEBD@Z @ 1200 NONAME
 ?AfxThrowInternetException@@YAX_KK@Z @ 1201 NONAME
 ?AfxThrowInvalidArgException@@YAXXZ @ 1202 NONAME
 ?AfxThrowLastCleanup@@YAXXZ @ 1203 NONAME
 ?AfxThrowMemoryException@@YAXXZ @ 1204 NONAME
 ?AfxThrowNotSupportedException@@YAXXZ @ 1205 NONAME
 ?AfxThrowOleDispatchException@@YAXGII@Z @ 1206 NONAME
 ?AfxThrowOleDispatchException@@YAXGPEBDI@Z @ 1207 NONAME
 ?AfxThrowOleException@@YAXJ@Z @ 1208 NONAME
 ?AfxThrowResourceException@@YAXXZ @ 1209 NONAME
 ?AfxThrowUserException@@YAXXZ @ 1210 NONAME
 ?AfxTimeToFileTime@@YAXAEBVCTime@ATL@@PEAU_FILETIME@@@Z @ 1211 NONAME
 ?AfxTlsAddRef@@YAXXZ @ 1212 NONAME
 ?AfxTlsRelease@@YAXXZ @ 1213 NONAME
 ?AfxTrackerTerm@@YAXXZ @ 1214 NONAME
 ?AfxTryCleanup@@YAXXZ @ 1215 NONAME
 ?AfxUnhookWindowCreate@@YAHXZ @ 1216 NONAME
 ?AfxUnlockGlobals@@YAXH@Z @ 1217 NONAME
 ?AfxUnlockTempMaps@@YAHH@Z @ 1218 NONAME
 ?AfxUnmergeMenus@@YAXPEAUHMENU__@@00@Z @ 1219 NONAME
 ?AfxUnregisterSiteFactory@@YAHPEAVIControlSiteFactory@@@Z @ 1220 NONAME
 ?AfxVariantInit@@YAXPEAUtagVARIANT@@@Z @ 1221 NONAME
 ?AfxVerifyLicFile@@YAHPEAUHINSTANCE__@@PEBDPEB_WI@Z @ 1222 NONAME
 ?AfxW2AHelper@@YAPEADPEADPEB_WH@Z @ 1223 NONAME
 ?AfxWinInit@@YAHPEAUHINSTANCE__@@0PEADH@Z @ 1224 NONAME
 ?AfxWinMain@@YAHPEAUHINSTANCE__@@0PEADH@Z @ 1225 NONAME
 ?AfxWinTerm@@YAXXZ @ 1226 NONAME
 ?AfxWndProc@@YA_JPEAUHWND__@@I_K_J@Z @ 1227 NONAME
 ?AfxWndProcDllOle@@YA_JPEAUHWND__@@I_K_J@Z @ 1228 NONAME
 ?AfxWriteStringLength@@YAXAEAVCArchive@@_KH@Z @ 1229 NONAME
 ?Alloc@CFixedAlloc@@QEAAPEAXXZ @ 1230 NONAME
 ?Alloc@CFixedAllocNoSync@@QEAAPEAXXZ @ 1231 NONAME
 ?Alloc@CMemFile@@MEAAPEAE_K@Z @ 1232 NONAME
 ?Alloc@CSharedFile@@MEAAPEAE_K@Z @ 1233 NONAME
 ?AllocAndCacheFieldInfo@CRecordset@@IEAAXXZ @ 1234 NONAME
 ?Allocate@CAfxStringMgr@@UEAAPEAUCStringData@ATL@@HH@Z @ 1235 NONAME
 ?AllocConnect@CDatabase@@IEAAXK@Z @ 1236 NONAME
 ?AllocData@COleSafeArray@@QEAAXXZ @ 1237 NONAME
 ?AllocDataCache@CRecordset@@QEAAXXZ @ 1238 NONAME
 ?AllocDescriptor@COleSafeArray@@QEAAXK@Z @ 1239 NONAME
 ?AllocElements@CControlBar@@QEAAHHH@Z @ 1240 NONAME
 ?AllocElements@CStatusBar@@QEAAHHH@Z @ 1241 NONAME
 ?AllocHstmt@CRecordset@@IEAAHXZ @ 1242 NONAME
 ?AllocPSP@CPropertyPage@@IEAAXK@Z @ 1243 NONAME
 ?AllocRowset@CRecordset@@IEAAXXZ @ 1244 NONAME
 ?AllocSlot@CThreadSlotData@@QEAAHXZ @ 1245 NONAME
 ?AllocStatusArrays@CRecordset@@QEAAXXZ @ 1246 NONAME
 ?AllocSysString@?$CStringT@_WV?$StrTraitMFC_DLL@_WV?$ChTraitsCRT@_W@ATL@@@@@ATL@@QEBAPEA_WXZ @ 1247 NONAME
 ?AllocSysString@?$CStringT@DV?$StrTraitMFC_DLL@DV?$ChTraitsCRT@D@ATL@@@@@ATL@@QEBAPEA_WXZ @ 1248 NONAME
 ?AllocValue@CProperty@@AEAAPEAXK@Z @ 1249 NONAME
 ?AmbientAppearance@COleControl@@QEAAFXZ @ 1250 NONAME
 ?AmbientBackColor@COleControl@@QEAAKXZ @ 1251 NONAME
 ?AmbientDisplayName@COleControl@@QEAA?AV?$CStringT@DV?$StrTraitMFC_DLL@DV?$ChTraitsCRT@D@ATL@@@@@ATL@@XZ @ 1252 NONAME
 ?AmbientFont@COleControl@@QEAAPEAUIFontDisp@@XZ @ 1253 NONAME
 ?AmbientForeColor@COleControl@@QEAAKXZ @ 1254 NONAME
 ?AmbientLocaleID@COleControl@@QEAAKXZ @ 1255 NONAME
 ?AmbientScaleUnits@COleControl@@QEAA?AV?$CStringT@DV?$StrTraitMFC_DLL@DV?$ChTraitsCRT@D@ATL@@@@@ATL@@XZ @ 1256 NONAME
 ?AmbientShowGrabHandles@COleControl@@QEAAHXZ @ 1257 NONAME
 ?AmbientShowHatching@COleControl@@QEAAHXZ @ 1258 NONAME
 ?AmbientTextAlign@COleControl@@QEAAFXZ @ 1259 NONAME
 ?AmbientUIDead@COleControl@@QEAAHXZ @ 1260 NONAME
 ?AmbientUserMode@COleControl@@QEAAHXZ @ 1261 NONAME
 ?Append@?$CSimpleStringT@_W$00@ATL@@QEAAXAEBV12@@Z @ 1262 NONAME
 ?Append@?$CSimpleStringT@_W$00@ATL@@QEAAXPEB_W@Z @ 1263 NONAME
 ?Append@?$CSimpleStringT@_W$00@ATL@@QEAAXPEB_WH@Z @ 1264 NONAME
 ?Append@?$CSimpleStringT@D$00@ATL@@QEAAXAEBV12@@Z @ 1265 NONAME
 ?Append@?$CSimpleStringT@D$00@ATL@@QEAAXPEBD@Z @ 1266 NONAME
 ?Append@?$CSimpleStringT@D$00@ATL@@QEAAXPEBDH@Z @ 1267 NONAME
 ?Append@CByteArray@@QEAA_JAEBV1@@Z @ 1268 NONAME
 ?Append@CDWordArray@@QEAA_JAEBV1@@Z @ 1269 NONAME
 ?Append@CObArray@@QEAA_JAEBV1@@Z @ 1270 NONAME
 ?Append@CPtrArray@@QEAA_JAEBV1@@Z @ 1271 NONAME
 ?Append@CStringArray@@QEAA_JAEBV1@@Z @ 1272 NONAME
 ?Append@CUIntArray@@QEAA_JAEBV1@@Z @ 1273 NONAME
 ?Append@CWordArray@@QEAA_JAEBV1@@Z @ 1274 NONAME
 ?AppendChar@?$CSimpleStringT@_W$00@ATL@@QEAAX_W@Z @ 1275 NONAME
 ?AppendChar@?$CSimpleStringT@D$00@ATL@@QEAAXD@Z @ 1276 NONAME
 ?AppendFilterAndSortSQL@CRecordset@@IEAAXXZ @ 1277 NONAME
 ?AppendFormat@?$CStringT@_WV?$StrTraitMFC_DLL@_WV?$ChTraitsCRT@_W@ATL@@@@@ATL@@QEAAXIZZ @ 1278 NONAME
 ?AppendFormat@?$CStringT@_WV?$StrTraitMFC_DLL@_WV?$ChTraitsCRT@_W@ATL@@@@@ATL@@QEAAXPEB_WZZ @ 1279 NONAME
 ?AppendFormat@?$CStringT@DV?$StrTraitMFC_DLL@DV?$ChTraitsCRT@D@ATL@@@@@ATL@@QEAAXIZZ @ 1280 NONAME
 ?AppendFormat@?$CStringT@DV?$StrTraitMFC_DLL@DV?$ChTraitsCRT@D@ATL@@@@@ATL@@QEAAXPEBDZZ @ 1281 NONAME
 ?AppendFormatV@?$CStringT@_WV?$StrTraitMFC_DLL@_WV?$ChTraitsCRT@_W@ATL@@@@@ATL@@QEAAXPEB_WPEAD@Z @ 1282 NONAME
 ?AppendFormatV@?$CStringT@DV?$StrTraitMFC_DLL@DV?$ChTraitsCRT@D@ATL@@@@@ATL@@QEAAXPEBDPEAD@Z @ 1283 NONAME
 ?AppendNames@CRecordset@@QEAAIPEAV?$CStringT@DV?$StrTraitMFC_DLL@DV?$ChTraitsCRT@D@ATL@@@@@ATL@@PEBD@Z @ 1284 NONAME
 ?AppendNamesValues@CRecordset@@QEAAIPEAXPEAV?$CStringT@DV?$StrTraitMFC_DLL@DV?$ChTraitsCRT@D@ATL@@@@@ATL@@PEBD@Z @ 1285 NONAME
 ?AppendValues@CRecordset@@QEAAIPEAXPEAV?$CStringT@DV?$StrTraitMFC_DLL@DV?$ChTraitsCRT@D@ATL@@@@@ATL@@PEBD@Z @ 1286 NONAME
 ?Apply@XPropertyPage@COlePropertyPage@@UEAAJXZ @ 1287 NONAME
 ?ApplyPrintDevice@COleDocument@@QEAAHPEBUtagDVTARGETDEVICE@@@Z @ 1288 NONAME
 ?ApplyPrintDevice@COleDocument@@QEAAHPEBUtagPDA@@@Z @ 1289 NONAME
 ?ApplyViewState@XOleDocumentView@CDocObjectServer@@UEAAJPEAUIStream@@@Z @ 1290 NONAME
 ?ArcTo@CDC@@QEAAHHHHHHHHH@Z @ 1291 NONAME
 ?AssignInstance@CThreadSlotData@@QEAAXPEAUHINSTANCE__@@@Z @ 1292 NONAME
 ?AsyncSelect@CAsyncSocket@@QEAAHJ@Z @ 1293 NONAME
 ?Attach@?$CSimpleStringT@_W$00@ATL@@AEAAXPEAUCStringData@2@@Z @ 1294 NONAME
 ?Attach@?$CSimpleStringT@D$00@ATL@@AEAAXPEAUCStringData@2@@Z @ 1295 NONAME
 ?Attach@CAsyncSocket@@QEAAH_KJ@Z @ 1296 NONAME
 ?Attach@CDC@@QEAAHPEAUHDC__@@@Z @ 1297 NONAME
 ?Attach@CGdiObject@@QEAAHPEAX@Z @ 1298 NONAME
 ?Attach@CImageList@@QEAAHPEAU_IMAGELIST@@@Z @ 1299 NONAME
 ?Attach@CMemFile@@QEAAXPEAEII@Z @ 1300 NONAME
 ?Attach@CMenu@@QEAAHPEAUHMENU__@@@Z @ 1301 NONAME
 ?Attach@CMonikerFile@@IEAAHPEAUIMoniker@@PEAUIBindHost@@PEAUIBindStatusCallback@@PEAUIBindCtx@@PEAVCFileException@@@Z @ 1302 NONAME
 ?Attach@CMonikerFile@@IEAAHPEBDPEAUIBindHost@@PEAUIBindStatusCallback@@PEAUIBindCtx@@PEAVCFileException@@@Z @ 1303 NONAME
 ?Attach@COleDataObject@@QEAAXPEAUIDataObject@@H@Z @ 1304 NONAME
 ?Attach@COleSafeArray@@QEAAXAEAUtagVARIANT@@@Z @ 1305 NONAME
 ?Attach@COleStreamFile@@QEAAXPEAUIStream@@@Z @ 1306 NONAME
 ?Attach@COleVariant@@QEAAXAEAUtagVARIANT@@@Z @ 1307 NONAME
 ?Attach@CWnd@@QEAAHPEAUHWND__@@@Z @ 1308 NONAME
 ?AttachClipboard@COleDataObject@@QEAAHXZ @ 1309 NONAME
 ?AttachControlSite@COleControlContainer@@QEAAXPEAVCWnd@@I@Z @ 1310 NONAME
 ?AttachControlSite@CWnd@@IEAAXPEAVCHandleMap@@@Z @ 1311 NONAME
 ?AttachControlSite@CWnd@@QEAAXPEAV1@I@Z @ 1312 NONAME
 ?AttachDataObject@COleClientItem@@QEBAXAEAVCOleDataObject@@@Z @ 1313 NONAME
 ?AttachDispatch@COleDispatchDriver@@QEAAXPEAUIDispatch@@H@Z @ 1314 NONAME
 ?AttachHandle@CAsyncSocket@@SAX_KPEAV1@H@Z @ 1315 NONAME
 ?AttachOnSetup@CPrintDialog@@MEAAPEAV1@XZ @ 1316 NONAME
 ?AttachWindow@COleControlSite@@QEAAXXZ @ 1317 NONAME
 ?AutoLoad@CBitmapButton@@QEAAHIPEAVCWnd@@@Z @ 1318 NONAME
 ?AuxQueueAdd@CSocket@@KAXI_K_J@Z @ 1319 NONAME
 ?BeforeNavigate2@CHtmlView@@MEAAXPEAUIDispatch@@PEAUtagVARIANT@@1111PEAF@Z @ 1320 NONAME
 ?BeginBusyState@COleMessageFilter@@UEAAXXZ @ 1321 NONAME
 ?BeginDrag@CDragListBox@@UEAAHVCPoint@@@Z @ 1322 NONAME
 ?BeginEnumFormats@COleDataObject@@QEAAXXZ @ 1323 NONAME
 ?BeginModalState@CFrameWnd@@UEAAXXZ @ 1324 NONAME
 ?BeginTrans@CDatabase@@QEAAHXZ @ 1325 NONAME
 ?BeginWaitCursor@CCmdTarget@@QEAAXXZ @ 1326 NONAME
 ?Bind@CAsyncSocket@@QEAAHIPEBD@Z @ 1327 NONAME
 ?BindColumns@CDataSourceControl@@UEAAXXZ @ 1328 NONAME
 ?BindControls@COccManager@@IEAAXPEAVCWnd@@@Z @ 1329 NONAME
 ?BindDefaultProperty@COleControlSite@@UEAAXJGPEBDPEAVCWnd@@@Z @ 1330 NONAME
 ?BindDefaultProperty@CWnd@@QEAAXJGPEBDPEAV1@@Z @ 1331 NONAME
 ?BindFieldsForUpdate@CRecordset@@QEAAXXZ @ 1332 NONAME
 ?BindFieldsToColumns@CRecordset@@QEAAIXZ @ 1333 NONAME
 ?BindParameters@CDatabase@@UEAAXPEAX@Z @ 1334 NONAME
 ?BindParams@CRecordset@@QEAAIPEAX@Z @ 1335 NONAME
 ?BindProp@CDataSourceControl@@UEAAXPEAVCDataBoundProperty@@H@Z @ 1336 NONAME
 ?BindProp@CDataSourceControl@@UEAAXPEAVCOleControlSite@@H@Z @ 1337 NONAME
 ?BindProperty@COleControlSite@@UEAAXJPEAVCWnd@@@Z @ 1338 NONAME
 ?BindProperty@CWnd@@QEAAXJPEAV1@@Z @ 1339 NONAME
 ?BoundPropertyChanged@COleControl@@QEAAXJ@Z @ 1340 NONAME
 ?BoundPropertyRequestEdit@COleControl@@QEAAHJ@Z @ 1341 NONAME
 ?BringToTop@CFrameWnd@@IEAAXH@Z @ 1342 NONAME
 ?BroadcastAmbientPropertyChange@COleControlContainer@@UEAAXJ@Z @ 1343 NONAME
 ?BuildErrorString@CDBException@@UEAAXPEAVCDatabase@@PEAXH@Z @ 1344 NONAME
 ?BuildPropPageArray@CPropertySheet@@UEAAXXZ @ 1345 NONAME
 ?BuildSelectSQL@CRecordset@@IEAAXXZ @ 1346 NONAME
 ?BuildSharedMenu@COleControl@@MEAAHXZ @ 1347 NONAME
 ?BuildSharedMenu@COleDocIPFrameWnd@@MEAAHXZ @ 1348 NONAME
 ?BuildSharedMenu@COleIPFrameWnd@@MEAAHXZ @ 1349 NONAME
 ?BuildSQL@CRecordset@@IEAAXPEBD@Z @ 1350 NONAME
 ?BuildUpdateSQL@CRecordset@@IEAAXXZ @ 1351 NONAME
 ?ButtonDblClk@COleControl@@IEAAXGIVCPoint@@@Z @ 1352 NONAME
 ?ButtonDown@COleControl@@IEAAXGIVCPoint@@@Z @ 1353 NONAME
 ?ButtonUp@COleControl@@IEAAXGIVCPoint@@@Z @ 1354 NONAME
 ?Cache@CTypeLibCache@@QEAAXKPEAUITypeLib@@@Z @ 1355 NONAME
 ?Cache@XOleCache@COleControl@@UEAAJPEAUtagFORMATETC@@KPEAK@Z @ 1356 NONAME
 ?CacheData@COleDataSource@@QEAAXGPEAUtagSTGMEDIUM@@PEAUtagFORMATETC@@@Z @ 1357 NONAME
 ?CacheGlobalData@COleDataSource@@QEAAXGPEAXPEAUtagFORMATETC@@@Z @ 1358 NONAME
 ?CacheTypeInfo@CTypeLibCache@@QEAAXKAEBU_GUID@@PEAUITypeInfo@@@Z @ 1359 NONAME
 ?CalcBorders@CMiniFrameWnd@@SAXPEAUtagRECT@@KK@Z @ 1360 NONAME
 ?CalcDynamicLayout@CControlBar@@UEAA?AVCSize@@HK@Z @ 1361 NONAME
 ?CalcDynamicLayout@CReBar@@UEAA?AVCSize@@HK@Z @ 1362 NONAME
 ?CalcDynamicLayout@CToolBar@@UEAA?AVCSize@@HK@Z @ 1363 NONAME
 ?CalcFixedLayout@CControlBar@@UEAA?AVCSize@@HH@Z @ 1364 NONAME
 ?CalcFixedLayout@CDialogBar@@UEAA?AVCSize@@HH@Z @ 1365 NONAME
 ?CalcFixedLayout@CDockBar@@UEAA?AVCSize@@HH@Z @ 1366 NONAME
 ?CalcFixedLayout@CReBar@@UEAA?AVCSize@@HH@Z @ 1367 NONAME
 ?CalcFixedLayout@CStatusBar@@UEAA?AVCSize@@HH@Z @ 1368 NONAME
 ?CalcFixedLayout@CToolBar@@UEAA?AVCSize@@HH@Z @ 1369 NONAME
 ?CalcInsideRect@CControlBar@@UEBAXAEAVCRect@@H@Z @ 1370 NONAME
 ?CalcInsideRect@CStatusBar@@UEBAXAEAVCRect@@H@Z @ 1371 NONAME
 ?CalcLayout@CToolBar@@IEAA?AVCSize@@KH@Z @ 1372 NONAME
 ?CalcMinimumItemHeight@CCheckListBox@@IEAAHXZ @ 1373 NONAME
 ?CalcPageDisplaySize@CPreviewView@@IEAA?AVCSize@@XZ @ 1374 NONAME
 ?CalcScaleRatio@CPreviewView@@MEAA?AVCSize@@V2@0@Z @ 1375 NONAME
 ?CalcSize@CToolBar@@IEAA?AVCSize@@PEAU_TBBUTTON@@H@Z @ 1376 NONAME
 ?CalcWindowRect@CEditView@@MEAAXPEAUtagRECT@@I@Z @ 1377 NONAME
 ?CalcWindowRect@CScrollView@@UEAAXPEAUtagRECT@@I@Z @ 1378 NONAME
 ?CalcWindowRect@CView@@UEAAXPEAUtagRECT@@I@Z @ 1379 NONAME
 ?CalcWindowRect@CWnd@@UEAAXPEAUtagRECT@@I@Z @ 1380 NONAME
 ?CallMemberFunc@CCmdTarget@@IEAAJPEBUAFX_DISPMAP_ENTRY@@GPEAUtagVARIANT@@PEAUtagDISPPARAMS@@PEAI@Z @ 1381 NONAME
 ?CanAccessExternal@CDHtmlDialog@@UEAAHXZ @ 1382 NONAME
 ?CanActivate@COleClientItem@@MEAAHXZ @ 1383 NONAME
 ?CanActivate@CRichEditCntrItem@@UEAAHXZ @ 1384 NONAME
 ?CanActivateNext@CSplitterWnd@@UEAAHH@Z @ 1385 NONAME
 ?CanBookmark@CRecordset@@QEBAHXZ @ 1386 NONAME
 ?Cancel@CDatabase@@QEAAXXZ @ 1387 NONAME
 ?Cancel@CRecordset@@QEAAXXZ @ 1388 NONAME
 ?CancelBlockingCall@CSocket@@QEAAXXZ @ 1389 NONAME
 ?CancelDrag@CDragListBox@@UEAAXVCPoint@@@Z @ 1390 NONAME
 ?Cancelled@XNotifyDBEvents@COleControlSite@@UEAAJKKQEAUtagDBNOTIFYREASON@@@Z @ 1391 NONAME
 ?CancelLink@COleUILinkInfo@@UEAAJK@Z @ 1392 NONAME
 ?CancelLoop@CDockContext@@QEAAXXZ @ 1393 NONAME
 ?CancelToClose@CPropertyPage@@QEAAXXZ @ 1394 NONAME
 ?CancelToolTips@CWnd@@SAXH@Z @ 1395 NONAME
 ?CancelUpdate@CRecordset@@QEAAXXZ @ 1396 NONAME
 ?CanCloseFrame@CDocument@@UEAAHPEAVCFrameWnd@@@Z @ 1397 NONAME
 ?CanCloseFrame@COleServerDoc@@UEAAHPEAVCFrameWnd@@@Z @ 1398 NONAME
 ?CanCreateFromData@COleClientItem@@SAHPEBVCOleDataObject@@@Z @ 1399 NONAME
 ?CanCreateLinkFromData@COleClientItem@@SAHPEBVCOleDataObject@@@Z @ 1400 NONAME
 ?CanDock@CDockContext@@QEAAKXZ @ 1401 NONAME
 ?CanDock@CFrameWnd@@QEAAKVCRect@@KPEAPEAVCDockBar@@@Z @ 1402 NONAME
 ?CanEnterHelpMode@CFrameWnd@@QEAAHXZ @ 1403 NONAME
 ?CanInPlaceActivate@XOleIPSite@COleClientItem@@UEAAJXZ @ 1404 NONAME
 ?CanInPlaceActivate@XOleIPSite@COleControlSite@@UEAAJXZ @ 1405 NONAME
 ?CanPaste@COleClientItem@@SAHXZ @ 1406 NONAME
 ?CanPaste@CRichEditCtrl@@QEBAHI@Z @ 1407 NONAME
 ?CanPaste@CRichEditView@@QEBAHXZ @ 1408 NONAME
 ?CanPasteLink@COleClientItem@@SAHXZ @ 1409 NONAME
 ?CanWindowlessActivate@XOleIPSite@COleControlSite@@UEAAJXZ @ 1410 NONAME
 ?CDHtmlSinkHandlerQueryInterface@CDHtmlEventSink@@UEAAJAEBU_GUID@@PEAPEAX@Z @ 1411 NONAME
 ?CenterOnPoint@CScrollView@@IEAAXVCPoint@@@Z @ 1412 NONAME
 ?CenterWindow@CWnd@@QEAAXPEAV1@@Z @ 1413 NONAME
 ?ChangeType@COleVariant@@QEAAXGPEAUtagVARIANT@@@Z @ 1414 NONAME
 ?CharToItem@CListBox@@UEAAHII@Z @ 1415 NONAME
 ?CharToOemA@?$CStringT@_WV?$StrTraitMFC_DLL@_WV?$ChTraitsCRT@_W@ATL@@@@@ATL@@QEAAXXZ @ 1416 NONAME
 ?CharToOemA@?$CStringT@DV?$StrTraitMFC_DLL@DV?$ChTraitsCRT@D@ATL@@@@@ATL@@QEAAXXZ @ 1417 NONAME
 ?Check@CDatabase@@UEBAHF@Z @ 1418 NONAME
 ?Check@CRecordset@@UEBAHF@Z @ 1419 NONAME
 ?CheckAutoCenter@CDialog@@UEAAHXZ @ 1420 NONAME
 ?CheckAutoCenter@CWnd@@UEAAHXZ @ 1421 NONAME
 ?CheckCount@CArchive@@QEAAXXZ @ 1422 NONAME
 ?CheckDlgButton@COleControlContainer@@UEAAXHI@Z @ 1423 NONAME
 ?CheckDlgButton@CWnd@@QEAAXHI@Z @ 1424 NONAME
 ?CheckFromPoint@CCheckListBox@@IEAAHVCPoint@@AEAH@Z @ 1425 NONAME
 ?CheckGeneral@COleClientItem@@MEAAXJ@Z @ 1426 NONAME
 ?CheckHstmt@CDatabase@@QEBAHFPEAX@Z @ 1427 NONAME
 ?CheckImplicitLoad@?$CStringT@_WV?$StrTraitMFC_DLL@_WV?$ChTraitsCRT@_W@ATL@@@@@ATL@@AEAA_NPEBX@Z @ 1428 NONAME
 ?CheckImplicitLoad@?$CStringT@DV?$StrTraitMFC_DLL@DV?$ChTraitsCRT@D@ATL@@@@@ATL@@AEAA_NPEBX@Z @ 1429 NONAME
 ?CheckRadioButton@COleControlContainer@@UEAAXHHH@Z @ 1430 NONAME
 ?CheckRadioButton@CWnd@@QEAAXHHH@Z @ 1431 NONAME
 ?CheckRowsetCurrencyStatus@CRecordset@@QEAAXGJ@Z @ 1432 NONAME
 ?CheckRowsetError@CRecordset@@UEAAXF@Z @ 1433 NONAME
 ?CheckScrollBars@CScrollView@@QEBAXAEAH0@Z @ 1434 NONAME
 ?Cleanup@CPropertyPage@@IEAAXXZ @ 1435 NONAME
 ?CleanupObjectArray@COlePropertyPage@@IEAAXXZ @ 1436 NONAME
 ?Clear@CDBVariant@@QEAAXXZ @ 1437 NONAME
 ?Clear@CDockState@@QEAAXXZ @ 1438 NONAME
 ?ClearDirtyFieldStatus@CRecordset@@QEAAXK@Z @ 1439 NONAME
 ?ClearFieldStatus@CRecordset@@QEAAXXZ @ 1440 NONAME
 ?ClearNullFieldStatus@CRecordset@@QEAAXK@Z @ 1441 NONAME
 ?ClearNullParamStatus@CRecordset@@QEAAXK@Z @ 1442 NONAME
 ?ClientToParent@COleControl@@UEBAXPEBUtagRECT@@PEAUtagPOINT@@@Z @ 1443 NONAME
 ?ClientToScreen@CWnd@@QEBAXPEAUtagRECT@@@Z @ 1444 NONAME
 ?ClipCaretRect@COleControl@@QEAAHPEAUtagRECT@@@Z @ 1445 NONAME
 ?ClipToPage@CPreviewDC@@QEAAXXZ @ 1446 NONAME
 ?Clone@CAfxStringMgr@@UEAAPEAUIAtlStringMgr@ATL@@XZ @ 1447 NONAME
 ?Clone@CArchiveStream@@UEAAJPEAPEAUIStream@@@Z @ 1448 NONAME
 ?Clone@XEnumVOID@CEnumArray@@UEAAJPEAPEAUIEnumVOID@@@Z @ 1449 NONAME
 ?Clone@XOleDocumentView@CDocObjectServer@@UEAAJPEAUIOleInPlaceSite@@PEAPEAUIOleDocumentView@@@Z @ 1450 NONAME
 ?CloneData@?$CSimpleStringT@_W$00@ATL@@CAPEAUCStringData@2@PEAU32@@Z @ 1451 NONAME
 ?CloneData@?$CSimpleStringT@D$00@ATL@@CAPEAUCStringData@2@PEAU32@@Z @ 1452 NONAME
 ?Close@CArchive@@QEAAXXZ @ 1453 NONAME
 ?Close@CAsyncMonikerFile@@UEAAXXZ @ 1454 NONAME
 ?Close@CAsyncSocket@@UEAAXXZ @ 1455 NONAME
 ?Close@CCachedDataPathProperty@@UEAAXXZ @ 1456 NONAME
 ?Close@CDatabase@@UEAAXXZ @ 1457 NONAME
 ?Close@CFile@@UEAAXXZ @ 1458 NONAME
 ?Close@CFileFind@@QEAAXXZ @ 1459 NONAME
 ?Close@CInternetConnection@@UEAAXXZ @ 1460 NONAME
 ?Close@CInternetFile@@UEAAXXZ @ 1461 NONAME
 ?Close@CInternetSession@@UEAAXXZ @ 1462 NONAME
 ?Close@CMemFile@@UEAAXXZ @ 1463 NONAME
 ?Close@CMirrorFile@@UEAAXXZ @ 1464 NONAME
 ?Close@CMonikerFile@@UEAAXXZ @ 1465 NONAME
 ?Close@COleClientItem@@QEAAXW4tagOLECLOSE@@@Z @ 1466 NONAME
 ?Close@COleStreamFile@@UEAAXXZ @ 1467 NONAME
 ?Close@CRecordset@@UEAAXXZ @ 1468 NONAME
 ?Close@CSocket@@UEAAXXZ @ 1469 NONAME
 ?Close@CSocketFile@@UEAAXXZ @ 1470 NONAME
 ?Close@CStdioFile@@UEAAXXZ @ 1471 NONAME
 ?Close@XOleObject@CDocObjectServer@@UEAAJK@Z @ 1472 NONAME
 ?Close@XOleObject@COleControl@@UEAAJK@Z @ 1473 NONAME
 ?Close@XOleObject@COleServerDoc@@UEAAJK@Z @ 1474 NONAME
 ?Close@XOleObject@COleServerItem@@UEAAJK@Z @ 1475 NONAME
 ?CloseAllDocuments@CDocManager@@UEAAXH@Z @ 1476 NONAME
 ?CloseAllDocuments@CDocTemplate@@UEAAXH@Z @ 1477 NONAME
 ?CloseAllDocuments@CWinApp@@QEAAXH@Z @ 1478 NONAME
 ?CloseContext@CFileFind@@MEAAXXZ @ 1479 NONAME
 ?CloseContext@CFtpFileFind@@MEAAXXZ @ 1480 NONAME
 ?CloseContext@CGopherFileFind@@MEAAXXZ @ 1481 NONAME
 ?CloseView@XOleDocumentView@CDocObjectServer@@UEAAJK@Z @ 1482 NONAME
 ?Collate@?$CStringT@_WV?$StrTraitMFC_DLL@_WV?$ChTraitsCRT@_W@ATL@@@@@ATL@@QEBAHPEB_W@Z @ 1483 NONAME
 ?Collate@?$CStringT@DV?$StrTraitMFC_DLL@DV?$ChTraitsCRT@D@ATL@@@@@ATL@@QEBAHPEBD@Z @ 1484 NONAME
 ?CollateNoCase@?$CStringT@_WV?$StrTraitMFC_DLL@_WV?$ChTraitsCRT@_W@ATL@@@@@ATL@@QEBAHPEB_W@Z @ 1485 NONAME
 ?CollateNoCase@?$CStringT@DV?$StrTraitMFC_DLL@DV?$ChTraitsCRT@D@ATL@@@@@ATL@@QEBAHPEBD@Z @ 1486 NONAME
 ?Command@CFtpConnection@@QEAAPEAVCInternetFile@@PEBDW4CmdResponseType@1@K_K@Z @ 1487 NONAME
 ?CommandToIndex@CStatusBar@@QEBAHI@Z @ 1488 NONAME
 ?CommandToIndex@CToolBar@@QEBAHI@Z @ 1489 NONAME
 ?Commit@CArchiveStream@@UEAAJK@Z @ 1490 NONAME
 ?CommitItem@COleClientItem@@UEAAXH@Z @ 1491 NONAME
 ?CommitItems@COleDocument@@QEAAXHPEAUIStorage@@@Z @ 1492 NONAME
 ?CommitTrans@CDatabase@@QEAAHXZ @ 1493 NONAME
 ?CommonConstruct@COleObjectFactory@@IEAAXAEBU_GUID@@PEAUCRuntimeClass@@HHPEBD@Z @ 1494 NONAME
 ?CommonConstruct@CPropertyPage@@IEAAXPEBDI@Z @ 1495 NONAME
 ?CommonConstruct@CPropertyPage@@IEAAXPEBDIII@Z @ 1496 NONAME
 ?CommonConstruct@CPropertySheet@@QEAAXPEAVCWnd@@I@Z @ 1497 NONAME
 ?CommonConstruct@CPropertySheet@@QEAAXPEAVCWnd@@IPEAUHBITMAP__@@PEAUHPALETTE__@@1@Z @ 1498 NONAME
 ?CommonConstruct@CWinThread@@QEAAXXZ @ 1499 NONAME
 ?Compare@?$CStringT@_WV?$StrTraitMFC_DLL@_WV?$ChTraitsCRT@_W@ATL@@@@@ATL@@QEBAHPEB_W@Z @ 1500 NONAME
 ?Compare@?$CStringT@DV?$StrTraitMFC_DLL@DV?$ChTraitsCRT@D@ATL@@@@@ATL@@QEBAHPEBD@Z @ 1501 NONAME
 ?CompareItem@CComboBox@@UEAAHPEAUtagCOMPAREITEMSTRUCT@@@Z @ 1502 NONAME
 ?CompareItem@CListBox@@UEAAHPEAUtagCOMPAREITEMSTRUCT@@@Z @ 1503 NONAME
 ?CompareNoCase@?$CStringT@_WV?$StrTraitMFC_DLL@_WV?$ChTraitsCRT@_W@ATL@@@@@ATL@@QEBAHPEB_W@Z @ 1504 NONAME
 ?CompareNoCase@?$CStringT@DV?$StrTraitMFC_DLL@DV?$ChTraitsCRT@D@ATL@@@@@ATL@@QEBAHPEBD@Z @ 1505 NONAME
 ?ComputeDeltas@CPreviewDC@@IEAA?AVCSize@@AEAHPEBDAEAIHIPEAHHPEAD30@Z @ 1506 NONAME
 ?Concatenate@?$CSimpleStringT@_W$00@ATL@@KAXAEAV12@PEB_WH1H@Z @ 1507 NONAME
 ?Concatenate@?$CSimpleStringT@D$00@ATL@@KAXAEAV12@PEBDH1H@Z @ 1508 NONAME
 ?Connect@CAsyncSocket@@QEAAHPEBDI@Z @ 1509 NONAME
 ?Connect@CDatabase@@IEAAHK@Z @ 1510 NONAME
 ?ConnectDHtmlElementEvents@CDHtmlDialog@@IEAAJ_K@Z @ 1511 NONAME
 ?ConnectDHtmlEvents@CDHtmlDialog@@IEAAJPEAUIUnknown@@@Z @ 1512 NONAME
 ?ConnectHelper@CAsyncSocket@@MEAAHPEBUsockaddr@@H@Z @ 1513 NONAME
 ?ConnectHelper@CSocket@@MEAAHPEBUsockaddr@@H@Z @ 1514 NONAME
 ?ConnectSink@COleControlSite@@IEAAKAEBU_GUID@@PEAUIUnknown@@@Z @ 1515 NONAME
 ?ConnectTemplate@COleTemplateServer@@QEAAXAEBU_GUID@@PEAVCDocTemplate@@H@Z @ 1516 NONAME
 ?ConnectToConnectionPoint@CDHtmlEventSink@@QEAAJPEAUIUnknown@@AEBU_GUID@@PEAK@Z @ 1517 NONAME
 ?ConnectToControl@CDHtmlControlSink@@QEAAJPEAUIUnknown@@@Z @ 1518 NONAME
 ?ConnectView@COleServerDoc@@IEAAXPEAVCWnd@@PEAVCView@@@Z @ 1519 NONAME
 ?Construct@?$CStringT@_WV?$StrTraitMFC_DLL@_WV?$ChTraitsCRT@_W@ATL@@@@@ATL@@SAXPEAV12@@Z @ 1520 NONAME
 ?Construct@?$CStringT@DV?$StrTraitMFC_DLL@DV?$ChTraitsCRT@D@ATL@@@@@ATL@@SAXPEAV12@@Z @ 1521 NONAME
 ?Construct@CPropertyPage@@QEAAXII@Z @ 1522 NONAME
 ?Construct@CPropertyPage@@QEAAXIIII@Z @ 1523 NONAME
 ?Construct@CPropertyPage@@QEAAXPEBDI@Z @ 1524 NONAME
 ?Construct@CPropertyPage@@QEAAXPEBDIII@Z @ 1525 NONAME
 ?Construct@CPropertySheet@@QEAAXIPEAVCWnd@@I@Z @ 1526 NONAME
 ?Construct@CPropertySheet@@QEAAXIPEAVCWnd@@IPEAUHBITMAP__@@PEAUHPALETTE__@@1@Z @ 1527 NONAME
 ?Construct@CPropertySheet@@QEAAXPEBDPEAVCWnd@@I@Z @ 1528 NONAME
 ?Construct@CPropertySheet@@QEAAXPEBDPEAVCWnd@@IPEAUHBITMAP__@@PEAUHPALETTE__@@2@Z @ 1529 NONAME
 ?Construct@CRectTracker@@IEAAXXZ @ 1530 NONAME
 ?ContextSensitiveHelp@XOleInPlaceActiveObject@COleControl@@UEAAJH@Z @ 1531 NONAME
 ?ContextSensitiveHelp@XOleInPlaceActiveObject@COleServerDoc@@UEAAJH@Z @ 1532 NONAME
 ?ContextSensitiveHelp@XOleInPlaceFrame@COleFrameHook@@UEAAJH@Z @ 1533 NONAME
 ?ContextSensitiveHelp@XOleInPlaceObject@COleControl@@UEAAJH@Z @ 1534 NONAME
 ?ContextSensitiveHelp@XOleInPlaceObject@COleServerDoc@@UEAAJH@Z @ 1535 NONAME
 ?ContextSensitiveHelp@XOleIPFrame@COleControlContainer@@UEAAJH@Z @ 1536 NONAME
 ?ContextSensitiveHelp@XOleIPSite@COleClientItem@@UEAAJH@Z @ 1537 NONAME
 ?ContextSensitiveHelp@XOleIPSite@COleControlSite@@UEAAJH@Z @ 1538 NONAME
 ?ContextSensitiveHelp@XRichEditOleCallback@CRichEditView@@UEAAJH@Z @ 1539 NONAME
 ?ContinueModal@CPropertySheet@@UEAAHXZ @ 1540 NONAME
 ?ContinueModal@CWnd@@UEAAHXZ @ 1541 NONAME
 ?ControlInfoChanged@COleControl@@QEAAXXZ @ 1542 NONAME
 ?ConvertObject@XOleUIObjInfo@COlePropertiesDialog@@UEAAJKAEBU_GUID@@@Z @ 1543 NONAME
 ?ConvertTo@COleClientItem@@UEAAHAEBU_GUID@@@Z @ 1544 NONAME
 ?ConvertTo@CRichEditCntrItem@@UEAAHAEBU_GUID@@@Z @ 1545 NONAME
 ?Copy@CByteArray@@QEAAXAEBV1@@Z @ 1546 NONAME
 ?Copy@CDWordArray@@QEAAXAEBV1@@Z @ 1547 NONAME
 ?Copy@CObArray@@QEAAXAEBV1@@Z @ 1548 NONAME
 ?Copy@COleSafeArray@@QEAAXPEAPEAUtagSAFEARRAY@@@Z @ 1549 NONAME
 ?Copy@CPtrArray@@QEAAXAEBV1@@Z @ 1550 NONAME
 ?Copy@CStringArray@@QEAAXAEBV1@@Z @ 1551 NONAME
 ?Copy@CUIntArray@@QEAAXAEBV1@@Z @ 1552 NONAME
 ?Copy@CWordArray@@QEAAXAEBV1@@Z @ 1553 NONAME
 ?CopyChars@?$CSimpleStringT@_W$00@ATL@@SAXPEA_WPEB_WH@Z @ 1554 NONAME
 ?CopyChars@?$CSimpleStringT@D$00@ATL@@SAXPEADPEBDH@Z @ 1555 NONAME
 ?CopyCharsOverlapped@?$CSimpleStringT@_W$00@ATL@@SAXPEA_WPEB_WH@Z @ 1556 NONAME
 ?CopyCharsOverlapped@?$CSimpleStringT@D$00@ATL@@SAXPEADPEBDH@Z @ 1557 NONAME
 ?CopyColumnID@CDataSourceControl@@QEAAHPEAUtagDBCOLUMNID@@PEBU2@@Z @ 1558 NONAME
 ?CopyTo@CArchiveStream@@UEAAJPEAUIStream@@T_ULARGE_INTEGER@@PEAT3@2@Z @ 1559 NONAME
 ?CopyToClipboard@COleClientItem@@QEAAXH@Z @ 1560 NONAME
 ?CopyToClipboard@COleServerItem@@QEAAXH@Z @ 1561 NONAME
 ?Create@CAnimateCtrl@@UEAAHKAEBUtagRECT@@PEAVCWnd@@I@Z @ 1562 NONAME
 ?Create@CAsyncSocket@@QEAAHIHJPEBD@Z @ 1563 NONAME
 ?Create@CButton@@UEAAHPEBDKAEBUtagRECT@@PEAVCWnd@@I@Z @ 1564 NONAME
 ?Create@CCheckListBox@@UEAAHKAEBUtagRECT@@PEAVCWnd@@I@Z @ 1565 NONAME
 ?Create@CComboBox@@UEAAHKAEBUtagRECT@@PEAVCWnd@@I@Z @ 1566 NONAME
 ?Create@CComboBoxEx@@UEAAHKAEBUtagRECT@@PEAVCWnd@@I@Z @ 1567 NONAME
 ?Create@CControlFrameWnd@@UEAAHPEBD@Z @ 1568 NONAME
 ?Create@CDateTimeCtrl@@UEAAHKAEBUtagRECT@@PEAVCWnd@@I@Z @ 1569 NONAME
 ?Create@CDialog@@UEAAHPEBDPEAVCWnd@@@Z @ 1570 NONAME
 ?Create@CDialogBar@@UEAAHPEAVCWnd@@PEBDII@Z @ 1571 NONAME
 ?Create@CDockBar@@UEAAHPEAVCWnd@@KI@Z @ 1572 NONAME
 ?Create@CEdit@@QEAAHKAEBUtagRECT@@PEAVCWnd@@I@Z @ 1573 NONAME
 ?Create@CFindReplaceDialog@@UEAAHHPEBD0KPEAVCWnd@@@Z @ 1574 NONAME
 ?Create@CFormView@@MEAAHPEBD0KAEBUtagRECT@@PEAVCWnd@@IPEAUCCreateContext@@@Z @ 1575 NONAME
 ?Create@CFrameWnd@@UEAAHPEBD0KAEBUtagRECT@@PEAVCWnd@@0KPEAUCCreateContext@@@Z @ 1576 NONAME
 ?Create@CHeaderCtrl@@UEAAHKAEBUtagRECT@@PEAVCWnd@@I@Z @ 1577 NONAME
 ?Create@CHotKeyCtrl@@UEAAHKAEBUtagRECT@@PEAVCWnd@@I@Z @ 1578 NONAME
 ?Create@CHtmlEditCtrl@@UEAAHPEBDKAEBUtagRECT@@PEAVCWnd@@HPEAUCCreateContext@@@Z @ 1579 NONAME
 ?Create@CHtmlEditView@@UEAAHPEBD0KAEBUtagRECT@@PEAVCWnd@@IPEAUCCreateContext@@@Z @ 1580 NONAME
 ?Create@CHtmlView@@UEAAHPEBD0KAEBUtagRECT@@PEAVCWnd@@IPEAUCCreateContext@@@Z @ 1581 NONAME
 ?Create@CImageList@@QEAAHAEAV1@H0HHH@Z @ 1582 NONAME
 ?Create@CImageList@@QEAAHHHIHH@Z @ 1583 NONAME
 ?Create@CImageList@@QEAAHIHHK@Z @ 1584 NONAME
 ?Create@CImageList@@QEAAHPEAV1@@Z @ 1585 NONAME
 ?Create@CImageList@@QEAAHPEBDHHK@Z @ 1586 NONAME
 ?Create@CIPAddressCtrl@@UEAAHKAEBUtagRECT@@PEAVCWnd@@I@Z @ 1587 NONAME
 ?Create@CLinkCtrl@@UEAAHKAEBUtagRECT@@PEAVCWnd@@I@Z @ 1588 NONAME
 ?Create@CListBox@@UEAAHKAEBUtagRECT@@PEAVCWnd@@I@Z @ 1589 NONAME
 ?Create@CListCtrl@@QEAAHKAEBUtagRECT@@PEAVCWnd@@I@Z @ 1590 NONAME
 ?Create@CMDIChildWnd@@UEAAHPEBD0KAEBUtagRECT@@PEAVCMDIFrameWnd@@PEAUCCreateContext@@@Z @ 1591 NONAME
 ?Create@CMiniDockFrameWnd@@UEAAHPEAVCWnd@@K@Z @ 1592 NONAME
 ?Create@CMiniFrameWnd@@UEAAHPEBD0KAEBUtagRECT@@PEAVCWnd@@I@Z @ 1593 NONAME
 ?Create@CMonthCalCtrl@@UEAAHKAEBUtagPOINT@@PEAVCWnd@@I@Z @ 1594 NONAME
 ?Create@CMonthCalCtrl@@UEAAHKAEBUtagRECT@@PEAVCWnd@@I@Z @ 1595 NONAME
 ?Create@COleResizeBar@@UEAAHPEAVCWnd@@KI@Z @ 1596 NONAME
 ?Create@COleSafeArray@@QEAAXGKPEAK@Z @ 1597 NONAME
 ?Create@COleSafeArray@@QEAAXGKPEAUtagSAFEARRAYBOUND@@@Z @ 1598 NONAME
 ?Create@CPlex@@SAPEAU1@AEAPEAU1@_K1@Z @ 1599 NONAME
 ?Create@CProgressCtrl@@UEAAHKAEBUtagRECT@@PEAVCWnd@@I@Z @ 1600 NONAME
 ?Create@CPropertySheet@@UEAAHPEAVCWnd@@KK@Z @ 1601 NONAME
 ?Create@CReBar@@UEAAHPEAVCWnd@@KKI@Z @ 1602 NONAME
 ?Create@CReBarCtrl@@QEAAHKAEBUtagRECT@@PEAVCWnd@@I@Z @ 1603 NONAME
 ?Create@CReflectorWnd@@QEAAHAEBVCRect@@PEAUHWND__@@@Z @ 1604 NONAME
 ?Create@CRichEditCtrl@@QEAAHKAEBUtagRECT@@PEAVCWnd@@I@Z @ 1605 NONAME
 ?Create@CScrollBar@@UEAAHKAEBUtagRECT@@PEAVCWnd@@I@Z @ 1606 NONAME
 ?Create@CSliderCtrl@@UEAAHKAEBUtagRECT@@PEAVCWnd@@I@Z @ 1607 NONAME
 ?Create@CSpinButtonCtrl@@UEAAHKAEBUtagRECT@@PEAVCWnd@@I@Z @ 1608 NONAME
 ?Create@CSplitterWnd@@UEAAHPEAVCWnd@@HHUtagSIZE@@PEAUCCreateContext@@KI@Z @ 1609 NONAME
 ?Create@CStatic@@UEAAHPEBDKAEBUtagRECT@@PEAVCWnd@@I@Z @ 1610 NONAME
 ?Create@CStatusBar@@UEAAHPEAVCWnd@@KI@Z @ 1611 NONAME
 ?Create@CStatusBarCtrl@@QEAAHKAEBUtagRECT@@PEAVCWnd@@I@Z @ 1612 NONAME
 ?Create@CTabCtrl@@UEAAHKAEBUtagRECT@@PEAVCWnd@@I@Z @ 1613 NONAME
 ?Create@CToolBar@@UEAAHPEAVCWnd@@KI@Z @ 1614 NONAME
 ?Create@CToolBarCtrl@@QEAAHKAEBUtagRECT@@PEAVCWnd@@I@Z @ 1615 NONAME
 ?Create@CToolTipCtrl@@UEAAHPEAVCWnd@@K@Z @ 1616 NONAME
 ?Create@CTreeCtrl@@QEAAHKAEBUtagRECT@@PEAVCWnd@@I@Z @ 1617 NONAME
 ?Create@CWnd@@UEAAHPEBD0KAEBUtagRECT@@PEAV1@IPEAUCCreateContext@@@Z @ 1618 NONAME
 ?CreateAccessibleProxy@CWnd@@UEAAJ_K_JPEA_J@Z @ 1619 NONAME
 ?CreateActivationContext@AFX_MODULE_STATE@@QEAAXXZ @ 1620 NONAME
 ?CreateBindContext@CMonikerFile@@IEAAPEAUIBindCtx@@PEAVCFileException@@@Z @ 1621 NONAME
 ?CreateBindHost@CMonikerFile@@KAPEAUIBindHost@@XZ @ 1622 NONAME
 ?CreateBindStatusCallback@CAsyncMonikerFile@@MEAAPEAUIUnknown@@PEAU2@@Z @ 1623 NONAME
 ?CreateClient@CMDIFrameWnd@@UEAAHPEAUtagCREATESTRUCTA@@PEAVCMenu@@@Z @ 1624 NONAME
 ?CreateClientItem@CRichEditDoc@@UEBAPEAVCRichEditCntrItem@@PEAU_reobject@@@Z @ 1625 NONAME
 ?CreateCloneFrom@COleClientItem@@QEAAHPEBV1@@Z @ 1626 NONAME
 ?CreateCommon@CSplitterWnd@@IEAAHPEAVCWnd@@UtagSIZE@@KI@Z @ 1627 NONAME
 ?CreateConnectionArray@CConnectionPoint@@QEAAXXZ @ 1628 NONAME
 ?CreateContainer@COccManager@@UEAAPEAVCOleControlContainer@@PEAVCWnd@@@Z @ 1629 NONAME
 ?CreateControl@COleControlContainer@@QEAAHPEAVCWnd@@AEBU_GUID@@PEBDKAEBUtagRECT@@IPEAVCFile@@HPEA_WPEAPEAVCOleControlSite@@@Z @ 1630 NONAME
 ?CreateControl@COleControlContainer@@QEAAHPEAVCWnd@@AEBU_GUID@@PEBDKPEBUtagPOINT@@PEBUtagSIZE@@IPEAVCFile@@HPEA_WPEAPEAVCOleControlSite@@@Z @ 1631 NONAME
 ?CreateControl@COleControlContainer@@QEAAHPEAVCWnd@@AEBVCControlCreationInfo@@KPEBUtagPOINT@@PEBUtagSIZE@@I@Z @ 1632 NONAME
 ?CreateControl@COleControlSite@@QEAAJPEAVCWnd@@AEBVCControlCreationInfo@@KPEBUtagPOINT@@PEBUtagSIZE@@I@Z @ 1633 NONAME
 ?CreateControl@COleControlSite@@UEAAJPEAVCWnd@@AEBU_GUID@@PEBDKAEBUtagRECT@@IPEAVCFile@@HPEA_W@Z @ 1634 NONAME
 ?CreateControl@COleControlSite@@UEAAJPEAVCWnd@@AEBU_GUID@@PEBDKPEBUtagPOINT@@PEBUtagSIZE@@IPEAVCFile@@HPEA_W@Z @ 1635 NONAME
 ?CreateControl@CWnd@@QEAAHAEBU_GUID@@PEBDKAEBUtagRECT@@PEAV1@IPEAVCFile@@HPEA_W@Z @ 1636 NONAME
 ?CreateControl@CWnd@@QEAAHAEBU_GUID@@PEBDKPEBUtagPOINT@@PEBUtagSIZE@@PEAV1@IPEAVCFile@@HPEA_W@Z @ 1637 NONAME
 ?CreateControl@CWnd@@QEAAHAEBVCControlCreationInfo@@KPEBUtagPOINT@@PEBUtagSIZE@@PEAV1@I@Z @ 1638 NONAME
 ?CreateControl@CWnd@@QEAAHPEBD0KAEBUtagRECT@@PEAV1@IPEAVCFile@@HPEA_W@Z @ 1639 NONAME
 ?CreateControlCommon@COleControlContainer@@QEAAHPEAVCWnd@@AEBU_GUID@@AEBVCControlCreationInfo@@PEBDKPEBUtagPOINT@@PEBUtagSIZE@@IPEAVCFile@@HPEA_WPEAPEAVCOleControlSite@@@Z @ 1640 NONAME
 ?CreateControlCommon@COleControlSite@@MEAAJPEAVCWnd@@AEBU_GUID@@AEBVCControlCreationInfo@@PEBDKPEBUtagPOINT@@PEBUtagSIZE@@IPEAVCFile@@HPEA_W@Z @ 1641 NONAME
 ?CreateControlContainer@CWnd@@MEAAHPEAPEAVCOleControlContainer@@@Z @ 1642 NONAME
 ?CreateControlSite@CDHtmlDialog@@UEAAHPEAVCOleControlContainer@@PEAPEAVCOleControlSite@@IAEBU_GUID@@@Z @ 1643 NONAME
 ?CreateControlSite@CHtmlView@@UEAAHPEAVCOleControlContainer@@PEAPEAVCOleControlSite@@IAEBU_GUID@@@Z @ 1644 NONAME
 ?CreateControlSite@CWnd@@MEAAHPEAVCOleControlContainer@@PEAPEAVCOleControlSite@@IAEBU_GUID@@@Z @ 1645 NONAME
 ?CreateControlWindow@COleControl@@MEAAHPEAUHWND__@@AEBVCRect@@PEBUtagRECT@@@Z @ 1646 NONAME
 ?CreateDIBPatternBrush@CBrush@@QEAAHPEAXI@Z @ 1647 NONAME
 ?CreateDirectoryA@CFtpConnection@@QEAAHPEBD@Z @ 1648 NONAME
 ?CreateDispatch@COleDispatchDriver@@QEAAHAEBU_GUID@@PEAVCOleException@@@Z @ 1649 NONAME
 ?CreateDispatch@COleDispatchDriver@@QEAAHPEBDPEAVCOleException@@@Z @ 1650 NONAME
 ?CreateDlg@CWnd@@IEAAHPEBDPEAV1@@Z @ 1651 NONAME
 ?CreateDlgControl@COccManager@@IEAAHPEAVCWnd@@PEAUHWND__@@HPEAUDLGITEMTEMPLATE@@GPEAEKPEAPEAU3@@Z @ 1652 NONAME
 ?CreateDlgControls@COccManager@@UEAAHPEAVCWnd@@PEAXPEAU_AFX_OCC_DIALOG_INFO@@@Z @ 1653 NONAME
 ?CreateDlgControls@COccManager@@UEAAHPEAVCWnd@@PEBDPEAU_AFX_OCC_DIALOG_INFO@@@Z @ 1654 NONAME
 ?CreateDlgIndirect@CWnd@@IEAAHPEBUDLGTEMPLATE@@PEAV1@PEAUHINSTANCE__@@@Z @ 1655 NONAME
 ?CreateDragImage@CListCtrl@@QEAAPEAVCImageList@@HPEAUtagPOINT@@@Z @ 1656 NONAME
 ?CreateDragImage@CTreeCtrl@@QEAAPEAVCImageList@@PEAU_TREEITEM@@@Z @ 1657 NONAME
 ?CreateEmpty@CPictureHolder@@QEAAHXZ @ 1658 NONAME
 ?CreateEx@CAnimateCtrl@@UEAAHKKAEBUtagRECT@@PEAVCWnd@@I@Z @ 1659 NONAME
 ?CreateEx@CComboBoxEx@@UEAAHKKAEBUtagRECT@@PEAVCWnd@@I@Z @ 1660 NONAME
 ?CreateEx@CHeaderCtrl@@UEAAHKKAEBUtagRECT@@PEAVCWnd@@I@Z @ 1661 NONAME
 ?CreateEx@CHotKeyCtrl@@UEAAHKKAEBUtagRECT@@PEAVCWnd@@I@Z @ 1662 NONAME
 ?CreateEx@CIPAddressCtrl@@UEAAHKKAEBUtagRECT@@PEAVCWnd@@I@Z @ 1663 NONAME
 ?CreateEx@CLinkCtrl@@UEAAHKKAEBUtagRECT@@PEAVCWnd@@I@Z @ 1664 NONAME
 ?CreateEx@CListCtrl@@QEAAHKKAEBUtagRECT@@PEAVCWnd@@I@Z @ 1665 NONAME
 ?CreateEx@CMiniFrameWnd@@UEAAHKPEBD0KAEBUtagRECT@@PEAVCWnd@@I@Z @ 1666 NONAME
 ?CreateEx@CProgressCtrl@@UEAAHKKAEBUtagRECT@@PEAVCWnd@@I@Z @ 1667 NONAME
 ?CreateEx@CReBarCtrl@@QEAAHKKAEBUtagRECT@@PEAVCWnd@@I@Z @ 1668 NONAME
 ?CreateEx@CRichEditCtrl@@QEAAHKKAEBUtagRECT@@PEAVCWnd@@I@Z @ 1669 NONAME
 ?CreateEx@CSliderCtrl@@UEAAHKKAEBUtagRECT@@PEAVCWnd@@I@Z @ 1670 NONAME
 ?CreateEx@CSpinButtonCtrl@@UEAAHKKAEBUtagRECT@@PEAVCWnd@@I@Z @ 1671 NONAME
 ?CreateEx@CStatusBar@@UEAAHPEAVCWnd@@KKI@Z @ 1672 NONAME
 ?CreateEx@CStatusBarCtrl@@QEAAHKKAEBUtagRECT@@PEAVCWnd@@I@Z @ 1673 NONAME
 ?CreateEx@CTabCtrl@@UEAAHKKAEBUtagRECT@@PEAVCWnd@@I@Z @ 1674 NONAME
 ?CreateEx@CToolBar@@UEAAHPEAVCWnd@@KKVCRect@@I@Z @ 1675 NONAME
 ?CreateEx@CToolBarCtrl@@QEAAHKKAEBUtagRECT@@PEAVCWnd@@I@Z @ 1676 NONAME
 ?CreateEx@CToolTipCtrl@@UEAAHPEAVCWnd@@KK@Z @ 1677 NONAME
 ?CreateEx@CTreeCtrl@@QEAAHKKAEBUtagRECT@@PEAVCWnd@@I@Z @ 1678 NONAME
 ?CreateEx@CWnd@@UEAAHKPEBD0KAEBUtagRECT@@PEAV1@IPEAX@Z @ 1679 NONAME
 ?CreateEx@CWnd@@UEAAHKPEBD0KHHHHPEAUHWND__@@PEAUHMENU__@@PEAX@Z @ 1680 NONAME
 ?CreateFloatingFrame@CFrameWnd@@QEAAPEAVCMiniDockFrameWnd@@K@Z @ 1681 NONAME
 ?CreateFrameWindow@COleControl@@MEAAPEAVCControlFrameWnd@@XZ @ 1682 NONAME
 ?CreateFromBitmap@CPictureHolder@@QEAAHI@Z @ 1683 NONAME
 ?CreateFromBitmap@CPictureHolder@@QEAAHPEAUHBITMAP__@@PEAUHPALETTE__@@H@Z @ 1684 NONAME
 ?CreateFromBitmap@CPictureHolder@@QEAAHPEAVCBitmap@@PEAVCPalette@@H@Z @ 1685 NONAME
 ?CreateFromClipboard@COleClientItem@@QEAAHW4tagOLERENDER@@GPEAUtagFORMATETC@@@Z @ 1686 NONAME
 ?CreateFromData@COleClientItem@@QEAAHPEAVCOleDataObject@@W4tagOLERENDER@@GPEAUtagFORMATETC@@@Z @ 1687 NONAME
 ?CreateFromFile@COleClientItem@@QEAAHPEBDAEBU_GUID@@W4tagOLERENDER@@GPEAUtagFORMATETC@@@Z @ 1688 NONAME
 ?CreateFromIcon@CPictureHolder@@QEAAHI@Z @ 1689 NONAME
 ?CreateFromIcon@CPictureHolder@@QEAAHPEAUHICON__@@H@Z @ 1690 NONAME
 ?CreateFromMetafile@CPictureHolder@@QEAAHPEAUHMETAFILE__@@HHH@Z @ 1691 NONAME
 ?CreateIndirect@CDialog@@IEAAHPEAXPEAVCWnd@@PEAUHINSTANCE__@@@Z @ 1692 NONAME
 ?CreateIndirect@CDialog@@IEAAHPEBUDLGTEMPLATE@@PEAVCWnd@@PEAXPEAUHINSTANCE__@@@Z @ 1693 NONAME
 ?CreateIndirect@CDialog@@UEAAHPEAXPEAVCWnd@@@Z @ 1694 NONAME
 ?CreateIndirect@CDialog@@UEAAHPEBUDLGTEMPLATE@@PEAVCWnd@@PEAX@Z @ 1695 NONAME
 ?CreateInPlaceFrame@COleServerDoc@@MEAAPEAVCOleIPFrameWnd@@PEAVCWnd@@@Z @ 1696 NONAME
 ?CreateInstance@AFX_COM@@QEAAJAEBU_GUID@@PEAUIUnknown@@0PEAPEAX@Z @ 1697 NONAME
 ?CreateInstance@XClassFactory@COleObjectFactory@@UEAAJPEAUIUnknown@@AEBU_GUID@@PEAPEAX@Z @ 1698 NONAME
 ?CreateInstanceLic@XClassFactory@COleObjectFactory@@UEAAJPEAUIUnknown@@0AEBU_GUID@@PEA_WPEAPEAX@Z @ 1699 NONAME
 ?CreateItem@COleInsertDialog@@QEAAHPEAVCOleClientItem@@@Z @ 1700 NONAME
 ?CreateItem@COlePasteSpecialDialog@@QEAAHPEAVCOleClientItem@@@Z @ 1701 NONAME
 ?CreateLinkFromClipboard@COleClientItem@@QEAAHW4tagOLERENDER@@GPEAUtagFORMATETC@@@Z @ 1702 NONAME
 ?CreateLinkFromData@COleClientItem@@QEAAHPEAVCOleDataObject@@W4tagOLERENDER@@GPEAUtagFORMATETC@@@Z @ 1703 NONAME
 ?CreateLinkFromFile@COleClientItem@@QEAAHPEBDW4tagOLERENDER@@GPEAUtagFORMATETC@@@Z @ 1704 NONAME
 ?CreateLocator@CGopherConnection@@QEAA?AVCGopherLocator@@PEBD0K@Z @ 1705 NONAME
 ?CreateLocator@CGopherConnection@@SA?AVCGopherLocator@@PEBD@Z @ 1706 NONAME
 ?CreateLocator@CGopherConnection@@SA?AVCGopherLocator@@PEBD00KG@Z @ 1707 NONAME
 ?CreateMemoryStream@COleStreamFile@@QEAAHPEAVCFileException@@@Z @ 1708 NONAME
 ?CreateNewChild@CMDIFrameWnd@@QEAAPEAVCMDIChildWnd@@PEAUCRuntimeClass@@IPEAUHMENU__@@PEAUHACCEL__@@@Z @ 1709 NONAME
 ?CreateNewDocument@CDocTemplate@@UEAAPEAVCDocument@@XZ @ 1710 NONAME
 ?CreateNewFrame@CDocTemplate@@UEAAPEAVCFrameWnd@@PEAVCDocument@@PEAV2@@Z @ 1711 NONAME
 ?CreateNewItem@COleClientItem@@QEAAHAEBU_GUID@@W4tagOLERENDER@@GPEAUtagFORMATETC@@@Z @ 1712 NONAME
 ?CreateObject@CByteArray@@SAPEAVCObject@@XZ @ 1713 NONAME
 ?CreateObject@CDC@@SAPEAVCObject@@XZ @ 1714 NONAME
 ?CreateObject@CDocItem@@SAPEAVCObject@@XZ @ 1715 NONAME
 ?CreateObject@CDockState@@SAPEAVCObject@@XZ @ 1716 NONAME
 ?CreateObject@CDWordArray@@SAPEAVCObject@@XZ @ 1717 NONAME
 ?CreateObject@CEditView@@SAPEAVCObject@@XZ @ 1718 NONAME
 ?CreateObject@CFrameWnd@@SAPEAVCObject@@XZ @ 1719 NONAME
 ?CreateObject@CGdiObject@@SAPEAVCObject@@XZ @ 1720 NONAME
 ?CreateObject@CHtmlEditView@@SAPEAVCObject@@XZ @ 1721 NONAME
 ?CreateObject@CHtmlView@@SAPEAVCObject@@XZ @ 1722 NONAME
 ?CreateObject@CImageList@@SAPEAVCObject@@XZ @ 1723 NONAME
 ?CreateObject@CListView@@SAPEAVCObject@@XZ @ 1724 NONAME
 ?CreateObject@CMapStringToOb@@SAPEAVCObject@@XZ @ 1725 NONAME
 ?CreateObject@CMapStringToString@@SAPEAVCObject@@XZ @ 1726 NONAME
 ?CreateObject@CMapWordToOb@@SAPEAVCObject@@XZ @ 1727 NONAME
 ?CreateObject@CMDIChildWnd@@SAPEAVCObject@@XZ @ 1728 NONAME
 ?CreateObject@CMDIFrameWnd@@SAPEAVCObject@@XZ @ 1729 NONAME
 ?CreateObject@CMenu@@SAPEAVCObject@@XZ @ 1730 NONAME
 ?CreateObject@CMiniDockFrameWnd@@SAPEAVCObject@@XZ @ 1731 NONAME
 ?CreateObject@CMiniFrameWnd@@SAPEAVCObject@@XZ @ 1732 NONAME
 ?CreateObject@CObArray@@SAPEAVCObject@@XZ @ 1733 NONAME
 ?CreateObject@CObList@@SAPEAVCObject@@XZ @ 1734 NONAME
 ?CreateObject@COleDocIPFrameWnd@@SAPEAVCObject@@XZ @ 1735 NONAME
 ?CreateObject@COleIPFrameWnd@@SAPEAVCObject@@XZ @ 1736 NONAME
 ?CreateObject@CPreviewView@@SAPEAVCObject@@XZ @ 1737 NONAME
 ?CreateObject@CRichEditCntrItem@@SAPEAVCObject@@XZ @ 1738 NONAME
 ?CreateObject@CRichEditView@@SAPEAVCObject@@XZ @ 1739 NONAME
 ?CreateObject@CRuntimeClass@@QEAAPEAVCObject@@XZ @ 1740 NONAME
 ?CreateObject@CRuntimeClass@@SAPEAVCObject@@PEB_W@Z @ 1741 NONAME
 ?CreateObject@CRuntimeClass@@SAPEAVCObject@@PEBD@Z @ 1742 NONAME
 ?CreateObject@CStringArray@@SAPEAVCObject@@XZ @ 1743 NONAME
 ?CreateObject@CStringList@@SAPEAVCObject@@XZ @ 1744 NONAME
 ?CreateObject@CTreeView@@SAPEAVCObject@@XZ @ 1745 NONAME
 ?CreateObject@CWnd@@SAPEAVCObject@@XZ @ 1746 NONAME
 ?CreateObject@CWordArray@@SAPEAVCObject@@XZ @ 1747 NONAME
 ?CreateOleFont@COleControlContainer@@QEAAXPEAVCFont@@@Z @ 1748 NONAME
 ?CreateOleFrame@CDocTemplate@@QEAAPEAVCFrameWnd@@PEAVCWnd@@PEAVCDocument@@H@Z @ 1749 NONAME
 ?CreateOneDim@COleSafeArray@@QEAAXGKPEBXJ@Z @ 1750 NONAME
 ?CreateOrLoad@COleControlSite@@MEAAJAEBU_GUID@@PEAVCFile@@HPEA_W@Z @ 1751 NONAME
 ?CreateOrLoad@COleControlSite@@MEAAJAEBVCControlCreationInfo@@@Z @ 1752 NONAME
 ?CreatePointFont@CFont@@QEAAHHPEBDPEAVCDC@@@Z @ 1753 NONAME
 ?CreatePointFontIndirect@CFont@@QEAAHPEBUtagLOGFONTA@@PEAVCDC@@@Z @ 1754 NONAME
 ?CreatePrinterDC@CPageSetupDialog@@QEAAPEAUHDC__@@XZ @ 1755 NONAME
 ?CreatePrinterDC@CPrintDialog@@QEAAPEAUHDC__@@XZ @ 1756 NONAME
 ?CreatePrinterDC@CPrintDialogEx@@QEAAPEAUHDC__@@XZ @ 1757 NONAME
 ?CreatePrinterDC@CWinApp@@QEAAHAEAVCDC@@@Z @ 1758 NONAME
 ?CreateScrollBarCtrl@CSplitterWnd@@UEAAHKI@Z @ 1759 NONAME
 ?CreateSite@CControlSiteFactoryMgr@@QEAAPEAVCOleControlSite@@PEAVCOleControlContainer@@AEBVCControlCreationInfo@@@Z @ 1760 NONAME
 ?CreateSite@COccManager@@UEAAPEAVCOleControlSite@@PEAVCOleControlContainer@@@Z @ 1761 NONAME
 ?CreateSite@COccManager@@UEAAPEAVCOleControlSite@@PEAVCOleControlContainer@@AEBVCControlCreationInfo@@@Z @ 1762 NONAME
 ?CreateStatic@CSplitterWnd@@UEAAHPEAVCWnd@@HHKI@Z @ 1763 NONAME
 ?CreateStaticFromClipboard@COleClientItem@@QEAAHW4tagOLERENDER@@GPEAUtagFORMATETC@@@Z @ 1764 NONAME
 ?CreateStaticFromData@COleClientItem@@QEAAHPEAVCOleDataObject@@W4tagOLERENDER@@GPEAUtagFORMATETC@@@Z @ 1765 NONAME
 ?CreateStream@COleStreamFile@@QEAAHPEAUIStorage@@PEBDKPEAVCFileException@@@Z @ 1766 NONAME
 ?CreateThread@CWinThread@@QEAAHKIPEAU_SECURITY_ATTRIBUTES@@@Z @ 1767 NONAME
 ?CreateTracker@COleControl@@IEAAXHH@Z @ 1768 NONAME
 ?CreateTracker@COleControl@@IEAAXHHPEBUtagRECT@@@Z @ 1769 NONAME
 ?CreateView@CFrameWnd@@QEAAPEAVCWnd@@PEAUCCreateContext@@I@Z @ 1770 NONAME
 ?CreateView@CSplitterWnd@@UEAAHHHPEAUCRuntimeClass@@UtagSIZE@@PEAUCCreateContext@@@Z @ 1771 NONAME
 ?CreateView@XOleDocument@CDocObjectServer@@UEAAJPEAUIOleInPlaceSite@@PEAUIStream@@KPEAPEAUIOleDocumentView@@@Z @ 1772 NONAME
 ?CreateWindowForSubclassedControl@COleControl@@IEAAXXZ @ 1773 NONAME
 ?DAdvise@XDataObject@COleControl@@UEAAJPEAUtagFORMATETC@@KPEAUIAdviseSink@@PEAK@Z @ 1774 NONAME
 ?DAdvise@XDataObject@COleDataSource@@UEAAJPEAUtagFORMATETC@@KPEAUIAdviseSink@@PEAK@Z @ 1775 NONAME
 ?DAdvise@XDataObject@COleServerDoc@@UEAAJPEAUtagFORMATETC@@KPEAUIAdviseSink@@PEAK@Z @ 1776 NONAME
 ?DAdvise@XDataObject@COleServerItem@@UEAAJPEAUtagFORMATETC@@KPEAUIAdviseSink@@PEAK@Z @ 1777 NONAME
 ?DDP_Check@@YAXPEAVCDataExchange@@HAEAHPEBD@Z @ 1778 NONAME
 ?DDP_EndCheck@@YAXPEAVCDataExchange@@HPEAHPEBD@Z @ 1779 NONAME
 ?DDP_EndRadio@@YAXPEAVCDataExchange@@HPEAHPEBD@Z @ 1780 NONAME
 ?DDP_EndText@@YAXPEAVCDataExchange@@HPEAEPEBD@Z @ 1781 NONAME
 ?DDP_EndText@@YAXPEAVCDataExchange@@HPEAFPEBD@Z @ 1782 NONAME
 ?DDP_EndText@@YAXPEAVCDataExchange@@HPEAHPEBD@Z @ 1783 NONAME
 ?DDP_EndText@@YAXPEAVCDataExchange@@HPEAIPEBD@Z @ 1784 NONAME
 ?DDP_EndText@@YAXPEAVCDataExchange@@HPEAJPEBD@Z @ 1785 NONAME
 ?DDP_EndText@@YAXPEAVCDataExchange@@HPEAKPEBD@Z @ 1786 NONAME
 ?DDP_EndText@@YAXPEAVCDataExchange@@HPEAMPEBD@Z @ 1787 NONAME
 ?DDP_EndText@@YAXPEAVCDataExchange@@HPEANPEBD@Z @ 1788 NONAME
 ?DDP_EndText@@YAXPEAVCDataExchange@@HPEAV?$CStringT@DV?$StrTraitMFC_DLL@DV?$ChTraitsCRT@D@ATL@@@@@ATL@@PEBD@Z @ 1789 NONAME
 ?DDP_PostProcessing@@YAXPEAVCDataExchange@@@Z @ 1790 NONAME
 ?DDP_Radio@@YAXPEAVCDataExchange@@HAEAHPEBD@Z @ 1791 NONAME
 ?DDP_Text@@YAXPEAVCDataExchange@@HAEAEPEBD@Z @ 1792 NONAME
 ?DDP_Text@@YAXPEAVCDataExchange@@HAEAFPEBD@Z @ 1793 NONAME
 ?DDP_Text@@YAXPEAVCDataExchange@@HAEAHPEBD@Z @ 1794 NONAME
 ?DDP_Text@@YAXPEAVCDataExchange@@HAEAIPEBD@Z @ 1795 NONAME
 ?DDP_Text@@YAXPEAVCDataExchange@@HAEAJPEBD@Z @ 1796 NONAME
 ?DDP_Text@@YAXPEAVCDataExchange@@HAEAKPEBD@Z @ 1797 NONAME
 ?DDP_Text@@YAXPEAVCDataExchange@@HAEAMPEBD@Z @ 1798 NONAME
 ?DDP_Text@@YAXPEAVCDataExchange@@HAEANPEBD@Z @ 1799 NONAME
 ?DDP_Text@@YAXPEAVCDataExchange@@HAEAV?$CStringT@DV?$StrTraitMFC_DLL@DV?$ChTraitsCRT@D@ATL@@@@@ATL@@PEBD@Z @ 1800 NONAME
 ?DDV_MaxChars@@YAXPEAVCDataExchange@@AEBV?$CStringT@DV?$StrTraitMFC_DLL@DV?$ChTraitsCRT@D@ATL@@@@@ATL@@H@Z @ 1801 NONAME
 ?DDV_MinMaxByte@@YAXPEAVCDataExchange@@EEE@Z @ 1802 NONAME
 ?DDV_MinMaxDateTime@@YAXPEAVCDataExchange@@AEAVCOleDateTime@ATL@@PEBV23@2@Z @ 1803 NONAME
 ?DDV_MinMaxDateTime@@YAXPEAVCDataExchange@@AEAVCTime@ATL@@PEBV23@2@Z @ 1804 NONAME
 ?DDV_MinMaxDouble@@YAXPEAVCDataExchange@@AEBNNN@Z @ 1805 NONAME
 ?DDV_MinMaxDWord@@YAXPEAVCDataExchange@@KKK@Z @ 1806 NONAME
 ?DDV_MinMaxFloat@@YAXPEAVCDataExchange@@AEBMMM@Z @ 1807 NONAME
 ?DDV_MinMaxInt@@YAXPEAVCDataExchange@@HHH@Z @ 1808 NONAME
 ?DDV_MinMaxLong@@YAXPEAVCDataExchange@@JJJ@Z @ 1809 NONAME
 ?DDV_MinMaxLongLong@@YAXPEAVCDataExchange@@_J11@Z @ 1810 NONAME
 ?DDV_MinMaxMonth@@YAXPEAVCDataExchange@@AEAVCOleDateTime@ATL@@PEBV23@2@Z @ 1811 NONAME
 ?DDV_MinMaxMonth@@YAXPEAVCDataExchange@@AEAVCTime@ATL@@PEBV23@2@Z @ 1812 NONAME
 ?DDV_MinMaxShort@@YAXPEAVCDataExchange@@FFF@Z @ 1813 NONAME
 ?DDV_MinMaxSlider@@YAXPEAVCDataExchange@@KKK@Z @ 1814 NONAME
 ?DDV_MinMaxUInt@@YAXPEAVCDataExchange@@III@Z @ 1815 NONAME
 ?DDV_MinMaxULongLong@@YAXPEAVCDataExchange@@_K11@Z @ 1816 NONAME
 ?DDX_CBIndex@@YAXPEAVCDataExchange@@HAEAH@Z @ 1817 NONAME
 ?DDX_CBString@@YAXPEAVCDataExchange@@HAEAV?$CStringT@DV?$StrTraitMFC_DLL@DV?$ChTraitsCRT@D@ATL@@@@@ATL@@@Z @ 1818 NONAME
 ?DDX_CBStringExact@@YAXPEAVCDataExchange@@HAEAV?$CStringT@DV?$StrTraitMFC_DLL@DV?$ChTraitsCRT@D@ATL@@@@@ATL@@@Z @ 1819 NONAME
 ?DDX_Check@@YAXPEAVCDataExchange@@HAEAH@Z @ 1820 NONAME
 ?DDX_Control@@YAXPEAVCDataExchange@@HAEAVCWnd@@@Z @ 1821 NONAME
 ?DDX_DateTimeCtrl@@YAXPEAVCDataExchange@@HAEAU_FILETIME@@@Z @ 1822 NONAME
 ?DDX_DateTimeCtrl@@YAXPEAVCDataExchange@@HAEAUtagDBDATE@@@Z @ 1823 NONAME
 ?DDX_DateTimeCtrl@@YAXPEAVCDataExchange@@HAEAUtagDBTIME@@@Z @ 1824 NONAME
 ?DDX_DateTimeCtrl@@YAXPEAVCDataExchange@@HAEAV?$CStringT@DV?$StrTraitMFC_DLL@DV?$ChTraitsCRT@D@ATL@@@@@ATL@@@Z @ 1825 NONAME
 ?DDX_DateTimeCtrl@@YAXPEAVCDataExchange@@HAEAVCOleDateTime@ATL@@@Z @ 1826 NONAME
 ?DDX_DateTimeCtrl@@YAXPEAVCDataExchange@@HAEAVCTime@ATL@@@Z @ 1827 NONAME
 ?DDX_DHtml_AxControl@CDHtmlDialog@@IEAAXPEBD0AEAUtagVARIANT@@H@Z @ 1828 NONAME
 ?DDX_DHtml_AxControl@CDHtmlDialog@@IEAAXPEBDJAEAUtagVARIANT@@H@Z @ 1829 NONAME
 ?DDX_DHtml_AxControl@CDHtmlDialog@@QEAAXPEAVCDataExchange@@PEBD1AEAUtagVARIANT@@@Z @ 1830 NONAME
 ?DDX_DHtml_AxControl@CDHtmlDialog@@QEAAXPEAVCDataExchange@@PEBDJAEAUtagVARIANT@@@Z @ 1831 NONAME
 ?DDX_DHtml_CheckBox@CDHtmlDialog@@IEAAXPEBDAEAHH@Z @ 1832 NONAME
 ?DDX_DHtml_CheckBox@CDHtmlDialog@@QEAAXPEAVCDataExchange@@PEBDAEAH@Z @ 1833 NONAME
 ?DDX_DHtml_ElementText@CDHtmlDialog@@IEAAXPEBDJAEAFH@Z @ 1834 NONAME
 ?DDX_DHtml_ElementText@CDHtmlDialog@@IEAAXPEBDJAEAHH@Z @ 1835 NONAME
 ?DDX_DHtml_ElementText@CDHtmlDialog@@IEAAXPEBDJAEAJH@Z @ 1836 NONAME
 ?DDX_DHtml_ElementText@CDHtmlDialog@@IEAAXPEBDJAEAKH@Z @ 1837 NONAME
 ?DDX_DHtml_ElementText@CDHtmlDialog@@IEAAXPEBDJAEAMH@Z @ 1838 NONAME
 ?DDX_DHtml_ElementText@CDHtmlDialog@@IEAAXPEBDJAEANH@Z @ 1839 NONAME
 ?DDX_DHtml_ElementText@CDHtmlDialog@@IEAAXPEBDJAEAV?$CStringT@DV?$StrTraitMFC_DLL@DV?$ChTraitsCRT@D@ATL@@@@@ATL@@H@Z @ 1840 NONAME
 ?DDX_DHtml_ElementText@CDHtmlDialog@@QEAAXPEAVCDataExchange@@PEBDJAEAF@Z @ 1841 NONAME
 ?DDX_DHtml_ElementText@CDHtmlDialog@@QEAAXPEAVCDataExchange@@PEBDJAEAH@Z @ 1842 NONAME
 ?DDX_DHtml_ElementText@CDHtmlDialog@@QEAAXPEAVCDataExchange@@PEBDJAEAJ@Z @ 1843 NONAME
 ?DDX_DHtml_ElementText@CDHtmlDialog@@QEAAXPEAVCDataExchange@@PEBDJAEAK@Z @ 1844 NONAME
 ?DDX_DHtml_ElementText@CDHtmlDialog@@QEAAXPEAVCDataExchange@@PEBDJAEAM@Z @ 1845 NONAME
 ?DDX_DHtml_ElementText@CDHtmlDialog@@QEAAXPEAVCDataExchange@@PEBDJAEAN@Z @ 1846 NONAME
 ?DDX_DHtml_ElementText@CDHtmlDialog@@QEAAXPEAVCDataExchange@@PEBDJAEAV?$CStringT@DV?$StrTraitMFC_DLL@DV?$ChTraitsCRT@D@ATL@@@@@ATL@@@Z @ 1847 NONAME
 ?DDX_DHtml_ElementTextFloatFormat@CDHtmlDialog@@IEAAXPEBDJPEAXNHH@Z @ 1848 NONAME
 ?DDX_DHtml_ElementTextWithFormat@CDHtmlDialog@@IEAAXPEBDJ0IHZZ @ 1849 NONAME
 ?DDX_DHtml_Radio@CDHtmlDialog@@IEAAXPEBDAEAJH@Z @ 1850 NONAME
 ?DDX_DHtml_Radio@CDHtmlDialog@@QEAAXPEAVCDataExchange@@PEBDAEAJ@Z @ 1851 NONAME
 ?DDX_DHtml_SelectIndex@CDHtmlDialog@@IEAAXPEBDAEAJH@Z @ 1852 NONAME
 ?DDX_DHtml_SelectIndex@CDHtmlDialog@@QEAAXPEAVCDataExchange@@PEBDAEAJ@Z @ 1853 NONAME
 ?DDX_DHtml_SelectString@CDHtmlDialog@@IEAAXPEBDAEAV?$CStringT@DV?$StrTraitMFC_DLL@DV?$ChTraitsCRT@D@ATL@@@@@ATL@@H@Z @ 1854 NONAME
 ?DDX_DHtml_SelectString@CDHtmlDialog@@QEAAXPEAVCDataExchange@@PEBDAEAV?$CStringT@DV?$StrTraitMFC_DLL@DV?$ChTraitsCRT@D@ATL@@@@@ATL@@@Z @ 1855 NONAME
 ?DDX_DHtml_SelectValue@CDHtmlDialog@@IEAAXPEBDAEAV?$CStringT@DV?$StrTraitMFC_DLL@DV?$ChTraitsCRT@D@ATL@@@@@ATL@@H@Z @ 1856 NONAME
 ?DDX_DHtml_SelectValue@CDHtmlDialog@@QEAAXPEAVCDataExchange@@PEBDAEAV?$CStringT@DV?$StrTraitMFC_DLL@DV?$ChTraitsCRT@D@ATL@@@@@ATL@@@Z @ 1857 NONAME
 ?DDX_FieldCBIndex@@YAXPEAVCDataExchange@@HAEAHPEAVCRecordset@@@Z @ 1858 NONAME
 ?DDX_FieldCBString@@YAXPEAVCDataExchange@@HAEAV?$CStringT@DV?$StrTraitMFC_DLL@DV?$ChTraitsCRT@D@ATL@@@@@ATL@@PEAVCRecordset@@@Z @ 1859 NONAME
 ?DDX_FieldCBStringExact@@YAXPEAVCDataExchange@@HAEAV?$CStringT@DV?$StrTraitMFC_DLL@DV?$ChTraitsCRT@D@ATL@@@@@ATL@@PEAVCRecordset@@@Z @ 1860 NONAME
 ?DDX_FieldCheck@@YAXPEAVCDataExchange@@HAEAHPEAVCRecordset@@@Z @ 1861 NONAME
 ?DDX_FieldLBIndex@@YAXPEAVCDataExchange@@HAEAHPEAVCRecordset@@@Z @ 1862 NONAME
 ?DDX_FieldLBString@@YAXPEAVCDataExchange@@HAEAV?$CStringT@DV?$StrTraitMFC_DLL@DV?$ChTraitsCRT@D@ATL@@@@@ATL@@PEAVCRecordset@@@Z @ 1863 NONAME
 ?DDX_FieldLBStringExact@@YAXPEAVCDataExchange@@HAEAV?$CStringT@DV?$StrTraitMFC_DLL@DV?$ChTraitsCRT@D@ATL@@@@@ATL@@PEAVCRecordset@@@Z @ 1864 NONAME
 ?DDX_FieldRadio@@YAXPEAVCDataExchange@@HAEAHPEAVCRecordset@@@Z @ 1865 NONAME
 ?DDX_FieldScroll@@YAXPEAVCDataExchange@@HAEAHPEAVCRecordset@@@Z @ 1866 NONAME
 ?DDX_FieldText@@YAXPEAVCDataExchange@@HAEAEPEAVCRecordset@@@Z @ 1867 NONAME
 ?DDX_FieldText@@YAXPEAVCDataExchange@@HAEAHPEAVCRecordset@@@Z @ 1868 NONAME
 ?DDX_FieldText@@YAXPEAVCDataExchange@@HAEAIPEAVCRecordset@@@Z @ 1869 NONAME
 ?DDX_FieldText@@YAXPEAVCDataExchange@@HAEAJPEAVCRecordset@@@Z @ 1870 NONAME
 ?DDX_FieldText@@YAXPEAVCDataExchange@@HAEAKPEAVCRecordset@@@Z @ 1871 NONAME
 ?DDX_FieldText@@YAXPEAVCDataExchange@@HAEAMPEAVCRecordset@@@Z @ 1872 NONAME
 ?DDX_FieldText@@YAXPEAVCDataExchange@@HAEANPEAVCRecordset@@@Z @ 1873 NONAME
 ?DDX_FieldText@@YAXPEAVCDataExchange@@HAEAV?$CStringT@DV?$StrTraitMFC_DLL@DV?$ChTraitsCRT@D@ATL@@@@@ATL@@PEAVCRecordset@@@Z @ 1874 NONAME
 ?DDX_FieldText@@YAXPEAVCDataExchange@@HPEADHPEAVCRecordset@@@Z @ 1875 NONAME
 ?DDX_IPAddress@@YAXPEAVCDataExchange@@HAEAK@Z @ 1876 NONAME
 ?DDX_LBIndex@@YAXPEAVCDataExchange@@HAEAH@Z @ 1877 NONAME
 ?DDX_LBString@@YAXPEAVCDataExchange@@HAEAV?$CStringT@DV?$StrTraitMFC_DLL@DV?$ChTraitsCRT@D@ATL@@@@@ATL@@@Z @ 1878 NONAME
 ?DDX_LBStringExact@@YAXPEAVCDataExchange@@HAEAV?$CStringT@DV?$StrTraitMFC_DLL@DV?$ChTraitsCRT@D@ATL@@@@@ATL@@@Z @ 1879 NONAME
 ?DDX_MonthCalCtrl@@YAXPEAVCDataExchange@@HAEAU_FILETIME@@@Z @ 1880 NONAME
 ?DDX_MonthCalCtrl@@YAXPEAVCDataExchange@@HAEAUtagDBDATE@@@Z @ 1881 NONAME
 ?DDX_MonthCalCtrl@@YAXPEAVCDataExchange@@HAEAVCOleDateTime@ATL@@@Z @ 1882 NONAME
 ?DDX_MonthCalCtrl@@YAXPEAVCDataExchange@@HAEAVCTime@ATL@@@Z @ 1883 NONAME
 ?DDX_OCBool@@YAXPEAVCDataExchange@@HJAEAH@Z @ 1884 NONAME
 ?DDX_OCBoolRO@@YAXPEAVCDataExchange@@HJAEAH@Z @ 1885 NONAME
 ?DDX_OCColor@@YAXPEAVCDataExchange@@HJAEAK@Z @ 1886 NONAME
 ?DDX_OCColorRO@@YAXPEAVCDataExchange@@HJAEAK@Z @ 1887 NONAME
 ?DDX_OCFloat@@YAXPEAVCDataExchange@@HJAEAM@Z @ 1888 NONAME
 ?DDX_OCFloat@@YAXPEAVCDataExchange@@HJAEAN@Z @ 1889 NONAME
 ?DDX_OCFloatRO@@YAXPEAVCDataExchange@@HJAEAM@Z @ 1890 NONAME
 ?DDX_OCFloatRO@@YAXPEAVCDataExchange@@HJAEAN@Z @ 1891 NONAME
 ?DDX_OCInt@@YAXPEAVCDataExchange@@HJAEAH@Z @ 1892 NONAME
 ?DDX_OCInt@@YAXPEAVCDataExchange@@HJAEAJ@Z @ 1893 NONAME
 ?DDX_OCIntRO@@YAXPEAVCDataExchange@@HJAEAH@Z @ 1894 NONAME
 ?DDX_OCIntRO@@YAXPEAVCDataExchange@@HJAEAJ@Z @ 1895 NONAME
 ?DDX_OCShort@@YAXPEAVCDataExchange@@HJAEAF@Z @ 1896 NONAME
 ?DDX_OCShortRO@@YAXPEAVCDataExchange@@HJAEAF@Z @ 1897 NONAME
 ?DDX_OCText@@YAXPEAVCDataExchange@@HJAEAV?$CStringT@DV?$StrTraitMFC_DLL@DV?$ChTraitsCRT@D@ATL@@@@@ATL@@@Z @ 1898 NONAME
 ?DDX_OCTextRO@@YAXPEAVCDataExchange@@HJAEAV?$CStringT@DV?$StrTraitMFC_DLL@DV?$ChTraitsCRT@D@ATL@@@@@ATL@@@Z @ 1899 NONAME
 ?DDX_Radio@@YAXPEAVCDataExchange@@HAEAH@Z @ 1900 NONAME
 ?DDX_Scroll@@YAXPEAVCDataExchange@@HAEAH@Z @ 1901 NONAME
 ?DDX_Slider@@YAXPEAVCDataExchange@@HAEAH@Z @ 1902 NONAME
 ?DDX_Text@@YAXPEAVCDataExchange@@HAEA_J@Z @ 1903 NONAME
 ?DDX_Text@@YAXPEAVCDataExchange@@HAEA_K@Z @ 1904 NONAME
 ?DDX_Text@@YAXPEAVCDataExchange@@HAEAE@Z @ 1905 NONAME
 ?DDX_Text@@YAXPEAVCDataExchange@@HAEAF@Z @ 1906 NONAME
 ?DDX_Text@@YAXPEAVCDataExchange@@HAEAH@Z @ 1907 NONAME
 ?DDX_Text@@YAXPEAVCDataExchange@@HAEAI@Z @ 1908 NONAME
 ?DDX_Text@@YAXPEAVCDataExchange@@HAEAJ@Z @ 1909 NONAME
 ?DDX_Text@@YAXPEAVCDataExchange@@HAEAK@Z @ 1910 NONAME
 ?DDX_Text@@YAXPEAVCDataExchange@@HAEAM@Z @ 1911 NONAME
 ?DDX_Text@@YAXPEAVCDataExchange@@HAEAN@Z @ 1912 NONAME
 ?DDX_Text@@YAXPEAVCDataExchange@@HAEAU_FILETIME@@@Z @ 1913 NONAME
 ?DDX_Text@@YAXPEAVCDataExchange@@HAEAU_GUID@@@Z @ 1914 NONAME
 ?DDX_Text@@YAXPEAVCDataExchange@@HAEAUtagDB_NUMERIC@@@Z @ 1915 NONAME
 ?DDX_Text@@YAXPEAVCDataExchange@@HAEAUtagDBDATE@@@Z @ 1916 NONAME
 ?DDX_Text@@YAXPEAVCDataExchange@@HAEAUtagDBTIME@@@Z @ 1917 NONAME
 ?DDX_Text@@YAXPEAVCDataExchange@@HAEAUtagDEC@@@Z @ 1918 NONAME
 ?DDX_Text@@YAXPEAVCDataExchange@@HAEAV?$CStringT@DV?$StrTraitMFC_DLL@DV?$ChTraitsCRT@D@ATL@@@@@ATL@@@Z @ 1919 NONAME
 ?DDX_Text@@YAXPEAVCDataExchange@@HAEAVCOleCurrency@@@Z @ 1920 NONAME
 ?DDX_Text@@YAXPEAVCDataExchange@@HAEAVCOleDateTime@ATL@@@Z @ 1921 NONAME
 ?DDX_Text@@YAXPEAVCDataExchange@@HPEADH@Z @ 1922 NONAME
 ?Deactivate@COleClientItem@@QEAAXXZ @ 1923 NONAME
 ?Deactivate@XPropertyPage@COlePropertyPage@@UEAAJXZ @ 1924 NONAME
 ?DeactivateAndUndo@COleServerDoc@@QEAAHXZ @ 1925 NONAME
 ?DeactivateAndUndo@XOleIPSite@COleClientItem@@UEAAJXZ @ 1926 NONAME
 ?DeactivateAndUndo@XOleIPSite@COleControlSite@@UEAAJXZ @ 1927 NONAME
 ?DeactivateUI@COleClientItem@@QEAAXXZ @ 1928 NONAME
 ?Default@CFieldExchange@@QEAAXPEBDPEAXPEA_JH_K3@Z @ 1929 NONAME
 ?Default@CWnd@@IEAA_JXZ @ 1930 NONAME
 ?DefWindowProcA@CMDIChildWnd@@MEAA_JI_K_J@Z @ 1931 NONAME
 ?DefWindowProcA@CMDIFrameWnd@@MEAA_JI_K_J@Z @ 1932 NONAME
 ?DefWindowProcA@COleControl@@MEAA_JI_K_J@Z @ 1933 NONAME
 ?DefWindowProcA@CPrintDialogEx@@UEAA_JI_K_J@Z @ 1934 NONAME
 ?DefWindowProcA@CWnd@@MEAA_JI_K_J@Z @ 1935 NONAME
 ?DelayRenderData@COleDataSource@@QEAAXGPEAUtagFORMATETC@@@Z @ 1936 NONAME
 ?DelayRenderFileData@COleDataSource@@QEAAXGPEAUtagFORMATETC@@@Z @ 1937 NONAME
 ?DelaySetData@COleDataSource@@QEAAXGPEAUtagFORMATETC@@@Z @ 1938 NONAME
 ?DelayShow@CControlBar@@UEAAXH@Z @ 1939 NONAME
 ?DelayUpdateFrameMenu@CFrameWnd@@UEAAXPEAUHMENU__@@@Z @ 1940 NONAME
 ?DelayUpdateFrameMenu@CMDIFrameWnd@@UEAAXPEAUHMENU__@@@Z @ 1941 NONAME
 ?Delete@?$CStringT@_WV?$StrTraitMFC_DLL@_WV?$ChTraitsCRT@_W@ATL@@@@@ATL@@QEAAHHH@Z @ 1942 NONAME
 ?Delete@?$CStringT@DV?$StrTraitMFC_DLL@DV?$ChTraitsCRT@D@ATL@@@@@ATL@@QEAAHHH@Z @ 1943 NONAME
 ?Delete@CException@@QEAAXXZ @ 1944 NONAME
 ?Delete@COleClientItem@@QEAAXH@Z @ 1945 NONAME
 ?Delete@CRecordset@@UEAAXXZ @ 1946 NONAME
 ?Delete@CWinThread@@UEAAXXZ @ 1947 NONAME
 ?DeleteColumn@CSplitterWnd@@UEAAXH@Z @ 1948 NONAME
 ?DeleteContents@CDocument@@UEAAXXZ @ 1949 NONAME
 ?DeleteContents@CEditView@@UEAAXXZ @ 1950 NONAME
 ?DeleteContents@CHtmlEditDoc@@UEAAXXZ @ 1951 NONAME
 ?DeleteContents@COleDocument@@UEAAXXZ @ 1952 NONAME
 ?DeleteContents@COleServerDoc@@UEAAXXZ @ 1953 NONAME
 ?DeleteContents@CRichEditDoc@@UEAAXXZ @ 1954 NONAME
 ?DeleteContents@CRichEditView@@UEAAXXZ @ 1955 NONAME
 ?DeleteDC@CDC@@QEAAHXZ @ 1956 NONAME
 ?DeleteImageList@CImageList@@QEAAHXZ @ 1957 NONAME
 ?DeleteItem@CComboBox@@UEAAXPEAUtagDELETEITEMSTRUCT@@@Z @ 1958 NONAME
 ?DeleteItem@CComboBoxEx@@QEAAHH@Z @ 1959 NONAME
 ?DeleteItem@CListBox@@UEAAXPEAUtagDELETEITEMSTRUCT@@@Z @ 1960 NONAME
 ?DeleteObject@CGdiObject@@QEAAHXZ @ 1961 NONAME
 ?DeleteObject@XRichEditOleCallback@CRichEditView@@UEAAJPEAUIOleObject@@@Z @ 1962 NONAME
 ?DeleteRow@CSplitterWnd@@UEAAXH@Z @ 1963 NONAME
 ?DeleteTemp@CHandleMap@@QEAAXXZ @ 1964 NONAME
 ?DeleteTempMap@CDC@@SAXXZ @ 1965 NONAME
 ?DeleteTempMap@CGdiObject@@SAXXZ @ 1966 NONAME
 ?DeleteTempMap@CImageList@@SAXXZ @ 1967 NONAME
 ?DeleteTempMap@CMenu@@SAXXZ @ 1968 NONAME
 ?DeleteTempMap@CWnd@@SAXXZ @ 1969 NONAME
 ?DeleteUnmarkedItems@CRichEditDoc@@IEBAXXZ @ 1970 NONAME
 ?DeleteValues@CThreadSlotData@@QEAAXPEAUCThreadData@@PEAUHINSTANCE__@@@Z @ 1971 NONAME
 ?DeleteValues@CThreadSlotData@@QEAAXPEAUHINSTANCE__@@H@Z @ 1972 NONAME
 ?DeleteView@CSplitterWnd@@UEAAXHH@Z @ 1973 NONAME
 ?DelRegTree@CWinApp@@QEAAJPEAUHKEY__@@AEBV?$CStringT@DV?$StrTraitMFC_DLL@DV?$ChTraitsCRT@D@ATL@@@@@ATL@@@Z @ 1974 NONAME
 ?DelTool@CToolTipCtrl@@QEAAXPEAVCWnd@@_K@Z @ 1975 NONAME
 ?Destroy@COleSafeArray@@QEAAXXZ @ 1976 NONAME
 ?DestroyControl@COleControlSite@@UEAAHXZ @ 1977 NONAME
 ?DestroyData@COleSafeArray@@QEAAXXZ @ 1978 NONAME
 ?DestroyDescriptor@COleSafeArray@@QEAAXXZ @ 1979 NONAME
 ?DestroyDockBars@CFrameWnd@@QEAAXXZ @ 1980 NONAME
 ?DestroyInPlaceFrame@COleServerDoc@@MEAAXPEAVCOleIPFrameWnd@@@Z @ 1981 NONAME
 ?DestroyMenu@CMenu@@QEAAHXZ @ 1982 NONAME
 ?DestroyModeless@CDHtmlDialog@@QEAAXXZ @ 1983 NONAME
 ?DestroySharedMenu@COleControl@@MEAAXXZ @ 1984 NONAME
 ?DestroySharedMenu@COleDocIPFrameWnd@@MEAAXXZ @ 1985 NONAME
 ?DestroySharedMenu@COleIPFrameWnd@@MEAAXXZ @ 1986 NONAME
 ?DestroyToolTipCtrl@CToolTipCtrl@@QEAAHXZ @ 1987 NONAME
 ?DestroyTracker@COleControl@@IEAAXXZ @ 1988 NONAME
 ?DestroyWindow@CControlBar@@UEAAHXZ @ 1989 NONAME
 ?DestroyWindow@CMDIChildWnd@@UEAAHXZ @ 1990 NONAME
 ?DestroyWindow@CWnd@@UEAAHXZ @ 1991 NONAME
 ?Detach@CAsyncSocket@@QEAA_KXZ @ 1992 NONAME
 ?Detach@CDC@@QEAAPEAUHDC__@@XZ @ 1993 NONAME
 ?Detach@CDialogTemplate@@QEAAPEAXXZ @ 1994 NONAME
 ?Detach@CGdiObject@@QEAAPEAXXZ @ 1995 NONAME
 ?Detach@CImageList@@QEAAPEAU_IMAGELIST@@XZ @ 1996 NONAME
 ?Detach@CMemFile@@QEAAPEAEXZ @ 1997 NONAME
 ?Detach@CMenu@@QEAAPEAUHMENU__@@XZ @ 1998 NONAME
 ?Detach@CMonikerFile@@QEAAHPEAVCFileException@@@Z @ 1999 NONAME
 ?Detach@COleDataObject@@QEAAPEAUIDataObject@@XZ @ 2000 NONAME
 ?Detach@COleSafeArray@@QEAA?AUtagVARIANT@@XZ @ 2001 NONAME
 ?Detach@COleStreamFile@@QEAAPEAUIStream@@XZ @ 2002 NONAME
 ?Detach@COleVariant@@QEAA?AUtagVARIANT@@XZ @ 2003 NONAME
 ?Detach@CSharedFile@@QEAAPEAXXZ @ 2004 NONAME
 ?Detach@CWindowlessDC@@QEAAPEAUHDC__@@XZ @ 2005 NONAME
 ?Detach@CWnd@@QEAAPEAUHWND__@@XZ @ 2006 NONAME
 ?DetachDispatch@COleDispatchDriver@@QEAAPEAUIDispatch@@XZ @ 2007 NONAME
 ?DetachHandle@CAsyncSocket@@SAX_KH@Z @ 2008 NONAME
 ?DetachWindow@COleControlSite@@QEAAXXZ @ 2009 NONAME
 ?DevModeChange@CWinApp@@QEAAXPEAD@Z @ 2010 NONAME
 ?DHtmlEventHook@CDHtmlEventSink@@UEAAHPEAJJPEAUtagDISPPARAMS@@PEAUtagVARIANT@@PEAUtagEXCEPINFO@@PEAI@Z @ 2011 NONAME
 ?DidEvent@XNotifyDBEvents@COleControlSite@@UEAAJKKQEAUtagDBNOTIFYREASON@@@Z @ 2012 NONAME
 ?DiscardUndoState@COleServerDoc@@QEAAHXZ @ 2013 NONAME
 ?DiscardUndoState@XOleIPSite@COleClientItem@@UEAAJXZ @ 2014 NONAME
 ?DiscardUndoState@XOleIPSite@COleControlSite@@UEAAJXZ @ 2015 NONAME
 ?Disconnect@COleDispatchImpl@@UEAAXXZ @ 2016 NONAME
 ?DisconnectDHtmlElementEvents@CDHtmlDialog@@IEAAXXZ @ 2017 NONAME
 ?DisconnectDHtmlEvents@CDHtmlDialog@@IEAAXXZ @ 2018 NONAME
 ?DisconnectFromConnectionPoint@CDHtmlEventSink@@QEAAXPEAUIUnknown@@AEBU_GUID@@AEAK@Z @ 2019 NONAME
 ?DisconnectSink@COleControlSite@@IEAAXAEBU_GUID@@K@Z @ 2020 NONAME
 ?DisconnectViews@CDocument@@QEAAXXZ @ 2021 NONAME
 ?DispatchThreadMessage@CWinThread@@IEAAXPEAUtagMSG@@@Z @ 2022 NONAME
 ?DispatchThreadMessageEx@CWinThread@@IEAAHPEAUtagMSG@@@Z @ 2023 NONAME
 ?DisplayError@COleControl@@UEAAXJPEBD00I@Z @ 2024 NONAME
 ?DoBeginPrinting@CDocObjectServer@@IEAAXPEAVCView@@PEAVCDC@@PEAUCPrintInfo@@@Z @ 2025 NONAME
 ?DoBulkFieldExchange@CRecordset@@UEAAXPEAVCFieldExchange@@@Z @ 2026 NONAME
 ?DoCallBack@CAsyncSocket@@SAX_K_J@Z @ 2027 NONAME
 ?DoChangeIcon@COleChangeIconDialog@@QEAAHPEAVCOleClientItem@@@Z @ 2028 NONAME
 ?DockControlBar@CDockBar@@QEAAXPEAVCControlBar@@PEBUtagRECT@@@Z @ 2029 NONAME
 ?DockControlBar@CFrameWnd@@QEAAXPEAVCControlBar@@IPEBUtagRECT@@@Z @ 2030 NONAME
 ?DockControlBar@CFrameWnd@@QEAAXPEAVCControlBar@@PEAVCDockBar@@PEBUtagRECT@@@Z @ 2031 NONAME
 ?DoClick@COleControl@@QEAAXXZ @ 2032 NONAME
 ?DoContextSensitiveHelp@COleFrameHook@@QEAAHH@Z @ 2033 NONAME
 ?DoConvert@COleConvertDialog@@QEAAHPEAVCOleClientItem@@@Z @ 2034 NONAME
 ?DocumentComplete@CHtmlView@@MEAAXPEAUIDispatch@@PEAUtagVARIANT@@@Z @ 2035 NONAME
 ?DoDefaultPrinting@COleDocObjectItem@@SAJPEAVCView@@PEAUCPrintInfo@@@Z @ 2036 NONAME
 ?DoDragDrop@COleClientItem@@QEAAKPEBUtagRECT@@VCPoint@@HK0@Z @ 2037 NONAME
 ?DoDragDrop@COleDataSource@@QEAAKKPEBUtagRECT@@PEAVCOleDropSource@@@Z @ 2038 NONAME
 ?DoDragDrop@COleServerItem@@QEAAKPEBUtagRECT@@VCPoint@@HK0@Z @ 2039 NONAME
 ?DoEnableModeless@COleFrameHook@@QEAAHH@Z @ 2040 NONAME
 ?DoEnableModeless@CWinApp@@SAXH@Z @ 2041 NONAME
 ?DoEndPrinting@CDocObjectServer@@IEAAXPEAVCView@@PEAVCDC@@PEAUCPrintInfo@@@Z @ 2042 NONAME
 ?DoFieldExchange@CRecordset@@UEAAXPEAVCFieldExchange@@@Z @ 2043 NONAME
 ?DoFileSave@CDocument@@UEAAHXZ @ 2044 NONAME
 ?DoKeyboardSplit@CSplitterWnd@@UEAAHXZ @ 2045 NONAME
 ?DoMessageBox@CWinApp@@UEAAHPEBDII@Z @ 2046 NONAME
 ?DoModal@CColorDialog@@UEAA_JXZ @ 2047 NONAME
 ?DoModal@CDialog@@UEAA_JXZ @ 2048 NONAME
 ?DoModal@CFileDialog@@UEAA_JXZ @ 2049 NONAME
 ?DoModal@CFontDialog@@UEAA_JXZ @ 2050 NONAME
 ?DoModal@COleBusyDialog@@UEAA_JXZ @ 2051 NONAME
 ?DoModal@COleChangeIconDialog@@UEAA_JXZ @ 2052 NONAME
 ?DoModal@COleChangeSourceDialog@@UEAA_JXZ @ 2053 NONAME
 ?DoModal@COleConvertDialog@@UEAA_JXZ @ 2054 NONAME
 ?DoModal@COleInsertDialog@@QEAA_JK@Z @ 2055 NONAME
 ?DoModal@COleInsertDialog@@UEAA_JXZ @ 2056 NONAME
 ?DoModal@COleLinksDialog@@UEAA_JXZ @ 2057 NONAME
 ?DoModal@COlePasteSpecialDialog@@UEAA_JXZ @ 2058 NONAME
 ?DoModal@COlePropertiesDialog@@UEAA_JXZ @ 2059 NONAME
 ?DoModal@COleUpdateDialog@@UEAA_JXZ @ 2060 NONAME
 ?DoModal@CPageSetupDialog@@UEAA_JXZ @ 2061 NONAME
 ?DoModal@CPrintDialog@@UEAA_JXZ @ 2062 NONAME
 ?DoModal@CPrintDialogEx@@UEAA_JXZ @ 2063 NONAME
 ?DoModal@CPropertySheet@@UEAA_JXZ @ 2064 NONAME
 ?DoMouseWheel@CScrollView@@QEAAHIFVCPoint@@@Z @ 2065 NONAME
 ?DoOleVerb@CCmdTarget@@QEAAHJPEAUtagMSG@@PEAUHWND__@@PEBUtagRECT@@@Z @ 2066 NONAME
 ?DoPaint@CControlBar@@UEAAXPEAVCDC@@@Z @ 2067 NONAME
 ?DoPaint@CDockBar@@UEAAXPEAVCDC@@@Z @ 2068 NONAME
 ?DoPaste@CRichEditView@@QEAAXAEAVCOleDataObject@@GPEAX@Z @ 2069 NONAME
 ?DoPrepareDC@CDocObjectServer@@IEAAXPEAVCView@@PEAVCDC@@PEAUCPrintInfo@@@Z @ 2070 NONAME
 ?DoPreparePrinting@CDocObjectServer@@IEAAHPEAVCView@@PEAUCPrintInfo@@@Z @ 2071 NONAME
 ?DoPreparePrinting@CView@@QEAAHPEAUCPrintInfo@@@Z @ 2072 NONAME
 ?DoPrint@CDocObjectServer@@IEAAXPEAVCView@@PEAVCDC@@PEAUCPrintInfo@@@Z @ 2073 NONAME
 ?DoPrintDialog@CWinApp@@QEAA_JPEAVCPrintDialog@@@Z @ 2074 NONAME
 ?DoPrintPreview@CView@@QEAAHIPEAV1@PEAUCRuntimeClass@@PEAUCPrintPreviewState@@@Z @ 2075 NONAME
 ?DoPromptFileName@CDocManager@@UEAAHAEAV?$CStringT@DV?$StrTraitMFC_DLL@DV?$ChTraitsCRT@D@ATL@@@@@ATL@@IKHPEAVCDocTemplate@@@Z @ 2076 NONAME
 ?DoPromptFileName@CWinApp@@QEAAHAEAV?$CStringT@DV?$StrTraitMFC_DLL@DV?$ChTraitsCRT@D@ATL@@@@@ATL@@IKHPEAVCDocTemplate@@@Z @ 2077 NONAME
 ?DoPropExchange@COleControl@@UEAAXPEAVCPropExchange@@@Z @ 2078 NONAME
 ?DoSave@CDocument@@UEAAHPEBDH@Z @ 2079 NONAME
 ?DoScroll@CSplitterWnd@@UEAAHPEAVCView@@IH@Z @ 2080 NONAME
 ?DoScrollBy@CSplitterWnd@@UEAAHPEAVCView@@VCSize@@H@Z @ 2081 NONAME
 ?DoSuperclassPaint@COleControl@@QEAAXPEAVCDC@@AEBVCRect@@@Z @ 2082 NONAME
 ?DoUpdate@CCmdUI@@QEAAHPEAVCCmdTarget@@H@Z @ 2083 NONAME
 ?DoUpdate@COleCmdUI@@UEAAHPEAVCCmdTarget@@H@Z @ 2084 NONAME
 ?DoVerb@COleClientItem@@UEAAHJPEAVCView@@PEAUtagMSG@@@Z @ 2085 NONAME
 ?DoVerb@COleControlSite@@UEAAJJPEAUtagMSG@@@Z @ 2086 NONAME
 ?DoVerb@XOleObject@CDocObjectServer@@UEAAJJPEAUtagMSG@@PEAUIOleClientSite@@JPEAUHWND__@@PEBUtagRECT@@@Z @ 2087 NONAME
 ?DoVerb@XOleObject@COleControl@@UEAAJJPEAUtagMSG@@PEAUIOleClientSite@@JPEAUHWND__@@PEBUtagRECT@@@Z @ 2088 NONAME
 ?DoVerb@XOleObject@COleServerDoc@@UEAAJJPEAUtagMSG@@PEAUIOleClientSite@@JPEAUHWND__@@PEBUtagRECT@@@Z @ 2089 NONAME
 ?DoVerb@XOleObject@COleServerItem@@UEAAJJPEAUtagMSG@@PEAUIOleClientSite@@JPEAUHWND__@@PEBUtagRECT@@@Z @ 2090 NONAME
 ?DoWaitCursor@CWinApp@@UEAAXH@Z @ 2091 NONAME
 ?DoZoom@CPreviewView@@IEAAXIVCPoint@@@Z @ 2092 NONAME
 ?DPtoHIMETRIC@CDC@@QEBAXPEAUtagSIZE@@@Z @ 2093 NONAME
 ?DPtoLP@CDC@@QEBAXPEAUtagSIZE@@@Z @ 2094 NONAME
 ?DragEnter@XDropTarget@COleDropTarget@@UEAAJPEAUIDataObject@@KU_POINTL@@PEAK@Z @ 2095 NONAME
 ?Dragging@CDragListBox@@UEAAIVCPoint@@@Z @ 2096 NONAME
 ?DragLeave@XDropTarget@COleDropTarget@@UEAAJXZ @ 2097 NONAME
 ?DragOver@XDropTarget@COleDropTarget@@UEAAJKU_POINTL@@PEAK@Z @ 2098 NONAME
 ?Draw@COleClientItem@@QEAAHPEAVCDC@@PEBUtagRECT@@W4tagDVASPECT@@@Z @ 2099 NONAME
 ?Draw@CRectTracker@@QEBAXPEAVCDC@@@Z @ 2100 NONAME
 ?Draw@XViewObject@COleControl@@UEAAJKJPEAXPEAUtagDVTARGETDEVICE@@PEAUHDC__@@2PEBU_RECTL@@3P6AH_K@Z4@Z @ 2101 NONAME
 ?Draw3dRect@CDC@@QEAAXHHHHKK@Z @ 2102 NONAME
 ?Draw3dRect@CDC@@QEAAXPEBUtagRECT@@KK@Z @ 2103 NONAME
 ?DrawAllSplitBars@CSplitterWnd@@MEAAXPEAVCDC@@HH@Z @ 2104 NONAME
 ?DrawBorders@CControlBar@@UEAAXPEAVCDC@@AEAVCRect@@@Z @ 2105 NONAME
 ?DrawContent@COleControl@@IEAAXPEAVCDC@@AEAVCRect@@@Z @ 2106 NONAME
 ?DrawDragRect@CDC@@QEAAXPEBUtagRECT@@UtagSIZE@@01PEAVCBrush@@2@Z @ 2107 NONAME
 ?DrawFocusRect@CDockContext@@QEAAXH@Z @ 2108 NONAME
 ?DrawGripper@CControlBar@@UEAAXPEAVCDC@@AEBVCRect@@@Z @ 2109 NONAME
 ?DrawIndirect@CImageList@@QEAAHPEAU_IMAGELISTDRAWPARAMS@@@Z @ 2110 NONAME
 ?DrawIndirect@CImageList@@QEAAHPEAVCDC@@HUtagPOINT@@UtagSIZE@@1IKKKKKK@Z @ 2111 NONAME
 ?DrawInsert@CDragListBox@@UEAAXH@Z @ 2112 NONAME
 ?DrawItem@CBitmapButton@@MEAAXPEAUtagDRAWITEMSTRUCT@@@Z @ 2113 NONAME
 ?DrawItem@CButton@@UEAAXPEAUtagDRAWITEMSTRUCT@@@Z @ 2114 NONAME
 ?DrawItem@CCheckListBox@@UEAAXPEAUtagDRAWITEMSTRUCT@@@Z @ 2115 NONAME
 ?DrawItem@CChevronOwnerDrawMenu@@UEAAXPEAUtagDRAWITEMSTRUCT@@@Z @ 2116 NONAME
 ?DrawItem@CComboBox@@UEAAXPEAUtagDRAWITEMSTRUCT@@@Z @ 2117 NONAME
 ?DrawItem@CHeaderCtrl@@UEAAXPEAUtagDRAWITEMSTRUCT@@@Z @ 2118 NONAME
 ?DrawItem@CListBox@@UEAAXPEAUtagDRAWITEMSTRUCT@@@Z @ 2119 NONAME
 ?DrawItem@CListCtrl@@UEAAXPEAUtagDRAWITEMSTRUCT@@@Z @ 2120 NONAME
 ?DrawItem@CListView@@UEAAXPEAUtagDRAWITEMSTRUCT@@@Z @ 2121 NONAME
 ?DrawItem@CMenu@@UEAAXPEAUtagDRAWITEMSTRUCT@@@Z @ 2122 NONAME
 ?DrawItem@CStatic@@UEAAXPEAUtagDRAWITEMSTRUCT@@@Z @ 2123 NONAME
 ?DrawItem@CStatusBar@@UEAAXPEAUtagDRAWITEMSTRUCT@@@Z @ 2124 NONAME
 ?DrawItem@CStatusBarCtrl@@UEAAXPEAUtagDRAWITEMSTRUCT@@@Z @ 2125 NONAME
 ?DrawItem@CTabCtrl@@UEAAXPEAUtagDRAWITEMSTRUCT@@@Z @ 2126 NONAME
 ?DrawMetafile@COleControl@@IEAAXPEAVCDC@@AEAVCRect@@@Z @ 2127 NONAME
 ?DrawSingle@CDragListBox@@QEAAXH@Z @ 2128 NONAME
 ?DrawTextA@CMetaFileDC@@UEAAHPEBDHPEAUtagRECT@@I@Z @ 2129 NONAME
 ?DrawTextA@CPreviewDC@@UEAAHPEBDHPEAUtagRECT@@I@Z @ 2130 NONAME
 ?DrawTextExA@CMetaFileDC@@UEAAHPEADHPEAUtagRECT@@IPEAUtagDRAWTEXTPARAMS@@@Z @ 2131 NONAME
 ?DrawTextExA@CPreviewDC@@UEAAHPEADHPEAUtagRECT@@IPEAUtagDRAWTEXTPARAMS@@@Z @ 2132 NONAME
 ?DrawTrackerRect@CRectTracker@@UEAAXPEBUtagRECT@@PEAVCWnd@@PEAVCDC@@1@Z @ 2133 NONAME
 ?Drop@XDropTarget@COleDropTarget@@UEAAJPEAUIDataObject@@KU_POINTL@@PEAK@Z @ 2134 NONAME
 ?Dropped@CDragListBox@@UEAAXHVCPoint@@@Z @ 2135 NONAME
 ?DumpAsHex@CDumpContext@@QEAAAEAV1@_J@Z @ 2136 NONAME
 ?DumpAsHex@CDumpContext@@QEAAAEAV1@_K@Z @ 2137 NONAME
 ?DumpAsHex@CDumpContext@@QEAAAEAV1@E@Z @ 2138 NONAME
 ?DumpAsHex@CDumpContext@@QEAAAEAV1@G@Z @ 2139 NONAME
 ?DumpAsHex@CDumpContext@@QEAAAEAV1@H@Z @ 2140 NONAME
 ?DumpAsHex@CDumpContext@@QEAAAEAV1@I@Z @ 2141 NONAME
 ?DumpAsHex@CDumpContext@@QEAAAEAV1@J@Z @ 2142 NONAME
 ?DumpAsHex@CDumpContext@@QEAAAEAV1@K@Z @ 2143 NONAME
 ?DUnadvise@XDataObject@COleControl@@UEAAJK@Z @ 2144 NONAME
 ?DUnadvise@XDataObject@COleDataSource@@UEAAJK@Z @ 2145 NONAME
 ?DUnadvise@XDataObject@COleServerDoc@@UEAAJK@Z @ 2146 NONAME
 ?DUnadvise@XDataObject@COleServerItem@@UEAAJK@Z @ 2147 NONAME
 ?Duplicate@CFile@@UEBAPEAV1@XZ @ 2148 NONAME
 ?Duplicate@CInternetFile@@UEBAPEAVCFile@@XZ @ 2149 NONAME
 ?Duplicate@CMemFile@@UEBAPEAVCFile@@XZ @ 2150 NONAME
 ?Duplicate@COleStreamFile@@UEBAPEAVCFile@@XZ @ 2151 NONAME
 ?Duplicate@CSocketFile@@UEBAPEAVCFile@@XZ @ 2152 NONAME
 ?Duplicate@CStdioFile@@UEBAPEAVCFile@@XZ @ 2153 NONAME
 ?dwStyleDefault@CEditView@@2KB @ 2154 NONAME DATA
 ?Edit@CRecordset@@UEAAXXZ @ 2155 NONAME
 ?EditProperty@XPropertyPage@COlePropertyPage@@UEAAJJ@Z @ 2156 NONAME
 ?EditStreamCallBack@CRichEditView@@SAK_KPEAEJPEAJ@Z @ 2157 NONAME
 ?Empty@?$CSimpleStringT@_W$00@ATL@@QEAAXXZ @ 2158 NONAME
 ?Empty@?$CSimpleStringT@D$00@ATL@@QEAAXXZ @ 2159 NONAME
 ?Empty@CDBException@@QEAAXXZ @ 2160 NONAME
 ?Empty@COleDataSource@@QEAAXXZ @ 2161 NONAME
 ?Enable@CCheckListBox@@QEAAXHH@Z @ 2162 NONAME
 ?Enable@CCmdUI@@UEAAXH@Z @ 2163 NONAME
 ?Enable@COleCmdUI@@UEAAXH@Z @ 2164 NONAME
 ?Enable@CStatusCmdUI@@UEAAXH@Z @ 2165 NONAME
 ?Enable@CTestCmdUI@@UEAAXH@Z @ 2166 NONAME
 ?Enable@CToolCmdUI@@UEAAXH@Z @ 2167 NONAME
 ?EnableAggregation@CCmdTarget@@QEAAXXZ @ 2168 NONAME
 ?EnableAutomation@CCmdTarget@@QEAAXXZ @ 2169 NONAME
 ?EnableBookmarks@CRecordset@@IEAAXXZ @ 2170 NONAME
 ?EnableConnections@CCmdTarget@@QEAAXXZ @ 2171 NONAME
 ?EnableDocking@CControlBar@@QEAAXK@Z @ 2172 NONAME
 ?EnableDocking@CFrameWnd@@QEAAXK@Z @ 2173 NONAME
 ?EnableDSC@COleControlSite@@UEAAXXZ @ 2174 NONAME
 ?EnableModeless@CBrowserControlSite@@MEAAJH@Z @ 2175 NONAME
 ?EnableModeless@CDHtmlDialog@@UEAAJH@Z @ 2176 NONAME
 ?EnableModeless@CWinApp@@QEAAXH@Z @ 2177 NONAME
 ?EnableModeless@XDocHostUIHandler@CHtmlControlSite@@UEAAJH@Z @ 2178 NONAME
 ?EnableModeless@XOleInPlaceActiveObject@COleControl@@UEAAJH@Z @ 2179 NONAME
 ?EnableModeless@XOleInPlaceActiveObject@COleServerDoc@@UEAAJH@Z @ 2180 NONAME
 ?EnableModeless@XOleInPlaceFrame@COleFrameHook@@UEAAJH@Z @ 2181 NONAME
 ?EnableModeless@XOleIPFrame@COleControlContainer@@UEAAJH@Z @ 2182 NONAME
 ?EnableScrollBarCtrl@CWnd@@QEAAXHH@Z @ 2183 NONAME
 ?EnableShellOpen@CWinApp@@IEAAXXZ @ 2184 NONAME
 ?EnableSimpleFrame@COleControl@@QEAAXXZ @ 2185 NONAME
 ?EnableStackedTabs@CPropertySheet@@QEAAXH@Z @ 2186 NONAME
 ?EnableStatusCallback@CInternetSession@@QEAAHH@Z @ 2187 NONAME
 ?EnableToolTips@CWnd@@QEAAHH@Z @ 2188 NONAME
 ?EnableTrackingToolTips@CWnd@@QEAAHH@Z @ 2189 NONAME
 ?EnableTypeLib@CCmdTarget@@QEAAXXZ @ 2190 NONAME
 ?EnableWindow@COleControlSite@@UEAAHH@Z @ 2191 NONAME
 ?EnableWindow@CWnd@@QEAAHH@Z @ 2192 NONAME
 ?EndBusyState@COleMessageFilter@@UEAAXXZ @ 2193 NONAME
 ?EndCallbacks@CAsyncMonikerFile@@IEAAXXZ @ 2194 NONAME
 ?EndDeferErrors@COleLinkingDoc@@QEAAJJ@Z @ 2195 NONAME
 ?EndDialog@CDialog@@QEAAXH@Z @ 2196 NONAME
 ?EndDialog@CPropertyPage@@QEAAXH@Z @ 2197 NONAME
 ?EndDialog@CPropertySheet@@QEAAXH@Z @ 2198 NONAME
 ?EndDrag@CDockContext@@QEAAXXZ @ 2199 NONAME
 ?EndModalLoop@CWnd@@UEAAXH@Z @ 2200 NONAME
 ?EndModalState@CFrameWnd@@UEAAXXZ @ 2201 NONAME
 ?EndRequest@CHttpFile@@QEAAHKPEAU_INTERNET_BUFFERSA@@_K@Z @ 2202 NONAME
 ?EndResize@CDockContext@@QEAAXXZ @ 2203 NONAME
 ?EndWaitCursor@CCmdTarget@@QEAAXXZ @ 2204 NONAME
 ?EnsureClipboardObject@COleDataObject@@QEAAXXZ @ 2205 NONAME
 ?EnsureStdObj@CWnd@@UEAAJXZ @ 2206 NONAME
 ?EnumAdvise@XOleObject@CDocObjectServer@@UEAAJPEAPEAUIEnumSTATDATA@@@Z @ 2207 NONAME
 ?EnumAdvise@XOleObject@COleControl@@UEAAJPEAPEAUIEnumSTATDATA@@@Z @ 2208 NONAME
 ?EnumAdvise@XOleObject@COleServerDoc@@UEAAJPEAPEAUIEnumSTATDATA@@@Z @ 2209 NONAME
 ?EnumAdvise@XOleObject@COleServerItem@@UEAAJPEAPEAUIEnumSTATDATA@@@Z @ 2210 NONAME
 ?EnumCache@XOleCache@COleControl@@UEAAJPEAPEAUIEnumSTATDATA@@@Z @ 2211 NONAME
 ?EnumChildProc@COlePropertyPage@@KAHPEAUHWND__@@_J@Z @ 2212 NONAME
 ?EnumConnectionPoints@COleConnPtContainer@@UEAAJPEAPEAUIEnumConnectionPoints@@@Z @ 2213 NONAME
 ?EnumConnections@XConnPt@CConnectionPoint@@UEAAJPEAPEAUIEnumConnections@@@Z @ 2214 NONAME
 ?EnumControls@COlePropertyPage@@KAHPEAUHWND__@@_J@Z @ 2215 NONAME
 ?EnumDAdvise@XDataObject@COleControl@@UEAAJPEAPEAUIEnumSTATDATA@@@Z @ 2216 NONAME
 ?EnumDAdvise@XDataObject@COleDataSource@@UEAAJPEAPEAUIEnumSTATDATA@@@Z @ 2217 NONAME
 ?EnumDAdvise@XDataObject@COleServerDoc@@UEAAJPEAPEAUIEnumSTATDATA@@@Z @ 2218 NONAME
 ?EnumDAdvise@XDataObject@COleServerItem@@UEAAJPEAPEAUIEnumSTATDATA@@@Z @ 2219 NONAME
 ?EnumFormatEtc@XDataObject@COleControl@@UEAAJKPEAPEAUIEnumFORMATETC@@@Z @ 2220 NONAME
 ?EnumFormatEtc@XDataObject@COleDataSource@@UEAAJKPEAPEAUIEnumFORMATETC@@@Z @ 2221 NONAME
 ?EnumFormatEtc@XDataObject@COleServerDoc@@UEAAJKPEAPEAUIEnumFORMATETC@@@Z @ 2222 NONAME
 ?EnumFormatEtc@XDataObject@COleServerItem@@UEAAJKPEAPEAUIEnumFORMATETC@@@Z @ 2223 NONAME
 ?EnumObjects@XOleContainer@COleControlContainer@@UEAAJKPEAPEAUIEnumUnknown@@@Z @ 2224 NONAME
 ?EnumObjects@XOleItemContainer@COleLinkingDoc@@UEAAJKPEAPEAUIEnumUnknown@@@Z @ 2225 NONAME
 ?EnumOleVerbs@CCmdTarget@@QEAAHPEAPEAUIEnumOLEVERB@@@Z @ 2226 NONAME
 ?EnumVerbs@XOleObject@CDocObjectServer@@UEAAJPEAPEAUIEnumOLEVERB@@@Z @ 2227 NONAME
 ?EnumVerbs@XOleObject@COleControl@@UEAAJPEAPEAUIEnumOLEVERB@@@Z @ 2228 NONAME
 ?EnumVerbs@XOleObject@COleServerDoc@@UEAAJPEAPEAUIEnumOLEVERB@@@Z @ 2229 NONAME
 ?EnumVerbs@XOleObject@COleServerItem@@UEAAJPEAPEAUIEnumOLEVERB@@@Z @ 2230 NONAME
 ?EnumViews@XOleDocument@CDocObjectServer@@UEAAJPEAPEAUIEnumOleDocumentViews@@PEAPEAUIOleDocumentView@@@Z @ 2231 NONAME
 ?EraseNonClient@CControlBar@@QEAAXXZ @ 2232 NONAME
 ?ErrnoToException@CFileException@@SAHH@Z @ 2233 NONAME
 ?ErrorDlg@CHttpFile@@QEAAKPEAVCWnd@@KKPEAPEAX@Z @ 2234 NONAME
 ?Escape@CMetaFileDC@@UEAAHHHPEBDPEAX@Z @ 2235 NONAME
 ?Escape@CPreviewDC@@UEAAHHHPEBDPEAX@Z @ 2236 NONAME
 ?ExchangeBlobProp@CArchivePropExchange@@UEAAHPEBDPEAPEAXPEAX@Z @ 2237 NONAME
 ?ExchangeBlobProp@CAsyncPropExchange@@UEAAHPEBDPEAPEAXPEAX@Z @ 2238 NONAME
 ?ExchangeBlobProp@CPropbagPropExchange@@UEAAHPEBDPEAPEAXPEAX@Z @ 2239 NONAME
 ?ExchangeBlobProp@CPropsetPropExchange@@UEAAHPEBDPEAPEAXPEAX@Z @ 2240 NONAME
 ?ExchangeBlobProp@CResetPropExchange@@UEAAHPEBDPEAPEAXPEAX@Z @ 2241 NONAME
 ?ExchangeExtent@COleControl@@QEAAHPEAVCPropExchange@@@Z @ 2242 NONAME
 ?ExchangeFontProp@CArchivePropExchange@@UEAAHPEBDAEAVCFontHolder@@PEBUtagFONTDESC@@PEAUIFontDisp@@@Z @ 2243 NONAME
 ?ExchangeFontProp@CAsyncPropExchange@@UEAAHPEBDAEAVCFontHolder@@PEBUtagFONTDESC@@PEAUIFontDisp@@@Z @ 2244 NONAME
 ?ExchangeFontProp@CPropbagPropExchange@@UEAAHPEBDAEAVCFontHolder@@PEBUtagFONTDESC@@PEAUIFontDisp@@@Z @ 2245 NONAME
 ?ExchangeFontProp@CPropsetPropExchange@@UEAAHPEBDAEAVCFontHolder@@PEBUtagFONTDESC@@PEAUIFontDisp@@@Z @ 2246 NONAME
 ?ExchangeFontProp@CResetPropExchange@@UEAAHPEBDAEAVCFontHolder@@PEBUtagFONTDESC@@PEAUIFontDisp@@@Z @ 2247 NONAME
 ?ExchangePersistentProp@CArchivePropExchange@@UEAAHPEBDPEAPEAUIUnknown@@AEBU_GUID@@PEAU2@@Z @ 2248 NONAME
 ?ExchangePersistentProp@CAsyncPropExchange@@UEAAHPEBDPEAPEAUIUnknown@@AEBU_GUID@@PEAU2@@Z @ 2249 NONAME
 ?ExchangePersistentProp@CPropbagPropExchange@@UEAAHPEBDPEAPEAUIUnknown@@AEBU_GUID@@PEAU2@@Z @ 2250 NONAME
 ?ExchangePersistentProp@CPropsetPropExchange@@UEAAHPEBDPEAPEAUIUnknown@@AEBU_GUID@@PEAU2@@Z @ 2251 NONAME
 ?ExchangePersistentProp@CResetPropExchange@@UEAAHPEBDPEAPEAUIUnknown@@AEBU_GUID@@PEAU2@@Z @ 2252 NONAME
 ?ExchangeProp@CArchivePropExchange@@UEAAHPEBDGPEAXPEBX@Z @ 2253 NONAME
 ?ExchangeProp@CAsyncPropExchange@@UEAAHPEBDGPEAXPEBX@Z @ 2254 NONAME
 ?ExchangeProp@CPropbagPropExchange@@UEAAHPEBDGPEAXPEBX@Z @ 2255 NONAME
 ?ExchangeProp@CPropsetPropExchange@@UEAAHPEBDGPEAXPEBX@Z @ 2256 NONAME
 ?ExchangeProp@CResetPropExchange@@UEAAHPEBDGPEAXPEBX@Z @ 2257 NONAME
 ?ExchangeStockProps@COleControl@@QEAAXPEAVCPropExchange@@@Z @ 2258 NONAME
 ?ExchangeVersion@CAsyncPropExchange@@UEAAHAEAKKH@Z @ 2259 NONAME
 ?ExchangeVersion@CPropExchange@@UEAAHAEAKKH@Z @ 2260 NONAME
 ?ExcludeClipRect@CDC@@QEAAHHHHH@Z @ 2261 NONAME
 ?ExcludeClipRect@CDC@@QEAAHPEBUtagRECT@@@Z @ 2262 NONAME
 ?Exec@XOleCommandTarget@CDocObjectServer@@UEAAJPEBU_GUID@@KKPEAUtagVARIANT@@1@Z @ 2263 NONAME
 ?Exec@XOleCommandTarget@COleFrameHook@@UEAAJPEBU_GUID@@KKPEAUtagVARIANT@@1@Z @ 2264 NONAME
 ?ExecCommand@COleDocObjectItem@@QEAAJKKPEBU_GUID@@@Z @ 2265 NONAME
 ?ExecFormsCommand@CHtmlView@@QEAAJKPEAUtagVARIANT@@0@Z @ 2266 NONAME
 ?ExecHandler@CHtmlEditView@@UEAAHI@Z @ 2267 NONAME
 ?ExecuteDlgInit@CWnd@@QEAAHPEAX@Z @ 2268 NONAME
 ?ExecuteDlgInit@CWnd@@QEAAHPEBD@Z @ 2269 NONAME
 ?ExecuteSetPosUpdate@CRecordset@@IEAAXXZ @ 2270 NONAME
 ?ExecuteSQL@CDatabase@@QEAAXPEBD@Z @ 2271 NONAME
 ?ExecuteUpdateSQL@CRecordset@@IEAAXXZ @ 2272 NONAME
 ?ExecWB@CHtmlView@@QEAAXW4OLECMDID@@W4OLECMDEXECOPT@@PEAUtagVARIANT@@2@Z @ 2273 NONAME
 ?ExitHelpMode@CFrameWnd@@UEAAXXZ @ 2274 NONAME
 ?ExitInstance@COleControlModule@@UEAAHXZ @ 2275 NONAME
 ?ExitInstance@CWinApp@@UEAAHXZ @ 2276 NONAME
 ?ExitInstance@CWinThread@@UEAAHXZ @ 2277 NONAME
 ?ExternalAddRef@CCmdTarget@@QEAAKXZ @ 2278 NONAME
 ?ExternalDisconnect@CCmdTarget@@QEAAXXZ @ 2279 NONAME
 ?ExternalQueryInterface@CCmdTarget@@QEAAKPEBXPEAPEAX@Z @ 2280 NONAME
 ?ExternalRelease@CCmdTarget@@QEAAKXZ @ 2281 NONAME
 ?ExtTextOutA@CMetaFileDC@@UEAAHHHIPEBUtagRECT@@PEBDIPEAH@Z @ 2282 NONAME
 ?ExtTextOutA@CPreviewDC@@UEAAHHHIPEBUtagRECT@@PEBDIPEAH@Z @ 2283 NONAME
 ?Fail@CDataExchange@@QEAAXXZ @ 2284 NONAME
 ?FailedToDo@XNotifyDBEvents@COleControlSite@@UEAAJKKQEAUtagDBNOTIFYREASON@@@Z @ 2285 NONAME
 ?FetchData@CRecordset@@QEAAFGJPEA_K@Z @ 2286 NONAME
 ?FillBuffer@CArchive@@QEAAXI@Z @ 2287 NONAME
 ?FillInLogFont@CFontDialog@@QEAAKAEBU_charformat@@@Z @ 2288 NONAME
 ?FillInToolInfo@CToolTipCtrl@@QEBAXAEAUtagTOOLINFOA@@PEAVCWnd@@_K@Z @ 2289 NONAME
 ?FillListSitesOrWnds@COleControlContainer@@UEAAHPEAU_AFX_OCC_DIALOG_INFO@@@Z @ 2290 NONAME
 ?FillOutsideRect@CScrollView@@QEAAXPEAVCDC@@PEAVCBrush@@@Z @ 2291 NONAME
 ?FillSolidRect@CDC@@QEAAXHHHHK@Z @ 2292 NONAME
 ?FillSolidRect@CDC@@QEAAXPEBUtagRECT@@K@Z @ 2293 NONAME
 ?FilterDataObject@CBrowserControlSite@@MEAAJPEAUIDataObject@@PEAPEAU2@@Z @ 2294 NONAME
 ?FilterDataObject@CDHtmlDialog@@UEAAJPEAUIDataObject@@PEAPEAU2@@Z @ 2295 NONAME
 ?FilterDataObject@XDocHostUIHandler@CHtmlControlSite@@UEAAJPEAUIDataObject@@PEAPEAU3@@Z @ 2296 NONAME
 ?FilterToolTipMessage@CWnd@@QEAAXPEAUtagMSG@@@Z @ 2297 NONAME
 ?Find@?$CStringT@_WV?$StrTraitMFC_DLL@_WV?$ChTraitsCRT@_W@ATL@@@@@ATL@@QEBAH_WH@Z @ 2298 NONAME
 ?Find@?$CStringT@_WV?$StrTraitMFC_DLL@_WV?$ChTraitsCRT@_W@ATL@@@@@ATL@@QEBAHPEB_WH@Z @ 2299 NONAME
 ?Find@?$CStringT@DV?$StrTraitMFC_DLL@DV?$ChTraitsCRT@D@ATL@@@@@ATL@@QEBAHDH@Z @ 2300 NONAME
 ?Find@?$CStringT@DV?$StrTraitMFC_DLL@DV?$ChTraitsCRT@D@ATL@@@@@ATL@@QEBAHPEBDH@Z @ 2301 NONAME
 ?Find@CObList@@QEBAPEAU__POSITION@@PEAVCObject@@PEAU2@@Z @ 2302 NONAME
 ?Find@CPtrList@@QEBAPEAU__POSITION@@PEAXPEAU2@@Z @ 2303 NONAME
 ?Find@CStringList@@QEBAPEAU__POSITION@@PEBDPEAU2@@Z @ 2304 NONAME
 ?FindAndSelect@CRichEditView@@QEAAJKAEAU_findtextexa@@@Z @ 2305 NONAME
 ?FindBar@CDockBar@@QEAAHPEAVCControlBar@@H@Z @ 2306 NONAME
 ?FindConnectionPoint@COleConnPtContainer@@UEAAJAEBU_GUID@@PEAPEAUIConnectionPoint@@@Z @ 2307 NONAME
 ?FindDHtmlEventEntry@CDHtmlEventSink@@QEAAHPEBUDHtmlEventMapEntry@@JPEAPEAUIHTMLElement@@@Z @ 2308 NONAME
 ?FindFile@CFileFind@@UEAAHPEBDK@Z @ 2309 NONAME
 ?FindFile@CFtpFileFind@@UEAAHPEBDK@Z @ 2310 NONAME
 ?FindFile@CGopherFileFind@@UEAAHAEAVCGopherLocator@@PEBDK@Z @ 2311 NONAME
 ?FindFile@CGopherFileFind@@UEAAHPEBDK@Z @ 2312 NONAME
 ?FindIndex@CObList@@QEBAPEAU__POSITION@@_J@Z @ 2313 NONAME
 ?FindIndex@CPtrList@@QEBAPEAU__POSITION@@_J@Z @ 2314 NONAME
 ?FindIndex@CStringList@@QEBAPEAU__POSITION@@_J@Z @ 2315 NONAME
 ?FindItem@COleControlContainer@@UEBAPEAVCOleControlSite@@I@Z @ 2316 NONAME
 ?FindNextFileA@CFileFind@@UEAAHXZ @ 2317 NONAME
 ?FindNextFileA@CFtpFileFind@@UEAAHXZ @ 2318 NONAME
 ?FindNextFileA@CGopherFileFind@@UEAAHXZ @ 2319 NONAME
 ?FindOneOf@?$CStringT@_WV?$StrTraitMFC_DLL@_WV?$ChTraitsCRT@_W@ATL@@@@@ATL@@QEBAHPEB_W@Z @ 2320 NONAME
 ?FindOneOf@?$CStringT@DV?$StrTraitMFC_DLL@DV?$ChTraitsCRT@D@ATL@@@@@ATL@@QEBAHPEBD@Z @ 2321 NONAME
 ?FindPageRect@CPreviewView@@IEAAHAEAVCPoint@@AEAI@Z @ 2322 NONAME
 ?FindSinkForObject@CDHtmlDialog@@IEAAHPEBD@Z @ 2323 NONAME
 ?FindSiteOrWnd@CWnd@@QEBAPEAU__POSITION@@PEBUCOleControlSiteOrWnd@@@Z @ 2324 NONAME
 ?FindSiteOrWndWithFocus@CWnd@@QEBAPEAU__POSITION@@XZ @ 2325 NONAME
 ?FindSQLToken@CRecordset@@SAPEBDPEBD0@Z @ 2326 NONAME
 ?FindTextA@CEditView@@QEAAHPEBDHH@Z @ 2327 NONAME
 ?FindTextA@CRichEditView@@QEAAHPEBDHHH@Z @ 2328 NONAME
 ?FindTextSimple@CRichEditView@@QEAAHPEBDHHH@Z @ 2329 NONAME
 ?FinishCreate@COleClientItem@@MEAAHJ@Z @ 2330 NONAME
 ?FireError@COleControl@@QEAAXJPEBDI@Z @ 2331 NONAME
 ?FireEvent@COleControl@@QEAAXJPEAEZZ @ 2332 NONAME
 ?FireEvent@XNotifyDBEvents@COleControlSite@@QEAAJKKQEAUtagDBNOTIFYREASON@@W4DSCSTATE@@@Z @ 2333 NONAME
 ?FireEventV@COleControl@@IEAAXJPEAEPEAD@Z @ 2334 NONAME
 ?Fixups@CRecordset@@QEAAXXZ @ 2335 NONAME
 ?FloatControlBar@CFrameWnd@@QEAAXPEAVCControlBar@@VCPoint@@K@Z @ 2336 NONAME
 ?Flush@CArchive@@QEAAXXZ @ 2337 NONAME
 ?Flush@CDumpContext@@QEAAXXZ @ 2338 NONAME
 ?Flush@CFile@@UEAAXXZ @ 2339 NONAME
 ?Flush@CInternetFile@@UEAAXXZ @ 2340 NONAME
 ?Flush@CMemFile@@UEAAXXZ @ 2341 NONAME
 ?Flush@CMonikerFile@@UEAAXXZ @ 2342 NONAME
 ?Flush@COleStreamFile@@UEAAXXZ @ 2343 NONAME
 ?Flush@CSocketFile@@UEAAXXZ @ 2344 NONAME
 ?Flush@CStdioFile@@UEAAXXZ @ 2345 NONAME
 ?FlushClipboard@COleDataSource@@SAXXZ @ 2346 NONAME
 ?FlushResultSet@CRecordset@@QEAAHXZ @ 2347 NONAME
 ?Fork@?$CSimpleStringT@_W$00@ATL@@AEAAXH@Z @ 2348 NONAME
 ?Fork@?$CSimpleStringT@D$00@ATL@@AEAAXH@Z @ 2349 NONAME
 ?Format@?$CStringT@_WV?$StrTraitMFC_DLL@_WV?$ChTraitsCRT@_W@ATL@@@@@ATL@@QEAAXIZZ @ 2350 NONAME
 ?Format@?$CStringT@_WV?$StrTraitMFC_DLL@_WV?$ChTraitsCRT@_W@ATL@@@@@ATL@@QEAAXPEB_WZZ @ 2351 NONAME
 ?Format@?$CStringT@DV?$StrTraitMFC_DLL@DV?$ChTraitsCRT@D@ATL@@@@@ATL@@QEAAXIZZ @ 2352 NONAME
 ?Format@?$CStringT@DV?$StrTraitMFC_DLL@DV?$ChTraitsCRT@D@ATL@@@@@ATL@@QEAAXPEBDZZ @ 2353 NONAME
 ?Format@COleCurrency@@QEBA?AV?$CStringT@DV?$StrTraitMFC_DLL@DV?$ChTraitsCRT@D@ATL@@@@@ATL@@KK@Z @ 2354 NONAME
 ?FormatMessageA@?$CStringT@_WV?$StrTraitMFC_DLL@_WV?$ChTraitsCRT@_W@ATL@@@@@ATL@@QEAAXIZZ @ 2355 NONAME
 ?FormatMessageA@?$CStringT@_WV?$StrTraitMFC_DLL@_WV?$ChTraitsCRT@_W@ATL@@@@@ATL@@QEAAXPEB_WZZ @ 2356 NONAME
 ?FormatMessageA@?$CStringT@DV?$StrTraitMFC_DLL@DV?$ChTraitsCRT@D@ATL@@@@@ATL@@QEAAXIZZ @ 2357 NONAME
 ?FormatMessageA@?$CStringT@DV?$StrTraitMFC_DLL@DV?$ChTraitsCRT@D@ATL@@@@@ATL@@QEAAXPEBDZZ @ 2358 NONAME
 ?FormatMessageV@?$CStringT@_WV?$StrTraitMFC_DLL@_WV?$ChTraitsCRT@_W@ATL@@@@@ATL@@QEAAXPEB_WPEAPEAD@Z @ 2359 NONAME
 ?FormatMessageV@?$CStringT@DV?$StrTraitMFC_DLL@DV?$ChTraitsCRT@D@ATL@@@@@ATL@@QEAAXPEBDPEAPEAD@Z @ 2360 NONAME
 ?FormatV@?$CStringT@_WV?$StrTraitMFC_DLL@_WV?$ChTraitsCRT@_W@ATL@@@@@ATL@@QEAAXPEB_WPEAD@Z @ 2361 NONAME
 ?FormatV@?$CStringT@DV?$StrTraitMFC_DLL@DV?$ChTraitsCRT@D@ATL@@@@@ATL@@QEAAXPEBDPEAD@Z @ 2362 NONAME
 ?ForwardActivationMsg@COleControl@@IEAAXPEAUtagMSG@@@Z @ 2363 NONAME
 ?Free@CAfxStringMgr@@UEAAXPEAUCStringData@ATL@@@Z @ 2364 NONAME
 ?Free@CDatabase@@IEAAXXZ @ 2365 NONAME
 ?Free@CFixedAlloc@@QEAAXPEAX@Z @ 2366 NONAME
 ?Free@CFixedAllocNoSync@@QEAAXPEAX@Z @ 2367 NONAME
 ?Free@CMemFile@@MEAAXPEAE@Z @ 2368 NONAME
 ?Free@CSharedFile@@MEAAXPEAE@Z @ 2369 NONAME
 ?FreeAll@CFixedAlloc@@QEAAXXZ @ 2370 NONAME
 ?FreeAll@CFixedAllocNoSync@@QEAAXXZ @ 2371 NONAME
 ?FreeAssoc@CMapPtrToPtr@@IEAAXPEAUCAssoc@1@@Z @ 2372 NONAME
 ?FreeAssoc@CMapPtrToWord@@IEAAXPEAUCAssoc@1@@Z @ 2373 NONAME
 ?FreeAssoc@CMapStringToOb@@IEAAXPEAUCAssoc@1@@Z @ 2374 NONAME
 ?FreeAssoc@CMapStringToPtr@@IEAAXPEAUCAssoc@1@@Z @ 2375 NONAME
 ?FreeAssoc@CMapStringToString@@IEAAXPEAVCAssoc@1@@Z @ 2376 NONAME
 ?FreeAssoc@CMapWordToOb@@IEAAXPEAUCAssoc@1@@Z @ 2377 NONAME
 ?FreeAssoc@CMapWordToPtr@@IEAAXPEAUCAssoc@1@@Z @ 2378 NONAME
 ?FreeDataCache@CRecordset@@QEAAXXZ @ 2379 NONAME
 ?FreeDataChain@CPlex@@QEAAXXZ @ 2380 NONAME
 ?FreeExtra@?$CSimpleStringT@_W$00@ATL@@QEAAXXZ @ 2381 NONAME
 ?FreeExtra@?$CSimpleStringT@D$00@ATL@@QEAAXXZ @ 2382 NONAME
 ?FreeExtra@CByteArray@@QEAAXXZ @ 2383 NONAME
 ?FreeExtra@CDWordArray@@QEAAXXZ @ 2384 NONAME
 ?FreeExtra@CObArray@@QEAAXXZ @ 2385 NONAME
 ?FreeExtra@CPtrArray@@QEAAXXZ @ 2386 NONAME
 ?FreeExtra@CStringArray@@QEAAXXZ @ 2387 NONAME
 ?FreeExtra@CUIntArray@@QEAAXXZ @ 2388 NONAME
 ?FreeExtra@CWordArray@@QEAAXXZ @ 2389 NONAME
 ?FreeNode@CObList@@IEAAXPEAUCNode@1@@Z @ 2390 NONAME
 ?FreeNode@CPtrList@@IEAAXPEAUCNode@1@@Z @ 2391 NONAME
 ?FreeNode@CStringList@@IEAAXPEAUCNode@1@@Z @ 2392 NONAME
 ?FreeRowset@CRecordset@@IEAAXXZ @ 2393 NONAME
 ?FreeSlot@CThreadSlotData@@QEAAXH@Z @ 2394 NONAME
 ?FreeValue@CProperty@@AEAAXXZ @ 2395 NONAME
 ?Freeze@XViewObject@COleControl@@UEAAJKJPEAXPEAK@Z @ 2396 NONAME
 ?FreezeAllEvents@COleControlContainer@@QEAAXH@Z @ 2397 NONAME
 ?FreezeEvents@COleControlSite@@QEAAXH@Z @ 2398 NONAME
 ?FreezeEvents@XOleControl@COleControl@@UEAAJH@Z @ 2399 NONAME
 ?FreezeLink@COleClientItem@@UEAAHXZ @ 2400 NONAME
 ?FromHandle@CDC@@SAPEAV1@PEAUHDC__@@@Z @ 2401 NONAME
 ?FromHandle@CGdiObject@@SAPEAV1@PEAX@Z @ 2402 NONAME
 ?FromHandle@CHandleMap@@QEAAPEAVCObject@@PEAX@Z @ 2403 NONAME
 ?FromHandle@CImageList@@SAPEAV1@PEAU_IMAGELIST@@@Z @ 2404 NONAME
 ?FromHandle@CMenu@@SAPEAV1@PEAUHMENU__@@@Z @ 2405 NONAME
 ?FromHandle@CWnd@@SAPEAV1@PEAUHWND__@@@Z @ 2406 NONAME
 ?FromHandlePermanent@CImageList@@SAPEAV1@PEAU_IMAGELIST@@@Z @ 2407 NONAME
 ?FromHandlePermanent@CMenu@@SAPEAV1@PEAUHMENU__@@@Z @ 2408 NONAME
 ?FromHandlePermanent@CWnd@@SAPEAV1@PEAUHWND__@@@Z @ 2409 NONAME
 ?FromIDispatch@CCmdTarget@@SAPEAV1@PEAUIDispatch@@@Z @ 2410 NONAME
 ?FromName@CRuntimeClass@@SAPEAU1@PEB_W@Z @ 2411 NONAME
 ?FromName@CRuntimeClass@@SAPEAU1@PEBD@Z @ 2412 NONAME
 ?Get@CProperty@@QEAAPEAXPEAK@Z @ 2413 NONAME
 ?Get@CProperty@@QEAAPEAXXZ @ 2414 NONAME
 ?Get@CPropertySection@@QEAAPEAXK@Z @ 2415 NONAME
 ?Get@CPropertySection@@QEAAPEAXKPEAK@Z @ 2416 NONAME
 ?Get@CPropertySet@@QEAAPEAXU_GUID@@K@Z @ 2417 NONAME
 ?Get@CPropertySet@@QEAAPEAXU_GUID@@KPEAK@Z @ 2418 NONAME
 ?get_accChild@CWnd@@UEAAJUtagVARIANT@@PEAPEAUIDispatch@@@Z @ 2419 NONAME
 ?get_accChild@XAccessible@CWnd@@UEAAJUtagVARIANT@@PEAPEAUIDispatch@@@Z @ 2420 NONAME
 ?get_accChildCount@CWnd@@UEAAJPEAJ@Z @ 2421 NONAME
 ?get_accChildCount@XAccessible@CWnd@@UEAAJPEAJ@Z @ 2422 NONAME
 ?get_accDefaultAction@CCheckListBox@@MEAAJUtagVARIANT@@PEAPEA_W@Z @ 2423 NONAME
 ?get_accDefaultAction@CWnd@@UEAAJUtagVARIANT@@PEAPEA_W@Z @ 2424 NONAME
 ?get_accDefaultAction@XAccessible@CWnd@@UEAAJUtagVARIANT@@PEAPEA_W@Z @ 2425 NONAME
 ?get_accDescription@CWnd@@UEAAJUtagVARIANT@@PEAPEA_W@Z @ 2426 NONAME
 ?get_accDescription@XAccessible@CWnd@@UEAAJUtagVARIANT@@PEAPEA_W@Z @ 2427 NONAME
 ?get_accFocus@CWnd@@UEAAJPEAUtagVARIANT@@@Z @ 2428 NONAME
 ?get_accFocus@XAccessible@CWnd@@UEAAJPEAUtagVARIANT@@@Z @ 2429 NONAME
 ?get_accHelp@CWnd@@UEAAJUtagVARIANT@@PEAPEA_W@Z @ 2430 NONAME
 ?get_accHelp@XAccessible@CWnd@@UEAAJUtagVARIANT@@PEAPEA_W@Z @ 2431 NONAME
 ?get_accHelpTopic@CWnd@@UEAAJPEAPEA_WUtagVARIANT@@PEAJ@Z @ 2432 NONAME
 ?get_accHelpTopic@XAccessible@CWnd@@UEAAJPEAPEA_WUtagVARIANT@@PEAJ@Z @ 2433 NONAME
 ?get_accKeyboardShortcut@CWnd@@UEAAJUtagVARIANT@@PEAPEA_W@Z @ 2434 NONAME
 ?get_accKeyboardShortcut@XAccessible@CWnd@@UEAAJUtagVARIANT@@PEAPEA_W@Z @ 2435 NONAME
 ?get_accName@CToolBar@@UEAAJUtagVARIANT@@PEAPEA_W@Z @ 2436 NONAME
 ?get_accName@CWnd@@UEAAJUtagVARIANT@@PEAPEA_W@Z @ 2437 NONAME
 ?get_accName@XAccessible@CWnd@@UEAAJUtagVARIANT@@PEAPEA_W@Z @ 2438 NONAME
 ?get_accParent@CWnd@@UEAAJPEAPEAUIDispatch@@@Z @ 2439 NONAME
 ?get_accParent@XAccessible@CWnd@@UEAAJPEAPEAUIDispatch@@@Z @ 2440 NONAME
 ?get_accRole@CCheckListBox@@MEAAJUtagVARIANT@@PEAU2@@Z @ 2441 NONAME
 ?get_accRole@CWnd@@UEAAJUtagVARIANT@@PEAU2@@Z @ 2442 NONAME
 ?get_accRole@XAccessible@CWnd@@UEAAJUtagVARIANT@@PEAU3@@Z @ 2443 NONAME
 ?get_accSelection@CWnd@@UEAAJPEAUtagVARIANT@@@Z @ 2444 NONAME
 ?get_accSelection@XAccessible@CWnd@@UEAAJPEAUtagVARIANT@@@Z @ 2445 NONAME
 ?get_accState@CCheckListBox@@MEAAJUtagVARIANT@@PEAU2@@Z @ 2446 NONAME
 ?get_accState@CWnd@@UEAAJUtagVARIANT@@PEAU2@@Z @ 2447 NONAME
 ?get_accState@XAccessible@CWnd@@UEAAJUtagVARIANT@@PEAU3@@Z @ 2448 NONAME
 ?get_accValue@CWnd@@UEAAJUtagVARIANT@@PEAPEA_W@Z @ 2449 NONAME
 ?get_accValue@XAccessible@CWnd@@UEAAJUtagVARIANT@@PEAPEA_W@Z @ 2450 NONAME
 ?GetAccessibilityHitTest@CWnd@@QEAAJJJPEAUtagVARIANT@@@Z @ 2451 NONAME
 ?GetAccessibilityLocation@CWnd@@QEAAJUtagVARIANT@@PEAJ111@Z @ 2452 NONAME
 ?GetAccessibleChild@CWnd@@QEAAJUtagVARIANT@@PEAPEAUIDispatch@@@Z @ 2453 NONAME
 ?GetAccessibleChildCount@CWnd@@QEAAJXZ @ 2454 NONAME
 ?GetAccessibleName@CWnd@@QEAAJUtagVARIANT@@PEAPEA_W@Z @ 2455 NONAME
 ?GetActivationPolicy@COleControl@@UEAAKXZ @ 2456 NONAME
 ?GetActivationPolicy@XPointerInactive@COleControl@@UEAAJPEAK@Z @ 2457 NONAME
 ?GetActiveDocument@CFrameWnd@@UEAAPEAVCDocument@@XZ @ 2458 NONAME
 ?GetActiveFrame@CFrameWnd@@UEAAPEAV1@XZ @ 2459 NONAME
 ?GetActiveFrame@CMDIFrameWnd@@UEAAPEAVCFrameWnd@@XZ @ 2460 NONAME
 ?GetActiveIndex@CPropertySheet@@QEBAHXZ @ 2461 NONAME
 ?GetActivePage@CPropertySheet@@QEBAPEAVCPropertyPage@@XZ @ 2462 NONAME
 ?GetActivePane@CSplitterWnd@@UEAAPEAVCWnd@@PEAH0@Z @ 2463 NONAME
 ?GetActiveView@CFrameWnd@@QEBAPEAVCView@@XZ @ 2464 NONAME
 ?GetActiveView@COleDocObjectItem@@QEBAPEAUIOleDocumentView@@XZ @ 2465 NONAME
 ?GetAddress@CIPAddressCtrl@@QEAAHAEAE000@Z @ 2466 NONAME
 ?GetAddressBar@CHtmlView@@QEBAHXZ @ 2467 NONAME
 ?GetAdvise@XViewObject@COleControl@@UEAAJPEAK0PEAPEAUIAdviseSink@@@Z @ 2468 NONAME
 ?GetAllocLength@?$CSimpleStringT@_W$00@ATL@@QEBAHXZ @ 2469 NONAME
 ?GetAllocLength@?$CSimpleStringT@D$00@ATL@@QEBAHXZ @ 2470 NONAME
 ?GetAmbientDispatchDriver@COleControl@@IEAAPEAVCOleDispatchDriver@@XZ @ 2471 NONAME
 ?GetAmbientProp@COleControlContainer@@UEAAHPEAVCOleControlSite@@JPEAUtagVARIANT@@@Z @ 2472 NONAME
 ?GetAmbientProperty@COleControl@@QEAAHJGPEAX@Z @ 2473 NONAME
 ?GetAppearance@COleControl@@QEAAFXZ @ 2474 NONAME
 ?GetApplication@CHtmlView@@QEBAPEAUIDispatch@@XZ @ 2475 NONAME
 ?GetAppRegistryKey@CWinApp@@QEAAPEAUHKEY__@@XZ @ 2476 NONAME
 ?GetAssocAt@CMapPtrToPtr@@IEBAPEAUCAssoc@1@PEAXAEAI1@Z @ 2477 NONAME
 ?GetAssocAt@CMapPtrToWord@@IEBAPEAUCAssoc@1@PEAXAEAI1@Z @ 2478 NONAME
 ?GetAssocAt@CMapStringToOb@@IEBAPEAUCAssoc@1@PEBDAEAI1@Z @ 2479 NONAME
 ?GetAssocAt@CMapStringToPtr@@IEBAPEAUCAssoc@1@PEBDAEAI1@Z @ 2480 NONAME
 ?GetAssocAt@CMapStringToString@@IEBAPEAVCAssoc@1@PEBDAEAI1@Z @ 2481 NONAME
 ?GetAssocAt@CMapWordToOb@@IEBAPEAUCAssoc@1@GAEAI0@Z @ 2482 NONAME
 ?GetAssocAt@CMapWordToPtr@@IEBAPEAUCAssoc@1@GAEAI0@Z @ 2483 NONAME
 ?GetAt@?$CSimpleStringT@_W$00@ATL@@QEBA_WH@Z @ 2484 NONAME
 ?GetAt@?$CSimpleStringT@D$00@ATL@@QEBADH@Z @ 2485 NONAME
 ?GetAttribute@CGopherConnection@@QEAAHAEAVCGopherLocator@@V?$CStringT@DV?$StrTraitMFC_DLL@DV?$ChTraitsCRT@D@ATL@@@@@ATL@@AEAV34@@Z @ 2486 NONAME
 ?GetBackColor@COleControl@@QEAAKXZ @ 2487 NONAME
 ?GetBarInfo@CControlBar@@QEAAXPEAVCControlBarInfo@@@Z @ 2488 NONAME
 ?GetBarInfo@CDockBar@@QEAAXPEAVCControlBarInfo@@@Z @ 2489 NONAME
 ?GetBindInfo@CAsyncMonikerFile@@MEBAKXZ @ 2490 NONAME
 ?GetBlob@CBlobProperty@@QEAAPEAXXZ @ 2491 NONAME
 ?GetBookmark@CRecordset@@QEAAXAEAVCDBVariant@@@Z @ 2492 NONAME
 ?GetBorder@XOleInPlaceFrame@COleFrameHook@@UEAAJPEAUtagRECT@@@Z @ 2493 NONAME
 ?GetBorder@XOleIPFrame@COleControlContainer@@UEAAJPEAUtagRECT@@@Z @ 2494 NONAME
 ?GetBorders@CStatusBarCtrl@@QEBAHAEAH00@Z @ 2495 NONAME
 ?GetBorderStyle@COleControl@@QEAAFXZ @ 2496 NONAME
 ?GetBoundClientRow@CDataSourceControl@@QEAAJXZ @ 2497 NONAME
 ?GetBoundFieldIndex@CRecordset@@QEAAHPEAX@Z @ 2498 NONAME
 ?GetBoundParamIndex@CRecordset@@QEAAHPEAX@Z @ 2499 NONAME
 ?GetBuffer@?$CSimpleStringT@_W$00@ATL@@QEAAPEA_WH@Z @ 2500 NONAME
 ?GetBuffer@?$CSimpleStringT@_W$00@ATL@@QEAAPEA_WXZ @ 2501 NONAME
 ?GetBuffer@?$CSimpleStringT@D$00@ATL@@QEAAPEADH@Z @ 2502 NONAME
 ?GetBuffer@?$CSimpleStringT@D$00@ATL@@QEAAPEADXZ @ 2503 NONAME
 ?GetBufferLength@CEditView@@QEBAIXZ @ 2504 NONAME
 ?GetBufferPtr@CFile@@UEAAIIIPEAPEAX0@Z @ 2505 NONAME
 ?GetBufferPtr@CMemFile@@UEAAIIIPEAPEAX0@Z @ 2506 NONAME
 ?GetBufferPtr@CSocketFile@@UEAAIIIPEAPEAX0@Z @ 2507 NONAME
 ?GetBufferSetLength@?$CSimpleStringT@_W$00@ATL@@QEAAPEA_WH@Z @ 2508 NONAME
 ?GetBufferSetLength@?$CSimpleStringT@D$00@ATL@@QEAAPEADH@Z @ 2509 NONAME
 ?GetBusy@CHtmlView@@QEBAHXZ @ 2510 NONAME
 ?GetButtonInfo@CToolBar@@QEBAXHAEAI0AEAH@Z @ 2511 NONAME
 ?GetButtonStyle@CToolBar@@QEBAIH@Z @ 2512 NONAME
 ?GetButtonText@CToolBar@@QEBA?AV?$CStringT@DV?$StrTraitMFC_DLL@DV?$ChTraitsCRT@D@ATL@@@@@ATL@@H@Z @ 2513 NONAME
 ?GetButtonText@CToolBar@@QEBAXHAEAV?$CStringT@DV?$StrTraitMFC_DLL@DV?$ChTraitsCRT@D@ATL@@@@@ATL@@@Z @ 2514 NONAME
 ?GetByteArray@COleSafeArray@@QEAAXAEAVCByteArray@@@Z @ 2515 NONAME
 ?GetByteArrayFromVariantArray@COleVariant@@QEAAXAEAVCByteArray@@@Z @ 2516 NONAME
 ?GetByteOrder@CPropertySet@@QEAAGXZ @ 2517 NONAME
 ?GetCachedExtent@COleClientItem@@QEAAHPEAUtagSIZE@@W4tagDVASPECT@@@Z @ 2518 NONAME
 ?GetCacheEntry@COleDataSource@@IEAAPEAUAFX_DATACACHE_ENTRY@@PEAUtagFORMATETC@@W4tagDATADIR@@@Z @ 2519 NONAME
 ?GetCanonicalFormatEtc@XDataObject@COleControl@@UEAAJPEAUtagFORMATETC@@0@Z @ 2520 NONAME
 ?GetCanonicalFormatEtc@XDataObject@COleDataSource@@UEAAJPEAUtagFORMATETC@@0@Z @ 2521 NONAME
 ?GetCanonicalFormatEtc@XDataObject@COleServerDoc@@UEAAJPEAUtagFORMATETC@@0@Z @ 2522 NONAME
 ?GetCanonicalFormatEtc@XDataObject@COleServerItem@@UEAAJPEAUtagFORMATETC@@0@Z @ 2523 NONAME
 ?GetCapture@COleControl@@QEAAPEAVCWnd@@XZ @ 2524 NONAME
 ?GetCapture@XOleIPSite@COleControlSite@@UEAAJXZ @ 2525 NONAME
 ?GetCharFormat@CFontDialog@@QEBAXAEAU_charformat@@@Z @ 2526 NONAME
 ?GetCharFormatSelection@CRichEditView@@QEAAAEAUCHARFORMAT2A@@XZ @ 2527 NONAME
 ?GetCheck@CCheckListBox@@QEAAHH@Z @ 2528 NONAME
 ?GetCheck@CListCtrl@@QEBAHH@Z @ 2529 NONAME
 ?GetCheck@CTreeCtrl@@QEBAHPEAU_TREEITEM@@@Z @ 2530 NONAME
 ?GetCheckedRadioButton@CWnd@@QEAAHHH@Z @ 2531 NONAME
 ?GetClassID@CBlobProperty@@UEAAJPEAU_GUID@@@Z @ 2532 NONAME
 ?GetClassID@COleClientItem@@QEBAXPEAU_GUID@@@Z @ 2533 NONAME
 ?GetClassID@CPropertySet@@QEAA?AU_GUID@@XZ @ 2534 NONAME
 ?GetClassID@XPersistFile@COleLinkingDoc@@UEAAJPEAU_GUID@@@Z @ 2535 NONAME
 ?GetClassID@XPersistMemory@COleControl@@UEAAJPEAU_GUID@@@Z @ 2536 NONAME
 ?GetClassID@XPersistPropertyBag@COleControl@@UEAAJPEAU_GUID@@@Z @ 2537 NONAME
 ?GetClassID@XPersistStorage@COleControl@@UEAAJPEAU_GUID@@@Z @ 2538 NONAME
 ?GetClassID@XPersistStorage@COleServerDoc@@UEAAJPEAU_GUID@@@Z @ 2539 NONAME
 ?GetClassID@XPersistStreamInit@COleControl@@UEAAJPEAU_GUID@@@Z @ 2540 NONAME
 ?GetClassInfoA@XProvideClassInfo@COleControl@@UEAAJPEAPEAUITypeInfo@@@Z @ 2541 NONAME
 ?GetClassObject@AFX_COM@@QEAAJAEBU_GUID@@0PEAPEAX@Z @ 2542 NONAME
 ?GetClientOffset@COleControl@@UEBAXPEAJ0@Z @ 2543 NONAME
 ?GetClientRect@COleControl@@UEBAXPEAUtagRECT@@@Z @ 2544 NONAME
 ?GetClientSite@COleClientItem@@MEAAPEAUIOleClientSite@@XZ @ 2545 NONAME
 ?GetClientSite@COleControl@@QEAAPEAUIOleClientSite@@XZ @ 2546 NONAME
 ?GetClientSite@CRichEditCntrItem@@UEAAPEAUIOleClientSite@@XZ @ 2547 NONAME
 ?GetClientSite@XOleObject@CDocObjectServer@@UEAAJPEAPEAUIOleClientSite@@@Z @ 2548 NONAME
 ?GetClientSite@XOleObject@COleControl@@UEAAJPEAPEAUIOleClientSite@@@Z @ 2549 NONAME
 ?GetClientSite@XOleObject@COleServerDoc@@UEAAJPEAPEAUIOleClientSite@@@Z @ 2550 NONAME
 ?GetClientSite@XOleObject@COleServerItem@@UEAAJPEAPEAUIOleClientSite@@@Z @ 2551 NONAME
 ?GetClipboardData@COleClientItem@@QEAAXPEAVCOleDataSource@@HPEAUtagPOINT@@PEAUtagSIZE@@@Z @ 2552 NONAME
 ?GetClipboardData@COleServerItem@@QEAAXPEAVCOleDataSource@@HPEAUtagPOINT@@PEAUtagSIZE@@@Z @ 2553 NONAME
 ?GetClipboardData@CRichEditView@@MEAAJPEAU_charrange@@KPEAUIDataObject@@PEAPEAU3@@Z @ 2554 NONAME
 ?GetClipboardData@XOleObject@CDocObjectServer@@UEAAJKPEAPEAUIDataObject@@@Z @ 2555 NONAME
 ?GetClipboardData@XOleObject@COleControl@@UEAAJKPEAPEAUIDataObject@@@Z @ 2556 NONAME
 ?GetClipboardData@XOleObject@COleServerDoc@@UEAAJKPEAPEAUIDataObject@@@Z @ 2557 NONAME
 ?GetClipboardData@XOleObject@COleServerItem@@UEAAJKPEAPEAUIDataObject@@@Z @ 2558 NONAME
 ?GetClipboardData@XRichEditOleCallback@CRichEditView@@UEAAJPEAU_charrange@@KPEAPEAUIDataObject@@@Z @ 2559 NONAME
 ?GetClipboardOwner@COleDataSource@@SAPEAV1@XZ @ 2560 NONAME
 ?GetClipBox@CDC@@UEBAHPEAUtagRECT@@@Z @ 2561 NONAME
 ?GetClipBox@CMetaFileDC@@UEBAHPEAUtagRECT@@@Z @ 2562 NONAME
 ?GetColorScheme@CReBarCtrl@@QEAAHPEAUtagCOLORSCHEME@@@Z @ 2563 NONAME
 ?GetColorSet@XViewObject@COleControl@@UEAAJKJPEAXPEAUtagDVTARGETDEVICE@@PEAUHDC__@@PEAPEAUtagLOGPALETTE@@@Z @ 2564 NONAME
 ?GetColumnInfo@CSplitterWnd@@QEBAXHAEAH0@Z @ 2565 NONAME
 ?GetColumnOrderArray@CListCtrl@@QEAAHPEAHH@Z @ 2566 NONAME
 ?GetCommandMap@CCmdTarget@@MEBAPEBUAFX_OLECMDMAP@@XZ @ 2567 NONAME
 ?GetCommandMap@COleDocObjectItem@@MEBAPEBUAFX_OLECMDMAP@@XZ @ 2568 NONAME
 ?GetConnectInfo@CDatabase@@IEAAXXZ @ 2569 NONAME
 ?GetConnectionCount@CConnectionPoint@@QEAAHXZ @ 2570 NONAME
 ?GetConnectionHook@CCmdTarget@@MEAAPEAUIConnectionPoint@@AEBU_GUID@@@Z @ 2571 NONAME
 ?GetConnectionHook@COleControl@@MEAAPEAUIConnectionPoint@@AEBU_GUID@@@Z @ 2572 NONAME
 ?GetConnectionInterface@XConnPt@CConnectionPoint@@UEAAJPEAU_GUID@@@Z @ 2573 NONAME
 ?GetConnectionMap@CCmdTarget@@MEBAPEBUAFX_CONNECTIONMAP@@XZ @ 2574 NONAME
 ?GetConnectionMap@COleControl@@MEBAPEBUAFX_CONNECTIONMAP@@XZ @ 2575 NONAME
 ?GetConnectionPointContainer@XConnPt@CConnectionPoint@@UEAAJPEAPEAUIConnectionPointContainer@@@Z @ 2576 NONAME
 ?GetConnections@CConnectionPoint@@QEAAPEBVCPtrArray@@XZ @ 2577 NONAME
 ?GetContainer@CConnectionPoint@@UEAAPEAUIConnectionPointContainer@@XZ @ 2578 NONAME
 ?GetContainer@CHtmlView@@QEBAPEAUIDispatch@@XZ @ 2579 NONAME
 ?GetContainer@COleDocument@@UEAAPEAUIOleItemContainer@@XZ @ 2580 NONAME
 ?GetContainer@COleLinkingDoc@@UEAAPEAUIOleItemContainer@@XZ @ 2581 NONAME
 ?GetContainer@XOleClientSite@COleClientItem@@UEAAJPEAPEAUIOleContainer@@@Z @ 2582 NONAME
 ?GetContainer@XOleClientSite@COleControlSite@@UEAAJPEAPEAUIOleContainer@@@Z @ 2583 NONAME
 ?GetContentExtent@XQuickActivate@COleControl@@UEAAJPEAUtagSIZE@@@Z @ 2584 NONAME
 ?GetContextMenu@CRichEditView@@MEAAPEAUHMENU__@@GPEAUIOleObject@@PEAU_charrange@@@Z @ 2585 NONAME
 ?GetContextMenu@XRichEditOleCallback@CRichEditView@@UEAAJGPEAUIOleObject@@PEAU_charrange@@PEAPEAUHMENU__@@@Z @ 2586 NONAME
 ?GetControlBar@CFrameWnd@@QEAAPEAVCControlBar@@I@Z @ 2587 NONAME
 ?GetControlContainer@CWnd@@QEAAPEAVCOleControlContainer@@XZ @ 2588 NONAME
 ?GetControlDispatch@CDHtmlDialog@@QEAAJPEBDPEAPEAUIDispatch@@@Z @ 2589 NONAME
 ?GetControlFlags@COleControl@@UEAAKXZ @ 2590 NONAME
 ?GetControlInfo@COleControlSite@@IEAAXXZ @ 2591 NONAME
 ?GetControlInfo@XOleControl@COleControl@@UEAAJPEAUtagCONTROLINFO@@@Z @ 2592 NONAME
 ?GetControllingFrame@CDocObjectServer@@QEBAPEAVCOleDocIPFrameWnd@@XZ @ 2593 NONAME
 ?GetControllingUnknown@CCmdTarget@@QEAAPEAUIUnknown@@XZ @ 2594 NONAME
 ?GetControlProperty@CDHtmlDialog@@QEAA?AUtagVARIANT@@PEAUIDispatch@@J@Z @ 2595 NONAME
 ?GetControlProperty@CDHtmlDialog@@QEAA?AUtagVARIANT@@PEBD0@Z @ 2596 NONAME
 ?GetControlProperty@CDHtmlDialog@@QEAA?AUtagVARIANT@@PEBDJ@Z @ 2597 NONAME
 ?GetControlSize@COleControl@@QEAAXPEAH0@Z @ 2598 NONAME
 ?GetControlStatus@COlePropertyPage@@QEAAHI@Z @ 2599 NONAME
 ?GetControlUnknown@CWnd@@QEAAPEAUIUnknown@@XZ @ 2600 NONAME
 ?GetConvertInfo@XOleUIObjInfo@COlePropertiesDialog@@UEAAJKPEAU_GUID@@PEAG0PEAPEAU3@PEAI@Z @ 2601 NONAME
 ?GetCookie@CInternetSession@@SAHPEBD0AEAV?$CStringT@DV?$StrTraitMFC_DLL@DV?$ChTraitsCRT@D@ATL@@@@@ATL@@@Z @ 2602 NONAME
 ?GetCookie@CInternetSession@@SAHPEBD0PEADK@Z @ 2603 NONAME
 ?GetCookieLength@CInternetSession@@SAKPEBD0@Z @ 2604 NONAME
 ?GetCopies@CPrintDialog@@QEBAHXZ @ 2605 NONAME
 ?GetCopies@CPrintDialogEx@@QEBAHXZ @ 2606 NONAME
 ?GetCount@CPropertySection@@QEAAKXZ @ 2607 NONAME
 ?GetCount@CPropertySet@@QEAAKXZ @ 2608 NONAME
 ?GetCreationTime@CFileFind@@UEBAHAEAVCTime@ATL@@@Z @ 2609 NONAME
 ?GetCreationTime@CFileFind@@UEBAHPEAU_FILETIME@@@Z @ 2610 NONAME
 ?GetCreationTime@CGopherFileFind@@UEBAHAEAVCTime@ATL@@@Z @ 2611 NONAME
 ?GetCreationTime@CGopherFileFind@@UEBAHPEAU_FILETIME@@@Z @ 2612 NONAME
 ?GetCurFile@XPersistFile@COleLinkingDoc@@UEAAJPEAPEA_W@Z @ 2613 NONAME
 ?GetCurrentDirectoryA@CFtpConnection@@QEBAHAEAV?$CStringT@DV?$StrTraitMFC_DLL@DV?$ChTraitsCRT@D@ATL@@@@@ATL@@@Z @ 2614 NONAME
 ?GetCurrentDirectoryA@CFtpConnection@@QEBAHPEADPEAK@Z @ 2615 NONAME
 ?GetCurrentDirectoryAsURL@CFtpConnection@@QEBAHAEAV?$CStringT@DV?$StrTraitMFC_DLL@DV?$ChTraitsCRT@D@ATL@@@@@ATL@@@Z @ 2616 NONAME
 ?GetCurrentDirectoryAsURL@CFtpConnection@@QEBAHPEADPEAK@Z @ 2617 NONAME
 ?GetCurrentFont@CFontDialog@@QEAAXPEAUtagLOGFONTA@@@Z @ 2618 NONAME
 ?GetCurrentMessage@CWnd@@KAPEBUtagMSG@@XZ @ 2619 NONAME
 ?GetCurrentUrl@CDHtmlDialog@@QEAAXAEAV?$CStringT@DV?$StrTraitMFC_DLL@DV?$ChTraitsCRT@D@ATL@@@@@ATL@@@Z @ 2620 NONAME
 ?GetCurSel@CMonthCalCtrl@@QEBAHAEAVCOleDateTime@ATL@@@Z @ 2621 NONAME
 ?GetCurSel@CMonthCalCtrl@@QEBAHAEAVCTime@ATL@@@Z @ 2622 NONAME
 ?GetCursor@CDataBoundProperty@@QEAAPEAUIUnknown@@XZ @ 2623 NONAME
 ?GetCursor@CDataSourceControl@@UEAAPEAUIUnknown@@XZ @ 2624 NONAME
 ?GetCursor@COleControlSite@@IEAAJJPEAPEAUIUnknown@@PEAPEAX@Z @ 2625 NONAME
 ?GetCursor@XBoundObjectSite@COleControlSite@@UEAAJJPEAPEAUICursor@@PEAPEAX@Z @ 2626 NONAME
 ?GetData@?$CSimpleStringT@_W$00@ATL@@AEBAPEAUCStringData@2@XZ @ 2627 NONAME
 ?GetData@?$CSimpleStringT@D$00@ATL@@AEBAPEAUCStringData@2@XZ @ 2628 NONAME
 ?GetData@COleDataObject@@QEAAHGPEAUtagSTGMEDIUM@@PEAUtagFORMATETC@@@Z @ 2629 NONAME
 ?GetData@CProcessLocalObject@@QEAAPEAVCNoTrackObject@@P6APEAV2@XZ@Z @ 2630 NONAME
 ?GetData@CRecordset@@SA_JPEAVCDatabase@@PEAXFF1_JF@Z @ 2631 NONAME
 ?GetData@CThreadLocalObject@@QEAAPEAVCNoTrackObject@@P6APEAV2@XZ@Z @ 2632 NONAME
 ?GetData@XDataObject@COleControl@@UEAAJPEAUtagFORMATETC@@PEAUtagSTGMEDIUM@@@Z @ 2633 NONAME
 ?GetData@XDataObject@COleDataSource@@UEAAJPEAUtagFORMATETC@@PEAUtagSTGMEDIUM@@@Z @ 2634 NONAME
 ?GetData@XDataObject@COleServerDoc@@UEAAJPEAUtagFORMATETC@@PEAUtagSTGMEDIUM@@@Z @ 2635 NONAME
 ?GetData@XDataObject@COleServerItem@@UEAAJPEAUtagFORMATETC@@PEAUtagSTGMEDIUM@@@Z @ 2636 NONAME
 ?GetDatabaseName@CDatabase@@QEBA?AV?$CStringT@DV?$StrTraitMFC_DLL@DV?$ChTraitsCRT@D@ATL@@@@@ATL@@XZ @ 2637 NONAME
 ?GetDataBuffer@CRecordset@@SAPEAXAEAVCDBVariant@@FPEA_JF_K@Z @ 2638 NONAME
 ?GetDataHere@XDataObject@COleControl@@UEAAJPEAUtagFORMATETC@@PEAUtagSTGMEDIUM@@@Z @ 2639 NONAME
 ?GetDataHere@XDataObject@COleDataSource@@UEAAJPEAUtagFORMATETC@@PEAUtagSTGMEDIUM@@@Z @ 2640 NONAME
 ?GetDataHere@XDataObject@COleServerDoc@@UEAAJPEAUtagFORMATETC@@PEAUtagSTGMEDIUM@@@Z @ 2641 NONAME
 ?GetDataHere@XDataObject@COleServerItem@@UEAAJPEAUtagFORMATETC@@PEAUtagSTGMEDIUM@@@Z @ 2642 NONAME
 ?GetDataNA@CThreadLocalObject@@QEAAPEAVCNoTrackObject@@XZ @ 2643 NONAME
 ?GetDataObject@COleServerItem@@QEAAPEAUIDataObject@@XZ @ 2644 NONAME
 ?GetDataSource@COleControl@@IEAAPEAVCControlDataSource@1@XZ @ 2645 NONAME
 ?GetDC@COleControl@@QEAAPEAVCDC@@PEBUtagRECT@@K@Z @ 2646 NONAME
 ?GetDC@XOleIPSite@COleControlSite@@UEAAJPEBUtagRECT@@KPEAPEAUHDC__@@@Z @ 2647 NONAME
 ?GetDefaultAccelerator@CDocument@@UEAAPEAUHACCEL__@@XZ @ 2648 NONAME
 ?GetDefaultAccelerator@CFrameWnd@@UEAAPEAUHACCEL__@@XZ @ 2649 NONAME
 ?GetDefaultAccelerator@COleServerDoc@@MEAAPEAUHACCEL__@@XZ @ 2650 NONAME
 ?GetDefaultCharFormat@CRichEditCtrl@@QEBAKAEAU_charformat@@@Z @ 2651 NONAME
 ?GetDefaultCharFormat@CRichEditCtrl@@QEBAKAEAUCHARFORMAT2A@@@Z @ 2652 NONAME
 ?GetDefaultConnect@CRecordset@@UEAA?AV?$CStringT@DV?$StrTraitMFC_DLL@DV?$ChTraitsCRT@D@ATL@@@@@ATL@@XZ @ 2653 NONAME
 ?GetDefaultFieldType@CRecordset@@SAFF@Z @ 2654 NONAME
 ?GetDefaultMenu@CDocument@@UEAAPEAUHMENU__@@XZ @ 2655 NONAME
 ?GetDefaultMenu@COleServerDoc@@MEAAPEAUHMENU__@@XZ @ 2656 NONAME
 ?GetDefaults@CPrintDialog@@QEAAHXZ @ 2657 NONAME
 ?GetDefaults@CPrintDialogEx@@QEAAHXZ @ 2658 NONAME
 ?GetDefaultSQL@CRecordset@@UEAA?AV?$CStringT@DV?$StrTraitMFC_DLL@DV?$ChTraitsCRT@D@ATL@@@@@ATL@@XZ @ 2659 NONAME
 ?GetDefBtnCode@COccManager@@SAKPEAVCWnd@@@Z @ 2660 NONAME
 ?GetDefBtnCode@COleControlSite@@QEAAKXZ @ 2661 NONAME
 ?GetDescendantWindow@CWnd@@SAPEAV1@PEAUHWND__@@HH@Z @ 2662 NONAME
 ?GetDeviceName@CPageSetupDialog@@QEBA?AV?$CStringT@DV?$StrTraitMFC_DLL@DV?$ChTraitsCRT@D@ATL@@@@@ATL@@XZ @ 2663 NONAME
 ?GetDeviceName@CPrintDialog@@QEBA?AV?$CStringT@DV?$StrTraitMFC_DLL@DV?$ChTraitsCRT@D@ATL@@@@@ATL@@XZ @ 2664 NONAME
 ?GetDeviceName@CPrintDialogEx@@QEBA?AV?$CStringT@DV?$StrTraitMFC_DLL@DV?$ChTraitsCRT@D@ATL@@@@@ATL@@XZ @ 2665 NONAME
 ?GetDeviceScrollPosition@CScrollView@@QEBA?AVCPoint@@XZ @ 2666 NONAME
 ?GetDeviceScrollSizes@CScrollView@@QEBAXAEAHAEAUtagSIZE@@11@Z @ 2667 NONAME
 ?GetDevMode@CPageSetupDialog@@QEBAPEAU_devicemodeA@@XZ @ 2668 NONAME
 ?GetDevMode@CPrintDialog@@QEBAPEAU_devicemodeA@@XZ @ 2669 NONAME
 ?GetDevMode@CPrintDialogEx@@QEBAPEAU_devicemodeA@@XZ @ 2670 NONAME
 ?GetDHtmlCommandMapping@CHtmlEditView@@UEAAIIAEAHAEAI@Z @ 2671 NONAME
 ?GetDHtmlDocument@CDHtmlDialog@@UEAAJPEAPEAUIHTMLDocument2@@@Z @ 2672 NONAME
 ?GetDHtmlDocument@CHtmlEditCtrl@@QEBAHPEAPEAUIHTMLDocument2@@@Z @ 2673 NONAME
 ?GetDHtmlDocument@CHtmlEditView@@QEBAHPEAPEAUIHTMLDocument2@@@Z @ 2674 NONAME
 ?GetDHtmlEventMap@@YAPEBUDHtmlEventMapEntry@@XZ @ 2675 NONAME
 ?GetDHtmlEventMap@CDHtmlDialog@@MEAAPEBUDHtmlEventMapEntry@@XZ @ 2676 NONAME
 ?GetDHtmlEventMap@CMultiPageDHtmlDialog@@MEAAPEBUDHtmlEventMapEntry@@XZ @ 2677 NONAME
 ?GetDispatchIID@CCmdTarget@@UEAAHPEAU_GUID@@@Z @ 2678 NONAME
 ?GetDispatchIID@COleControl@@MEAAHPEAU_GUID@@@Z @ 2679 NONAME
 ?GetDispatchMap@CCmdTarget@@MEBAPEBUAFX_DISPMAP@@XZ @ 2680 NONAME
 ?GetDispatchMap@COleControlContainer@@MEBAPEBUAFX_DISPMAP@@XZ @ 2681 NONAME
 ?GetDispEntry@CCmdTarget@@IEAAPEBUAFX_DISPMAP_ENTRY@@J@Z @ 2682 NONAME
 ?GetDisplayName@CRecentFileList@@UEBAHAEAV?$CStringT@DV?$StrTraitMFC_DLL@DV?$ChTraitsCRT@D@ATL@@@@@ATL@@HPEBDHH@Z @ 2683 NONAME
 ?GetDisplayString@CFontHolder@@QEAAHAEAV?$CStringT@DV?$StrTraitMFC_DLL@DV?$ChTraitsCRT@D@ATL@@@@@ATL@@@Z @ 2684 NONAME
 ?GetDisplayString@CPictureHolder@@QEAAHAEAV?$CStringT@DV?$StrTraitMFC_DLL@DV?$ChTraitsCRT@D@ATL@@@@@ATL@@@Z @ 2685 NONAME
 ?GetDisplayString@XPerPropertyBrowsing@COleControl@@UEAAJJPEAPEA_W@Z @ 2686 NONAME
 ?GetDlgCtrlID@COleControlSite@@UEBAHXZ @ 2687 NONAME
 ?GetDlgCtrlID@CWnd@@QEBAHXZ @ 2688 NONAME
 ?GetDlgItem@COleControlContainer@@UEBAPEAVCWnd@@H@Z @ 2689 NONAME
 ?GetDlgItem@COleControlContainer@@UEBAXHPEAPEAUHWND__@@@Z @ 2690 NONAME
 ?GetDlgItem@CWnd@@QEBAPEAV1@H@Z @ 2691 NONAME
 ?GetDlgItem@CWnd@@QEBAXHPEAPEAUHWND__@@@Z @ 2692 NONAME
 ?GetDlgItemInt@COleControlContainer@@UEBAIHPEAHH@Z @ 2693 NONAME
 ?GetDlgItemInt@CWnd@@QEBAIHPEAHH@Z @ 2694 NONAME
 ?GetDlgItemTextA@COleControlContainer@@UEBAHHPEADH@Z @ 2695 NONAME
 ?GetDlgItemTextA@CWnd@@QEBAHHAEAV?$CStringT@DV?$StrTraitMFC_DLL@DV?$ChTraitsCRT@D@ATL@@@@@ATL@@@Z @ 2696 NONAME
 ?GetDlgItemTextA@CWnd@@QEBAHHPEADH@Z @ 2697 NONAME
 ?GetDockBar@CDockContext@@QEAAPEAVCDockBar@@K@Z @ 2698 NONAME
 ?GetDockedControlBar@CDockBar@@IEBAPEAVCControlBar@@H@Z @ 2699 NONAME
 ?GetDockedCount@CDockBar@@QEBAHXZ @ 2700 NONAME
 ?GetDockedVisibleCount@CDockBar@@UEBAHXZ @ 2701 NONAME
 ?GetDockingFrame@CControlBar@@QEBAPEAVCFrameWnd@@XZ @ 2702 NONAME
 ?GetDockState@CFrameWnd@@QEBAXAEAVCDockState@@@Z @ 2703 NONAME
 ?GetDocMiscStatus@XOleDocument@CDocObjectServer@@UEAAJPEAK@Z @ 2704 NONAME
 ?GetDocObjectServer@COleServerDoc@@MEAAPEAVCDocObjectServer@@PEAUIOleDocumentSite@@@Z @ 2705 NONAME
 ?GetDocString@CDocTemplate@@UEBAHAEAV?$CStringT@DV?$StrTraitMFC_DLL@DV?$ChTraitsCRT@D@ATL@@@@@ATL@@W4DocStringIndex@1@@Z @ 2706 NONAME
 ?GetDocument@XOleDocumentView@CDocObjectServer@@UEAAJPEAPEAUIUnknown@@@Z @ 2707 NONAME
 ?GetDocumentCount@CDocManager@@IEAAHXZ @ 2708 NONAME
 ?GetDragDropEffect@XRichEditOleCallback@CRichEditView@@UEAAJHKPEAK@Z @ 2709 NONAME
 ?GetDriverName@CPageSetupDialog@@QEBA?AV?$CStringT@DV?$StrTraitMFC_DLL@DV?$ChTraitsCRT@D@ATL@@@@@ATL@@XZ @ 2710 NONAME
 ?GetDriverName@CPrintDialog@@QEBA?AV?$CStringT@DV?$StrTraitMFC_DLL@DV?$ChTraitsCRT@D@ATL@@@@@ATL@@XZ @ 2711 NONAME
 ?GetDriverName@CPrintDialogEx@@QEBA?AV?$CStringT@DV?$StrTraitMFC_DLL@DV?$ChTraitsCRT@D@ATL@@@@@ATL@@XZ @ 2712 NONAME
 ?GetDropTarget@CBrowserControlSite@@MEAAJPEAUIDropTarget@@PEAPEAU2@@Z @ 2713 NONAME
 ?GetDropTarget@CDHtmlDialog@@UEAAJPEAUIDropTarget@@PEAPEAU2@@Z @ 2714 NONAME
 ?GetDropTarget@CToolBarCtrl@@QEBAJPEAPEAUIDropTarget@@@Z @ 2715 NONAME
 ?GetDropTarget@XDocHostUIHandler@CHtmlControlSite@@UEAAJPEAUIDropTarget@@PEAPEAU3@@Z @ 2716 NONAME
 ?GetDropTarget@XOleInPlaceObject@COleControl@@UEAAJPEAPEAUIDropTarget@@@Z @ 2717 NONAME
 ?GetDSCCursor@CWnd@@QEAAPEAUIUnknown@@XZ @ 2718 NONAME
 ?GetElement@CDHtmlDialog@@QEAAJPEBDPEAPEAUIDispatch@@PEAH@Z @ 2719 NONAME
 ?GetElement@CDHtmlDialog@@QEAAJPEBDPEAPEAUIHTMLElement@@@Z @ 2720 NONAME
 ?GetElement@COleSafeArray@@QEAAXPEAJPEAX@Z @ 2721 NONAME
 ?GetElementHtml@CDHtmlDialog@@QEAAPEA_WPEBD@Z @ 2722 NONAME
 ?GetElementInterface@CDHtmlDialog@@QEAAJPEBDAEBU_GUID@@PEAPEAX@Z @ 2723 NONAME
 ?GetElementProperty@CDHtmlDialog@@QEAA?AUtagVARIANT@@PEBDJ@Z @ 2724 NONAME
 ?GetElementText@CDHtmlDialog@@QEAAPEA_WPEBD@Z @ 2725 NONAME
 ?GetEmbeddedItem@COleServerDoc@@QEAAPEAVCOleServerItem@@XZ @ 2726 NONAME
 ?GetEmbeddedItemData@COleClientItem@@IEAAXPEAUtagSTGMEDIUM@@@Z @ 2727 NONAME
 ?GetEmbedSourceData@COleServerItem@@QEAAXPEAUtagSTGMEDIUM@@@Z @ 2728 NONAME
 ?GetEnabled@COleControl@@QEAAHXZ @ 2729 NONAME
 ?GetEntryCount@CCmdTarget@@KAIPEBUAFX_DISPMAP@@@Z @ 2730 NONAME
 ?GetEnumVariant@XAccessibleServer@CWnd@@UEAAJPEAPEAUIEnumVARIANT@@@Z @ 2731 NONAME
 ?GetEnvironmentVariableA@?$CStringT@_WV?$StrTraitMFC_DLL@_WV?$ChTraitsCRT@_W@ATL@@@@@ATL@@QEAAHPEB_W@Z @ 2732 NONAME
 ?GetEnvironmentVariableA@?$CStringT@DV?$StrTraitMFC_DLL@DV?$ChTraitsCRT@D@ATL@@@@@ATL@@QEAAHPEBD@Z @ 2733 NONAME
 ?GetErrorMessage@CArchiveException@@UEBAHPEADIPEAI@Z @ 2734 NONAME
 ?GetErrorMessage@CDBException@@UEBAHPEADIPEAI@Z @ 2735 NONAME
 ?GetErrorMessage@CException@@UEAAHPEADIPEAI@Z @ 2736 NONAME
 ?GetErrorMessage@CFileException@@UEBAHPEADIPEAI@Z @ 2737 NONAME
 ?GetErrorMessage@CInternetException@@UEBAHPEADIPEAI@Z @ 2738 NONAME
 ?GetErrorMessage@COleDispatchException@@UEBAHPEADIPEAI@Z @ 2739 NONAME
 ?GetErrorMessage@COleException@@UEBAHPEADIPEAI@Z @ 2740 NONAME
 ?GetErrorMessage@CSimpleException@@UEBAHPEADIPEAI@Z @ 2741 NONAME
 ?GetEvent@CDHtmlDialog@@QEAAJPEAPEAUIHTMLEventObj@@@Z @ 2742 NONAME
 ?GetEventIID@COleControlSite@@QEAAHPEAU_GUID@@@Z @ 2743 NONAME
 ?GetEventMap@COleControl@@MEBAPEBUAFX_EVENTMAP@@XZ @ 2744 NONAME
 ?GetEventMapEntry@COleControl@@IEBAPEBUAFX_EVENTMAP_ENTRY@@PEBDPEAJ@Z @ 2745 NONAME
 ?GetEventMapForUrl@CMultiPageDHtmlDialog@@MEAAPEBUDHtmlEventMapEntry@@PEBD@Z @ 2746 NONAME
 ?GetEventSinkEntry@CCmdTarget@@IEAAPEBUAFX_EVENTSINKMAP_ENTRY@@IPEAUAFX_EVENT@@@Z @ 2747 NONAME
 ?GetEventSinkMap@CCmdTarget@@MEBAPEBUAFX_EVENTSINKMAP@@XZ @ 2748 NONAME
 ?GetEventSinkMap@CDHtmlDialog@@MEBAPEBUAFX_EVENTSINKMAP@@XZ @ 2749 NONAME
 ?GetEventSinkMap@CHtmlEditCtrl@@MEBAPEBUAFX_EVENTSINKMAP@@XZ @ 2750 NONAME
 ?GetEventSinkMap@CHtmlView@@MEBAPEBUAFX_EVENTSINKMAP@@XZ @ 2751 NONAME
 ?GetExStyle@COleControlSite@@UEBAKXZ @ 2752 NONAME
 ?GetExStyle@CWnd@@QEBAKXZ @ 2753 NONAME
 ?GetExtendedControl@COleControl@@QEAAPEAUIDispatch@@XZ @ 2754 NONAME
 ?GetExtendedControl@XOleControlSite@COleControlSite@@UEAAJPEAPEAUIDispatch@@@Z @ 2755 NONAME
 ?GetExtent@COleClientItem@@QEAAHPEAUtagSIZE@@W4tagDVASPECT@@@Z @ 2756 NONAME
 ?GetExtent@XOleObject@CDocObjectServer@@UEAAJKPEAUtagSIZE@@@Z @ 2757 NONAME
 ?GetExtent@XOleObject@COleControl@@UEAAJKPEAUtagSIZE@@@Z @ 2758 NONAME
 ?GetExtent@XOleObject@COleServerDoc@@UEAAJKPEAUtagSIZE@@@Z @ 2759 NONAME
 ?GetExtent@XOleObject@COleServerItem@@UEAAJKPEAUtagSIZE@@@Z @ 2760 NONAME
 ?GetExtent@XViewObject@COleControl@@UEAAJKJPEAUtagDVTARGETDEVICE@@PEAUtagSIZE@@@Z @ 2761 NONAME
 ?GetExternal@CBrowserControlSite@@MEAAJPEAPEAUIDispatch@@@Z @ 2762 NONAME
 ?GetExternal@CDHtmlDialog@@UEAAJPEAPEAUIDispatch@@@Z @ 2763 NONAME
 ?GetExternal@XDocHostUIHandler@CHtmlControlSite@@UEAAJPEAPEAUIDispatch@@@Z @ 2764 NONAME
 ?GetExtraConnectionPoints@CCmdTarget@@MEAAHPEAVCPtrArray@@@Z @ 2765 NONAME
 ?GetExtraConnectionPoints@COleControl@@MEAAHPEAVCPtrArray@@@Z @ 2766 NONAME
 ?GetFieldIndexByName@CRecordset@@QEAAFPEBD@Z @ 2767 NONAME
 ?GetFieldLengthBuffer@CRecordset@@QEAAPEA_JKH@Z @ 2768 NONAME
 ?GetFieldStatus@CRecordset@@QEAAEK@Z @ 2769 NONAME
 ?GetFieldValue@CRecordset@@QEAAXFAEAV?$CStringT@_WV?$StrTraitMFC_DLL@_WV?$ChTraitsCRT@_W@ATL@@@@@ATL@@@Z @ 2770 NONAME
 ?GetFieldValue@CRecordset@@QEAAXFAEAV?$CStringT@DV?$StrTraitMFC_DLL@DV?$ChTraitsCRT@D@ATL@@@@@ATL@@@Z @ 2771 NONAME
 ?GetFieldValue@CRecordset@@QEAAXFAEAVCDBVariant@@F@Z @ 2772 NONAME
 ?GetFieldValue@CRecordset@@QEAAXPEBDAEAV?$CStringT@_WV?$StrTraitMFC_DLL@_WV?$ChTraitsCRT@_W@ATL@@@@@ATL@@@Z @ 2773 NONAME
 ?GetFieldValue@CRecordset@@QEAAXPEBDAEAV?$CStringT@DV?$StrTraitMFC_DLL@DV?$ChTraitsCRT@D@ATL@@@@@ATL@@@Z @ 2774 NONAME
 ?GetFieldValue@CRecordset@@QEAAXPEBDAEAVCDBVariant@@F@Z @ 2775 NONAME
 ?GetFile@CDocument@@UEAAPEAVCFile@@PEBDIPEAVCFileException@@@Z @ 2776 NONAME
 ?GetFile@CFtpConnection@@QEAAHPEBD0HKK_K@Z @ 2777 NONAME
 ?GetFileData@COleDataObject@@QEAAPEAVCFile@@GPEAUtagFORMATETC@@@Z @ 2778 NONAME
 ?GetFileExt@CFileDialog@@QEBA?AV?$CStringT@DV?$StrTraitMFC_DLL@DV?$ChTraitsCRT@D@ATL@@@@@ATL@@XZ @ 2779 NONAME
 ?GetFileName@CFile@@UEBA?AV?$CStringT@DV?$StrTraitMFC_DLL@DV?$ChTraitsCRT@D@ATL@@@@@ATL@@XZ @ 2780 NONAME
 ?GetFileName@CFileDialog@@QEBA?AV?$CStringT@DV?$StrTraitMFC_DLL@DV?$ChTraitsCRT@D@ATL@@@@@ATL@@XZ @ 2781 NONAME
 ?GetFileName@CFileFind@@UEBA?AV?$CStringT@DV?$StrTraitMFC_DLL@DV?$ChTraitsCRT@D@ATL@@@@@ATL@@XZ @ 2782 NONAME
 ?GetFileName@CGopherFileFind@@UEBA?AV?$CStringT@DV?$StrTraitMFC_DLL@DV?$ChTraitsCRT@D@ATL@@@@@ATL@@XZ @ 2783 NONAME
 ?GetFilePath@CFile@@UEBA?AV?$CStringT@DV?$StrTraitMFC_DLL@DV?$ChTraitsCRT@D@ATL@@@@@ATL@@XZ @ 2784 NONAME
 ?GetFilePath@CFileFind@@UEBA?AV?$CStringT@DV?$StrTraitMFC_DLL@DV?$ChTraitsCRT@D@ATL@@@@@ATL@@XZ @ 2785 NONAME
 ?GetFilePath@CGopherFileFind@@UEBA?AV?$CStringT@DV?$StrTraitMFC_DLL@DV?$ChTraitsCRT@D@ATL@@@@@ATL@@XZ @ 2786 NONAME
 ?GetFileTitle@CFile@@UEBA?AV?$CStringT@DV?$StrTraitMFC_DLL@DV?$ChTraitsCRT@D@ATL@@@@@ATL@@XZ @ 2787 NONAME
 ?GetFileTitle@CFileDialog@@QEBA?AV?$CStringT@DV?$StrTraitMFC_DLL@DV?$ChTraitsCRT@D@ATL@@@@@ATL@@XZ @ 2788 NONAME
 ?GetFileTitle@CFileFind@@UEBA?AV?$CStringT@DV?$StrTraitMFC_DLL@DV?$ChTraitsCRT@D@ATL@@@@@ATL@@XZ @ 2789 NONAME
 ?GetFileTitle@CGopherFileFind@@UEBA?AV?$CStringT@DV?$StrTraitMFC_DLL@DV?$ChTraitsCRT@D@ATL@@@@@ATL@@XZ @ 2790 NONAME
 ?GetFileTypeString@COleServerDoc@@MEAAHAEAV?$CStringT@DV?$StrTraitMFC_DLL@DV?$ChTraitsCRT@D@ATL@@@@@ATL@@@Z @ 2791 NONAME
 ?GetFileURL@CFileFind@@UEBA?AV?$CStringT@DV?$StrTraitMFC_DLL@DV?$ChTraitsCRT@D@ATL@@@@@ATL@@XZ @ 2792 NONAME
 ?GetFileURL@CFtpFileFind@@UEBA?AV?$CStringT@DV?$StrTraitMFC_DLL@DV?$ChTraitsCRT@D@ATL@@@@@ATL@@XZ @ 2793 NONAME
 ?GetFileURL@CGopherFileFind@@UEBA?AV?$CStringT@DV?$StrTraitMFC_DLL@DV?$ChTraitsCRT@D@ATL@@@@@ATL@@XZ @ 2794 NONAME
 ?GetFileURL@CHttpFile@@UEBA?AV?$CStringT@DV?$StrTraitMFC_DLL@DV?$ChTraitsCRT@D@ATL@@@@@ATL@@XZ @ 2795 NONAME
 ?GetFirstDayOfWeek@CMonthCalCtrl@@QEBAHPEAH@Z @ 2796 NONAME
 ?GetFirstDocPosition@CMultiDocTemplate@@UEBAPEAU__POSITION@@XZ @ 2797 NONAME
 ?GetFirstDocPosition@CSingleDocTemplate@@UEBAPEAU__POSITION@@XZ @ 2798 NONAME
 ?GetFirstDocTemplatePosition@CDocManager@@UEBAPEAU__POSITION@@XZ @ 2799 NONAME
 ?GetFirstDocTemplatePosition@CWinApp@@QEBAPEAU__POSITION@@XZ @ 2800 NONAME
 ?GetFirstFrame@COleDocument@@QEAAPEAVCFrameWnd@@XZ @ 2801 NONAME
 ?GetFirstViewPosition@CDocument@@UEBAPEAU__POSITION@@XZ @ 2802 NONAME
 ?GetFocus@COleControl@@QEAAPEAVCWnd@@XZ @ 2803 NONAME
 ?GetFocus@XOleIPSite@COleControlSite@@UEAAJXZ @ 2804 NONAME
 ?GetFolderPath@CFileDialog@@QEBA?AV?$CStringT@DV?$StrTraitMFC_DLL@DV?$ChTraitsCRT@D@ATL@@@@@ATL@@XZ @ 2805 NONAME
 ?GetFont@CDialogTemplate@@QEBAHAEAV?$CStringT@DV?$StrTraitMFC_DLL@DV?$ChTraitsCRT@D@ATL@@@@@ATL@@AEAG@Z @ 2806 NONAME
 ?GetFont@CDialogTemplate@@SAHPEBUDLGTEMPLATE@@AEAV?$CStringT@DV?$StrTraitMFC_DLL@DV?$ChTraitsCRT@D@ATL@@@@@ATL@@AEAG@Z @ 2807 NONAME
 ?GetFont@COleControl@@QEAAPEAUIFontDisp@@XZ @ 2808 NONAME
 ?GetFontDispatch@CFontHolder@@QEAAPEAUIFontDisp@@XZ @ 2809 NONAME
 ?GetFontHandle@CFontHolder@@QEAAPEAUHFONT__@@JJ@Z @ 2810 NONAME
 ?GetFontHandle@CFontHolder@@QEAAPEAUHFONT__@@XZ @ 2811 NONAME
 ?GetFontSizeField@CDialogTemplate@@KAPEAEPEBUDLGTEMPLATE@@@Z @ 2812 NONAME
 ?GetFontTextMetrics@COleControl@@QEAAXPEAUtagTEXTMETRICA@@AEAVCFontHolder@@@Z @ 2813 NONAME
 ?GetForeColor@COleControl@@QEAAKXZ @ 2814 NONAME
 ?GetFormatID@CPropertySection@@QEAA?AU_GUID@@XZ @ 2815 NONAME
 ?GetFormatVersion@CPropertySet@@QEAAGXZ @ 2816 NONAME
 ?GetFtpConnection@CInternetSession@@QEAAPEAVCFtpConnection@@PEBD00GH@Z @ 2817 NONAME
 ?GetFullName@CHtmlView@@QEBA?AV?$CStringT@DV?$StrTraitMFC_DLL@DV?$ChTraitsCRT@D@ATL@@@@@ATL@@XZ @ 2818 NONAME
 ?GetFullScreen@CHtmlView@@QEBAHXZ @ 2819 NONAME
 ?GetFuncInfoFromId@CDHtmlControlSink@@QEAAJAEBU_GUID@@JKAEAU_ATL_FUNC_INFO@ATL@@@Z @ 2820 NONAME
 ?GetGlobalData@COleDataObject@@QEAAPEAXGPEAUtagFORMATETC@@@Z @ 2821 NONAME
 ?GetGopherConnection@CInternetSession@@QEAAPEAVCGopherConnection@@PEBD00G@Z @ 2822 NONAME
 ?GetGUID@XProvideClassInfo@COleControl@@UEAAJKPEAU_GUID@@@Z @ 2823 NONAME
 ?GetHalftoneBrush@CDC@@SAPEAVCBrush@@XZ @ 2824 NONAME
 ?GetHandleMask@CRectTracker@@UEBAIXZ @ 2825 NONAME
 ?GetHandleRect@CRectTracker@@IEBAXHPEAVCRect@@@Z @ 2826 NONAME
 ?GetHandleSize@CRectTracker@@MEBAHPEBUtagRECT@@@Z @ 2827 NONAME
 ?GetHeaderCtrl@CListCtrl@@QEAAPEAVCHeaderCtrl@@XZ @ 2828 NONAME
 ?GetHeight@CHtmlView@@QEBAJXZ @ 2829 NONAME
 ?GetHelpMenu@COleDocObjectItem@@MEAAPEAVCMenu@@AEAI@Z @ 2830 NONAME
 ?GetHitRect@CSplitterWnd@@MEAAXHAEAVCRect@@@Z @ 2831 NONAME
 ?GetHostInfo@CBrowserControlSite@@MEAAJPEAU_DOCHOSTUIINFO@@@Z @ 2832 NONAME
 ?GetHostInfo@CDHtmlDialog@@UEAAJPEAU_DOCHOSTUIINFO@@@Z @ 2833 NONAME
 ?GetHostInfo@XDocHostUIHandler@CHtmlControlSite@@UEAAJPEAU_DOCHOSTUIINFO@@@Z @ 2834 NONAME
 ?GetHotKey@CHotKeyCtrl@@QEBAXAEAG0@Z @ 2835 NONAME
 ?GetHotKeyName@CHotKeyCtrl@@QEBA?AV?$CStringT@DV?$StrTraitMFC_DLL@DV?$ChTraitsCRT@D@ATL@@@@@ATL@@XZ @ 2836 NONAME
 ?GetHtmlDocument@CHtmlView@@QEBAPEAUIDispatch@@XZ @ 2837 NONAME
 ?GetHttpConnection@CInternetSession@@QEAAPEAVCHttpConnection@@PEBDG00@Z @ 2838 NONAME
 ?GetHttpConnection@CInternetSession@@QEAAPEAVCHttpConnection@@PEBDKG00@Z @ 2839 NONAME
 ?GetHwnd@COleControl@@QEAAIXZ @ 2840 NONAME
 ?GetHWND@XAccessibleServer@CWnd@@UEAAJPEAPEAUHWND__@@@Z @ 2841 NONAME
 ?GetIconFromRegistry@COleClientItem@@QEBAPEAUHICON__@@XZ @ 2842 NONAME
 ?GetIconFromRegistry@COleClientItem@@SAPEAUHICON__@@AEAU_GUID@@@Z @ 2843 NONAME
 ?GetIconicMetafile@COleClientItem@@QEAAPEAXXZ @ 2844 NONAME
 ?GetIconWndClass@CFrameWnd@@IEAAPEBDKI@Z @ 2845 NONAME
 ?GetID@CProperty@@QEAAKXZ @ 2846 NONAME
 ?GetID@CPropertySection@@QEAAHPEBDPEAK@Z @ 2847 NONAME
 ?GetIDataObject@COleDataObject@@QEAAPEAUIDataObject@@H@Z @ 2848 NONAME
 ?GetIDispatch@CCmdTarget@@QEAAPEAUIDispatch@@H@Z @ 2849 NONAME
 ?GetIDsOfNames@CDHtmlControlSink@@UEAAJAEBU_GUID@@PEAPEA_WIKPEAJ@Z @ 2850 NONAME
 ?GetIDsOfNames@CDHtmlElementEventSink@@UEAAJAEBU_GUID@@PEAPEA_WIKPEAJ@Z @ 2851 NONAME
 ?GetIDsOfNames@CDHtmlEventSink@@UEAAJAEBU_GUID@@PEAPEA_WIKPEAJ@Z @ 2852 NONAME
 ?GetIDsOfNames@COleDispatchImpl@@UEAAJAEBU_GUID@@PEAPEA_WIKPEAJ@Z @ 2853 NONAME
 ?GetIDsOfNames@XAccessible@CWnd@@UEAAJAEBU_GUID@@PEAPEA_WIKPEAJ@Z @ 2854 NONAME
 ?GetIDsOfNames@XAmbientProps@COleControlSite@@UEAAJAEBU_GUID@@PEAPEA_WIKPEAJ@Z @ 2855 NONAME
 ?GetIDsOfNames@XEventSink@COleControlSite@@UEAAJAEBU_GUID@@PEAPEA_WIKPEAJ@Z @ 2856 NONAME
 ?GetIID@XEventConnPt@COleControl@@UEAAAEBU_GUID@@XZ @ 2857 NONAME
 ?GetImageList@CReBarCtrl@@QEBAPEAVCImageList@@XZ @ 2858 NONAME
 ?GetInPlaceActiveItem@COleDocument@@UEAAPEAVCOleClientItem@@PEAVCWnd@@@Z @ 2859 NONAME
 ?GetInPlaceActiveItem@CRichEditDoc@@UEAAPEAVCOleClientItem@@PEAVCWnd@@@Z @ 2860 NONAME
 ?GetInPlaceActiveItem@CRichEditView@@QEBAPEAVCRichEditCntrItem@@XZ @ 2861 NONAME
 ?GetInPlaceContext@XRichEditOleCallback@CRichEditView@@UEAAJPEAPEAUIOleInPlaceFrame@@PEAPEAUIOleInPlaceUIWindow@@PEAUtagOIFI@@@Z @ 2862 NONAME
 ?GetInPlaceMenu@COleIPFrameWnd@@MEAAPEAUHMENU__@@XZ @ 2863 NONAME
 ?GetInPlaceSite@XOleDocumentView@CDocObjectServer@@UEAAJPEAPEAUIOleInPlaceSite@@@Z @ 2864 NONAME
 ?GetInPlaceWindow@COleClientItem@@QEAAPEAVCWnd@@XZ @ 2865 NONAME
 ?GetInsideRect@CSplitterWnd@@MEBAXAEAVCRect@@@Z @ 2866 NONAME
 ?GetInterface@CCmdTarget@@QEAAPEAUIUnknown@@PEBX@Z @ 2867 NONAME
 ?GetInterfaceHook@CBrowserControlSite@@MEAAPEAUIUnknown@@PEBX@Z @ 2868 NONAME
 ?GetInterfaceHook@CCmdTarget@@UEAAPEAUIUnknown@@PEBX@Z @ 2869 NONAME
 ?GetInterfaceHook@COleControl@@MEAAPEAUIUnknown@@PEBX@Z @ 2870 NONAME
 ?GetInterfaceHook@COleServerDoc@@MEAAPEAUIUnknown@@PEBX@Z @ 2871 NONAME
 ?GetInterfaceMap@CCmdTarget@@MEBAPEBUAFX_INTERFACEMAP@@XZ @ 2872 NONAME
 ?GetInterfaceMap@CDocObjectServer@@MEBAPEBUAFX_INTERFACEMAP@@XZ @ 2873 NONAME
 ?GetInterfaceMap@CEnumConnections@@MEBAPEBUAFX_INTERFACEMAP@@XZ @ 2874 NONAME
 ?GetInterfaceMap@CEnumConnPoints@@MEBAPEBUAFX_INTERFACEMAP@@XZ @ 2875 NONAME
 ?GetInterfaceMap@CEnumFormatEtc@@MEBAPEBUAFX_INTERFACEMAP@@XZ @ 2876 NONAME
 ?GetInterfaceMap@CEnumOleVerb@@MEBAPEBUAFX_INTERFACEMAP@@XZ @ 2877 NONAME
 ?GetInterfaceMap@CEnumUnknown@@MEBAPEBUAFX_INTERFACEMAP@@XZ @ 2878 NONAME
 ?GetInterfaceMap@CHtmlControlSite@@MEBAPEBUAFX_INTERFACEMAP@@XZ @ 2879 NONAME
 ?GetInterfaceMap@COleClientItem@@MEBAPEBUAFX_INTERFACEMAP@@XZ @ 2880 NONAME
 ?GetInterfaceMap@COleControl@@MEBAPEBUAFX_INTERFACEMAP@@XZ @ 2881 NONAME
 ?GetInterfaceMap@COleControlContainer@@MEBAPEBUAFX_INTERFACEMAP@@XZ @ 2882 NONAME
 ?GetInterfaceMap@COleControlSite@@MEBAPEBUAFX_INTERFACEMAP@@XZ @ 2883 NONAME
 ?GetInterfaceMap@COleDataSource@@MEBAPEBUAFX_INTERFACEMAP@@XZ @ 2884 NONAME
 ?GetInterfaceMap@COleDocObjectItem@@MEBAPEBUAFX_INTERFACEMAP@@XZ @ 2885 NONAME
 ?GetInterfaceMap@COleDropSource@@MEBAPEBUAFX_INTERFACEMAP@@XZ @ 2886 NONAME
 ?GetInterfaceMap@COleDropTarget@@MEBAPEBUAFX_INTERFACEMAP@@XZ @ 2887 NONAME
 ?GetInterfaceMap@COleFrameHook@@MEBAPEBUAFX_INTERFACEMAP@@XZ @ 2888 NONAME
 ?GetInterfaceMap@COleLinkingDoc@@MEBAPEBUAFX_INTERFACEMAP@@XZ @ 2889 NONAME
 ?GetInterfaceMap@COleMessageFilter@@MEBAPEBUAFX_INTERFACEMAP@@XZ @ 2890 NONAME
 ?GetInterfaceMap@COleObjectFactory@@MEBAPEBUAFX_INTERFACEMAP@@XZ @ 2891 NONAME
 ?GetInterfaceMap@COlePropertyPage@@MEBAPEBUAFX_INTERFACEMAP@@XZ @ 2892 NONAME
 ?GetInterfaceMap@COleServerDoc@@MEBAPEBUAFX_INTERFACEMAP@@XZ @ 2893 NONAME
 ?GetInterfaceMap@COleServerItem@@MEBAPEBUAFX_INTERFACEMAP@@XZ @ 2894 NONAME
 ?GetInterfaceMap@CRichEditView@@MEBAPEBUAFX_INTERFACEMAP@@XZ @ 2895 NONAME
 ?GetInterfaceMap@CWnd@@MEBAPEBUAFX_INTERFACEMAP@@XZ @ 2896 NONAME
 ?GetIRichEditOle@CRichEditCtrl@@QEBAPEAUIRichEditOle@@XZ @ 2897 NONAME
 ?GetItem@CComboBoxEx@@QEAAHPEAUtagCOMBOBOXEXITEMA@@@Z @ 2898 NONAME
 ?GetItemClipRect@COleServerDoc@@QEBAXPEAUtagRECT@@@Z @ 2899 NONAME
 ?GetItemData@CListCtrl@@QEBA_KH@Z @ 2900 NONAME
 ?GetItemData@CTreeCtrl@@QEBA_KPEAU_TREEITEM@@@Z @ 2901 NONAME
 ?GetItemID@CStatusBar@@QEBAIH@Z @ 2902 NONAME
 ?GetItemID@CToolBar@@QEBAIH@Z @ 2903 NONAME
 ?GetItemImage@CTreeCtrl@@QEBAHPEAU_TREEITEM@@AEAH1@Z @ 2904 NONAME
 ?GetItemName@COleClientItem@@QEBAXPEAD@Z @ 2905 NONAME
 ?GetItemPosition@COleServerDoc@@QEBAXPEAUtagRECT@@@Z @ 2906 NONAME
 ?GetItemRect@CListCtrl@@QEBAHHPEAUtagRECT@@I@Z @ 2907 NONAME
 ?GetItemRect@CStatusBar@@QEBAXHPEAUtagRECT@@@Z @ 2908 NONAME
 ?GetItemRect@CToolBar@@UEBAXHPEAUtagRECT@@@Z @ 2909 NONAME
 ?GetItemRect@CTreeCtrl@@QEBAHPEAU_TREEITEM@@PEAUtagRECT@@H@Z @ 2910 NONAME
 ?GetItemState@CTabCtrl@@QEBAKHK@Z @ 2911 NONAME
 ?GetItemState@CTreeCtrl@@QEBAIPEAU_TREEITEM@@I@Z @ 2912 NONAME
 ?GetItemStorage@COleClientItem@@UEAAXXZ @ 2913 NONAME
 ?GetItemStorageCompound@COleClientItem@@QEAAXXZ @ 2914 NONAME
 ?GetItemStorageFlat@COleClientItem@@QEAAXXZ @ 2915 NONAME
 ?GetItemText@CListCtrl@@QEBA?AV?$CStringT@DV?$StrTraitMFC_DLL@DV?$ChTraitsCRT@D@ATL@@@@@ATL@@HH@Z @ 2916 NONAME
 ?GetItemText@CListCtrl@@QEBAHHHPEADH@Z @ 2917 NONAME
 ?GetItemText@CTreeCtrl@@QEBA?AV?$CStringT@DV?$StrTraitMFC_DLL@DV?$ChTraitsCRT@D@ATL@@@@@ATL@@PEAU_TREEITEM@@@Z @ 2918 NONAME
 ?GetKeyName@CHotKeyCtrl@@SA?AV?$CStringT@DV?$StrTraitMFC_DLL@DV?$ChTraitsCRT@D@ATL@@@@@ATL@@IH@Z @ 2919 NONAME
 ?GetLastAccessTime@CFileFind@@UEBAHAEAVCTime@ATL@@@Z @ 2920 NONAME
 ?GetLastAccessTime@CFileFind@@UEBAHPEAU_FILETIME@@@Z @ 2921 NONAME
 ?GetLastAccessTime@CGopherFileFind@@UEBAHAEAVCTime@ATL@@@Z @ 2922 NONAME
 ?GetLastAccessTime@CGopherFileFind@@UEBAHPEAU_FILETIME@@@Z @ 2923 NONAME
 ?GetLastUpdate@COleUILinkInfo@@UEAAJKPEAU_FILETIME@@@Z @ 2924 NONAME
 ?GetLastWriteTime@CFileFind@@UEBAHAEAVCTime@ATL@@@Z @ 2925 NONAME
 ?GetLastWriteTime@CFileFind@@UEBAHPEAU_FILETIME@@@Z @ 2926 NONAME
 ?GetLastWriteTime@CGopherFileFind@@UEBAHAEAVCTime@ATL@@@Z @ 2927 NONAME
 ?GetLastWriteTime@CGopherFileFind@@UEBAHPEAU_FILETIME@@@Z @ 2928 NONAME
 ?GetLayout@CDC@@QEBAKXZ @ 2929 NONAME
 ?GetLBFetchSize@CRecordset@@MEAA_J_J@Z @ 2930 NONAME
 ?GetLBound@COleSafeArray@@QEAAXKPEAJ@Z @ 2931 NONAME
 ?GetLBReallocSize@CRecordset@@MEAA_J_J@Z @ 2932 NONAME
 ?GetLBText@CComboBox@@QEBAXHAEAV?$CStringT@DV?$StrTraitMFC_DLL@DV?$ChTraitsCRT@D@ATL@@@@@ATL@@@Z @ 2933 NONAME
 ?GetLeft@CHtmlView@@QEBAJXZ @ 2934 NONAME
 ?GetLength@?$CSimpleStringT@_W$00@ATL@@QEBAHXZ @ 2935 NONAME
 ?GetLength@?$CSimpleStringT@D$00@ATL@@QEBAHXZ @ 2936 NONAME
 ?GetLength@CFile@@UEBA_KXZ @ 2937 NONAME
 ?GetLength@CFileFind@@QEBA_KXZ @ 2938 NONAME
 ?GetLength@CGopherFileFind@@UEBA_KXZ @ 2939 NONAME
 ?GetLength@CInternetFile@@UEBA_KXZ @ 2940 NONAME
 ?GetLength@CMemFile@@UEBA_KXZ @ 2941 NONAME
 ?GetLength@COleStreamFile@@UEBA_KXZ @ 2942 NONAME
 ?GetLength@CSocketFile@@UEBA_KXZ @ 2943 NONAME
 ?GetLength@CStdioFile@@UEBA_KXZ @ 2944 NONAME
 ?GetLicenseKey@COleObjectFactory@@MEAAHKPEAPEA_W@Z @ 2945 NONAME
 ?GetLicInfo@XClassFactory@COleObjectFactory@@UEAAJPEAUtagLICINFO@@@Z @ 2946 NONAME
 ?GetLine@CRichEditCtrl@@QEBAHHPEAD@Z @ 2947 NONAME
 ?GetLine@CRichEditCtrl@@QEBAHHPEADH@Z @ 2948 NONAME
 ?GetLinkItem@COleUILinkInfo@@AEAAPEAVCOleClientItem@@K@Z @ 2949 NONAME
 ?GetLinkSource@COleUILinkInfo@@UEAAJKPEAPEADPEAK00PEAH2@Z @ 2950 NONAME
 ?GetLinkSourceData@COleClientItem@@IEAAHPEAUtagSTGMEDIUM@@@Z @ 2951 NONAME
 ?GetLinkSourceData@COleServerItem@@QEAAHPEAUtagSTGMEDIUM@@@Z @ 2952 NONAME
 ?GetLinkUpdateOptions@COleClientItem@@QEAA?AW4tagOLEUPDATE@@XZ @ 2953 NONAME
 ?GetLinkUpdateOptions@COleUILinkInfo@@UEAAJKPEAK@Z @ 2954 NONAME
 ?GetList@CPropertySection@@QEAAPEAVCPtrList@@XZ @ 2955 NONAME
 ?GetList@CPropertySet@@QEAAPEAVCPtrList@@XZ @ 2956 NONAME
 ?GetLocationName@CHtmlView@@QEBA?AV?$CStringT@DV?$StrTraitMFC_DLL@DV?$ChTraitsCRT@D@ATL@@@@@ATL@@XZ @ 2957 NONAME
 ?GetLocationURL@CHtmlView@@QEBA?AV?$CStringT@DV?$StrTraitMFC_DLL@DV?$ChTraitsCRT@D@ATL@@@@@ATL@@XZ @ 2958 NONAME
 ?GetLocator@CGopherFileFind@@QEBA?AVCGopherLocator@@XZ @ 2959 NONAME
 ?GetLongBinaryData@CFieldExchange@@QEAAXHAEAVCLongBinary@@PEA_J@Z @ 2960 NONAME
 ?GetLongBinaryDataAndCleanup@CRecordset@@SAXPEAVCDatabase@@PEAXF_JPEAPEAX2AEAVCDBVariant@@F@Z @ 2961 NONAME
 ?GetLongBinarySize@CFieldExchange@@QEAA_JH@Z @ 2962 NONAME
 ?GetLongCharDataAndCleanup@CRecordset@@SAXPEAVCDatabase@@PEAXF_JPEAPEAX2AEAV?$CStringT@_WV?$StrTraitMFC_DLL@_WV?$ChTraitsCRT@_W@ATL@@@@@ATL@@FF@Z @ 2963 NONAME
 ?GetLongCharDataAndCleanup@CRecordset@@SAXPEAVCDatabase@@PEAXF_JPEAPEAX2AEAV?$CStringT@DV?$StrTraitMFC_DLL@DV?$ChTraitsCRT@D@ATL@@@@@ATL@@FF@Z @ 2964 NONAME
 ?GetMainWnd@CWinThread@@UEAAPEAVCWnd@@XZ @ 2965 NONAME
 ?GetManager@?$CSimpleStringT@_W$00@ATL@@QEBAPEAUIAtlStringMgr@2@XZ @ 2966 NONAME
 ?GetManager@?$CSimpleStringT@D$00@ATL@@QEBAPEAUIAtlStringMgr@2@XZ @ 2967 NONAME
 ?GetManager@?$CStringT@_WV?$StrTraitMFC_DLL@_WV?$ChTraitsCRT@_W@ATL@@@@@ATL@@QEBAPEAUIAtlStringMgr@2@XZ @ 2968 NONAME
 ?GetManager@?$CStringT@DV?$StrTraitMFC_DLL@DV?$ChTraitsCRT@D@ATL@@@@@ATL@@QEBAPEAUIAtlStringMgr@2@XZ @ 2969 NONAME
 ?GetMargins@CPageSetupDialog@@QEBAXPEAUtagRECT@@0@Z @ 2970 NONAME
 ?GetMaxConnections@CConnectionPoint@@UEAAHXZ @ 2971 NONAME
 ?GetMDIFrame@CMDIChildWnd@@QEAAPEAVCMDIFrameWnd@@XZ @ 2972 NONAME
 ?GetMenuBar@CHtmlView@@QEBAHXZ @ 2973 NONAME
 ?GetMenuStringA@CMenu@@QEBAHIAEAV?$CStringT@DV?$StrTraitMFC_DLL@DV?$ChTraitsCRT@D@ATL@@@@@ATL@@I@Z @ 2974 NONAME
 ?GetMessageBar@CFrameWnd@@UEAAPEAVCWnd@@XZ @ 2975 NONAME
 ?GetMessageBar@CMDIChildWnd@@MEAAPEAVCWnd@@XZ @ 2976 NONAME
 ?GetMessageMap@CCheckListBox@@MEBAPEBUAFX_MSGMAP@@XZ @ 2977 NONAME
 ?GetMessageMap@CCmdTarget@@MEBAPEBUAFX_MSGMAP@@XZ @ 2978 NONAME
 ?GetMessageMap@CCommonDialog@@MEBAPEBUAFX_MSGMAP@@XZ @ 2979 NONAME
 ?GetMessageMap@CControlBar@@MEBAPEBUAFX_MSGMAP@@XZ @ 2980 NONAME
 ?GetMessageMap@CControlFrameWnd@@MEBAPEBUAFX_MSGMAP@@XZ @ 2981 NONAME
 ?GetMessageMap@CCtrlView@@MEBAPEBUAFX_MSGMAP@@XZ @ 2982 NONAME
 ?GetMessageMap@CDHtmlDialog@@MEBAPEBUAFX_MSGMAP@@XZ @ 2983 NONAME
 ?GetMessageMap@CDialog@@MEBAPEBUAFX_MSGMAP@@XZ @ 2984 NONAME
 ?GetMessageMap@CDialogBar@@MEBAPEBUAFX_MSGMAP@@XZ @ 2985 NONAME
 ?GetMessageMap@CDockBar@@MEBAPEBUAFX_MSGMAP@@XZ @ 2986 NONAME
 ?GetMessageMap@CDocObjectServer@@MEBAPEBUAFX_MSGMAP@@XZ @ 2987 NONAME
 ?GetMessageMap@CDocument@@MEBAPEBUAFX_MSGMAP@@XZ @ 2988 NONAME
 ?GetMessageMap@CEditView@@MEBAPEBUAFX_MSGMAP@@XZ @ 2989 NONAME
 ?GetMessageMap@CFormView@@MEBAPEBUAFX_MSGMAP@@XZ @ 2990 NONAME
 ?GetMessageMap@CFrameWnd@@MEBAPEBUAFX_MSGMAP@@XZ @ 2991 NONAME
 ?GetMessageMap@CHtmlEditView@@MEBAPEBUAFX_MSGMAP@@XZ @ 2992 NONAME
 ?GetMessageMap@CHtmlView@@MEBAPEBUAFX_MSGMAP@@XZ @ 2993 NONAME
 ?GetMessageMap@CListCtrl@@MEBAPEBUAFX_MSGMAP@@XZ @ 2994 NONAME
 ?GetMessageMap@CListView@@MEBAPEBUAFX_MSGMAP@@XZ @ 2995 NONAME
 ?GetMessageMap@CMDIChildWnd@@MEBAPEBUAFX_MSGMAP@@XZ @ 2996 NONAME
 ?GetMessageMap@CMDIFrameWnd@@MEBAPEBUAFX_MSGMAP@@XZ @ 2997 NONAME
 ?GetMessageMap@CMiniDockFrameWnd@@MEBAPEBUAFX_MSGMAP@@XZ @ 2998 NONAME
 ?GetMessageMap@CMiniFrameWnd@@MEBAPEBUAFX_MSGMAP@@XZ @ 2999 NONAME
 ?GetMessageMap@COleControl@@MEBAPEBUAFX_MSGMAP@@XZ @ 3000 NONAME
 ?GetMessageMap@COleDBRecordView@@MEBAPEBUAFX_MSGMAP@@XZ @ 3001 NONAME
 ?GetMessageMap@COleDocIPFrameWnd@@MEBAPEBUAFX_MSGMAP@@XZ @ 3002 NONAME
 ?GetMessageMap@COleIPFrameWnd@@MEBAPEBUAFX_MSGMAP@@XZ @ 3003 NONAME
 ?GetMessageMap@COlePropertyPage@@MEBAPEBUAFX_MSGMAP@@XZ @ 3004 NONAME
 ?GetMessageMap@COleResizeBar@@MEBAPEBUAFX_MSGMAP@@XZ @ 3005 NONAME
 ?GetMessageMap@COleServerDoc@@MEBAPEBUAFX_MSGMAP@@XZ @ 3006 NONAME
 ?GetMessageMap@CPreviewView@@MEBAPEBUAFX_MSGMAP@@XZ @ 3007 NONAME
 ?GetMessageMap@CPrintDialog@@MEBAPEBUAFX_MSGMAP@@XZ @ 3008 NONAME
 ?GetMessageMap@CPrintDialogEx@@MEBAPEBUAFX_MSGMAP@@XZ @ 3009 NONAME
 ?GetMessageMap@CPropertyPage@@MEBAPEBUAFX_MSGMAP@@XZ @ 3010 NONAME
 ?GetMessageMap@CPropertySheet@@MEBAPEBUAFX_MSGMAP@@XZ @ 3011 NONAME
 ?GetMessageMap@CReBar@@MEBAPEBUAFX_MSGMAP@@XZ @ 3012 NONAME
 ?GetMessageMap@CRecordView@@MEBAPEBUAFX_MSGMAP@@XZ @ 3013 NONAME
 ?GetMessageMap@CRichEditView@@MEBAPEBUAFX_MSGMAP@@XZ @ 3014 NONAME
 ?GetMessageMap@CScrollView@@MEBAPEBUAFX_MSGMAP@@XZ @ 3015 NONAME
 ?GetMessageMap@CSocketWnd@@MEBAPEBUAFX_MSGMAP@@XZ @ 3016 NONAME
 ?GetMessageMap@CSplitterWnd@@MEBAPEBUAFX_MSGMAP@@XZ @ 3017 NONAME
 ?GetMessageMap@CStatusBar@@MEBAPEBUAFX_MSGMAP@@XZ @ 3018 NONAME
 ?GetMessageMap@CTabCtrl@@MEBAPEBUAFX_MSGMAP@@XZ @ 3019 NONAME
 ?GetMessageMap@CToolBar@@MEBAPEBUAFX_MSGMAP@@XZ @ 3020 NONAME
 ?GetMessageMap@CToolBarCtrl@@MEBAPEBUAFX_MSGMAP@@XZ @ 3021 NONAME
 ?GetMessageMap@CToolTipCtrl@@MEBAPEBUAFX_MSGMAP@@XZ @ 3022 NONAME
 ?GetMessageMap@CTreeCtrl@@MEBAPEBUAFX_MSGMAP@@XZ @ 3023 NONAME
 ?GetMessageMap@CTreeView@@MEBAPEBUAFX_MSGMAP@@XZ @ 3024 NONAME
 ?GetMessageMap@CView@@MEBAPEBUAFX_MSGMAP@@XZ @ 3025 NONAME
 ?GetMessageMap@CWinApp@@MEBAPEBUAFX_MSGMAP@@XZ @ 3026 NONAME
 ?GetMessageMap@CWnd@@MEBAPEBUAFX_MSGMAP@@XZ @ 3027 NONAME
 ?GetMessageString@CFrameWnd@@UEBAXIAEAV?$CStringT@DV?$StrTraitMFC_DLL@DV?$ChTraitsCRT@D@ATL@@@@@ATL@@@Z @ 3028 NONAME
 ?GetMessageString@COleControl@@UEBAXIAEAV?$CStringT@DV?$StrTraitMFC_DLL@DV?$ChTraitsCRT@D@ATL@@@@@ATL@@@Z @ 3029 NONAME
 ?GetMetaData@CDataSourceControl@@QEAAJXZ @ 3030 NONAME
 ?GetMetafileData@COleControl@@IEAAHPEAUtagFORMATETC@@PEAUtagSTGMEDIUM@@@Z @ 3031 NONAME
 ?GetMetafileData@COleServerItem@@MEAAHPEAUtagFORMATETC@@PEAUtagSTGMEDIUM@@@Z @ 3032 NONAME
 ?GetMiscStatus@XOleObject@CDocObjectServer@@UEAAJKPEAK@Z @ 3033 NONAME
 ?GetMiscStatus@XOleObject@COleControl@@UEAAJKPEAK@Z @ 3034 NONAME
 ?GetMiscStatus@XOleObject@COleServerDoc@@UEAAJKPEAK@Z @ 3035 NONAME
 ?GetMiscStatus@XOleObject@COleServerItem@@UEAAJKPEAK@Z @ 3036 NONAME
 ?GetModifyPointers@CRectTracker@@IEAAXHPEAPEAH0PEAH1@Z @ 3037 NONAME
 ?GetMoniker@COleDocument@@UEAAPEAUIMoniker@@W4tagOLEGETMONIKER@@@Z @ 3038 NONAME
 ?GetMoniker@COleLinkingDoc@@UEAAPEAUIMoniker@@W4tagOLEGETMONIKER@@@Z @ 3039 NONAME
 ?GetMoniker@COleServerDoc@@UEAAPEAUIMoniker@@W4tagOLEGETMONIKER@@@Z @ 3040 NONAME
 ?GetMoniker@COleServerItem@@QEAAPEAUIMoniker@@W4tagOLEGETMONIKER@@@Z @ 3041 NONAME
 ?GetMoniker@XOleClientSite@COleClientItem@@UEAAJKKPEAPEAUIMoniker@@@Z @ 3042 NONAME
 ?GetMoniker@XOleClientSite@COleControlSite@@UEAAJKKPEAPEAUIMoniker@@@Z @ 3043 NONAME
 ?GetMoniker@XOleObject@CDocObjectServer@@UEAAJKKPEAPEAUIMoniker@@@Z @ 3044 NONAME
 ?GetMoniker@XOleObject@COleControl@@UEAAJKKPEAPEAUIMoniker@@@Z @ 3045 NONAME
 ?GetMoniker@XOleObject@COleServerDoc@@UEAAJKKPEAPEAUIMoniker@@@Z @ 3046 NONAME
 ?GetMoniker@XOleObject@COleServerItem@@UEAAJKKPEAPEAUIMoniker@@@Z @ 3047 NONAME
 ?GetMonthRange@CMonthCalCtrl@@QEBAHAEAVCOleDateTime@ATL@@0K@Z @ 3048 NONAME
 ?GetMonthRange@CMonthCalCtrl@@QEBAHAEAVCTime@ATL@@0K@Z @ 3049 NONAME
 ?GetMonthRange@CMonthCalCtrl@@QEBAHPEAU_SYSTEMTIME@@0K@Z @ 3050 NONAME
 ?GetNaturalExtent@XViewObject@COleControl@@UEAAJKJPEAUtagDVTARGETDEVICE@@PEAUHDC__@@PEAUtagExtentInfo@@PEAUtagSIZE@@@Z @ 3051 NONAME
 ?GetNewItemNumber@COleClientItem@@QEAAKXZ @ 3052 NONAME
 ?GetNewStorage@XRichEditOleCallback@CRichEditView@@UEAAJPEAPEAUIStorage@@@Z @ 3053 NONAME
 ?GetNext@CDataBoundProperty@@QEAAPEAV1@XZ @ 3054 NONAME
 ?GetNextAssoc@CMapPtrToPtr@@QEBAXAEAPEAU__POSITION@@AEAPEAX1@Z @ 3055 NONAME
 ?GetNextAssoc@CMapPtrToWord@@QEBAXAEAPEAU__POSITION@@AEAPEAXAEAG@Z @ 3056 NONAME
 ?GetNextAssoc@CMapStringToOb@@QEBAXAEAPEAU__POSITION@@AEAV?$CStringT@DV?$StrTraitMFC_DLL@DV?$ChTraitsCRT@D@ATL@@@@@ATL@@AEAPEAVCObject@@@Z @ 3057 NONAME
 ?GetNextAssoc@CMapStringToPtr@@QEBAXAEAPEAU__POSITION@@AEAV?$CStringT@DV?$StrTraitMFC_DLL@DV?$ChTraitsCRT@D@ATL@@@@@ATL@@AEAPEAX@Z @ 3058 NONAME
 ?GetNextAssoc@CMapStringToString@@QEBAXAEAPEAU__POSITION@@AEAV?$CStringT@DV?$StrTraitMFC_DLL@DV?$ChTraitsCRT@D@ATL@@@@@ATL@@1@Z @ 3059 NONAME
 ?GetNextAssoc@CMapWordToOb@@QEBAXAEAPEAU__POSITION@@AEAGAEAPEAVCObject@@@Z @ 3060 NONAME
 ?GetNextAssoc@CMapWordToPtr@@QEBAXAEAPEAU__POSITION@@AEAGAEAPEAX@Z @ 3061 NONAME
 ?GetNextClientItem@COleDocument@@QEBAPEAVCOleClientItem@@AEAPEAU__POSITION@@@Z @ 3062 NONAME
 ?GetNextConnection@CConnectionPoint@@QEBAPEAUIUnknown@@AEAPEAU__POSITION@@@Z @ 3063 NONAME
 ?GetNextDlgGroupItem@CWnd@@QEBAPEAUCOleControlSiteOrWnd@@PEAU2@@Z @ 3064 NONAME
 ?GetNextDlgTabItem@CWnd@@QEBAPEAUCOleControlSiteOrWnd@@PEAU2@H@Z @ 3065 NONAME
 ?GetNextDoc@CMultiDocTemplate@@UEBAPEAVCDocument@@AEAPEAU__POSITION@@@Z @ 3066 NONAME
 ?GetNextDoc@CSingleDocTemplate@@UEBAPEAVCDocument@@AEAPEAU__POSITION@@@Z @ 3067 NONAME
 ?GetNextDocTemplate@CDocManager@@UEBAPEAVCDocTemplate@@AEAPEAU__POSITION@@@Z @ 3068 NONAME
 ?GetNextDocTemplate@CWinApp@@QEBAPEAVCDocTemplate@@AEAPEAU__POSITION@@@Z @ 3069 NONAME
 ?GetNextFormat@COleDataObject@@QEAAHPEAUtagFORMATETC@@@Z @ 3070 NONAME
 ?GetNextItem@COleDocument@@UEBAPEAVCDocItem@@AEAPEAU__POSITION@@@Z @ 3071 NONAME
 ?GetNextItemOfKind@COleDocument@@IEBAPEAVCDocItem@@AEAPEAU__POSITION@@PEAUCRuntimeClass@@@Z @ 3072 NONAME
 ?GetNextLink@COleUILinkInfo@@UEAAKK@Z @ 3073 NONAME
 ?GetNextPathName@CFileDialog@@QEBA?AV?$CStringT@DV?$StrTraitMFC_DLL@DV?$ChTraitsCRT@D@ATL@@@@@ATL@@AEAPEAU__POSITION@@@Z @ 3074 NONAME
 ?GetNextServerItem@COleDocument@@QEBAPEAVCOleServerItem@@AEAPEAU__POSITION@@@Z @ 3075 NONAME
 ?GetNextView@CDocument@@UEBAPEAVCView@@AEAPEAU__POSITION@@@Z @ 3076 NONAME
 ?GetNilString@CAfxStringMgr@@UEAAPEAUCStringData@ATL@@XZ @ 3077 NONAME
 ?GetNotifier@CFindReplaceDialog@@SAPEAV1@_J@Z @ 3078 NONAME
 ?GetNotSupported@CCmdTarget@@QEAAXXZ @ 3079 NONAME
 ?GetNotSupported@COleControl@@QEAAXXZ @ 3080 NONAME
 ?GetObjectA@CHttpFile@@QEBA?AV?$CStringT@DV?$StrTraitMFC_DLL@DV?$ChTraitsCRT@D@ATL@@@@@ATL@@XZ @ 3081 NONAME
 ?GetObjectA@XOleItemContainer@COleLinkingDoc@@UEAAJPEA_WKPEAUIBindCtx@@AEBU_GUID@@PEAPEAX@Z @ 3082 NONAME
 ?GetObjectArray@COlePropertyPage@@QEAAPEAPEAUIDispatch@@PEAK@Z @ 3083 NONAME
 ?GetObjectDescriptorData@COleClientItem@@IEAAXPEAUtagPOINT@@PEAUtagSIZE@@PEAUtagSTGMEDIUM@@@Z @ 3084 NONAME
 ?GetObjectDescriptorData@COleServerItem@@QEAAXPEAUtagPOINT@@PEAUtagSIZE@@PEAUtagSTGMEDIUM@@@Z @ 3085 NONAME
 ?GetObjectInfo@XOleUIObjInfo@COlePropertiesDialog@@UEAAJKPEAKPEAPEAD111@Z @ 3086 NONAME
 ?GetObjectSchema@CArchive@@QEAAIXZ @ 3087 NONAME
 ?GetObjectStorage@XOleItemContainer@COleLinkingDoc@@UEAAJPEA_WPEAUIBindCtx@@AEBU_GUID@@PEAPEAX@Z @ 3088 NONAME
 ?GetOccDialogInfo@CDialog@@MEAAPEAU_AFX_OCC_DIALOG_INFO@@XZ @ 3089 NONAME
 ?GetOccDialogInfo@CWnd@@MEAAPEAU_AFX_OCC_DIALOG_INFO@@XZ @ 3090 NONAME
 ?GetODBCFieldInfo@CRecordset@@QEAAXFAEAUCODBCFieldInfo@@@Z @ 3091 NONAME
 ?GetODBCFieldInfo@CRecordset@@QEAAXPEBDAEAUCODBCFieldInfo@@@Z @ 3092 NONAME
 ?GetOffline@CHtmlView@@QEBAHXZ @ 3093 NONAME
 ?GetOFN@CFileDialog@@QEAAAEAUtagOFNA@@XZ @ 3094 NONAME
 ?GetOFN@CFileDialog@@QEBAAEBUtagOFNA@@XZ @ 3095 NONAME
 ?GetOleControlSite@CWnd@@QEBAPEAVCOleControlSite@@I@Z @ 3096 NONAME
 ?GetOleObject@COleServerItem@@QEAAPEAUIOleObject@@XZ @ 3097 NONAME
 ?GetOneDimSize@COleSafeArray@@QEAAKXZ @ 3098 NONAME
 ?GetOpenDocumentCount@CDocManager@@UEAAHXZ @ 3099 NONAME
 ?GetOpenDocumentCount@CWinApp@@QEAAHXZ @ 3100 NONAME
 ?GetOptionKeyPath@CBrowserControlSite@@MEAAJPEAPEA_WK@Z @ 3101 NONAME
 ?GetOptionKeyPath@CDHtmlDialog@@UEAAJPEAPEA_WK@Z @ 3102 NONAME
 ?GetOptionKeyPath@XDocHostUIHandler@CHtmlControlSite@@UEAAJPEAPEA_WK@Z @ 3103 NONAME
 ?GetOrderArray@CHeaderCtrl@@QEAAHPEAHH@Z @ 3104 NONAME
 ?GetOSVersion@CPropertySet@@QEAAKXZ @ 3105 NONAME
 ?GetOuterWindow@COleControl@@IEBAPEAVCWnd@@XZ @ 3106 NONAME
 ?GetPageCount@COleDocObjectItem@@QEAAHPEAJ0@Z @ 3107 NONAME
 ?GetPageCount@CPropertySheet@@QEBAHXZ @ 3108 NONAME
 ?GetPageIndex@CPropertySheet@@QEAAHPEAVCPropertyPage@@@Z @ 3109 NONAME
 ?GetPageInfo@XPrint@CDocObjectServer@@UEAAJPEAJ0@Z @ 3110 NONAME
 ?GetPageInfo@XPropertyPage@COlePropertyPage@@UEAAJPEAUtagPROPPAGEINFO@@@Z @ 3111 NONAME
 ?GetPages@XSpecifyPropertyPages@COleControl@@UEAAJPEAUtagCAUUID@@@Z @ 3112 NONAME
 ?GetPageSite@COlePropertyPage@@QEAAPEAUIPropertyPageSite@@XZ @ 3113 NONAME
 ?GetPane@CSplitterWnd@@QEBAPEAVCWnd@@HH@Z @ 3114 NONAME
 ?GetPaneInfo@CStatusBar@@QEBAXHAEAI0AEAH@Z @ 3115 NONAME
 ?GetPaneStyle@CStatusBar@@QEBAIH@Z @ 3116 NONAME
 ?GetPaneText@CStatusBar@@QEBA?AV?$CStringT@DV?$StrTraitMFC_DLL@DV?$ChTraitsCRT@D@ATL@@@@@ATL@@H@Z @ 3117 NONAME
 ?GetPaneText@CStatusBar@@QEBAXHAEAV?$CStringT@DV?$StrTraitMFC_DLL@DV?$ChTraitsCRT@D@ATL@@@@@ATL@@@Z @ 3118 NONAME
 ?GetParaFormat@CRichEditCtrl@@QEBAKAEAU_paraformat@@@Z @ 3119 NONAME
 ?GetParaFormat@CRichEditCtrl@@QEBAKAEAUPARAFORMAT2@@@Z @ 3120 NONAME
 ?GetParaFormatSelection@CRichEditView@@QEAAAEAUPARAFORMAT2@@XZ @ 3121 NONAME
 ?GetParentBrowser@CHtmlView@@QEBAPEAUIDispatch@@XZ @ 3122 NONAME
 ?GetParentFrame@CWnd@@QEBAPEAVCFrameWnd@@XZ @ 3123 NONAME
 ?GetParentOwner@CWnd@@QEBAPEAV1@XZ @ 3124 NONAME
 ?GetParentSplitter@CView@@SAPEAVCSplitterWnd@@PEBVCWnd@@H@Z @ 3125 NONAME
 ?GetPathName@CFileDialog@@QEBA?AV?$CStringT@DV?$StrTraitMFC_DLL@DV?$ChTraitsCRT@D@ATL@@@@@ATL@@XZ @ 3126 NONAME
 ?GetPeerName@CAsyncSocket@@QEAAHAEAV?$CStringT@DV?$StrTraitMFC_DLL@DV?$ChTraitsCRT@D@ATL@@@@@ATL@@AEAI@Z @ 3127 NONAME
 ?GetPictureDispatch@CPictureHolder@@QEAAPEAUIPictureDisp@@XZ @ 3128 NONAME
 ?GetPortName@CPageSetupDialog@@QEBA?AV?$CStringT@DV?$StrTraitMFC_DLL@DV?$ChTraitsCRT@D@ATL@@@@@ATL@@XZ @ 3129 NONAME
 ?GetPortName@CPrintDialog@@QEBA?AV?$CStringT@DV?$StrTraitMFC_DLL@DV?$ChTraitsCRT@D@ATL@@@@@ATL@@XZ @ 3130 NONAME
 ?GetPortName@CPrintDialogEx@@QEBA?AV?$CStringT@DV?$StrTraitMFC_DLL@DV?$ChTraitsCRT@D@ATL@@@@@ATL@@XZ @ 3131 NONAME
 ?GetPosition@CFile@@UEBA_KXZ @ 3132 NONAME
 ?GetPosition@CMemFile@@UEBA_KXZ @ 3133 NONAME
 ?GetPosition@COleStreamFile@@UEBA_KXZ @ 3134 NONAME
 ?GetPosition@CSocketFile@@UEBA_KXZ @ 3135 NONAME
 ?GetPosition@CStdioFile@@UEBA_KXZ @ 3136 NONAME
 ?GetPredefinedStrings@XPerPropertyBrowsing@COleControl@@UEAAJJPEAUtagCALPOLESTR@@PEAUtagCADWORD@@@Z @ 3137 NONAME
 ?GetPredefinedValue@XPerPropertyBrowsing@COleControl@@UEAAJJKPEAUtagVARIANT@@@Z @ 3138 NONAME
 ?GetPrevDlgGroupItem@CWnd@@QEBAPEAUCOleControlSiteOrWnd@@PEAU2@@Z @ 3139 NONAME
 ?GetPrimarySelectedItem@COleDocument@@UEAAPEAVCOleClientItem@@PEAVCView@@@Z @ 3140 NONAME
 ?GetPrimarySelectedItem@CRichEditDoc@@UEAAPEAVCOleClientItem@@PEAVCView@@@Z @ 3141 NONAME
 ?GetPrintDeviceInfo@COleClientItem@@IEAAHPEAPEAUIOleCache@@PEAPEAUtagDVTARGETDEVICE@@PEAK@Z @ 3142 NONAME
 ?GetPrinterDeviceDefaults@CWinApp@@QEAAHPEAUtagPDA@@@Z @ 3143 NONAME
 ?GetPrinterFont@CEditView@@QEBAPEAVCFont@@XZ @ 3144 NONAME
 ?GetPriority@CAsyncMonikerFile@@MEBAJXZ @ 3145 NONAME
 ?GetProfileBinary@CWinApp@@QEAAHPEBD0PEAPEAEPEAI@Z @ 3146 NONAME
 ?GetProfileIntA@CWinApp@@QEAAIPEBD0H@Z @ 3147 NONAME
 ?GetProfileStringA@CWinApp@@QEAA?AV?$CStringT@DV?$StrTraitMFC_DLL@DV?$ChTraitsCRT@D@ATL@@@@@ATL@@PEBD00@Z @ 3148 NONAME
 ?GetPropCheck@COlePropertyPage@@QEAAHPEBDPEAH@Z @ 3149 NONAME
 ?GetProperty@CHtmlView@@QEAA?AVCOleVariant@@PEBD@Z @ 3150 NONAME
 ?GetProperty@CHtmlView@@QEAAHPEBDAEAV?$CStringT@DV?$StrTraitMFC_DLL@DV?$ChTraitsCRT@D@ATL@@@@@ATL@@@Z @ 3151 NONAME
 ?GetProperty@COleControlSite@@UEBAXJGPEAX@Z @ 3152 NONAME
 ?GetProperty@COleDispatchDriver@@QEBAXJGPEAX@Z @ 3153 NONAME
 ?GetProperty@CPropertySection@@QEAAPEAVCProperty@@K@Z @ 3154 NONAME
 ?GetProperty@CPropertySet@@QEAAPEAVCProperty@@U_GUID@@K@Z @ 3155 NONAME
 ?GetProperty@CWnd@@QEBAXJGPEAX@Z @ 3156 NONAME
 ?GetPropIndex@COlePropertyPage@@QEAAHPEBDPEAH@Z @ 3157 NONAME
 ?GetPropPageIDs@COleControl@@MEAAPEAU_GUID@@AEAK@Z @ 3158 NONAME
 ?GetPropRadio@COlePropertyPage@@QEAAHPEBDPEAH@Z @ 3159 NONAME
 ?GetPropsetData@COleControl@@IEAAHPEAUtagFORMATETC@@PEAUtagSTGMEDIUM@@AEBU_GUID@@@Z @ 3160 NONAME
 ?GetPropText@COlePropertyPage@@QEAAHPEBDPEAE@Z @ 3161 NONAME
 ?GetPropText@COlePropertyPage@@QEAAHPEBDPEAF@Z @ 3162 NONAME
 ?GetPropText@COlePropertyPage@@QEAAHPEBDPEAH@Z @ 3163 NONAME
 ?GetPropText@COlePropertyPage@@QEAAHPEBDPEAI@Z @ 3164 NONAME
 ?GetPropText@COlePropertyPage@@QEAAHPEBDPEAJ@Z @ 3165 NONAME
 ?GetPropText@COlePropertyPage@@QEAAHPEBDPEAK@Z @ 3166 NONAME
 ?GetPropText@COlePropertyPage@@QEAAHPEBDPEAM@Z @ 3167 NONAME
 ?GetPropText@COlePropertyPage@@QEAAHPEBDPEAN@Z @ 3168 NONAME
 ?GetPropText@COlePropertyPage@@QEAAHPEBDPEAV?$CStringT@DV?$StrTraitMFC_DLL@DV?$ChTraitsCRT@D@ATL@@@@@ATL@@@Z @ 3169 NONAME
 ?GetPSP@CPropertyPage@@QEAAAEAU_PROPSHEETPAGEA@@XZ @ 3170 NONAME
 ?GetPSP@CPropertyPage@@QEBAAEBU_PROPSHEETPAGEA@@XZ @ 3171 NONAME
 ?GetRange@CDateTimeCtrl@@QEBAKPEAVCOleDateTime@ATL@@0@Z @ 3172 NONAME
 ?GetRange@CDateTimeCtrl@@QEBAKPEAVCTime@ATL@@0@Z @ 3173 NONAME
 ?GetRange@CMonthCalCtrl@@QEBAKPEAU_SYSTEMTIME@@0@Z @ 3174 NONAME
 ?GetRange@CMonthCalCtrl@@QEBAKPEAVCOleDateTime@ATL@@0@Z @ 3175 NONAME
 ?GetRange@CMonthCalCtrl@@QEBAKPEAVCTime@ATL@@0@Z @ 3176 NONAME
 ?GetRange@CProgressCtrl@@QEAAXAEAH0@Z @ 3177 NONAME
 ?GetRange@CSliderCtrl@@QEBAXAEAH0@Z @ 3178 NONAME
 ?GetRange@CSpinButtonCtrl@@QEBAXAEAH0@Z @ 3179 NONAME
 ?GetRawValue@CProperty@@QEAAPEAXXZ @ 3180 NONAME
 ?GetReadyState@CHtmlView@@QEBA?AW4tagREADYSTATE@@XZ @ 3181 NONAME
 ?GetReadyState@COleControl@@QEAAJXZ @ 3182 NONAME
 ?GetRect@XOleDocumentView@CDocObjectServer@@UEAAJPEAUtagRECT@@@Z @ 3183 NONAME
 ?GetRect@XViewObject@COleControl@@UEAAJKPEAU_RECTL@@@Z @ 3184 NONAME
 ?GetRectInContainer@COleControl@@QEAAHPEAUtagRECT@@@Z @ 3185 NONAME
 ?GetRegisterAsBrowser@CHtmlView@@QEBAHXZ @ 3186 NONAME
 ?GetRegisterAsDropTarget@CHtmlView@@QEBAHXZ @ 3187 NONAME
 ?GetRoot@CFileFind@@UEBA?AV?$CStringT@DV?$StrTraitMFC_DLL@DV?$ChTraitsCRT@D@ATL@@@@@ATL@@XZ @ 3188 NONAME
 ?GetRoot@CGopherFileFind@@UEBA?AV?$CStringT@DV?$StrTraitMFC_DLL@DV?$ChTraitsCRT@D@ATL@@@@@ATL@@XZ @ 3189 NONAME
 ?GetRoutingFrame@CCmdTarget@@IEAAPEAVCFrameWnd@@XZ @ 3190 NONAME
 ?GetRoutingFrame_@CCmdTarget@@KAPEAVCFrameWnd@@XZ @ 3191 NONAME
 ?GetRoutingView@CCmdTarget@@IEAAPEAVCView@@XZ @ 3192 NONAME
 ?GetRoutingView_@CCmdTarget@@KAPEAVCView@@XZ @ 3193 NONAME
 ?GetRowInfo@CSplitterWnd@@QEBAXHAEAH0@Z @ 3194 NONAME
 ?GetRuntimeClass@CAnimateCtrl@@UEBAPEAUCRuntimeClass@@XZ @ 3195 NONAME
 ?GetRuntimeClass@CArchiveException@@UEBAPEAUCRuntimeClass@@XZ @ 3196 NONAME
 ?GetRuntimeClass@CAsyncMonikerFile@@UEBAPEAUCRuntimeClass@@XZ @ 3197 NONAME
 ?GetRuntimeClass@CAsyncSocket@@UEBAPEAUCRuntimeClass@@XZ @ 3198 NONAME
 ?GetRuntimeClass@CBitmap@@UEBAPEAUCRuntimeClass@@XZ @ 3199 NONAME
 ?GetRuntimeClass@CBitmapButton@@UEBAPEAUCRuntimeClass@@XZ @ 3200 NONAME
 ?GetRuntimeClass@CBrush@@UEBAPEAUCRuntimeClass@@XZ @ 3201 NONAME
 ?GetRuntimeClass@CButton@@UEBAPEAUCRuntimeClass@@XZ @ 3202 NONAME
 ?GetRuntimeClass@CByteArray@@UEBAPEAUCRuntimeClass@@XZ @ 3203 NONAME
 ?GetRuntimeClass@CCachedDataPathProperty@@UEBAPEAUCRuntimeClass@@XZ @ 3204 NONAME
 ?GetRuntimeClass@CCheckListBox@@UEBAPEAUCRuntimeClass@@XZ @ 3205 NONAME
 ?GetRuntimeClass@CClientDC@@UEBAPEAUCRuntimeClass@@XZ @ 3206 NONAME
 ?GetRuntimeClass@CCmdTarget@@UEBAPEAUCRuntimeClass@@XZ @ 3207 NONAME
 ?GetRuntimeClass@CColorDialog@@UEBAPEAUCRuntimeClass@@XZ @ 3208 NONAME
 ?GetRuntimeClass@CComboBox@@UEBAPEAUCRuntimeClass@@XZ @ 3209 NONAME
 ?GetRuntimeClass@CComboBoxEx@@UEBAPEAUCRuntimeClass@@XZ @ 3210 NONAME
 ?GetRuntimeClass@CControlBar@@UEBAPEAUCRuntimeClass@@XZ @ 3211 NONAME
 ?GetRuntimeClass@CCriticalSection@@UEBAPEAUCRuntimeClass@@XZ @ 3212 NONAME
 ?GetRuntimeClass@CCtrlView@@UEBAPEAUCRuntimeClass@@XZ @ 3213 NONAME
 ?GetRuntimeClass@CDatabase@@UEBAPEAUCRuntimeClass@@XZ @ 3214 NONAME
 ?GetRuntimeClass@CDataPathProperty@@UEBAPEAUCRuntimeClass@@XZ @ 3215 NONAME
 ?GetRuntimeClass@CDateTimeCtrl@@UEBAPEAUCRuntimeClass@@XZ @ 3216 NONAME
 ?GetRuntimeClass@CDBException@@UEBAPEAUCRuntimeClass@@XZ @ 3217 NONAME
 ?GetRuntimeClass@CDC@@UEBAPEAUCRuntimeClass@@XZ @ 3218 NONAME
 ?GetRuntimeClass@CDHtmlDialog@@UEBAPEAUCRuntimeClass@@XZ @ 3219 NONAME
 ?GetRuntimeClass@CDialog@@UEBAPEAUCRuntimeClass@@XZ @ 3220 NONAME
 ?GetRuntimeClass@CDialogBar@@UEBAPEAUCRuntimeClass@@XZ @ 3221 NONAME
 ?GetRuntimeClass@CDocItem@@UEBAPEAUCRuntimeClass@@XZ @ 3222 NONAME
 ?GetRuntimeClass@CDockBar@@UEBAPEAUCRuntimeClass@@XZ @ 3223 NONAME
 ?GetRuntimeClass@CDockState@@UEBAPEAUCRuntimeClass@@XZ @ 3224 NONAME
 ?GetRuntimeClass@CDocManager@@UEBAPEAUCRuntimeClass@@XZ @ 3225 NONAME
 ?GetRuntimeClass@CDocObjectServer@@UEBAPEAUCRuntimeClass@@XZ @ 3226 NONAME
 ?GetRuntimeClass@CDocObjectServerItem@@UEBAPEAUCRuntimeClass@@XZ @ 3227 NONAME
 ?GetRuntimeClass@CDocTemplate@@UEBAPEAUCRuntimeClass@@XZ @ 3228 NONAME
 ?GetRuntimeClass@CDocument@@UEBAPEAUCRuntimeClass@@XZ @ 3229 NONAME
 ?GetRuntimeClass@CDragListBox@@UEBAPEAUCRuntimeClass@@XZ @ 3230 NONAME
 ?GetRuntimeClass@CDWordArray@@UEBAPEAUCRuntimeClass@@XZ @ 3231 NONAME
 ?GetRuntimeClass@CDynLinkLibrary@@UEBAPEAUCRuntimeClass@@XZ @ 3232 NONAME
 ?GetRuntimeClass@CEdit@@UEBAPEAUCRuntimeClass@@XZ @ 3233 NONAME
 ?GetRuntimeClass@CEditView@@UEBAPEAUCRuntimeClass@@XZ @ 3234 NONAME
 ?GetRuntimeClass@CEvent@@UEBAPEAUCRuntimeClass@@XZ @ 3235 NONAME
 ?GetRuntimeClass@CException@@UEBAPEAUCRuntimeClass@@XZ @ 3236 NONAME
 ?GetRuntimeClass@CFile@@UEBAPEAUCRuntimeClass@@XZ @ 3237 NONAME
 ?GetRuntimeClass@CFileDialog@@UEBAPEAUCRuntimeClass@@XZ @ 3238 NONAME
 ?GetRuntimeClass@CFileException@@UEBAPEAUCRuntimeClass@@XZ @ 3239 NONAME
 ?GetRuntimeClass@CFileFind@@UEBAPEAUCRuntimeClass@@XZ @ 3240 NONAME
 ?GetRuntimeClass@CFindReplaceDialog@@UEBAPEAUCRuntimeClass@@XZ @ 3241 NONAME
 ?GetRuntimeClass@CFont@@UEBAPEAUCRuntimeClass@@XZ @ 3242 NONAME
 ?GetRuntimeClass@CFontDialog@@UEBAPEAUCRuntimeClass@@XZ @ 3243 NONAME
 ?GetRuntimeClass@CFormView@@UEBAPEAUCRuntimeClass@@XZ @ 3244 NONAME
 ?GetRuntimeClass@CFrameWnd@@UEBAPEAUCRuntimeClass@@XZ @ 3245 NONAME
 ?GetRuntimeClass@CFtpConnection@@UEBAPEAUCRuntimeClass@@XZ @ 3246 NONAME
 ?GetRuntimeClass@CFtpFileFind@@UEBAPEAUCRuntimeClass@@XZ @ 3247 NONAME
 ?GetRuntimeClass@CGdiObject@@UEBAPEAUCRuntimeClass@@XZ @ 3248 NONAME
 ?GetRuntimeClass@CGopherConnection@@UEBAPEAUCRuntimeClass@@XZ @ 3249 NONAME
 ?GetRuntimeClass@CGopherFile@@UEBAPEAUCRuntimeClass@@XZ @ 3250 NONAME
 ?GetRuntimeClass@CGopherFileFind@@UEBAPEAUCRuntimeClass@@XZ @ 3251 NONAME
 ?GetRuntimeClass@CHeaderCtrl@@UEBAPEAUCRuntimeClass@@XZ @ 3252 NONAME
 ?GetRuntimeClass@CHotKeyCtrl@@UEBAPEAUCRuntimeClass@@XZ @ 3253 NONAME
 ?GetRuntimeClass@CHtmlEditDoc@@UEBAPEAUCRuntimeClass@@XZ @ 3254 NONAME
 ?GetRuntimeClass@CHtmlEditView@@UEBAPEAUCRuntimeClass@@XZ @ 3255 NONAME
 ?GetRuntimeClass@CHtmlView@@UEBAPEAUCRuntimeClass@@XZ @ 3256 NONAME
 ?GetRuntimeClass@CHttpConnection@@UEBAPEAUCRuntimeClass@@XZ @ 3257 NONAME
 ?GetRuntimeClass@CHttpFile@@UEBAPEAUCRuntimeClass@@XZ @ 3258 NONAME
 ?GetRuntimeClass@CImageList@@UEBAPEAUCRuntimeClass@@XZ @ 3259 NONAME
 ?GetRuntimeClass@CInternetConnection@@UEBAPEAUCRuntimeClass@@XZ @ 3260 NONAME
 ?GetRuntimeClass@CInternetException@@UEBAPEAUCRuntimeClass@@XZ @ 3261 NONAME
 ?GetRuntimeClass@CInternetFile@@UEBAPEAUCRuntimeClass@@XZ @ 3262 NONAME
 ?GetRuntimeClass@CInternetSession@@UEBAPEAUCRuntimeClass@@XZ @ 3263 NONAME
 ?GetRuntimeClass@CInvalidArgException@@UEBAPEAUCRuntimeClass@@XZ @ 3264 NONAME
 ?GetRuntimeClass@CIPAddressCtrl@@UEBAPEAUCRuntimeClass@@XZ @ 3265 NONAME
 ?GetRuntimeClass@CLinkCtrl@@UEBAPEAUCRuntimeClass@@XZ @ 3266 NONAME
 ?GetRuntimeClass@CListBox@@UEBAPEAUCRuntimeClass@@XZ @ 3267 NONAME
 ?GetRuntimeClass@CListCtrl@@UEBAPEAUCRuntimeClass@@XZ @ 3268 NONAME
 ?GetRuntimeClass@CListView@@UEBAPEAUCRuntimeClass@@XZ @ 3269 NONAME
 ?GetRuntimeClass@CLongBinary@@UEBAPEAUCRuntimeClass@@XZ @ 3270 NONAME
 ?GetRuntimeClass@CMapPtrToPtr@@UEBAPEAUCRuntimeClass@@XZ @ 3271 NONAME
 ?GetRuntimeClass@CMapPtrToWord@@UEBAPEAUCRuntimeClass@@XZ @ 3272 NONAME
 ?GetRuntimeClass@CMapStringToOb@@UEBAPEAUCRuntimeClass@@XZ @ 3273 NONAME
 ?GetRuntimeClass@CMapStringToPtr@@UEBAPEAUCRuntimeClass@@XZ @ 3274 NONAME
 ?GetRuntimeClass@CMapStringToString@@UEBAPEAUCRuntimeClass@@XZ @ 3275 NONAME
 ?GetRuntimeClass@CMapWordToOb@@UEBAPEAUCRuntimeClass@@XZ @ 3276 NONAME
 ?GetRuntimeClass@CMapWordToPtr@@UEBAPEAUCRuntimeClass@@XZ @ 3277 NONAME
 ?GetRuntimeClass@CMDIChildWnd@@UEBAPEAUCRuntimeClass@@XZ @ 3278 NONAME
 ?GetRuntimeClass@CMDIFrameWnd@@UEBAPEAUCRuntimeClass@@XZ @ 3279 NONAME
 ?GetRuntimeClass@CMemFile@@UEBAPEAUCRuntimeClass@@XZ @ 3280 NONAME
 ?GetRuntimeClass@CMemoryException@@UEBAPEAUCRuntimeClass@@XZ @ 3281 NONAME
 ?GetRuntimeClass@CMenu@@UEBAPEAUCRuntimeClass@@XZ @ 3282 NONAME
 ?GetRuntimeClass@CMetaFileDC@@UEBAPEAUCRuntimeClass@@XZ @ 3283 NONAME
 ?GetRuntimeClass@CMiniDockFrameWnd@@UEBAPEAUCRuntimeClass@@XZ @ 3284 NONAME
 ?GetRuntimeClass@CMiniFrameWnd@@UEBAPEAUCRuntimeClass@@XZ @ 3285 NONAME
 ?GetRuntimeClass@CMonikerFile@@UEBAPEAUCRuntimeClass@@XZ @ 3286 NONAME
 ?GetRuntimeClass@CMonthCalCtrl@@UEBAPEAUCRuntimeClass@@XZ @ 3287 NONAME
 ?GetRuntimeClass@CMultiDocTemplate@@UEBAPEAUCRuntimeClass@@XZ @ 3288 NONAME
 ?GetRuntimeClass@CMultiPageDHtmlDialog@@UEBAPEAUCRuntimeClass@@XZ @ 3289 NONAME
 ?GetRuntimeClass@CMutex@@UEBAPEAUCRuntimeClass@@XZ @ 3290 NONAME
 ?GetRuntimeClass@CNotSupportedException@@UEBAPEAUCRuntimeClass@@XZ @ 3291 NONAME
 ?GetRuntimeClass@CObArray@@UEBAPEAUCRuntimeClass@@XZ @ 3292 NONAME
 ?GetRuntimeClass@CObject@@UEBAPEAUCRuntimeClass@@XZ @ 3293 NONAME
 ?GetRuntimeClass@CObList@@UEBAPEAUCRuntimeClass@@XZ @ 3294 NONAME
 ?GetRuntimeClass@COleBusyDialog@@UEBAPEAUCRuntimeClass@@XZ @ 3295 NONAME
 ?GetRuntimeClass@COleChangeIconDialog@@UEBAPEAUCRuntimeClass@@XZ @ 3296 NONAME
 ?GetRuntimeClass@COleChangeSourceDialog@@UEBAPEAUCRuntimeClass@@XZ @ 3297 NONAME
 ?GetRuntimeClass@COleClientItem@@UEBAPEAUCRuntimeClass@@XZ @ 3298 NONAME
 ?GetRuntimeClass@COleControl@@UEBAPEAUCRuntimeClass@@XZ @ 3299 NONAME
 ?GetRuntimeClass@COleControlModule@@UEBAPEAUCRuntimeClass@@XZ @ 3300 NONAME
 ?GetRuntimeClass@COleConvertDialog@@UEBAPEAUCRuntimeClass@@XZ @ 3301 NONAME
 ?GetRuntimeClass@COleDBRecordView@@UEBAPEAUCRuntimeClass@@XZ @ 3302 NONAME
 ?GetRuntimeClass@COleDialog@@UEBAPEAUCRuntimeClass@@XZ @ 3303 NONAME
 ?GetRuntimeClass@COleDispatchException@@UEBAPEAUCRuntimeClass@@XZ @ 3304 NONAME
 ?GetRuntimeClass@COleDocIPFrameWnd@@UEBAPEAUCRuntimeClass@@XZ @ 3305 NONAME
 ?GetRuntimeClass@COleDocObjectItem@@UEBAPEAUCRuntimeClass@@XZ @ 3306 NONAME
 ?GetRuntimeClass@COleDocument@@UEBAPEAUCRuntimeClass@@XZ @ 3307 NONAME
 ?GetRuntimeClass@COleException@@UEBAPEAUCRuntimeClass@@XZ @ 3308 NONAME
 ?GetRuntimeClass@COleInsertDialog@@UEBAPEAUCRuntimeClass@@XZ @ 3309 NONAME
 ?GetRuntimeClass@COleIPFrameWnd@@UEBAPEAUCRuntimeClass@@XZ @ 3310 NONAME
 ?GetRuntimeClass@COleLinkingDoc@@UEBAPEAUCRuntimeClass@@XZ @ 3311 NONAME
 ?GetRuntimeClass@COleLinksDialog@@UEBAPEAUCRuntimeClass@@XZ @ 3312 NONAME
 ?GetRuntimeClass@COleObjectFactory@@UEBAPEAUCRuntimeClass@@XZ @ 3313 NONAME
 ?GetRuntimeClass@COlePasteSpecialDialog@@UEBAPEAUCRuntimeClass@@XZ @ 3314 NONAME
 ?GetRuntimeClass@COlePropertiesDialog@@UEBAPEAUCRuntimeClass@@XZ @ 3315 NONAME
 ?GetRuntimeClass@COlePropertyPage@@UEBAPEAUCRuntimeClass@@XZ @ 3316 NONAME
 ?GetRuntimeClass@COleResizeBar@@UEBAPEAUCRuntimeClass@@XZ @ 3317 NONAME
 ?GetRuntimeClass@COleServerDoc@@UEBAPEAUCRuntimeClass@@XZ @ 3318 NONAME
 ?GetRuntimeClass@COleServerItem@@UEBAPEAUCRuntimeClass@@XZ @ 3319 NONAME
 ?GetRuntimeClass@COleStreamFile@@UEBAPEAUCRuntimeClass@@XZ @ 3320 NONAME
 ?GetRuntimeClass@COleUpdateDialog@@UEBAPEAUCRuntimeClass@@XZ @ 3321 NONAME
 ?GetRuntimeClass@CPageSetupDialog@@UEBAPEAUCRuntimeClass@@XZ @ 3322 NONAME
 ?GetRuntimeClass@CPaintDC@@UEBAPEAUCRuntimeClass@@XZ @ 3323 NONAME
 ?GetRuntimeClass@CPalette@@UEBAPEAUCRuntimeClass@@XZ @ 3324 NONAME
 ?GetRuntimeClass@CPen@@UEBAPEAUCRuntimeClass@@XZ @ 3325 NONAME
 ?GetRuntimeClass@CPreviewDC@@UEBAPEAUCRuntimeClass@@XZ @ 3326 NONAME
 ?GetRuntimeClass@CPreviewView@@UEBAPEAUCRuntimeClass@@XZ @ 3327 NONAME
 ?GetRuntimeClass@CPrintDialog@@UEBAPEAUCRuntimeClass@@XZ @ 3328 NONAME
 ?GetRuntimeClass@CPrintDialogEx@@UEBAPEAUCRuntimeClass@@XZ @ 3329 NONAME
 ?GetRuntimeClass@CProgressCtrl@@UEBAPEAUCRuntimeClass@@XZ @ 3330 NONAME
 ?GetRuntimeClass@CPropertyPage@@UEBAPEAUCRuntimeClass@@XZ @ 3331 NONAME
 ?GetRuntimeClass@CPropertySheet@@UEBAPEAUCRuntimeClass@@XZ @ 3332 NONAME
 ?GetRuntimeClass@CPtrArray@@UEBAPEAUCRuntimeClass@@XZ @ 3333 NONAME
 ?GetRuntimeClass@CPtrList@@UEBAPEAUCRuntimeClass@@XZ @ 3334 NONAME
 ?GetRuntimeClass@CReBar@@UEBAPEAUCRuntimeClass@@XZ @ 3335 NONAME
 ?GetRuntimeClass@CReBarCtrl@@UEBAPEAUCRuntimeClass@@XZ @ 3336 NONAME
 ?GetRuntimeClass@CRecordset@@UEBAPEAUCRuntimeClass@@XZ @ 3337 NONAME
 ?GetRuntimeClass@CRecordView@@UEBAPEAUCRuntimeClass@@XZ @ 3338 NONAME
 ?GetRuntimeClass@CResourceException@@UEBAPEAUCRuntimeClass@@XZ @ 3339 NONAME
 ?GetRuntimeClass@CRgn@@UEBAPEAUCRuntimeClass@@XZ @ 3340 NONAME
 ?GetRuntimeClass@CRichEditCntrItem@@UEBAPEAUCRuntimeClass@@XZ @ 3341 NONAME
 ?GetRuntimeClass@CRichEditCtrl@@UEBAPEAUCRuntimeClass@@XZ @ 3342 NONAME
 ?GetRuntimeClass@CRichEditDoc@@UEBAPEAUCRuntimeClass@@XZ @ 3343 NONAME
 ?GetRuntimeClass@CRichEditView@@UEBAPEAUCRuntimeClass@@XZ @ 3344 NONAME
 ?GetRuntimeClass@CScrollBar@@UEBAPEAUCRuntimeClass@@XZ @ 3345 NONAME
 ?GetRuntimeClass@CScrollView@@UEBAPEAUCRuntimeClass@@XZ @ 3346 NONAME
 ?GetRuntimeClass@CSemaphore@@UEBAPEAUCRuntimeClass@@XZ @ 3347 NONAME
 ?GetRuntimeClass@CSharedFile@@UEBAPEAUCRuntimeClass@@XZ @ 3348 NONAME
 ?GetRuntimeClass@CSingleDocTemplate@@UEBAPEAUCRuntimeClass@@XZ @ 3349 NONAME
 ?GetRuntimeClass@CSliderCtrl@@UEBAPEAUCRuntimeClass@@XZ @ 3350 NONAME
 ?GetRuntimeClass@CSocket@@UEBAPEAUCRuntimeClass@@XZ @ 3351 NONAME
 ?GetRuntimeClass@CSocketFile@@UEBAPEAUCRuntimeClass@@XZ @ 3352 NONAME
 ?GetRuntimeClass@CSpinButtonCtrl@@UEBAPEAUCRuntimeClass@@XZ @ 3353 NONAME
 ?GetRuntimeClass@CSplitterWnd@@UEBAPEAUCRuntimeClass@@XZ @ 3354 NONAME
 ?GetRuntimeClass@CStatic@@UEBAPEAUCRuntimeClass@@XZ @ 3355 NONAME
 ?GetRuntimeClass@CStatusBar@@UEBAPEAUCRuntimeClass@@XZ @ 3356 NONAME
 ?GetRuntimeClass@CStatusBarCtrl@@UEBAPEAUCRuntimeClass@@XZ @ 3357 NONAME
 ?GetRuntimeClass@CStdioFile@@UEBAPEAUCRuntimeClass@@XZ @ 3358 NONAME
 ?GetRuntimeClass@CStringArray@@UEBAPEAUCRuntimeClass@@XZ @ 3359 NONAME
 ?GetRuntimeClass@CStringList@@UEBAPEAUCRuntimeClass@@XZ @ 3360 NONAME
 ?GetRuntimeClass@CSyncObject@@UEBAPEAUCRuntimeClass@@XZ @ 3361 NONAME
 ?GetRuntimeClass@CTabCtrl@@UEBAPEAUCRuntimeClass@@XZ @ 3362 NONAME
 ?GetRuntimeClass@CToolBar@@UEBAPEAUCRuntimeClass@@XZ @ 3363 NONAME
 ?GetRuntimeClass@CToolBarCtrl@@UEBAPEAUCRuntimeClass@@XZ @ 3364 NONAME
 ?GetRuntimeClass@CToolTipCtrl@@UEBAPEAUCRuntimeClass@@XZ @ 3365 NONAME
 ?GetRuntimeClass@CTreeCtrl@@UEBAPEAUCRuntimeClass@@XZ @ 3366 NONAME
 ?GetRuntimeClass@CTreeView@@UEBAPEAUCRuntimeClass@@XZ @ 3367 NONAME
 ?GetRuntimeClass@CUIntArray@@UEBAPEAUCRuntimeClass@@XZ @ 3368 NONAME
 ?GetRuntimeClass@CUserException@@UEBAPEAUCRuntimeClass@@XZ @ 3369 NONAME
 ?GetRuntimeClass@CView@@UEBAPEAUCRuntimeClass@@XZ @ 3370 NONAME
 ?GetRuntimeClass@CWinApp@@UEBAPEAUCRuntimeClass@@XZ @ 3371 NONAME
 ?GetRuntimeClass@CWindowDC@@UEBAPEAUCRuntimeClass@@XZ @ 3372 NONAME
 ?GetRuntimeClass@CWindowlessDC@@UEBAPEAUCRuntimeClass@@XZ @ 3373 NONAME
 ?GetRuntimeClass@CWinThread@@UEBAPEAUCRuntimeClass@@XZ @ 3374 NONAME
 ?GetRuntimeClass@CWnd@@UEBAPEAUCRuntimeClass@@XZ @ 3375 NONAME
 ?GetRuntimeClass@CWordArray@@UEBAPEAUCRuntimeClass@@XZ @ 3376 NONAME
 ?GetSafeOwner@CWnd@@SAPEAV1@PEAV1@PEAPEAUHWND__@@@Z @ 3377 NONAME
 ?GetSafeOwner_@CWnd@@SAPEAUHWND__@@PEAU2@PEAPEAU2@@Z @ 3378 NONAME
 ?GetSavedCustomColors@CColorDialog@@SAPEAKXZ @ 3379 NONAME
 ?GetScreenName@CGopherFileFind@@QEBA?AV?$CStringT@DV?$StrTraitMFC_DLL@DV?$ChTraitsCRT@D@ATL@@@@@ATL@@XZ @ 3380 NONAME
 ?GetScreenSize@CDockState@@QEAA?AVCSize@@XZ @ 3381 NONAME
 ?GetScrollBarCtrl@CView@@UEBAPEAVCScrollBar@@H@Z @ 3382 NONAME
 ?GetScrollBarCtrl@CWnd@@UEBAPEAVCScrollBar@@H@Z @ 3383 NONAME
 ?GetScrollBarSizes@CScrollView@@IEAAXAEAVCSize@@@Z @ 3384 NONAME
 ?GetScrollBarState@CScrollView@@IEAAXVCSize@@AEAV2@1AEAVCPoint@@H@Z @ 3385 NONAME
 ?GetScrollInfo@CWnd@@QEAAHHPEAUtagSCROLLINFO@@I@Z @ 3386 NONAME
 ?GetScrollLimit@CWnd@@QEAAHH@Z @ 3387 NONAME
 ?GetScrollPos@CWnd@@QEBAHH@Z @ 3388 NONAME
 ?GetScrollPosition@CScrollView@@QEBA?AVCPoint@@XZ @ 3389 NONAME
 ?GetScrollRange@CWnd@@QEBAXHPEAH0@Z @ 3390 NONAME
 ?GetScrollStyle@CSplitterWnd@@QEBAKXZ @ 3391 NONAME
 ?GetSection@CPropertySet@@QEAAPEAVCPropertySection@@U_GUID@@@Z @ 3392 NONAME
 ?GetSectionKey@CWinApp@@QEAAPEAUHKEY__@@PEBD@Z @ 3393 NONAME
 ?GetSectionName@CPropertySection@@QEAAPEBDXZ @ 3394 NONAME
 ?GetSel@CRichEditCtrl@@QEBAXAEAJ0@Z @ 3395 NONAME
 ?GetSelectedItem@CRichEditView@@QEBAPEAVCRichEditCntrItem@@XZ @ 3396 NONAME
 ?GetSelectedText@CEditView@@QEBAXAEAV?$CStringT@DV?$StrTraitMFC_DLL@DV?$ChTraitsCRT@D@ATL@@@@@ATL@@@Z @ 3397 NONAME
 ?GetSelection@CSliderCtrl@@QEBAXAEAH0@Z @ 3398 NONAME
 ?GetSelectionCharFormat@CRichEditCtrl@@QEBAKAEAU_charformat@@@Z @ 3399 NONAME
 ?GetSelectionCharFormat@CRichEditCtrl@@QEBAKAEAUCHARFORMAT2A@@@Z @ 3400 NONAME
 ?GetSelectionType@COleConvertDialog@@QEBAIXZ @ 3401 NONAME
 ?GetSelectionType@COleInsertDialog@@QEBAIXZ @ 3402 NONAME
 ?GetSelectionType@COlePasteSpecialDialog@@QEBAIXZ @ 3403 NONAME
 ?GetSelRange@CMonthCalCtrl@@QEBAHAEAVCOleDateTime@ATL@@0@Z @ 3404 NONAME
 ?GetSelRange@CMonthCalCtrl@@QEBAHAEAVCTime@ATL@@0@Z @ 3405 NONAME
 ?GetSelRange@CMonthCalCtrl@@QEBAHPEAU_SYSTEMTIME@@0@Z @ 3406 NONAME
 ?GetSelText@CRichEditCtrl@@QEBA?AV?$CStringT@DV?$StrTraitMFC_DLL@DV?$ChTraitsCRT@D@ATL@@@@@ATL@@XZ @ 3407 NONAME
 ?GetSilent@CHtmlView@@QEBAHXZ @ 3408 NONAME
 ?GetSite@CPrintDialogEx@@UEAAJAEBU_GUID@@PEAPEAX@Z @ 3409 NONAME
 ?GetSize@CPropertySection@@QEAAKXZ @ 3410 NONAME
 ?GetSizeInDialogUnits@CDialogTemplate@@QEBAXPEAUtagSIZE@@@Z @ 3411 NONAME
 ?GetSizeInPixels@CDialogTemplate@@QEBAXPEAUtagSIZE@@@Z @ 3412 NONAME
 ?GetSizeMax@CBlobProperty@@UEAAJPEAT_ULARGE_INTEGER@@@Z @ 3413 NONAME
 ?GetSizeMax@XPersistMemory@COleControl@@UEAAJPEAK@Z @ 3414 NONAME
 ?GetSizeMax@XPersistStreamInit@COleControl@@UEAAJPEAT_ULARGE_INTEGER@@@Z @ 3415 NONAME
 ?GetSizingParent@CSplitterWnd@@IEAAPEAVCWnd@@XZ @ 3416 NONAME
 ?GetSockName@CAsyncSocket@@QEAAHAEAV?$CStringT@DV?$StrTraitMFC_DLL@DV?$ChTraitsCRT@D@ATL@@@@@ATL@@AEAI@Z @ 3417 NONAME
 ?GetSource@CHtmlView@@QEAAHAEAV?$CStringT@DV?$StrTraitMFC_DLL@DV?$ChTraitsCRT@D@ATL@@@@@ATL@@@Z @ 3418 NONAME
 ?GetStackSize@CCmdTarget@@KAIPEBEG@Z @ 3419 NONAME
 ?GetStandardProp@CCmdTarget@@IEAAXPEBUAFX_DISPMAP_ENTRY@@PEAUtagVARIANT@@PEAI@Z @ 3420 NONAME
 ?GetStartDocument@CHtmlEditCtrl@@UEAAPEBDXZ @ 3421 NONAME
 ?GetStartDocument@CHtmlEditView@@UEAAPEBDXZ @ 3422 NONAME
 ?GetStartPosition@CConnectionPoint@@QEBAPEAU__POSITION@@XZ @ 3423 NONAME
 ?GetStartPosition@COleDocument@@UEBAPEAU__POSITION@@XZ @ 3424 NONAME
 ?GetStartPosition@CRichEditDoc@@UEBAPEAU__POSITION@@XZ @ 3425 NONAME
 ?GetStatus@CFile@@QEBAHAEAUCFileStatus@@@Z @ 3426 NONAME
 ?GetStatus@CFile@@SAHPEBDAEAUCFileStatus@@@Z @ 3427 NONAME
 ?GetStatus@CMemFile@@QEBAHAEAUCFileStatus@@@Z @ 3428 NONAME
 ?GetStatus@COleStreamFile@@QEBAHAEAUCFileStatus@@@Z @ 3429 NONAME
 ?GetStatusBar@CHtmlView@@QEBAHXZ @ 3430 NONAME
 ?GetStockTextMetrics@COleControl@@QEAAXPEAUtagTEXTMETRICA@@@Z @ 3431 NONAME
 ?GetStorageName@COleStreamFile@@UEBA?BV?$CStringT@DV?$StrTraitMFC_DLL@DV?$ChTraitsCRT@D@ATL@@@@@ATL@@XZ @ 3432 NONAME
 ?GetStream@COleStreamFile@@QEBAPEAUIStream@@XZ @ 3433 NONAME
 ?GetString@?$CSimpleStringT@_W$00@ATL@@QEBAPEB_WXZ @ 3434 NONAME
 ?GetString@?$CSimpleStringT@D$00@ATL@@QEBAPEBDXZ @ 3435 NONAME
 ?GetString@CToolBarCtrl@@QEBAHHAEAV?$CStringT@DV?$StrTraitMFC_DLL@DV?$ChTraitsCRT@D@ATL@@@@@ATL@@@Z @ 3436 NONAME
 ?GetStyle@COleControlSite@@UEBAKXZ @ 3437 NONAME
 ?GetStyle@COleControlSiteOrWnd@@QEBAKXZ @ 3438 NONAME
 ?GetStyle@CWnd@@QEBAKXZ @ 3439 NONAME
 ?GetSubItemRect@CListCtrl@@QEAAHHHHAEAVCRect@@@Z @ 3440 NONAME
 ?GetSuperWndProcAddr@CWnd@@MEAAPEAP6A_JPEAUHWND__@@I_K_J@ZXZ @ 3441 NONAME
 ?GetSysPolicyValue@CWinApp@@QEAAHKPEAH@Z @ 3442 NONAME
 ?GetTemplateSize@CDialogTemplate@@KAIPEBUDLGTEMPLATE@@@Z @ 3443 NONAME
 ?GetText@CListBox@@QEBAXHAEAV?$CStringT@DV?$StrTraitMFC_DLL@DV?$ChTraitsCRT@D@ATL@@@@@ATL@@@Z @ 3444 NONAME
 ?GetText@COleControl@@QEAAPEA_WXZ @ 3445 NONAME
 ?GetText@CStatusBarCtrl@@QEBA?AV?$CStringT@DV?$StrTraitMFC_DLL@DV?$ChTraitsCRT@D@ATL@@@@@ATL@@HPEAH@Z @ 3446 NONAME
 ?GetText@CStatusBarCtrl@@QEBAHPEADHPEAH@Z @ 3447 NONAME
 ?GetText@CToolTipCtrl@@QEBAXAEAV?$CStringT@DV?$StrTraitMFC_DLL@DV?$ChTraitsCRT@D@ATL@@@@@ATL@@PEAVCWnd@@_K@Z @ 3448 NONAME
 ?GetTextLen@CRecordset@@SA_JF_K@Z @ 3449 NONAME
 ?GetTextLength@CStatusBarCtrl@@QEBAHHPEAH@Z @ 3450 NONAME
 ?GetTextLengthEx@CRichEditCtrl@@QEBAJKI@Z @ 3451 NONAME
 ?GetTextRange@CRichEditCtrl@@QEBAHHHAEAV?$CStringT@DV?$StrTraitMFC_DLL@DV?$ChTraitsCRT@D@ATL@@@@@ATL@@@Z @ 3452 NONAME
 ?GetTheaterMode@CHtmlView@@QEBAHXZ @ 3453 NONAME
 ?GetThisClass@CAnimateCtrl@@SAPEAUCRuntimeClass@@XZ @ 3454 NONAME
 ?GetThisClass@CArchiveException@@SAPEAUCRuntimeClass@@XZ @ 3455 NONAME
 ?GetThisClass@CAsyncMonikerFile@@SAPEAUCRuntimeClass@@XZ @ 3456 NONAME
 ?GetThisClass@CAsyncSocket@@SAPEAUCRuntimeClass@@XZ @ 3457 NONAME
 ?GetThisClass@CBitmap@@SAPEAUCRuntimeClass@@XZ @ 3458 NONAME
 ?GetThisClass@CBitmapButton@@SAPEAUCRuntimeClass@@XZ @ 3459 NONAME
 ?GetThisClass@CBrush@@SAPEAUCRuntimeClass@@XZ @ 3460 NONAME
 ?GetThisClass@CButton@@SAPEAUCRuntimeClass@@XZ @ 3461 NONAME
 ?GetThisClass@CByteArray@@SAPEAUCRuntimeClass@@XZ @ 3462 NONAME
 ?GetThisClass@CCachedDataPathProperty@@SAPEAUCRuntimeClass@@XZ @ 3463 NONAME
 ?GetThisClass@CCheckListBox@@SAPEAUCRuntimeClass@@XZ @ 3464 NONAME
 ?GetThisClass@CClientDC@@SAPEAUCRuntimeClass@@XZ @ 3465 NONAME
 ?GetThisClass@CCmdTarget@@SAPEAUCRuntimeClass@@XZ @ 3466 NONAME
 ?GetThisClass@CColorDialog@@SAPEAUCRuntimeClass@@XZ @ 3467 NONAME
 ?GetThisClass@CComboBox@@SAPEAUCRuntimeClass@@XZ @ 3468 NONAME
 ?GetThisClass@CComboBoxEx@@SAPEAUCRuntimeClass@@XZ @ 3469 NONAME
 ?GetThisClass@CControlBar@@SAPEAUCRuntimeClass@@XZ @ 3470 NONAME
 ?GetThisClass@CCriticalSection@@SAPEAUCRuntimeClass@@XZ @ 3471 NONAME
 ?GetThisClass@CCtrlView@@SAPEAUCRuntimeClass@@XZ @ 3472 NONAME
 ?GetThisClass@CDatabase@@SAPEAUCRuntimeClass@@XZ @ 3473 NONAME
 ?GetThisClass@CDataPathProperty@@SAPEAUCRuntimeClass@@XZ @ 3474 NONAME
 ?GetThisClass@CDateTimeCtrl@@SAPEAUCRuntimeClass@@XZ @ 3475 NONAME
 ?GetThisClass@CDBException@@SAPEAUCRuntimeClass@@XZ @ 3476 NONAME
 ?GetThisClass@CDC@@SAPEAUCRuntimeClass@@XZ @ 3477 NONAME
 ?GetThisClass@CDHtmlDialog@@SAPEAUCRuntimeClass@@XZ @ 3478 NONAME
 ?GetThisClass@CDialog@@SAPEAUCRuntimeClass@@XZ @ 3479 NONAME
 ?GetThisClass@CDialogBar@@SAPEAUCRuntimeClass@@XZ @ 3480 NONAME
 ?GetThisClass@CDocItem@@SAPEAUCRuntimeClass@@XZ @ 3481 NONAME
 ?GetThisClass@CDockBar@@SAPEAUCRuntimeClass@@XZ @ 3482 NONAME
 ?GetThisClass@CDockState@@SAPEAUCRuntimeClass@@XZ @ 3483 NONAME
 ?GetThisClass@CDocManager@@SAPEAUCRuntimeClass@@XZ @ 3484 NONAME
 ?GetThisClass@CDocObjectServer@@SAPEAUCRuntimeClass@@XZ @ 3485 NONAME
 ?GetThisClass@CDocObjectServerItem@@SAPEAUCRuntimeClass@@XZ @ 3486 NONAME
 ?GetThisClass@CDocTemplate@@SAPEAUCRuntimeClass@@XZ @ 3487 NONAME
 ?GetThisClass@CDocument@@SAPEAUCRuntimeClass@@XZ @ 3488 NONAME
 ?GetThisClass@CDragListBox@@SAPEAUCRuntimeClass@@XZ @ 3489 NONAME
 ?GetThisClass@CDWordArray@@SAPEAUCRuntimeClass@@XZ @ 3490 NONAME
 ?GetThisClass@CDynLinkLibrary@@SAPEAUCRuntimeClass@@XZ @ 3491 NONAME
 ?GetThisClass@CEdit@@SAPEAUCRuntimeClass@@XZ @ 3492 NONAME
 ?GetThisClass@CEditView@@SAPEAUCRuntimeClass@@XZ @ 3493 NONAME
 ?GetThisClass@CEvent@@SAPEAUCRuntimeClass@@XZ @ 3494 NONAME
 ?GetThisClass@CException@@SAPEAUCRuntimeClass@@XZ @ 3495 NONAME
 ?GetThisClass@CFile@@SAPEAUCRuntimeClass@@XZ @ 3496 NONAME
 ?GetThisClass@CFileDialog@@SAPEAUCRuntimeClass@@XZ @ 3497 NONAME
 ?GetThisClass@CFileException@@SAPEAUCRuntimeClass@@XZ @ 3498 NONAME
 ?GetThisClass@CFileFind@@SAPEAUCRuntimeClass@@XZ @ 3499 NONAME
 ?GetThisClass@CFindReplaceDialog@@SAPEAUCRuntimeClass@@XZ @ 3500 NONAME
 ?GetThisClass@CFont@@SAPEAUCRuntimeClass@@XZ @ 3501 NONAME
 ?GetThisClass@CFontDialog@@SAPEAUCRuntimeClass@@XZ @ 3502 NONAME
 ?GetThisClass@CFormView@@SAPEAUCRuntimeClass@@XZ @ 3503 NONAME
 ?GetThisClass@CFrameWnd@@SAPEAUCRuntimeClass@@XZ @ 3504 NONAME
 ?GetThisClass@CFtpConnection@@SAPEAUCRuntimeClass@@XZ @ 3505 NONAME
 ?GetThisClass@CFtpFileFind@@SAPEAUCRuntimeClass@@XZ @ 3506 NONAME
 ?GetThisClass@CGdiObject@@SAPEAUCRuntimeClass@@XZ @ 3507 NONAME
 ?GetThisClass@CGopherConnection@@SAPEAUCRuntimeClass@@XZ @ 3508 NONAME
 ?GetThisClass@CGopherFile@@SAPEAUCRuntimeClass@@XZ @ 3509 NONAME
 ?GetThisClass@CGopherFileFind@@SAPEAUCRuntimeClass@@XZ @ 3510 NONAME
 ?GetThisClass@CHeaderCtrl@@SAPEAUCRuntimeClass@@XZ @ 3511 NONAME
 ?GetThisClass@CHotKeyCtrl@@SAPEAUCRuntimeClass@@XZ @ 3512 NONAME
 ?GetThisClass@CHtmlEditDoc@@SAPEAUCRuntimeClass@@XZ @ 3513 NONAME
 ?GetThisClass@CHtmlEditView@@SAPEAUCRuntimeClass@@XZ @ 3514 NONAME
 ?GetThisClass@CHtmlView@@SAPEAUCRuntimeClass@@XZ @ 3515 NONAME
 ?GetThisClass@CHttpConnection@@SAPEAUCRuntimeClass@@XZ @ 3516 NONAME
 ?GetThisClass@CHttpFile@@SAPEAUCRuntimeClass@@XZ @ 3517 NONAME
 ?GetThisClass@CImageList@@SAPEAUCRuntimeClass@@XZ @ 3518 NONAME
 ?GetThisClass@CInternetConnection@@SAPEAUCRuntimeClass@@XZ @ 3519 NONAME
 ?GetThisClass@CInternetException@@SAPEAUCRuntimeClass@@XZ @ 3520 NONAME
 ?GetThisClass@CInternetFile@@SAPEAUCRuntimeClass@@XZ @ 3521 NONAME
 ?GetThisClass@CInternetSession@@SAPEAUCRuntimeClass@@XZ @ 3522 NONAME
 ?GetThisClass@CInvalidArgException@@SAPEAUCRuntimeClass@@XZ @ 3523 NONAME
 ?GetThisClass@CIPAddressCtrl@@SAPEAUCRuntimeClass@@XZ @ 3524 NONAME
 ?GetThisClass@CLinkCtrl@@SAPEAUCRuntimeClass@@XZ @ 3525 NONAME
 ?GetThisClass@CListBox@@SAPEAUCRuntimeClass@@XZ @ 3526 NONAME
 ?GetThisClass@CListCtrl@@SAPEAUCRuntimeClass@@XZ @ 3527 NONAME
 ?GetThisClass@CListView@@SAPEAUCRuntimeClass@@XZ @ 3528 NONAME
 ?GetThisClass@CLongBinary@@SAPEAUCRuntimeClass@@XZ @ 3529 NONAME
 ?GetThisClass@CMapPtrToPtr@@SAPEAUCRuntimeClass@@XZ @ 3530 NONAME
 ?GetThisClass@CMapPtrToWord@@SAPEAUCRuntimeClass@@XZ @ 3531 NONAME
 ?GetThisClass@CMapStringToOb@@SAPEAUCRuntimeClass@@XZ @ 3532 NONAME
 ?GetThisClass@CMapStringToPtr@@SAPEAUCRuntimeClass@@XZ @ 3533 NONAME
 ?GetThisClass@CMapStringToString@@SAPEAUCRuntimeClass@@XZ @ 3534 NONAME
 ?GetThisClass@CMapWordToOb@@SAPEAUCRuntimeClass@@XZ @ 3535 NONAME
 ?GetThisClass@CMapWordToPtr@@SAPEAUCRuntimeClass@@XZ @ 3536 NONAME
 ?GetThisClass@CMDIChildWnd@@SAPEAUCRuntimeClass@@XZ @ 3537 NONAME
 ?GetThisClass@CMDIFrameWnd@@SAPEAUCRuntimeClass@@XZ @ 3538 NONAME
 ?GetThisClass@CMemFile@@SAPEAUCRuntimeClass@@XZ @ 3539 NONAME
 ?GetThisClass@CMemoryException@@SAPEAUCRuntimeClass@@XZ @ 3540 NONAME
 ?GetThisClass@CMenu@@SAPEAUCRuntimeClass@@XZ @ 3541 NONAME
 ?GetThisClass@CMetaFileDC@@SAPEAUCRuntimeClass@@XZ @ 3542 NONAME
 ?GetThisClass@CMiniDockFrameWnd@@SAPEAUCRuntimeClass@@XZ @ 3543 NONAME
 ?GetThisClass@CMiniFrameWnd@@SAPEAUCRuntimeClass@@XZ @ 3544 NONAME
 ?GetThisClass@CMonikerFile@@SAPEAUCRuntimeClass@@XZ @ 3545 NONAME
 ?GetThisClass@CMonthCalCtrl@@SAPEAUCRuntimeClass@@XZ @ 3546 NONAME
 ?GetThisClass@CMultiDocTemplate@@SAPEAUCRuntimeClass@@XZ @ 3547 NONAME
 ?GetThisClass@CMultiPageDHtmlDialog@@SAPEAUCRuntimeClass@@XZ @ 3548 NONAME
 ?GetThisClass@CMutex@@SAPEAUCRuntimeClass@@XZ @ 3549 NONAME
 ?GetThisClass@CNotSupportedException@@SAPEAUCRuntimeClass@@XZ @ 3550 NONAME
 ?GetThisClass@CObArray@@SAPEAUCRuntimeClass@@XZ @ 3551 NONAME
 ?GetThisClass@CObject@@SAPEAUCRuntimeClass@@XZ @ 3552 NONAME
 ?GetThisClass@CObList@@SAPEAUCRuntimeClass@@XZ @ 3553 NONAME
 ?GetThisClass@COleBusyDialog@@SAPEAUCRuntimeClass@@XZ @ 3554 NONAME
 ?GetThisClass@COleChangeIconDialog@@SAPEAUCRuntimeClass@@XZ @ 3555 NONAME
 ?GetThisClass@COleChangeSourceDialog@@SAPEAUCRuntimeClass@@XZ @ 3556 NONAME
 ?GetThisClass@COleClientItem@@SAPEAUCRuntimeClass@@XZ @ 3557 NONAME
 ?GetThisClass@COleControl@@SAPEAUCRuntimeClass@@XZ @ 3558 NONAME
 ?GetThisClass@COleControlModule@@SAPEAUCRuntimeClass@@XZ @ 3559 NONAME
 ?GetThisClass@COleConvertDialog@@SAPEAUCRuntimeClass@@XZ @ 3560 NONAME
 ?GetThisClass@COleDBRecordView@@SAPEAUCRuntimeClass@@XZ @ 3561 NONAME
 ?GetThisClass@COleDialog@@SAPEAUCRuntimeClass@@XZ @ 3562 NONAME
 ?GetThisClass@COleDispatchException@@SAPEAUCRuntimeClass@@XZ @ 3563 NONAME
 ?GetThisClass@COleDocIPFrameWnd@@SAPEAUCRuntimeClass@@XZ @ 3564 NONAME
 ?GetThisClass@COleDocObjectItem@@SAPEAUCRuntimeClass@@XZ @ 3565 NONAME
 ?GetThisClass@COleDocument@@SAPEAUCRuntimeClass@@XZ @ 3566 NONAME
 ?GetThisClass@COleException@@SAPEAUCRuntimeClass@@XZ @ 3567 NONAME
 ?GetThisClass@COleInsertDialog@@SAPEAUCRuntimeClass@@XZ @ 3568 NONAME
 ?GetThisClass@COleIPFrameWnd@@SAPEAUCRuntimeClass@@XZ @ 3569 NONAME
 ?GetThisClass@COleLinkingDoc@@SAPEAUCRuntimeClass@@XZ @ 3570 NONAME
 ?GetThisClass@COleLinksDialog@@SAPEAUCRuntimeClass@@XZ @ 3571 NONAME
 ?GetThisClass@COleObjectFactory@@SAPEAUCRuntimeClass@@XZ @ 3572 NONAME
 ?GetThisClass@COlePasteSpecialDialog@@SAPEAUCRuntimeClass@@XZ @ 3573 NONAME
 ?GetThisClass@COlePropertiesDialog@@SAPEAUCRuntimeClass@@XZ @ 3574 NONAME
 ?GetThisClass@COlePropertyPage@@SAPEAUCRuntimeClass@@XZ @ 3575 NONAME
 ?GetThisClass@COleResizeBar@@SAPEAUCRuntimeClass@@XZ @ 3576 NONAME
 ?GetThisClass@COleServerDoc@@SAPEAUCRuntimeClass@@XZ @ 3577 NONAME
 ?GetThisClass@COleServerItem@@SAPEAUCRuntimeClass@@XZ @ 3578 NONAME
 ?GetThisClass@COleStreamFile@@SAPEAUCRuntimeClass@@XZ @ 3579 NONAME
 ?GetThisClass@COleUpdateDialog@@SAPEAUCRuntimeClass@@XZ @ 3580 NONAME
 ?GetThisClass@CPageSetupDialog@@SAPEAUCRuntimeClass@@XZ @ 3581 NONAME
 ?GetThisClass@CPaintDC@@SAPEAUCRuntimeClass@@XZ @ 3582 NONAME
 ?GetThisClass@CPalette@@SAPEAUCRuntimeClass@@XZ @ 3583 NONAME
 ?GetThisClass@CPen@@SAPEAUCRuntimeClass@@XZ @ 3584 NONAME
 ?GetThisClass@CPreviewDC@@SAPEAUCRuntimeClass@@XZ @ 3585 NONAME
 ?GetThisClass@CPreviewView@@SAPEAUCRuntimeClass@@XZ @ 3586 NONAME
 ?GetThisClass@CPrintDialog@@SAPEAUCRuntimeClass@@XZ @ 3587 NONAME
 ?GetThisClass@CPrintDialogEx@@SAPEAUCRuntimeClass@@XZ @ 3588 NONAME
 ?GetThisClass@CProgressCtrl@@SAPEAUCRuntimeClass@@XZ @ 3589 NONAME
 ?GetThisClass@CPropertyPage@@SAPEAUCRuntimeClass@@XZ @ 3590 NONAME
 ?GetThisClass@CPropertySheet@@SAPEAUCRuntimeClass@@XZ @ 3591 NONAME
 ?GetThisClass@CPtrArray@@SAPEAUCRuntimeClass@@XZ @ 3592 NONAME
 ?GetThisClass@CPtrList@@SAPEAUCRuntimeClass@@XZ @ 3593 NONAME
 ?GetThisClass@CReBar@@SAPEAUCRuntimeClass@@XZ @ 3594 NONAME
 ?GetThisClass@CReBarCtrl@@SAPEAUCRuntimeClass@@XZ @ 3595 NONAME
 ?GetThisClass@CRecordset@@SAPEAUCRuntimeClass@@XZ @ 3596 NONAME
 ?GetThisClass@CRecordView@@SAPEAUCRuntimeClass@@XZ @ 3597 NONAME
 ?GetThisClass@CResourceException@@SAPEAUCRuntimeClass@@XZ @ 3598 NONAME
 ?GetThisClass@CRgn@@SAPEAUCRuntimeClass@@XZ @ 3599 NONAME
 ?GetThisClass@CRichEditCntrItem@@SAPEAUCRuntimeClass@@XZ @ 3600 NONAME
 ?GetThisClass@CRichEditCtrl@@SAPEAUCRuntimeClass@@XZ @ 3601 NONAME
 ?GetThisClass@CRichEditDoc@@SAPEAUCRuntimeClass@@XZ @ 3602 NONAME
 ?GetThisClass@CRichEditView@@SAPEAUCRuntimeClass@@XZ @ 3603 NONAME
 ?GetThisClass@CScrollBar@@SAPEAUCRuntimeClass@@XZ @ 3604 NONAME
 ?GetThisClass@CScrollView@@SAPEAUCRuntimeClass@@XZ @ 3605 NONAME
 ?GetThisClass@CSemaphore@@SAPEAUCRuntimeClass@@XZ @ 3606 NONAME
 ?GetThisClass@CSharedFile@@SAPEAUCRuntimeClass@@XZ @ 3607 NONAME
 ?GetThisClass@CSingleDocTemplate@@SAPEAUCRuntimeClass@@XZ @ 3608 NONAME
 ?GetThisClass@CSliderCtrl@@SAPEAUCRuntimeClass@@XZ @ 3609 NONAME
 ?GetThisClass@CSocket@@SAPEAUCRuntimeClass@@XZ @ 3610 NONAME
 ?GetThisClass@CSocketFile@@SAPEAUCRuntimeClass@@XZ @ 3611 NONAME
 ?GetThisClass@CSpinButtonCtrl@@SAPEAUCRuntimeClass@@XZ @ 3612 NONAME
 ?GetThisClass@CSplitterWnd@@SAPEAUCRuntimeClass@@XZ @ 3613 NONAME
 ?GetThisClass@CStatic@@SAPEAUCRuntimeClass@@XZ @ 3614 NONAME
 ?GetThisClass@CStatusBar@@SAPEAUCRuntimeClass@@XZ @ 3615 NONAME
 ?GetThisClass@CStatusBarCtrl@@SAPEAUCRuntimeClass@@XZ @ 3616 NONAME
 ?GetThisClass@CStdioFile@@SAPEAUCRuntimeClass@@XZ @ 3617 NONAME
 ?GetThisClass@CStringArray@@SAPEAUCRuntimeClass@@XZ @ 3618 NONAME
 ?GetThisClass@CStringList@@SAPEAUCRuntimeClass@@XZ @ 3619 NONAME
 ?GetThisClass@CSyncObject@@SAPEAUCRuntimeClass@@XZ @ 3620 NONAME
 ?GetThisClass@CTabCtrl@@SAPEAUCRuntimeClass@@XZ @ 3621 NONAME
 ?GetThisClass@CToolBar@@SAPEAUCRuntimeClass@@XZ @ 3622 NONAME
 ?GetThisClass@CToolBarCtrl@@SAPEAUCRuntimeClass@@XZ @ 3623 NONAME
 ?GetThisClass@CToolTipCtrl@@SAPEAUCRuntimeClass@@XZ @ 3624 NONAME
 ?GetThisClass@CTreeCtrl@@SAPEAUCRuntimeClass@@XZ @ 3625 NONAME
 ?GetThisClass@CTreeView@@SAPEAUCRuntimeClass@@XZ @ 3626 NONAME
 ?GetThisClass@CUIntArray@@SAPEAUCRuntimeClass@@XZ @ 3627 NONAME
 ?GetThisClass@CUserException@@SAPEAUCRuntimeClass@@XZ @ 3628 NONAME
 ?GetThisClass@CView@@SAPEAUCRuntimeClass@@XZ @ 3629 NONAME
 ?GetThisClass@CWinApp@@SAPEAUCRuntimeClass@@XZ @ 3630 NONAME
 ?GetThisClass@CWindowDC@@SAPEAUCRuntimeClass@@XZ @ 3631 NONAME
 ?GetThisClass@CWindowlessDC@@SAPEAUCRuntimeClass@@XZ @ 3632 NONAME
 ?GetThisClass@CWinThread@@SAPEAUCRuntimeClass@@XZ @ 3633 NONAME
 ?GetThisClass@CWnd@@SAPEAUCRuntimeClass@@XZ @ 3634 NONAME
 ?GetThisClass@CWordArray@@SAPEAUCRuntimeClass@@XZ @ 3635 NONAME
 ?GetThisCommandMap@CCmdTarget@@KAPEBUAFX_OLECMDMAP@@XZ @ 3636 NONAME
 ?GetThisCommandMap@COleDocObjectItem@@KAPEBUAFX_OLECMDMAP@@XZ @ 3637 NONAME
 ?GetThisConnectionMap@CCmdTarget@@KAPEBUAFX_CONNECTIONMAP@@XZ @ 3638 NONAME
 ?GetThisConnectionMap@COleControl@@KAPEBUAFX_CONNECTIONMAP@@XZ @ 3639 NONAME
 ?GetThisDispatchMap@CCmdTarget@@KAPEBUAFX_DISPMAP@@XZ @ 3640 NONAME
 ?GetThisDispatchMap@COleControlContainer@@KAPEBUAFX_DISPMAP@@XZ @ 3641 NONAME
 ?GetThisEventMap@COleControl@@KAPEBUAFX_EVENTMAP@@XZ @ 3642 NONAME
 ?GetThisEventSinkMap@CCmdTarget@@KAPEBUAFX_EVENTSINKMAP@@XZ @ 3643 NONAME
 ?GetThisEventSinkMap@CDHtmlDialog@@KAPEBUAFX_EVENTSINKMAP@@XZ @ 3644 NONAME
 ?GetThisEventSinkMap@CHtmlEditCtrl@@KAPEBUAFX_EVENTSINKMAP@@XZ @ 3645 NONAME
 ?GetThisEventSinkMap@CHtmlView@@KAPEBUAFX_EVENTSINKMAP@@XZ @ 3646 NONAME
 ?GetThisInterfaceMap@CCmdTarget@@KAPEBUAFX_INTERFACEMAP@@XZ @ 3647 NONAME
 ?GetThisInterfaceMap@CDocObjectServer@@KAPEBUAFX_INTERFACEMAP@@XZ @ 3648 NONAME
 ?GetThisInterfaceMap@CEnumConnections@@KAPEBUAFX_INTERFACEMAP@@XZ @ 3649 NONAME
 ?GetThisInterfaceMap@CEnumConnPoints@@KAPEBUAFX_INTERFACEMAP@@XZ @ 3650 NONAME
 ?GetThisInterfaceMap@CEnumFormatEtc@@KAPEBUAFX_INTERFACEMAP@@XZ @ 3651 NONAME
 ?GetThisInterfaceMap@CEnumOleVerb@@KAPEBUAFX_INTERFACEMAP@@XZ @ 3652 NONAME
 ?GetThisInterfaceMap@CEnumUnknown@@KAPEBUAFX_INTERFACEMAP@@XZ @ 3653 NONAME
 ?GetThisInterfaceMap@CHtmlControlSite@@KAPEBUAFX_INTERFACEMAP@@XZ @ 3654 NONAME
 ?GetThisInterfaceMap@COleClientItem@@KAPEBUAFX_INTERFACEMAP@@XZ @ 3655 NONAME
 ?GetThisInterfaceMap@COleControl@@KAPEBUAFX_INTERFACEMAP@@XZ @ 3656 NONAME
 ?GetThisInterfaceMap@COleControlContainer@@KAPEBUAFX_INTERFACEMAP@@XZ @ 3657 NONAME
 ?GetThisInterfaceMap@COleControlSite@@KAPEBUAFX_INTERFACEMAP@@XZ @ 3658 NONAME
 ?GetThisInterfaceMap@COleDataSource@@KAPEBUAFX_INTERFACEMAP@@XZ @ 3659 NONAME
 ?GetThisInterfaceMap@COleDocObjectItem@@KAPEBUAFX_INTERFACEMAP@@XZ @ 3660 NONAME
 ?GetThisInterfaceMap@COleDropSource@@KAPEBUAFX_INTERFACEMAP@@XZ @ 3661 NONAME
 ?GetThisInterfaceMap@COleDropTarget@@KAPEBUAFX_INTERFACEMAP@@XZ @ 3662 NONAME
 ?GetThisInterfaceMap@COleFrameHook@@KAPEBUAFX_INTERFACEMAP@@XZ @ 3663 NONAME
 ?GetThisInterfaceMap@COleLinkingDoc@@KAPEBUAFX_INTERFACEMAP@@XZ @ 3664 NONAME
 ?GetThisInterfaceMap@COleMessageFilter@@KAPEBUAFX_INTERFACEMAP@@XZ @ 3665 NONAME
 ?GetThisInterfaceMap@COleObjectFactory@@KAPEBUAFX_INTERFACEMAP@@XZ @ 3666 NONAME
 ?GetThisInterfaceMap@COlePropertyPage@@KAPEBUAFX_INTERFACEMAP@@XZ @ 3667 NONAME
 ?GetThisInterfaceMap@COleServerDoc@@KAPEBUAFX_INTERFACEMAP@@XZ @ 3668 NONAME
 ?GetThisInterfaceMap@COleServerItem@@KAPEBUAFX_INTERFACEMAP@@XZ @ 3669 NONAME
 ?GetThisInterfaceMap@CRichEditView@@KAPEBUAFX_INTERFACEMAP@@XZ @ 3670 NONAME
 ?GetThisInterfaceMap@CWnd@@KAPEBUAFX_INTERFACEMAP@@XZ @ 3671 NONAME
 ?GetThisMessageMap@CCheckListBox@@KAPEBUAFX_MSGMAP@@XZ @ 3672 NONAME
 ?GetThisMessageMap@CCmdTarget@@KAPEBUAFX_MSGMAP@@XZ @ 3673 NONAME
 ?GetThisMessageMap@CCommonDialog@@KAPEBUAFX_MSGMAP@@XZ @ 3674 NONAME
 ?GetThisMessageMap@CControlBar@@KAPEBUAFX_MSGMAP@@XZ @ 3675 NONAME
 ?GetThisMessageMap@CControlFrameWnd@@KAPEBUAFX_MSGMAP@@XZ @ 3676 NONAME
 ?GetThisMessageMap@CCtrlView@@KAPEBUAFX_MSGMAP@@XZ @ 3677 NONAME
 ?GetThisMessageMap@CDHtmlDialog@@KAPEBUAFX_MSGMAP@@XZ @ 3678 NONAME
 ?GetThisMessageMap@CDialog@@KAPEBUAFX_MSGMAP@@XZ @ 3679 NONAME
 ?GetThisMessageMap@CDialogBar@@KAPEBUAFX_MSGMAP@@XZ @ 3680 NONAME
 ?GetThisMessageMap@CDockBar@@KAPEBUAFX_MSGMAP@@XZ @ 3681 NONAME
 ?GetThisMessageMap@CDocObjectServer@@KAPEBUAFX_MSGMAP@@XZ @ 3682 NONAME
 ?GetThisMessageMap@CDocument@@KAPEBUAFX_MSGMAP@@XZ @ 3683 NONAME
 ?GetThisMessageMap@CEditView@@KAPEBUAFX_MSGMAP@@XZ @ 3684 NONAME
 ?GetThisMessageMap@CFormView@@KAPEBUAFX_MSGMAP@@XZ @ 3685 NONAME
 ?GetThisMessageMap@CFrameWnd@@KAPEBUAFX_MSGMAP@@XZ @ 3686 NONAME
 ?GetThisMessageMap@CHtmlEditView@@KAPEBUAFX_MSGMAP@@XZ @ 3687 NONAME
 ?GetThisMessageMap@CHtmlView@@KAPEBUAFX_MSGMAP@@XZ @ 3688 NONAME
 ?GetThisMessageMap@CListCtrl@@KAPEBUAFX_MSGMAP@@XZ @ 3689 NONAME
 ?GetThisMessageMap@CListView@@KAPEBUAFX_MSGMAP@@XZ @ 3690 NONAME
 ?GetThisMessageMap@CMDIChildWnd@@KAPEBUAFX_MSGMAP@@XZ @ 3691 NONAME
 ?GetThisMessageMap@CMDIFrameWnd@@KAPEBUAFX_MSGMAP@@XZ @ 3692 NONAME
 ?GetThisMessageMap@CMiniDockFrameWnd@@KAPEBUAFX_MSGMAP@@XZ @ 3693 NONAME
 ?GetThisMessageMap@CMiniFrameWnd@@KAPEBUAFX_MSGMAP@@XZ @ 3694 NONAME
 ?GetThisMessageMap@COleControl@@KAPEBUAFX_MSGMAP@@XZ @ 3695 NONAME
 ?GetThisMessageMap@COleDBRecordView@@KAPEBUAFX_MSGMAP@@XZ @ 3696 NONAME
 ?GetThisMessageMap@COleDocIPFrameWnd@@KAPEBUAFX_MSGMAP@@XZ @ 3697 NONAME
 ?GetThisMessageMap@COleIPFrameWnd@@KAPEBUAFX_MSGMAP@@XZ @ 3698 NONAME
 ?GetThisMessageMap@COlePropertyPage@@KAPEBUAFX_MSGMAP@@XZ @ 3699 NONAME
 ?GetThisMessageMap@COleResizeBar@@KAPEBUAFX_MSGMAP@@XZ @ 3700 NONAME
 ?GetThisMessageMap@COleServerDoc@@KAPEBUAFX_MSGMAP@@XZ @ 3701 NONAME
 ?GetThisMessageMap@CPreviewView@@KAPEBUAFX_MSGMAP@@XZ @ 3702 NONAME
 ?GetThisMessageMap@CPrintDialog@@KAPEBUAFX_MSGMAP@@XZ @ 3703 NONAME
 ?GetThisMessageMap@CPrintDialogEx@@KAPEBUAFX_MSGMAP@@XZ @ 3704 NONAME
 ?GetThisMessageMap@CPropertyPage@@KAPEBUAFX_MSGMAP@@XZ @ 3705 NONAME
 ?GetThisMessageMap@CPropertySheet@@KAPEBUAFX_MSGMAP@@XZ @ 3706 NONAME
 ?GetThisMessageMap@CReBar@@KAPEBUAFX_MSGMAP@@XZ @ 3707 NONAME
 ?GetThisMessageMap@CRecordView@@KAPEBUAFX_MSGMAP@@XZ @ 3708 NONAME
 ?GetThisMessageMap@CRichEditView@@KAPEBUAFX_MSGMAP@@XZ @ 3709 NONAME
 ?GetThisMessageMap@CScrollView@@KAPEBUAFX_MSGMAP@@XZ @ 3710 NONAME
 ?GetThisMessageMap@CSocketWnd@@KAPEBUAFX_MSGMAP@@XZ @ 3711 NONAME
 ?GetThisMessageMap@CSplitterWnd@@KAPEBUAFX_MSGMAP@@XZ @ 3712 NONAME
 ?GetThisMessageMap@CStatusBar@@KAPEBUAFX_MSGMAP@@XZ @ 3713 NONAME
 ?GetThisMessageMap@CTabCtrl@@KAPEBUAFX_MSGMAP@@XZ @ 3714 NONAME
 ?GetThisMessageMap@CToolBar@@KAPEBUAFX_MSGMAP@@XZ @ 3715 NONAME
 ?GetThisMessageMap@CToolBarCtrl@@KAPEBUAFX_MSGMAP@@XZ @ 3716 NONAME
 ?GetThisMessageMap@CToolTipCtrl@@KAPEBUAFX_MSGMAP@@XZ @ 3717 NONAME
 ?GetThisMessageMap@CTreeCtrl@@KAPEBUAFX_MSGMAP@@XZ @ 3718 NONAME
 ?GetThisMessageMap@CTreeView@@KAPEBUAFX_MSGMAP@@XZ @ 3719 NONAME
 ?GetThisMessageMap@CView@@KAPEBUAFX_MSGMAP@@XZ @ 3720 NONAME
 ?GetThisMessageMap@CWinApp@@KAPEBUAFX_MSGMAP@@XZ @ 3721 NONAME
 ?GetThisMessageMap@CWnd@@KAPEBUAFX_MSGMAP@@XZ @ 3722 NONAME
 ?GetTime@CDateTimeCtrl@@QEBAHAEAVCOleDateTime@ATL@@@Z @ 3723 NONAME
 ?GetTime@CDateTimeCtrl@@QEBAKAEAVCTime@ATL@@@Z @ 3724 NONAME
 ?GetTipText@CStatusBarCtrl@@QEBA?AV?$CStringT@DV?$StrTraitMFC_DLL@DV?$ChTraitsCRT@D@ATL@@@@@ATL@@H@Z @ 3725 NONAME
 ?GetToday@CMonthCalCtrl@@QEBAHAEAVCOleDateTime@ATL@@@Z @ 3726 NONAME
 ?GetToday@CMonthCalCtrl@@QEBAHAEAVCTime@ATL@@@Z @ 3727 NONAME
 ?GetToolBar@CHtmlView@@QEBAHXZ @ 3728 NONAME
 ?GetToolInfo@CToolTipCtrl@@QEBAHAEAVCToolInfo@@PEAVCWnd@@_K@Z @ 3729 NONAME
 ?GetTop@CHtmlView@@QEBAJXZ @ 3730 NONAME
 ?GetTopLevelContainer@CHtmlView@@QEBAHXZ @ 3731 NONAME
 ?GetTopLevelFrame@CWnd@@QEBAPEAVCFrameWnd@@XZ @ 3732 NONAME
 ?GetTopLevelOwner@CWnd@@QEBAPEAV1@XZ @ 3733 NONAME
 ?GetTopLevelParent@CWnd@@QEBAPEAV1@XZ @ 3734 NONAME
 ?GetTrueClientSize@CScrollView@@IEAAHAEAVCSize@@0@Z @ 3735 NONAME
 ?GetTrueRect@CRectTracker@@QEBAXPEAUtagRECT@@@Z @ 3736 NONAME
 ?GetType@CHtmlView@@QEBA?AV?$CStringT@DV?$StrTraitMFC_DLL@DV?$ChTraitsCRT@D@ATL@@@@@ATL@@XZ @ 3737 NONAME
 ?GetType@CPictureHolder@@QEAAFXZ @ 3738 NONAME
 ?GetType@CProperty@@QEAAKXZ @ 3739 NONAME
 ?GetTypeInfo@CDHtmlControlSink@@UEAAJIKPEAPEAUITypeInfo@@@Z @ 3740 NONAME
 ?GetTypeInfo@CDHtmlElementEventSink@@UEAAJIKPEAPEAUITypeInfo@@@Z @ 3741 NONAME
 ?GetTypeInfo@CDHtmlEventSink@@UEAAJIKPEAPEAUITypeInfo@@@Z @ 3742 NONAME
 ?GetTypeInfo@COleDispatchImpl@@UEAAJIKPEAPEAUITypeInfo@@@Z @ 3743 NONAME
 ?GetTypeInfo@XAccessible@CWnd@@UEAAJIKPEAPEAUITypeInfo@@@Z @ 3744 NONAME
 ?GetTypeInfo@XAmbientProps@COleControlSite@@UEAAJIKPEAPEAUITypeInfo@@@Z @ 3745 NONAME
 ?GetTypeInfo@XEventSink@COleControlSite@@UEAAJIKPEAPEAUITypeInfo@@@Z @ 3746 NONAME
 ?GetTypeInfoCount@CCmdTarget@@UEAAIXZ @ 3747 NONAME
 ?GetTypeInfoCount@CDHtmlControlSink@@UEAAJPEAI@Z @ 3748 NONAME
 ?GetTypeInfoCount@CDHtmlElementEventSink@@UEAAJPEAI@Z @ 3749 NONAME
 ?GetTypeInfoCount@CDHtmlEventSink@@UEAAJPEAI@Z @ 3750 NONAME
 ?GetTypeInfoCount@COleDispatchImpl@@UEAAJPEAI@Z @ 3751 NONAME
 ?GetTypeInfoCount@XAccessible@CWnd@@UEAAJPEAI@Z @ 3752 NONAME
 ?GetTypeInfoCount@XAmbientProps@COleControlSite@@UEAAJPEAI@Z @ 3753 NONAME
 ?GetTypeInfoCount@XEventSink@COleControlSite@@UEAAJPEAI@Z @ 3754 NONAME
 ?GetTypeInfoOfGuid@CCmdTarget@@QEAAJKAEBU_GUID@@PEAPEAUITypeInfo@@@Z @ 3755 NONAME
 ?GetTypeLib@CCmdTarget@@UEAAJKPEAPEAUITypeLib@@@Z @ 3756 NONAME
 ?GetTypeLibCache@CCmdTarget@@UEAAPEAVCTypeLibCache@@XZ @ 3757 NONAME
 ?GetUBound@COleSafeArray@@QEAAXKPEAJ@Z @ 3758 NONAME
 ?GetUserClassID@XOleObject@CDocObjectServer@@UEAAJPEAU_GUID@@@Z @ 3759 NONAME
 ?GetUserClassID@XOleObject@COleControl@@UEAAJPEAU_GUID@@@Z @ 3760 NONAME
 ?GetUserClassID@XOleObject@COleServerDoc@@UEAAJPEAU_GUID@@@Z @ 3761 NONAME
 ?GetUserClassID@XOleObject@COleServerItem@@UEAAJPEAU_GUID@@@Z @ 3762 NONAME
 ?GetUserDefinedType@CDHtmlControlSink@@QEAAGPEAUITypeInfo@@K@Z @ 3763 NONAME
 ?GetUserType@COleClientItem@@QEAAXW4tagUSERCLASSTYPE@@AEAV?$CStringT@DV?$StrTraitMFC_DLL@DV?$ChTraitsCRT@D@ATL@@@@@ATL@@@Z @ 3764 NONAME
 ?GetUserType@COleControl@@IEAAXPEAD@Z @ 3765 NONAME
 ?GetUserType@XOleObject@CDocObjectServer@@UEAAJKPEAPEA_W@Z @ 3766 NONAME
 ?GetUserType@XOleObject@COleControl@@UEAAJKPEAPEA_W@Z @ 3767 NONAME
 ?GetUserType@XOleObject@COleServerDoc@@UEAAJKPEAPEA_W@Z @ 3768 NONAME
 ?GetUserType@XOleObject@COleServerItem@@UEAAJKPEAPEA_W@Z @ 3769 NONAME
 ?GetValueAt@CMapPtrToPtr@@QEBAPEAXPEAX@Z @ 3770 NONAME
 ?GetVerb@CHttpFile@@QEBA?AV?$CStringT@DV?$StrTraitMFC_DLL@DV?$ChTraitsCRT@D@ATL@@@@@ATL@@XZ @ 3771 NONAME
 ?GetVersion@CDockState@@QEAAKXZ @ 3772 NONAME
 ?GetView@CHtmlEditDoc@@UEBAPEAVCHtmlEditView@@XZ @ 3773 NONAME
 ?GetView@CRichEditDoc@@UEBAPEAVCRichEditView@@XZ @ 3774 NONAME
 ?GetViewInfo@XOleUIObjInfo@COlePropertiesDialog@@UEAAJKPEAPEAXPEAKPEAH@Z @ 3775 NONAME
 ?GetViewStatus@XViewObject@COleControl@@UEAAJPEAK@Z @ 3776 NONAME
 ?GetVisible@CHtmlView@@QEBAHXZ @ 3777 NONAME
 ?GetWheelScrollDistance@CScrollView@@UEAA?AVCSize@@V2@HH@Z @ 3778 NONAME
 ?GetWidth@CHtmlView@@QEBAJXZ @ 3779 NONAME
 ?GetWindow@XOleInPlaceActiveObject@COleControl@@UEAAJPEAPEAUHWND__@@@Z @ 3780 NONAME
 ?GetWindow@XOleInPlaceActiveObject@COleServerDoc@@UEAAJPEAPEAUHWND__@@@Z @ 3781 NONAME
 ?GetWindow@XOleInPlaceFrame@COleFrameHook@@UEAAJPEAPEAUHWND__@@@Z @ 3782 NONAME
 ?GetWindow@XOleInPlaceObject@COleControl@@UEAAJPEAPEAUHWND__@@@Z @ 3783 NONAME
 ?GetWindow@XOleInPlaceObject@COleServerDoc@@UEAAJPEAPEAUHWND__@@@Z @ 3784 NONAME
 ?GetWindow@XOleIPFrame@COleControlContainer@@UEAAJPEAPEAUHWND__@@@Z @ 3785 NONAME
 ?GetWindow@XOleIPSite@COleClientItem@@UEAAJPEAPEAUHWND__@@@Z @ 3786 NONAME
 ?GetWindow@XOleIPSite@COleControlSite@@UEAAJPEAPEAUHWND__@@@Z @ 3787 NONAME
 ?GetWindowContext@CRichEditCntrItem@@QEAAJPEAPEAUIOleInPlaceFrame@@PEAPEAUIOleInPlaceUIWindow@@PEAUtagOIFI@@@Z @ 3788 NONAME
 ?GetWindowContext@CRichEditView@@QEAAJPEAPEAUIOleInPlaceFrame@@PEAPEAUIOleInPlaceUIWindow@@PEAUtagOIFI@@@Z @ 3789 NONAME
 ?GetWindowContext@XOleIPSite@COleClientItem@@UEAAJPEAPEAUIOleInPlaceFrame@@PEAPEAUIOleInPlaceUIWindow@@PEAUtagRECT@@2PEAUtagOIFI@@@Z @ 3790 NONAME
 ?GetWindowContext@XOleIPSite@COleControlSite@@UEAAJPEAPEAUIOleInPlaceFrame@@PEAPEAUIOleInPlaceUIWindow@@PEAUtagRECT@@2PEAUtagOIFI@@@Z @ 3791 NONAME
 ?GetWindowedChildCount@CWnd@@QEAAJXZ @ 3792 NONAME
 ?GetWindowLessChildCount@CWnd@@QEAAJXZ @ 3793 NONAME
 ?GetWindowlessDropTarget@COleControl@@UEAAPEAUIDropTarget@@XZ @ 3794 NONAME
 ?GetWindowMenuPopup@CMDIFrameWnd@@UEAAPEAUHMENU__@@PEAU2@@Z @ 3795 NONAME
 ?GetWindowPlacement@CWnd@@QEBAHPEAUtagWINDOWPLACEMENT@@@Z @ 3796 NONAME
 ?GetWindowTextA@COleControlSite@@UEBAXAEAV?$CStringT@DV?$StrTraitMFC_DLL@DV?$ChTraitsCRT@D@ATL@@@@@ATL@@@Z @ 3797 NONAME
 ?GetWindowTextA@CWnd@@QEBAHPEADH@Z @ 3798 NONAME
 ?GetWindowTextA@CWnd@@QEBAXAEAV?$CStringT@DV?$StrTraitMFC_DLL@DV?$ChTraitsCRT@D@ATL@@@@@ATL@@@Z @ 3799 NONAME
 ?GetWindowTextLengthA@CWnd@@QEBAHXZ @ 3800 NONAME
 ?GetZoomFactor@COleServerDoc@@QEBAHPEAUtagSIZE@@0PEBUtagRECT@@@Z @ 3801 NONAME
 ?GiveFeedback@COleDropSource@@UEAAJK@Z @ 3802 NONAME
 ?GiveFeedback@XDropSource@COleDropSource@@UEAAJK@Z @ 3803 NONAME
 ?GrayCtlColor@CWnd@@SAHPEAUHDC__@@PEAUHWND__@@IPEAUHBRUSH__@@K@Z @ 3804 NONAME
 ?GrayStringA@CPreviewDC@@UEAAHPEAVCBrush@@P6AHPEAUHDC__@@_JH@Z2HHHHH@Z @ 3805 NONAME
 ?GrowFile@CMemFile@@MEAAX_K@Z @ 3806 NONAME
 ?HandleFloatingSysCommand@CWnd@@QEAAHI_J@Z @ 3807 NONAME
 ?HandleInComingCall@XMessageFilter@COleMessageFilter@@UEAAKKPEAUHTASK__@@KPEAUtagINTERFACEINFO@@@Z @ 3808 NONAME
 ?HandleInitDialog@CDialog@@IEAA_J_K_J@Z @ 3809 NONAME
 ?HandleInitDialog@CDialogBar@@IEAA_J_K_J@Z @ 3810 NONAME
 ?HandleInitDialog@CFormView@@IEAA_J_K_J@Z @ 3811 NONAME
 ?HandleInitDialog@CPrintDialogEx@@QEAA_J_K_J@Z @ 3812 NONAME
 ?HandleInitDialog@CPropertySheet@@IEAA_J_K_J@Z @ 3813 NONAME
 ?HandleMButtonDown@CScrollView@@QEAA_J_K_J@Z @ 3814 NONAME
 ?HandleMessage@CPrintDialogEx@@UEAAJPEAUHWND__@@I_K_JPEA_J@Z @ 3815 NONAME
 ?HandleSetFocus@COleControlContainer@@UEAAHXZ @ 3816 NONAME
 ?HandleSetFont@CDialog@@IEAA_J_K_J@Z @ 3817 NONAME
 ?HandleWindowlessMessage@COleControlContainer@@UEAAHI_K_JPEA_J@Z @ 3818 NONAME
 ?HandsOffStorage@XPersistStorage@COleControl@@UEAAJXZ @ 3819 NONAME
 ?HandsOffStorage@XPersistStorage@COleServerDoc@@UEAAJXZ @ 3820 NONAME
 ?HasBlankItems@COleDocument@@QEBAHXZ @ 3821 NONAME
 ?HasFont@CDialogTemplate@@QEBAHXZ @ 3822 NONAME
 ?Help@XPropertyPage@COlePropertyPage@@UEAAJPEB_W@Z @ 3823 NONAME
 ?HexDump@CDumpContext@@QEAAXPEBDPEAEHH@Z @ 3824 NONAME
 ?hFileNull@CFile@@2QEAXEA @ 3825 NONAME DATA
 ?HideApplication@CWinApp@@QEAAXXZ @ 3826 NONAME
 ?HideControl@CFileDialog@@QEAAXH@Z @ 3827 NONAME
 ?HideUI@CBrowserControlSite@@MEAAJXZ @ 3828 NONAME
 ?HideUI@CDHtmlDialog@@UEAAJXZ @ 3829 NONAME
 ?HideUI@XDocHostUIHandler@CHtmlControlSite@@UEAAJXZ @ 3830 NONAME
 ?HIMETRICtoDP@CDC@@QEBAXPEAUtagSIZE@@@Z @ 3831 NONAME
 ?HIMETRICtoLP@CDC@@QEBAXPEAUtagSIZE@@@Z @ 3832 NONAME
 ?HitTest@CListCtrl@@QEBAHVCPoint@@PEAI@Z @ 3833 NONAME
 ?HitTest@CRectTracker@@QEBAHVCPoint@@@Z @ 3834 NONAME
 ?HitTest@CSplitterWnd@@MEBAHVCPoint@@@Z @ 3835 NONAME
 ?HitTest@CToolTipCtrl@@QEBAHPEAVCWnd@@VCPoint@@PEAUtagTOOLINFOA@@@Z @ 3836 NONAME
 ?HitTest@CTreeCtrl@@QEBAPEAU_TREEITEM@@VCPoint@@PEAI@Z @ 3837 NONAME
 ?HitTestHandles@CRectTracker@@IEBAHVCPoint@@@Z @ 3838 NONAME
 ?HtmlHelpA@CWinApp@@UEAAX_KI@Z @ 3839 NONAME
 ?HtmlHelpA@CWnd@@UEAAX_KI@Z @ 3840 NONAME
 ?IdFromRowCol@CSplitterWnd@@QEBAHHH@Z @ 3841 NONAME
 ?IgnoreApply@COlePropertyPage@@QEAAXI@Z @ 3842 NONAME
 ?IgnoreWindowMessage@COleControl@@IEAAHI_K_JPEA_J@Z @ 3843 NONAME
 ?InitApplication@CWinApp@@UEAAHXZ @ 3844 NONAME
 ?InitCache@XOleCache@COleControl@@UEAAJPEAUIDataObject@@@Z @ 3845 NONAME
 ?InitControlContainer@CWnd@@IEAAHH@Z @ 3846 NONAME
 ?InitDialogInfo@CPropertyPage@@IEAAPEBUDLGTEMPLATE@@PEBU2@@Z @ 3847 NONAME
 ?InitDone@CPrintDialogEx@@UEAAJXZ @ 3848 NONAME
 ?InitFromData@XOleObject@CDocObjectServer@@UEAAJPEAUIDataObject@@HK@Z @ 3849 NONAME
 ?InitFromData@XOleObject@COleControl@@UEAAJPEAUIDataObject@@HK@Z @ 3850 NONAME
 ?InitFromData@XOleObject@COleServerDoc@@UEAAJPEAUIDataObject@@HK@Z @ 3851 NONAME
 ?InitFromData@XOleObject@COleServerItem@@UEAAJPEAUIDataObject@@HK@Z @ 3852 NONAME
 ?InitHashTable@CMapPtrToPtr@@QEAAXIH@Z @ 3853 NONAME
 ?InitHashTable@CMapPtrToWord@@QEAAXIH@Z @ 3854 NONAME
 ?InitHashTable@CMapStringToOb@@QEAAXIH@Z @ 3855 NONAME
 ?InitHashTable@CMapStringToPtr@@QEAAXIH@Z @ 3856 NONAME
 ?InitHashTable@CMapStringToString@@QEAAXIH@Z @ 3857 NONAME
 ?InitHashTable@CMapWordToOb@@QEAAXIH@Z @ 3858 NONAME
 ?InitHashTable@CMapWordToPtr@@QEAAXIH@Z @ 3859 NONAME
 ?Initialize@CDataSourceControl@@QEAAJXZ @ 3860 NONAME
 ?Initialize@CDHtmlDialog@@IEAAXXZ @ 3861 NONAME
 ?InitializeFont@CFontHolder@@QEAAXPEBUtagFONTDESC@@PEAUIDispatch@@@Z @ 3862 NONAME
 ?InitializeIIDs@COleControl@@QEAAXPEBU_GUID@@0@Z @ 3863 NONAME
 ?InitializeReplace@CEditView@@IEAAHXZ @ 3864 NONAME
 ?InitialUpdateFrame@CDocTemplate@@UEAAXPEAVCFrameWnd@@PEAVCDocument@@H@Z @ 3865 NONAME
 ?InitialUpdateFrame@CFrameWnd@@QEAAXPEAVCDocument@@H@Z @ 3866 NONAME
 ?InitInstance@COleControlModule@@UEAAHXZ @ 3867 NONAME
 ?InitInstance@CWinApp@@UEAAHXZ @ 3868 NONAME
 ?InitInstance@CWinThread@@UEAAHXZ @ 3869 NONAME
 ?InitLibId@CWinApp@@UEAAXXZ @ 3870 NONAME
 ?InitLoop@CDockContext@@QEAAXXZ @ 3871 NONAME
 ?InitModalIndirect@CDialog@@QEAAHPEAXPEAVCWnd@@@Z @ 3872 NONAME
 ?InitModalIndirect@CDialog@@QEAAHPEBUDLGTEMPLATE@@PEAVCWnd@@PEAX@Z @ 3873 NONAME
 ?InitNew@XPersistMemory@COleControl@@UEAAJXZ @ 3874 NONAME
 ?InitNew@XPersistPropertyBag@COleControl@@UEAAJXZ @ 3875 NONAME
 ?InitNew@XPersistStorage@COleControl@@UEAAJPEAUIStorage@@@Z @ 3876 NONAME
 ?InitNew@XPersistStorage@COleServerDoc@@UEAAJPEAUIStorage@@@Z @ 3877 NONAME
 ?InitNew@XPersistStreamInit@COleControl@@UEAAJXZ @ 3878 NONAME
 ?InitRecord@CRecordset@@QEAAXXZ @ 3879 NONAME
 ?InitStockEventMask@COleControl@@IEAAXXZ @ 3880 NONAME
 ?InitStockPropMask@COleControl@@IEAAXXZ @ 3881 NONAME
 ?InitString@CSimpleException@@QEAAXXZ @ 3882 NONAME
 ?InPlaceDeactivate@XOleInPlaceObject@COleControl@@UEAAJXZ @ 3883 NONAME
 ?InPlaceDeactivate@XOleInPlaceObject@COleServerDoc@@UEAAJXZ @ 3884 NONAME
 ?Insert@?$CStringT@_WV?$StrTraitMFC_DLL@_WV?$ChTraitsCRT@_W@ATL@@@@@ATL@@QEAAHH_W@Z @ 3885 NONAME
 ?Insert@?$CStringT@_WV?$StrTraitMFC_DLL@_WV?$ChTraitsCRT@_W@ATL@@@@@ATL@@QEAAHHPEB_W@Z @ 3886 NONAME
 ?Insert@?$CStringT@DV?$StrTraitMFC_DLL@DV?$ChTraitsCRT@D@ATL@@@@@ATL@@QEAAHHD@Z @ 3887 NONAME
 ?Insert@?$CStringT@DV?$StrTraitMFC_DLL@DV?$ChTraitsCRT@D@ATL@@@@@ATL@@QEAAHHPEBD@Z @ 3888 NONAME
 ?Insert@CDockBar@@IEAAHPEAVCControlBar@@VCRect@@VCPoint@@@Z @ 3889 NONAME
 ?InsertAfter@CObList@@QEAAPEAU__POSITION@@PEAU2@PEAVCObject@@@Z @ 3890 NONAME
 ?InsertAfter@CPtrList@@QEAAPEAU__POSITION@@PEAU2@PEAX@Z @ 3891 NONAME
 ?InsertAfter@CStringList@@QEAAPEAU__POSITION@@PEAU2@AEBV?$CStringT@DV?$StrTraitMFC_DLL@DV?$ChTraitsCRT@D@ATL@@@@@ATL@@@Z @ 3892 NONAME
 ?InsertAfter@CStringList@@QEAAPEAU__POSITION@@PEAU2@PEBD@Z @ 3893 NONAME
 ?InsertAt@CByteArray@@QEAAX_JE0@Z @ 3894 NONAME
 ?InsertAt@CByteArray@@QEAAX_JPEAV1@@Z @ 3895 NONAME
 ?InsertAt@CDWordArray@@QEAAX_JK0@Z @ 3896 NONAME
 ?InsertAt@CDWordArray@@QEAAX_JPEAV1@@Z @ 3897 NONAME
 ?InsertAt@CObArray@@QEAAX_JPEAV1@@Z @ 3898 NONAME
 ?InsertAt@CObArray@@QEAAX_JPEAVCObject@@0@Z @ 3899 NONAME
 ?InsertAt@CPtrArray@@QEAAX_JPEAV1@@Z @ 3900 NONAME
 ?InsertAt@CPtrArray@@QEAAX_JPEAX0@Z @ 3901 NONAME
 ?InsertAt@CStringArray@@QEAAX_JAEBV?$CStringT@DV?$StrTraitMFC_DLL@DV?$ChTraitsCRT@D@ATL@@@@@ATL@@0@Z @ 3902 NONAME
 ?InsertAt@CStringArray@@QEAAX_JPEBV1@@Z @ 3903 NONAME
 ?InsertAt@CStringArray@@QEAAX_JPEBD0@Z @ 3904 NONAME
 ?InsertAt@CUIntArray@@QEAAX_JI0@Z @ 3905 NONAME
 ?InsertAt@CUIntArray@@QEAAX_JPEAV1@@Z @ 3906 NONAME
 ?InsertAt@CWordArray@@QEAAX_JG0@Z @ 3907 NONAME
 ?InsertAt@CWordArray@@QEAAX_JPEAV1@@Z @ 3908 NONAME
 ?InsertBefore@CObList@@QEAAPEAU__POSITION@@PEAU2@PEAVCObject@@@Z @ 3909 NONAME
 ?InsertBefore@CPtrList@@QEAAPEAU__POSITION@@PEAU2@PEAX@Z @ 3910 NONAME
 ?InsertBefore@CStringList@@QEAAPEAU__POSITION@@PEAU2@AEBV?$CStringT@DV?$StrTraitMFC_DLL@DV?$ChTraitsCRT@D@ATL@@@@@ATL@@@Z @ 3911 NONAME
 ?InsertBefore@CStringList@@QEAAPEAU__POSITION@@PEAU2@PEBD@Z @ 3912 NONAME
 ?InsertColumn@CListCtrl@@QEAAHHPEBDHHH@Z @ 3913 NONAME
 ?InsertEmpty@CStringArray@@IEAAX_J0@Z @ 3914 NONAME
 ?InsertFileAsObject@CRichEditView@@QEAAXPEBD@Z @ 3915 NONAME
 ?InsertItem@CComboBoxEx@@QEAAHPEBUtagCOMBOBOXEXITEMA@@@Z @ 3916 NONAME
 ?InsertItem@CListCtrl@@QEAAHIHPEBDIIH_J@Z @ 3917 NONAME
 ?InsertItem@CRichEditView@@QEAAJPEAVCRichEditCntrItem@@@Z @ 3918 NONAME
 ?InsertItem@CTabCtrl@@QEAAJIHPEBDH_J@Z @ 3919 NONAME
 ?InsertItem@CTabCtrl@@QEAAJIHPEBDH_JKK@Z @ 3920 NONAME
 ?InsertItem@CTreeCtrl@@QEAAPEAU_TREEITEM@@IPEBDHHII_JPEAU2@2@Z @ 3921 NONAME
 ?InsertMenus@XOleInPlaceFrame@COleFrameHook@@UEAAJPEAUHMENU__@@PEAUtagOleMenuGroupWidths@@@Z @ 3922 NONAME
 ?InsertMenus@XOleIPFrame@COleControlContainer@@UEAAJPEAUHMENU__@@PEAUtagOleMenuGroupWidths@@@Z @ 3923 NONAME
 ?InternalGetFont@COleControl@@QEAAAEAVCFontHolder@@XZ @ 3924 NONAME
 ?InternalGetText@COleControl@@QEAAAEBV?$CStringT@DV?$StrTraitMFC_DLL@DV?$ChTraitsCRT@D@ATL@@@@@ATL@@XZ @ 3925 NONAME
 ?InternalQueryInterface@CCmdTarget@@QEAAKPEBXPEAPEAX@Z @ 3926 NONAME
 ?InternalRelease@CCmdTarget@@QEAAKXZ @ 3927 NONAME
 ?IntersectClipRect@CDC@@QEAAHHHHH@Z @ 3928 NONAME
 ?IntersectClipRect@CDC@@QEAAHPEBUtagRECT@@@Z @ 3929 NONAME
 ?InvalidateCheck@CCheckListBox@@IEAAXH@Z @ 3930 NONAME
 ?InvalidateControl@COleControl@@QEAAXPEBUtagRECT@@H@Z @ 3931 NONAME
 ?InvalidateItem@CCheckListBox@@IEAAXH@Z @ 3932 NONAME
 ?InvalidateRect@XOleIPSite@COleControlSite@@UEAAJPEBUtagRECT@@H@Z @ 3933 NONAME
 ?InvalidateRgn@COleControl@@QEAAXPEAVCRgn@@H@Z @ 3934 NONAME
 ?InvalidateRgn@XOleIPSite@COleControlSite@@UEAAJPEAUHRGN__@@H@Z @ 3935 NONAME
 ?Invoke@CDHtmlControlSink@@UEAAJJAEBU_GUID@@KGPEAUtagDISPPARAMS@@PEAUtagVARIANT@@PEAUtagEXCEPINFO@@PEAI@Z @ 3936 NONAME
 ?Invoke@CDHtmlElementEventSink@@UEAAJJAEBU_GUID@@KGPEAUtagDISPPARAMS@@PEAUtagVARIANT@@PEAUtagEXCEPINFO@@PEAI@Z @ 3937 NONAME
 ?Invoke@CDHtmlEventSink@@UEAAJJAEBU_GUID@@KGPEAUtagDISPPARAMS@@PEAUtagVARIANT@@PEAUtagEXCEPINFO@@PEAI@Z @ 3938 NONAME
 ?Invoke@COleDispatchImpl@@UEAAJJAEBU_GUID@@KGPEAUtagDISPPARAMS@@PEAUtagVARIANT@@PEAUtagEXCEPINFO@@PEAI@Z @ 3939 NONAME
 ?Invoke@XAccessible@CWnd@@UEAAJJAEBU_GUID@@KGPEAUtagDISPPARAMS@@PEAUtagVARIANT@@PEAUtagEXCEPINFO@@PEAI@Z @ 3940 NONAME
 ?Invoke@XAmbientProps@COleControlSite@@UEAAJJAEBU_GUID@@KGPEAUtagDISPPARAMS@@PEAUtagVARIANT@@PEAUtagEXCEPINFO@@PEAI@Z @ 3941 NONAME
 ?Invoke@XEventSink@COleControlSite@@UEAAJJAEBU_GUID@@KGPEAUtagDISPPARAMS@@PEAUtagVARIANT@@PEAUtagEXCEPINFO@@PEAI@Z @ 3942 NONAME
 ?InvokeFromFuncInfo@CDHtmlControlSink@@QEAAJP8CDHtmlSinkHandler@@EAAXXZAEAU_ATL_FUNC_INFO@ATL@@PEAUtagDISPPARAMS@@PEAUtagVARIANT@@@Z @ 3943 NONAME
 ?InvokeHelper@COleControlSite@@UEAAXJGGPEAXPEBEZZ @ 3944 NONAME
 ?InvokeHelper@COleDispatchDriver@@QEAAXJGGPEAXPEBEZZ @ 3945 NONAME
 ?InvokeHelper@CWnd@@QEAAXJGGPEAXPEBEZZ @ 3946 NONAME
 ?InvokeHelperV@COleControlSite@@UEAAXJGGPEAXPEBEPEAD@Z @ 3947 NONAME
 ?InvokeHelperV@COleDispatchDriver@@QEAAXJGGPEAXPEBEPEAD@Z @ 3948 NONAME
 ?IsBlank@CDocItem@@UEBAHXZ @ 3949 NONAME
 ?IsBlank@COleServerItem@@MEBAHXZ @ 3950 NONAME
 ?IsButtonEnabled@CPropertyPage@@IEAAHH@Z @ 3951 NONAME
 ?IsChildPane@CSplitterWnd@@QEAAHPEAVCWnd@@PEAH1@Z @ 3952 NONAME
 ?IsConnected@COleServerItem@@QEBAHXZ @ 3953 NONAME
 ?IsDataAvailable@COleDataObject@@QEAAHGPEAUtagFORMATETC@@@Z @ 3954 NONAME
 ?IsDefaultButton@COleControlSite@@QEAAHXZ @ 3955 NONAME
 ?IsDerivedFrom@CRuntimeClass@@QEBAHPEBU1@@Z @ 3956 NONAME
 ?IsDialogMessageA@COccManager@@UEAAHPEAVCWnd@@PEAUtagMSG@@@Z @ 3957 NONAME
 ?IsDialogMessageA@CWnd@@QEAAHPEAUtagMSG@@@Z @ 3958 NONAME
 ?IsDirty@CBlobProperty@@UEAAJXZ @ 3959 NONAME
 ?IsDirty@XPersistFile@COleLinkingDoc@@UEAAJXZ @ 3960 NONAME
 ?IsDirty@XPersistMemory@COleControl@@UEAAJXZ @ 3961 NONAME
 ?IsDirty@XPersistStorage@COleControl@@UEAAJXZ @ 3962 NONAME
 ?IsDirty@XPersistStorage@COleServerDoc@@UEAAJXZ @ 3963 NONAME
 ?IsDirty@XPersistStreamInit@COleControl@@UEAAJXZ @ 3964 NONAME
 ?IsDlgButtonChecked@COleControlContainer@@UEBAIH@Z @ 3965 NONAME
 ?IsDlgButtonChecked@CWnd@@QEBAIH@Z @ 3966 NONAME
 ?IsDockBar@CControlBar@@UEBAHXZ @ 3967 NONAME
 ?IsDockBar@CDockBar@@UEBAHXZ @ 3968 NONAME
 ?IsDots@CFileFind@@UEBAHXZ @ 3969 NONAME
 ?IsDots@CGopherFileFind@@UEBAHXZ @ 3970 NONAME
 ?IsEmpty@?$CSimpleStringT@_W$00@ATL@@QEBA_NXZ @ 3971 NONAME
 ?IsEmpty@?$CSimpleStringT@D$00@ATL@@QEBA_NXZ @ 3972 NONAME
 ?IsEnabled@CCheckListBox@@QEAAHH@Z @ 3973 NONAME
 ?IsExternalDispatchSafe@CDHtmlDialog@@UEAAHXZ @ 3974 NONAME
 ?IsFieldDirty@CRecordset@@QEAAHPEAX@Z @ 3975 NONAME
 ?IsFieldNull@CRecordset@@QEAAHPEAX@Z @ 3976 NONAME
 ?IsFieldNullable@CRecordset@@QEAAHPEAX@Z @ 3977 NONAME
 ?IsFieldNullable@CRecordset@@QEBAHK@Z @ 3978 NONAME
 ?IsFieldStatusDirty@CRecordset@@QEBAHK@Z @ 3979 NONAME
 ?IsFieldStatusNull@CRecordset@@QEBAHK@Z @ 3980 NONAME
 ?IsFieldType@CFieldExchange@@QEAAHPEAI@Z @ 3981 NONAME
 ?IsFloating@CControlBar@@QEBAHXZ @ 3982 NONAME
 ?IsFrameWnd@CFrameWnd@@UEBAHXZ @ 3983 NONAME
 ?IsFrameWnd@CWnd@@UEBAHXZ @ 3984 NONAME
 ?IsHelpKey@@YAHPEAUtagMSG@@@Z @ 3985 NONAME
 ?IsIdleMessage@CWinThread@@UEAAHPEAUtagMSG@@@Z @ 3986 NONAME
 ?IsInvokeAllowed@CCmdTarget@@UEAAHJ@Z @ 3987 NONAME
 ?IsInvokeAllowed@COleControl@@MEAAHJ@Z @ 3988 NONAME
 ?IsJoin@CRecordset@@SAHPEBD@Z @ 3989 NONAME
 ?IsKindOf@CObject@@QEBAHPEBUCRuntimeClass@@@Z @ 3990 NONAME
 ?IsLabelControl@COccManager@@SAHPEAUCOleControlSiteOrWnd@@@Z @ 3991 NONAME
 ?IsLabelControl@COccManager@@SAHPEAVCWnd@@@Z @ 3992 NONAME
 ?IsLicenseValid@COleObjectFactory@@QEAAHXZ @ 3993 NONAME
 ?IsManaged@CControlCreationInfo@@QEBAHXZ @ 3994 NONAME
 ?IsMatchingMnemonic@COccManager@@SAHPEAUCOleControlSiteOrWnd@@PEAUtagMSG@@@Z @ 3995 NONAME
 ?IsMatchingMnemonic@COccManager@@SAHPEAVCWnd@@PEAUtagMSG@@@Z @ 3996 NONAME
 ?IsMatchingMnemonic@COleControlSite@@QEAAHPEAUtagMSG@@@Z @ 3997 NONAME
 ?IsModified@CHtmlEditDoc@@UEAAHXZ @ 3998 NONAME
 ?IsModified@COleClientItem@@QEBAHXZ @ 3999 NONAME
 ?IsModified@COleControl@@QEAAHXZ @ 4000 NONAME
 ?IsModified@COlePropertyPage@@QEAAHXZ @ 4001 NONAME
 ?IsModified@CRichEditDoc@@UEAAHXZ @ 4002 NONAME
 ?IsOnFirstRecord@CRecordView@@QEAAHXZ @ 4003 NONAME
 ?IsOnLastRecord@CRecordView@@QEAAHXZ @ 4004 NONAME
 ?IsOpen@CRecordset@@QEBAHXZ @ 4005 NONAME
 ?IsPageDirty@XPropertyPage@COlePropertyPage@@UEAAJXZ @ 4006 NONAME
 ?IsParamStatusNull@CRecordset@@QEBAHK@Z @ 4007 NONAME
 ?IsRecordsetUpdatable@CRecordset@@IEAAHXZ @ 4008 NONAME
 ?IsResultExpected@CCmdTarget@@QEAAHXZ @ 4009 NONAME
 ?IsRichEditFormat@CRichEditView@@SAHG@Z @ 4010 NONAME
 ?IsRunning@XOleItemContainer@COleLinkingDoc@@UEAAJPEA_W@Z @ 4011 NONAME
 ?IsSelected@CRichEditView@@MEBAHPEBVCObject@@@Z @ 4012 NONAME
 ?IsSelected@CView@@UEBAHPEBVCObject@@@Z @ 4013 NONAME
 ?IsSelectQueryUpdatable@CRecordset@@QEAAHPEBD@Z @ 4014 NONAME
 ?IsSerializable@CObject@@QEBAHXZ @ 4015 NONAME
 ?IsSignificantMessage@COleMessageFilter@@UEAAHPEAUtagMSG@@@Z @ 4016 NONAME
 ?IsSinkedElement@CDHtmlDialog@@IEAAHPEAUIDispatch@@@Z @ 4017 NONAME
 ?IsSQLUpdatable@CRecordset@@QEAAHPEBD@Z @ 4018 NONAME
 ?IsSubclassedControl@COleControl@@UEAAHXZ @ 4019 NONAME
 ?IsTopParentActive@CWnd@@QEBAHXZ @ 4020 NONAME
 ?IsTracking@CFrameWnd@@QEBAHXZ @ 4021 NONAME
 ?IsUpToDate@XOleObject@CDocObjectServer@@UEAAJXZ @ 4022 NONAME
 ?IsUpToDate@XOleObject@COleControl@@UEAAJXZ @ 4023 NONAME
 ?IsUpToDate@XOleObject@COleServerDoc@@UEAAJXZ @ 4024 NONAME
 ?IsUpToDate@XOleObject@COleServerItem@@UEAAJXZ @ 4025 NONAME
 ?IsVisible@CControlBar@@UEBAHXZ @ 4026 NONAME
 ?IsWindowEnabled@COleControlSite@@UEBAHXZ @ 4027 NONAME
 ?IsWindowEnabled@CWnd@@QEBAHXZ @ 4028 NONAME
 ?ItemFromPoint@CListBox@@QEBAIVCPoint@@AEAH@Z @ 4029 NONAME
 ?ItemHasChildren@CTreeCtrl@@QEBAHPEAU_TREEITEM@@@Z @ 4030 NONAME
 ?KeyDown@COleControl@@IEAAXPEAG@Z @ 4031 NONAME
 ?KeyUp@COleControl@@IEAAXPEAG@Z @ 4032 NONAME
 ?KillSocket@CAsyncSocket@@SAX_KPEAV1@@Z @ 4033 NONAME
 ?Layout@CToolBar@@IEAAXXZ @ 4034 NONAME
 ?Left@?$CStringT@_WV?$StrTraitMFC_DLL@_WV?$ChTraitsCRT@_W@ATL@@@@@ATL@@QEBA?AV12@H@Z @ 4035 NONAME
 ?Left@?$CStringT@DV?$StrTraitMFC_DLL@DV?$ChTraitsCRT@D@ATL@@@@@ATL@@QEBA?AV12@H@Z @ 4036 NONAME
 ?LineIndex@CRichEditCtrl@@QEBAHH@Z @ 4037 NONAME
 ?LineLength@CRichEditCtrl@@QEBAHH@Z @ 4038 NONAME
 ?LineScroll@CRichEditCtrl@@QEAAXHH@Z @ 4039 NONAME
 ?LineTo@CDC@@QEAAHHH@Z @ 4040 NONAME
 ?lMaxSize@CRichEditView@@2KA @ 4041 NONAME DATA
 ?Load@CBlobProperty@@UEAAJPEAUIStream@@@Z @ 4042 NONAME
 ?Load@CDialogTemplate@@QEAAHPEBD@Z @ 4043 NONAME
 ?Load@COleControl@@QEAAXPEBDAEAVCDataPathProperty@@@Z @ 4044 NONAME
 ?Load@CRuntimeClass@@SAPEAU1@AEAVCArchive@@PEAI@Z @ 4045 NONAME
 ?Load@XPersistFile@COleLinkingDoc@@UEAAJPEB_WK@Z @ 4046 NONAME
 ?Load@XPersistMemory@COleControl@@UEAAJPEAXK@Z @ 4047 NONAME
 ?Load@XPersistPropertyBag@COleControl@@UEAAJPEAUIPropertyBag@@PEAUIErrorLog@@@Z @ 4048 NONAME
 ?Load@XPersistStorage@COleControl@@UEAAJPEAUIStorage@@@Z @ 4049 NONAME
 ?Load@XPersistStorage@COleServerDoc@@UEAAJPEAUIStorage@@@Z @ 4050 NONAME
 ?Load@XPersistStreamInit@COleControl@@UEAAJPEAUIStream@@@Z @ 4051 NONAME
 ?LoadAccelTable@CFrameWnd@@QEAAHPEBD@Z @ 4052 NONAME
 ?LoadAppLangResourceDLL@CWinApp@@UEAAPEAUHINSTANCE__@@XZ @ 4053 NONAME
 ?LoadBarState@CFrameWnd@@QEAAXPEBD@Z @ 4054 NONAME
 ?LoadBitmapA@CToolBar@@QEAAHPEBD@Z @ 4055 NONAME
 ?LoadBitmaps@CBitmapButton@@QEAAHPEBD000@Z @ 4056 NONAME
 ?LoadFields@CRecordset@@QEAAXXZ @ 4057 NONAME
 ?LoadFrame@CFrameWnd@@UEAAHIKPEAVCWnd@@PEAUCCreateContext@@@Z @ 4058 NONAME
 ?LoadFrame@CMDIChildWnd@@UEAAHIKPEAVCWnd@@PEAUCCreateContext@@@Z @ 4059 NONAME
 ?LoadFrame@CMDIFrameWnd@@UEAAHIKPEAVCWnd@@PEAUCCreateContext@@@Z @ 4060 NONAME
 ?LoadFrame@COleIPFrameWnd@@UEAAHIKPEAVCWnd@@PEAUCCreateContext@@@Z @ 4061 NONAME
 ?LoadFromResource@CDHtmlDialog@@QEAAHI@Z @ 4062 NONAME
 ?LoadFromResource@CDHtmlDialog@@QEAAHPEBD@Z @ 4063 NONAME
 ?LoadFromResource@CHtmlView@@QEAAHI@Z @ 4064 NONAME
 ?LoadFromResource@CHtmlView@@QEAAHPEBD@Z @ 4065 NONAME
 ?LoadFromStorage@COleDocument@@MEAAXXZ @ 4066 NONAME
 ?LoadState@CControlBarInfo@@QEAAHPEBDHPEAVCDockState@@@Z @ 4067 NONAME
 ?LoadState@CDockState@@QEAAXPEBD@Z @ 4068 NONAME
 ?LoadState@COleControl@@IEAAJPEAUIStream@@@Z @ 4069 NONAME
 ?LoadStdProfileSettings@CWinApp@@IEAAXI@Z @ 4070 NONAME
 ?LoadStringA@?$CStringT@_WV?$StrTraitMFC_DLL@_WV?$ChTraitsCRT@_W@ATL@@@@@ATL@@QEAAHI@Z @ 4071 NONAME
 ?LoadStringA@?$CStringT@_WV?$StrTraitMFC_DLL@_WV?$ChTraitsCRT@_W@ATL@@@@@ATL@@QEAAHPEAUHINSTANCE__@@I@Z @ 4072 NONAME
 ?LoadStringA@?$CStringT@_WV?$StrTraitMFC_DLL@_WV?$ChTraitsCRT@_W@ATL@@@@@ATL@@QEAAHPEAUHINSTANCE__@@IG@Z @ 4073 NONAME
 ?LoadStringA@?$CStringT@DV?$StrTraitMFC_DLL@DV?$ChTraitsCRT@D@ATL@@@@@ATL@@QEAAHI@Z @ 4074 NONAME
 ?LoadStringA@?$CStringT@DV?$StrTraitMFC_DLL@DV?$ChTraitsCRT@D@ATL@@@@@ATL@@QEAAHPEAUHINSTANCE__@@I@Z @ 4075 NONAME
 ?LoadStringA@?$CStringT@DV?$StrTraitMFC_DLL@DV?$ChTraitsCRT@D@ATL@@@@@ATL@@QEAAHPEAUHINSTANCE__@@IG@Z @ 4076 NONAME
 ?LoadSysPolicies@CWinApp@@UEAAHXZ @ 4077 NONAME
 ?LoadTemplate@CDocTemplate@@UEAAXXZ @ 4078 NONAME
 ?LoadTemplate@CMultiDocTemplate@@UEAAXXZ @ 4079 NONAME
 ?LoadToolBar@CToolBar@@QEAAHPEBD@Z @ 4080 NONAME
 ?Lock@CMultiLock@@QEAAKKHK@Z @ 4081 NONAME
 ?Lock@COleSafeArray@@QEAAXXZ @ 4082 NONAME
 ?Lock@CSingleLock@@QEAAHK@Z @ 4083 NONAME
 ?Lock@CSyncObject@@UEAAHK@Z @ 4084 NONAME
 ?Lock@CTypeLibCache@@QEAAXXZ @ 4085 NONAME
 ?LockBuffer@?$CSimpleStringT@_W$00@ATL@@QEAAPEA_WXZ @ 4086 NONAME
 ?LockBuffer@?$CSimpleStringT@D$00@ATL@@QEAAPEADXZ @ 4087 NONAME
 ?LockBuffer@CEditView@@QEBAPEBDXZ @ 4088 NONAME
 ?LockContainer@XOleContainer@COleControlContainer@@UEAAJH@Z @ 4089 NONAME
 ?LockContainer@XOleItemContainer@COleLinkingDoc@@UEAAJH@Z @ 4090 NONAME
 ?LockExternal@COleLinkingDoc@@IEAAXHH@Z @ 4091 NONAME
 ?LockInPlaceActive@COleControl@@QEAAHH@Z @ 4092 NONAME
 ?LockInPlaceActive@XOleControlSite@COleControlSite@@UEAAJH@Z @ 4093 NONAME
 ?LockRange@CFile@@UEAAX_K0@Z @ 4094 NONAME
 ?LockRange@CInternetFile@@UEAAX_K0@Z @ 4095 NONAME
 ?LockRange@CMemFile@@UEAAX_K0@Z @ 4096 NONAME
 ?LockRange@COleStreamFile@@UEAAX_K0@Z @ 4097 NONAME
 ?LockRange@CSocketFile@@UEAAX_K0@Z @ 4098 NONAME
 ?LockRange@CStdioFile@@UEAAX_K0@Z @ 4099 NONAME
 ?LockRegion@CArchiveStream@@UEAAJT_ULARGE_INTEGER@@0K@Z @ 4100 NONAME
 ?LockServer@XClassFactory@COleObjectFactory@@UEAAJH@Z @ 4101 NONAME
 ?Lookup@CMapPtrToPtr@@QEBAHPEAXAEAPEAX@Z @ 4102 NONAME
 ?Lookup@CMapPtrToWord@@QEBAHPEAXAEAG@Z @ 4103 NONAME
 ?Lookup@CMapStringToOb@@QEBAHPEBDAEAPEAVCObject@@@Z @ 4104 NONAME
 ?Lookup@CMapStringToPtr@@QEBAHPEBDAEAPEAX@Z @ 4105 NONAME
 ?Lookup@CMapStringToString@@QEBAHPEBDAEAV?$CStringT@DV?$StrTraitMFC_DLL@DV?$ChTraitsCRT@D@ATL@@@@@ATL@@@Z @ 4106 NONAME
 ?Lookup@CMapWordToOb@@QEBAHGAEAPEAVCObject@@@Z @ 4107 NONAME
 ?Lookup@CMapWordToPtr@@QEBAHGAEAPEAX@Z @ 4108 NONAME
 ?Lookup@COleDataSource@@IEBAPEAUAFX_DATACACHE_ENTRY@@PEAUtagFORMATETC@@W4tagDATADIR@@@Z @ 4109 NONAME
 ?Lookup@CTypeLibCache@@QEAAHKPEAPEAUITypeLib@@@Z @ 4110 NONAME
 ?LookupHandle@CAsyncSocket@@SAPEAV1@_KH@Z @ 4111 NONAME
 ?LookupItem@CRichEditDoc@@QEBAPEAVCRichEditCntrItem@@PEAUIOleObject@@@Z @ 4112 NONAME
 ?LookupKey@CMapStringToOb@@QEBAHPEBDAEAPEBD@Z @ 4113 NONAME
 ?LookupKey@CMapStringToPtr@@QEBAHPEBDAEAPEBD@Z @ 4114 NONAME
 ?LookupKey@CMapStringToString@@QEBAHPEBDAEAPEBD@Z @ 4115 NONAME
 ?LookupTypeInfo@CTypeLibCache@@QEAAHKAEBU_GUID@@PEAPEAUITypeInfo@@@Z @ 4116 NONAME
 ?LPtoDP@CDC@@QEBAXPEAUtagSIZE@@@Z @ 4117 NONAME
 ?LPtoHIMETRIC@CDC@@QEBAXPEAUtagSIZE@@@Z @ 4118 NONAME
 ?MakeLower@?$CStringT@_WV?$StrTraitMFC_DLL@_WV?$ChTraitsCRT@_W@ATL@@@@@ATL@@QEAAAEAV12@XZ @ 4119 NONAME
 ?MakeLower@?$CStringT@DV?$StrTraitMFC_DLL@DV?$ChTraitsCRT@D@ATL@@@@@ATL@@QEAAAEAV12@XZ @ 4120 NONAME
 ?MakeReverse@?$CStringT@_WV?$StrTraitMFC_DLL@_WV?$ChTraitsCRT@_W@ATL@@@@@ATL@@QEAAAEAV12@XZ @ 4121 NONAME
 ?MakeReverse@?$CStringT@DV?$StrTraitMFC_DLL@DV?$ChTraitsCRT@D@ATL@@@@@ATL@@QEAAAEAV12@XZ @ 4122 NONAME
 ?MakeUpper@?$CStringT@_WV?$StrTraitMFC_DLL@_WV?$ChTraitsCRT@_W@ATL@@@@@ATL@@QEAAAEAV12@XZ @ 4123 NONAME
 ?MakeUpper@?$CStringT@DV?$StrTraitMFC_DLL@DV?$ChTraitsCRT@D@ATL@@@@@ATL@@QEAAAEAV12@XZ @ 4124 NONAME
 ?MapObject@CArchive@@QEAAXPEBVCObject@@@Z @ 4125 NONAME
 ?MapPropertyToPage@XPerPropertyBrowsing@COleControl@@UEAAJJPEAU_GUID@@@Z @ 4126 NONAME
 ?MapResult@COleDialog@@QEAAHI@Z @ 4127 NONAME
 ?MapWizardResult@CPropertyPage@@IEAA_J_J@Z @ 4128 NONAME
 ?MarkForAddNew@CRecordset@@QEAAXXZ @ 4129 NONAME
 ?MarkForUpdate@CRecordset@@QEAAXXZ @ 4130 NONAME
 ?MarkItemsClear@CRichEditDoc@@IEBAXXZ @ 4131 NONAME
 ?MatchDocType@CDocTemplate@@UEAA?AW4Confidence@1@PEBDAEAPEAVCDocument@@@Z @ 4132 NONAME
 ?MatchesMask@CFileFind@@UEBAHK@Z @ 4133 NONAME
 ?MDIGetActive@CMDIFrameWnd@@QEBAPEAVCMDIChildWnd@@PEAH@Z @ 4134 NONAME
 ?MeasureItem@CCheckListBox@@UEAAXPEAUtagMEASUREITEMSTRUCT@@@Z @ 4135 NONAME
 ?MeasureItem@CChevronOwnerDrawMenu@@UEAAXPEAUtagMEASUREITEMSTRUCT@@@Z @ 4136 NONAME
 ?MeasureItem@CComboBox@@UEAAXPEAUtagMEASUREITEMSTRUCT@@@Z @ 4137 NONAME
 ?MeasureItem@CListBox@@UEAAXPEAUtagMEASUREITEMSTRUCT@@@Z @ 4138 NONAME
 ?MeasureItem@CMenu@@UEAAXPEAUtagMEASUREITEMSTRUCT@@@Z @ 4139 NONAME
 ?MemberIDFromName@CCmdTarget@@KAJPEBUAFX_DISPMAP@@PEBD@Z @ 4140 NONAME
 ?Memcpy@CMemFile@@MEAAPEAEPEAEPEBE_K@Z @ 4141 NONAME
 ?MessageBoxA@COlePropertyPage@@QEAAHPEBD0I@Z @ 4142 NONAME
 ?MessageBoxA@CWnd@@QEAAHPEBD0I@Z @ 4143 NONAME
 ?MessagePending@XMessageFilter@COleMessageFilter@@UEAAKPEAUHTASK__@@KK@Z @ 4144 NONAME
 ?Mid@?$CStringT@_WV?$StrTraitMFC_DLL@_WV?$ChTraitsCRT@_W@ATL@@@@@ATL@@QEBA?AV12@H@Z @ 4145 NONAME
 ?Mid@?$CStringT@_WV?$StrTraitMFC_DLL@_WV?$ChTraitsCRT@_W@ATL@@@@@ATL@@QEBA?AV12@HH@Z @ 4146 NONAME
 ?Mid@?$CStringT@DV?$StrTraitMFC_DLL@DV?$ChTraitsCRT@D@ATL@@@@@ATL@@QEBA?AV12@H@Z @ 4147 NONAME
 ?Mid@?$CStringT@DV?$StrTraitMFC_DLL@DV?$ChTraitsCRT@D@ATL@@@@@ATL@@QEBA?AV12@HH@Z @ 4148 NONAME
 ?MirrorAttributes@CPreviewDC@@IEAAXXZ @ 4149 NONAME
 ?MirrorFont@CPreviewDC@@IEAAXXZ @ 4150 NONAME
 ?MirrorMappingMode@CPreviewDC@@IEAAXH@Z @ 4151 NONAME
 ?MirrorViewportOrg@CPreviewDC@@IEAAXXZ @ 4152 NONAME
 ?ModifyStyle@COleControlSite@@UEAAHKKI@Z @ 4153 NONAME
 ?ModifyStyle@CWnd@@QEAAHKKI@Z @ 4154 NONAME
 ?ModifyStyle@CWnd@@SAHPEAUHWND__@@KKI@Z @ 4155 NONAME
 ?ModifyStyleEx@COleControlSite@@UEAAHKKI@Z @ 4156 NONAME
 ?ModifyStyleEx@CWnd@@QEAAHKKI@Z @ 4157 NONAME
 ?ModifyStyleEx@CWnd@@SAHPEAUHWND__@@KKI@Z @ 4158 NONAME
 ?ModifyWorldTransform@CDC@@QEAAHPEBUtagXFORM@@K@Z @ 4159 NONAME
 ?Move@CDockContext@@QEAAXVCPoint@@@Z @ 4160 NONAME
 ?Move@CRecordset@@UEAAXJG@Z @ 4161 NONAME
 ?Move@XPropertyPage@COlePropertyPage@@UEAAJPEBUtagRECT@@@Z @ 4162 NONAME
 ?MoveTo@CDC@@QEAA?AVCPoint@@HH@Z @ 4163 NONAME
 ?MoveWindow@COleControlSite@@UEAAXHHHH@Z @ 4164 NONAME
 ?MoveWindow@CWnd@@QEAAXHHHHH@Z @ 4165 NONAME
 ?Navigate@CDHtmlDialog@@QEAAXPEBDK00PEAXK@Z @ 4166 NONAME
 ?Navigate@CHtmlView@@QEAAXPEBDK00PEAXK@Z @ 4167 NONAME
 ?Navigate2@CHtmlView@@QEAAXPEBDK00PEAXK@Z @ 4168 NONAME
 ?Navigate2@CHtmlView@@QEAAXPEBDKAEAVCByteArray@@00@Z @ 4169 NONAME
 ?Navigate2@CHtmlView@@QEAAXPEFAU_ITEMIDLIST@@KPEBD@Z @ 4170 NONAME
 ?NavigateComplete2@CHtmlView@@MEAAXPEAUIDispatch@@PEAUtagVARIANT@@@Z @ 4171 NONAME
 ?NavigateError@CHtmlView@@MEAAXPEAUIDispatch@@PEAUtagVARIANT@@11PEAF@Z @ 4172 NONAME
 ?nDragDelay@COleDropSource@@1IA @ 4173 NONAME DATA
 ?nDragMinDist@COleDropSource@@1IA @ 4174 NONAME DATA
 ?NegotiateBorderSpace@CFrameWnd@@UEAAHIPEAUtagRECT@@@Z @ 4175 NONAME
 ?NewAssoc@CMapPtrToPtr@@IEAAPEAUCAssoc@1@XZ @ 4176 NONAME
 ?NewAssoc@CMapPtrToWord@@IEAAPEAUCAssoc@1@XZ @ 4177 NONAME
 ?NewAssoc@CMapStringToOb@@IEAAPEAUCAssoc@1@XZ @ 4178 NONAME
 ?NewAssoc@CMapStringToPtr@@IEAAPEAUCAssoc@1@XZ @ 4179 NONAME
 ?NewAssoc@CMapStringToString@@IEAAPEAVCAssoc@1@PEBD@Z @ 4180 NONAME
 ?NewAssoc@CMapWordToOb@@IEAAPEAUCAssoc@1@XZ @ 4181 NONAME
 ?NewAssoc@CMapWordToPtr@@IEAAPEAUCAssoc@1@XZ @ 4182 NONAME
 ?NewNode@CObList@@IEAAPEAUCNode@1@PEAU21@0@Z @ 4183 NONAME
 ?NewNode@CPtrList@@IEAAPEAUCNode@1@PEAU21@0@Z @ 4184 NONAME
 ?NewNode@CStringList@@IEAAPEAUCNode@1@PEAU21@0@Z @ 4185 NONAME
 ?Next@XEnumVOID@CEnumArray@@UEAAJKPEAXPEAK@Z @ 4186 NONAME
 ?nMaxSize@CEditView@@2IB @ 4187 NONAME DATA
 ?NormalizeHit@CRectTracker@@QEBAHH@Z @ 4188 NONAME
 ?Notify@CDataBoundProperty@@QEAAXXZ @ 4189 NONAME
 ?NotifyAllInPlace@COleFrameHook@@QEAAHHP81@EAAHH@Z@Z @ 4190 NONAME
 ?NotifyAllItems@COleServerDoc@@IEAAXW4OLE_NOTIFICATION@@_K@Z @ 4191 NONAME
 ?NotifyClient@COleServerItem@@QEAAXW4OLE_NOTIFICATION@@_K@Z @ 4192 NONAME
 ?NotifyFloatingWindows@CFrameWnd@@QEAAXK@Z @ 4193 NONAME
 ?NotifyRename@COleServerDoc@@QEAAXPEBD@Z @ 4194 NONAME
 ?nScrollDelay@COleDropTarget@@1IA @ 4195 NONAME DATA
 ?nScrollInset@COleDropTarget@@1HA @ 4196 NONAME DATA
 ?nScrollInterval@COleDropTarget@@1IA @ 4197 NONAME DATA
 ?OemToCharA@?$CStringT@_WV?$StrTraitMFC_DLL@_WV?$ChTraitsCRT@_W@ATL@@@@@ATL@@QEAAXXZ @ 4198 NONAME
 ?OemToCharA@?$CStringT@DV?$StrTraitMFC_DLL@DV?$ChTraitsCRT@D@ATL@@@@@ATL@@QEAAXXZ @ 4199 NONAME
 ?OffsetClipRgn@CDC@@QEAAHHH@Z @ 4200 NONAME
 ?OffsetClipRgn@CDC@@QEAAHUtagSIZE@@@Z @ 4201 NONAME
 ?OffsetViewportOrg@CDC@@UEAA?AVCPoint@@HH@Z @ 4202 NONAME
 ?OffsetViewportOrg@CMetaFileDC@@UEAA?AVCPoint@@HH@Z @ 4203 NONAME
 ?OffsetViewportOrg@CPreviewDC@@UEAA?AVCPoint@@HH@Z @ 4204 NONAME
 ?OffsetWindowOrg@CDC@@QEAA?AVCPoint@@HH@Z @ 4205 NONAME
 ?OKToDo@XNotifyDBEvents@COleControlSite@@UEAAJKKQEAUtagDBNOTIFYREASON@@@Z @ 4206 NONAME
 ?OnAccept@CAsyncSocket@@MEAAXH@Z @ 4207 NONAME
 ?OnActivate@CControlFrameWnd@@IEAAXIPEAVCWnd@@H@Z @ 4208 NONAME
 ?OnActivate@CFrameWnd@@IEAAXIPEAVCWnd@@H@Z @ 4209 NONAME
 ?OnActivate@COleClientItem@@UEAAXXZ @ 4210 NONAME
 ?OnActivate@COleFrameHook@@UEAAXH@Z @ 4211 NONAME
 ?OnActivateFrame@CFormView@@MEAAXIPEAVCFrameWnd@@@Z @ 4212 NONAME
 ?OnActivateFrame@CView@@MEAAXIPEAVCFrameWnd@@@Z @ 4213 NONAME
 ?OnActivateInPlace@COleControl@@MEAAJHPEAUtagMSG@@@Z @ 4214 NONAME
 ?OnActivateTopLevel@CFrameWnd@@IEAA_J_K_J@Z @ 4215 NONAME
 ?OnActivateTopLevel@CWnd@@IEAA_J_K_J@Z @ 4216 NONAME
 ?OnActivateUI@COleClientItem@@UEAAXXZ @ 4217 NONAME
 ?OnActivateView@CDocObjectServer@@MEAAJXZ @ 4218 NONAME
 ?OnActivateView@CFormView@@MEAAXHPEAVCView@@0@Z @ 4219 NONAME
 ?OnActivateView@CPreviewView@@MEAAXHPEAVCView@@0@Z @ 4220 NONAME
 ?OnActivateView@CRichEditView@@MEAAXHPEAVCView@@0@Z @ 4221 NONAME
 ?OnActivateView@CView@@MEAAXHPEAV1@0@Z @ 4222 NONAME
 ?OnAddTool@CToolTipCtrl@@IEAA_J_K_J@Z @ 4223 NONAME
 ?OnAdvise@CConnectionPoint@@UEAAXH@Z @ 4224 NONAME
 ?OnAdvise@XEventConnPt@COleControl@@UEAAXH@Z @ 4225 NONAME
 ?OnAmbientProperty@CWnd@@UEAAHPEAVCOleControlSite@@JPEAUtagVARIANT@@@Z @ 4226 NONAME
 ?OnAmbientPropertyChange@COleControl@@UEAAXJ@Z @ 4227 NONAME
 ?OnAmbientPropertyChange@XOleControl@COleControl@@UEAAJJ@Z @ 4228 NONAME
 ?OnAppearanceChanged@COleControl@@UEAAXXZ @ 4229 NONAME
 ?OnAppExit@CWinApp@@IEAAXXZ @ 4230 NONAME
 ?OnApply@CPropertyPage@@UEAAHXZ @ 4231 NONAME
 ?OnApplyScale@COlePropertiesDialog@@UEAAHPEAVCOleClientItem@@HH@Z @ 4232 NONAME
 ?OnApplyViewState@CDocObjectServer@@MEAAXAEAVCArchive@@@Z @ 4233 NONAME
 ?OnBackColorChanged@COleControl@@UEAAXXZ @ 4234 NONAME
 ?OnBarCheck@CFrameWnd@@QEAAHI@Z @ 4235 NONAME
 ?OnBarCheck@COleIPFrameWnd@@IEAAHI@Z @ 4236 NONAME
 ?OnBarStyleChange@CControlBar@@UEAAXKK@Z @ 4237 NONAME
 ?OnBarStyleChange@CStatusBar@@UEAAXKK@Z @ 4238 NONAME
 ?OnBarStyleChange@CToolBar@@UEAAXKK@Z @ 4239 NONAME
 ?OnBeforeNavigate@CDHtmlDialog@@UEAAXPEAUIDispatch@@PEBD@Z @ 4240 NONAME
 ?OnBeforeNavigate2@CHtmlView@@UEAAXPEBDK0AEAVCByteArray@@0PEAH@Z @ 4241 NONAME
 ?OnBeginDrag@COleDropSource@@UEAAHPEAVCWnd@@@Z @ 4242 NONAME
 ?OnBeginPrinting@CEditView@@MEAAXPEAVCDC@@PEAUCPrintInfo@@@Z @ 4243 NONAME
 ?OnBeginPrinting@CRichEditView@@MEAAXPEAVCDC@@PEAUCPrintInfo@@@Z @ 4244 NONAME
 ?OnBeginPrinting@CView@@MEAAXPEAVCDC@@PEAUCPrintInfo@@@Z @ 4245 NONAME
 ?OnBorderStyleChanged@COleControl@@UEAAXXZ @ 4246 NONAME
 ?OnBullet@CRichEditView@@IEAAXXZ @ 4247 NONAME
 ?OnBusyDialog@COleMessageFilter@@UEAAHPEAUHTASK__@@@Z @ 4248 NONAME
 ?OnButtonDblClk@COleControl@@IEAAXGIVCPoint@@@Z @ 4249 NONAME
 ?OnButtonDown@COleControl@@IEAAXGIVCPoint@@@Z @ 4250 NONAME
 ?OnButtonUp@COleControl@@IEAAXGIVCPoint@@@Z @ 4251 NONAME
 ?OnCancel@CCommonDialog@@MEAAXXZ @ 4252 NONAME
 ?OnCancel@CDialog@@MEAAXXZ @ 4253 NONAME
 ?OnCancel@CPropertyPage@@UEAAXXZ @ 4254 NONAME
 ?OnCancelEditCntr@CRichEditView@@IEAAXXZ @ 4255 NONAME
 ?OnCancelMode@COleControl@@IEAAXXZ @ 4256 NONAME
 ?OnCancelMode@CSplitterWnd@@IEAAXXZ @ 4257 NONAME
 ?OnChange@COleClientItem@@UEAAXW4OLE_NOTIFICATION@@K@Z @ 4258 NONAME
 ?OnChanged@XFontNotification@COleControl@@UEAAJJ@Z @ 4259 NONAME
 ?OnChanged@XPropertyNotifySink@COleControlSite@@UEAAJJ@Z @ 4260 NONAME
 ?OnChanged@XPropNotifySink@COlePropertyPage@@UEAAJJ@Z @ 4261 NONAME
 ?OnChangedRect@CRectTracker@@UEAAXAEBVCRect@@@Z @ 4262 NONAME
 ?OnChangedViewList@CDocument@@UEAAXXZ @ 4263 NONAME
 ?OnChangeItemPosition@COleClientItem@@MEAAHAEBVCRect@@@Z @ 4264 NONAME
 ?OnChangeItemPosition@CRichEditCntrItem@@MEAAHAEBVCRect@@@Z @ 4265 NONAME
 ?OnChar@COleControl@@IEAAXIII@Z @ 4266 NONAME
 ?OnCharBold@CRichEditView@@IEAAXXZ @ 4267 NONAME
 ?OnCharEffect@CRichEditView@@QEAAXKK@Z @ 4268 NONAME
 ?OnCharItalic@CRichEditView@@IEAAXXZ @ 4269 NONAME
 ?OnCharToItem@CWnd@@IEAAHIPEAVCListBox@@I@Z @ 4270 NONAME
 ?OnCharUnderline@CRichEditView@@IEAAXXZ @ 4271 NONAME
 ?OnChevronPushed@CFrameWnd@@IEAAHIPEAUtagNMHDR@@PEA_J@Z @ 4272 NONAME
 ?OnChildNotify@CButton@@MEAAHI_K_JPEA_J@Z @ 4273 NONAME
 ?OnChildNotify@CCheckListBox@@MEAAHI_K_JPEA_J@Z @ 4274 NONAME
 ?OnChildNotify@CComboBox@@MEAAHI_K_JPEA_J@Z @ 4275 NONAME
 ?OnChildNotify@CDragListBox@@MEAAHI_K_JPEA_J@Z @ 4276 NONAME
 ?OnChildNotify@CHeaderCtrl@@MEAAHI_K_JPEA_J@Z @ 4277 NONAME
 ?OnChildNotify@CListBox@@MEAAHI_K_JPEA_J@Z @ 4278 NONAME
 ?OnChildNotify@CListCtrl@@MEAAHI_K_JPEA_J@Z @ 4279 NONAME
 ?OnChildNotify@CListView@@MEAAHI_K_JPEA_J@Z @ 4280 NONAME
 ?OnChildNotify@CStatic@@MEAAHI_K_JPEA_J@Z @ 4281 NONAME
 ?OnChildNotify@CStatusBar@@MEAAHI_K_JPEA_J@Z @ 4282 NONAME
 ?OnChildNotify@CStatusBarCtrl@@MEAAHI_K_JPEA_J@Z @ 4283 NONAME
 ?OnChildNotify@CTabCtrl@@MEAAHI_K_JPEA_J@Z @ 4284 NONAME
 ?OnChildNotify@CWnd@@MEAAHI_K_JPEA_J@Z @ 4285 NONAME
 ?OnClick@COleControl@@UEAAXG@Z @ 4286 NONAME
 ?OnClone@CEnumArray@@MEAAPEAV1@XZ @ 4287 NONAME
 ?OnClone@CEnumConnections@@MEAAPEAVCEnumArray@@XZ @ 4288 NONAME
 ?OnClose@CAsyncSocket@@MEAAXH@Z @ 4289 NONAME
 ?OnClose@CControlFrameWnd@@IEAAXXZ @ 4290 NONAME
 ?OnClose@CFrameWnd@@IEAAXXZ @ 4291 NONAME
 ?OnClose@CMiniDockFrameWnd@@QEAAXXZ @ 4292 NONAME
 ?OnClose@COleControl@@UEAAXK@Z @ 4293 NONAME
 ?OnClose@COleServerDoc@@MEAAXW4tagOLECLOSE@@@Z @ 4294 NONAME
 ?OnClose@CPropertySheet@@IEAAXXZ @ 4295 NONAME
 ?OnClose@XAdviseSink@COleClientItem@@UEAAXXZ @ 4296 NONAME
 ?OnCloseDocument@CDocObjectServer@@UEAAXXZ @ 4297 NONAME
 ?OnCloseDocument@CDocument@@UEAAXXZ @ 4298 NONAME
 ?OnCloseDocument@COleDocument@@UEAAXXZ @ 4299 NONAME
 ?OnCloseDocument@COleLinkingDoc@@UEAAXXZ @ 4300 NONAME
 ?OnCloseDocument@COleServerDoc@@UEAAXXZ @ 4301 NONAME
 ?OnCmdMsg@CCmdTarget@@UEAAHIHPEAXPEAUAFX_CMDHANDLERINFO@@@Z @ 4302 NONAME
 ?OnCmdMsg@CDialog@@UEAAHIHPEAXPEAUAFX_CMDHANDLERINFO@@@Z @ 4303 NONAME
 ?OnCmdMsg@CDocTemplate@@UEAAHIHPEAXPEAUAFX_CMDHANDLERINFO@@@Z @ 4304 NONAME
 ?OnCmdMsg@CDocument@@UEAAHIHPEAXPEAUAFX_CMDHANDLERINFO@@@Z @ 4305 NONAME
 ?OnCmdMsg@CFrameWnd@@UEAAHIHPEAXPEAUAFX_CMDHANDLERINFO@@@Z @ 4306 NONAME
 ?OnCmdMsg@CHtmlEditView@@UEAAHIHPEAXPEAUAFX_CMDHANDLERINFO@@@Z @ 4307 NONAME
 ?OnCmdMsg@CMDIFrameWnd@@UEAAHIHPEAXPEAUAFX_CMDHANDLERINFO@@@Z @ 4308 NONAME
 ?OnCmdMsg@COleCntrFrameWnd@@UEAAHIHPEAXPEAUAFX_CMDHANDLERINFO@@@Z @ 4309 NONAME
 ?OnCmdMsg@COleDocObjectItem@@MEAAHIHPEAXPEAUAFX_CMDHANDLERINFO@@@Z @ 4310 NONAME
 ?OnCmdMsg@COleDocument@@UEAAHIHPEAXPEAUAFX_CMDHANDLERINFO@@@Z @ 4311 NONAME
 ?OnCmdMsg@COleTemplateServer@@MEAAHIHPEAXPEAUAFX_CMDHANDLERINFO@@@Z @ 4312 NONAME
 ?OnCmdMsg@CPropertySheet@@UEAAHIHPEAXPEAUAFX_CMDHANDLERINFO@@@Z @ 4313 NONAME
 ?OnCmdMsg@CView@@UEAAHIHPEAXPEAUAFX_CMDHANDLERINFO@@@Z @ 4314 NONAME
 ?OnColorDefault@CRichEditView@@IEAAXXZ @ 4315 NONAME
 ?OnColorOK@CColorDialog@@MEAAHXZ @ 4316 NONAME
 ?OnColorPick@CRichEditView@@IEAAXK@Z @ 4317 NONAME
 ?OnCommand@CFrameWnd@@MEAAH_K_J@Z @ 4318 NONAME
 ?OnCommand@CMDIFrameWnd@@MEAAH_K_J@Z @ 4319 NONAME
 ?OnCommand@COlePropertyPage@@MEAAH_K_J@Z @ 4320 NONAME
 ?OnCommand@CPropertySheet@@UEAAH_K_J@Z @ 4321 NONAME
 ?OnCommand@CSplitterWnd@@MEAAH_K_J@Z @ 4322 NONAME
 ?OnCommand@CWnd@@MEAAH_K_J@Z @ 4323 NONAME
 ?OnCommandHelp@CDialog@@IEAA_J_K_J@Z @ 4324 NONAME
 ?OnCommandHelp@CFrameWnd@@IEAA_J_K_J@Z @ 4325 NONAME
 ?OnCommandHelp@CMDIFrameWnd@@IEAA_J_K_J@Z @ 4326 NONAME
 ?OnCommandHelp@CPropertySheet@@IEAA_J_K_J@Z @ 4327 NONAME
 ?OnCommandStateChange@CHtmlView@@UEAAXJH@Z @ 4328 NONAME
 ?OnCompareItem@CWnd@@IEAAHHPEAUtagCOMPAREITEMSTRUCT@@@Z @ 4329 NONAME
 ?OnConnect@CAsyncSocket@@MEAAXH@Z @ 4330 NONAME
 ?OnContextHelp@CFrameWnd@@QEAAXXZ @ 4331 NONAME
 ?OnContextHelp@COleFrameHook@@UEAAHH@Z @ 4332 NONAME
 ?OnContextHelp@COleIPFrameWnd@@IEAAXXZ @ 4333 NONAME
 ?OnContextHelp@CWinApp@@IEAAXXZ @ 4334 NONAME
 ?OnControlInfoChanged@XOleControlSite@COleControlSite@@UEAAJXZ @ 4335 NONAME
 ?OnCreate@CCheckListBox@@IEAAHPEAUtagCREATESTRUCTA@@@Z @ 4336 NONAME
 ?OnCreate@CControlBar@@QEAAHPEAUtagCREATESTRUCTA@@@Z @ 4337 NONAME
 ?OnCreate@CEditView@@IEAAHPEAUtagCREATESTRUCTA@@@Z @ 4338 NONAME
 ?OnCreate@CFormView@@IEAAHPEAUtagCREATESTRUCTA@@@Z @ 4339 NONAME
 ?OnCreate@CFrameWnd@@IEAAHPEAUtagCREATESTRUCTA@@@Z @ 4340 NONAME
 ?OnCreate@CMDIChildWnd@@IEAAHPEAUtagCREATESTRUCTA@@@Z @ 4341 NONAME
 ?OnCreate@COleControl@@IEAAHPEAUtagCREATESTRUCTA@@@Z @ 4342 NONAME
 ?OnCreate@COleIPFrameWnd@@IEAAHPEAUtagCREATESTRUCTA@@@Z @ 4343 NONAME
 ?OnCreate@CPreviewView@@IEAAHPEAUtagCREATESTRUCTA@@@Z @ 4344 NONAME
 ?OnCreate@CRichEditView@@IEAAHPEAUtagCREATESTRUCTA@@@Z @ 4345 NONAME
 ?OnCreate@CToolBarCtrl@@IEAAHPEAUtagCREATESTRUCTA@@@Z @ 4346 NONAME
 ?OnCreate@CView@@IEAAHPEAUtagCREATESTRUCTA@@@Z @ 4347 NONAME
 ?OnCreateAggregates@CCmdTarget@@UEAAHXZ @ 4348 NONAME
 ?OnCreateAggregates@COleControl@@MEAAHXZ @ 4349 NONAME
 ?OnCreateClient@CFrameWnd@@MEAAHPEAUtagCREATESTRUCTA@@PEAUCCreateContext@@@Z @ 4350 NONAME
 ?OnCreateClient@CMDIFrameWnd@@UEAAHPEAUtagCREATESTRUCTA@@PEAUCCreateContext@@@Z @ 4351 NONAME
 ?OnCreateControlBars@COleIPFrameWnd@@UEAAHPEAVCFrameWnd@@0@Z @ 4352 NONAME
 ?OnCreateControlBars@COleIPFrameWnd@@UEAAHPEAVCWnd@@0@Z @ 4353 NONAME
 ?OnCreateHelper@CFrameWnd@@IEAAHPEAUtagCREATESTRUCTA@@PEAUCCreateContext@@@Z @ 4354 NONAME
 ?OnCreateObject@COleObjectFactory@@MEAAPEAVCCmdTarget@@XZ @ 4355 NONAME
 ?OnCreateObject@COleTemplateServer@@MEAAPEAVCCmdTarget@@XZ @ 4356 NONAME
 ?OnCtlColor@CControlBar@@QEAAPEAUHBRUSH__@@PEAVCDC@@PEAVCWnd@@I@Z @ 4357 NONAME
 ?OnCtlColor@COlePropertyPage@@IEAAPEAUHBRUSH__@@PEAVCDC@@PEAVCWnd@@I@Z @ 4358 NONAME
 ?OnCtlColor@CPropertyPage@@IEAAPEAUHBRUSH__@@PEAVCDC@@PEAVCWnd@@I@Z @ 4359 NONAME
 ?OnCtlColor@CPropertySheet@@IEAAPEAUHBRUSH__@@PEAVCDC@@PEAVCWnd@@I@Z @ 4360 NONAME
 ?OnCtlColor@CWnd@@IEAAPEAUHBRUSH__@@PEAVCDC@@PEAV1@I@Z @ 4361 NONAME
 ?OnDataAvailable@CAsyncMonikerFile@@MEAAXKK@Z @ 4362 NONAME
 ?OnDataAvailable@CCachedDataPathProperty@@UEAAXKK@Z @ 4363 NONAME
 ?OnDataChange@COleClientItem@@MEAAXPEAUtagFORMATETC@@PEAUtagSTGMEDIUM@@@Z @ 4364 NONAME
 ?OnDataChange@XAdviseSink@COleClientItem@@UEAAXPEAUtagFORMATETC@@PEAUtagSTGMEDIUM@@@Z @ 4365 NONAME
 ?OnDDECommand@CDocManager@@UEAAHPEAD@Z @ 4366 NONAME
 ?OnDDECommand@CWinApp@@UEAAHPEAD@Z @ 4367 NONAME
 ?OnDDEExecute@CFrameWnd@@IEAA_J_K_J@Z @ 4368 NONAME
 ?OnDDEInitiate@CFrameWnd@@IEAA_J_K_J@Z @ 4369 NONAME
 ?OnDDETerminate@CFrameWnd@@IEAA_J_K_J@Z @ 4370 NONAME
 ?OnDDXError@CDHtmlDialog@@IEAAXPEBDIH@Z @ 4371 NONAME
 ?OnDeactivate@COleClientItem@@UEAAXXZ @ 4372 NONAME
 ?OnDeactivate@COleServerDoc@@UEAAXXZ @ 4373 NONAME
 ?OnDeactivateAndUndo@COleClientItem@@MEAAXXZ @ 4374 NONAME
 ?OnDeactivateUI@COleClientItem@@UEAAXH@Z @ 4375 NONAME
 ?OnDeactivateUI@COleServerDoc@@UEAAXH@Z @ 4376 NONAME
 ?OnDeactivateUI@CRichEditCntrItem@@UEAAXH@Z @ 4377 NONAME
 ?OnDefWindowMessage@XOleIPSite@COleControlSite@@UEAAJI_K_JPEA_J@Z @ 4378 NONAME
 ?OnDeleteItem@CWnd@@IEAAXHPEAUtagDELETEITEMSTRUCT@@@Z @ 4379 NONAME
 ?OnDestroy@CControlBar@@QEAAXXZ @ 4380 NONAME
 ?OnDestroy@CDHtmlDialog@@IEAAXXZ @ 4381 NONAME
 ?OnDestroy@CEditView@@IEAAXXZ @ 4382 NONAME
 ?OnDestroy@CFrameWnd@@IEAAXXZ @ 4383 NONAME
 ?OnDestroy@CHtmlView@@IEAAXXZ @ 4384 NONAME
 ?OnDestroy@CMDIChildWnd@@IEAAXXZ @ 4385 NONAME
 ?OnDestroy@CMDIFrameWnd@@IEAAXXZ @ 4386 NONAME
 ?OnDestroy@COleControl@@IEAAXXZ @ 4387 NONAME
 ?OnDestroy@COleIPFrameWnd@@IEAAXXZ @ 4388 NONAME
 ?OnDestroy@CRichEditView@@IEAAXXZ @ 4389 NONAME
 ?OnDestroy@CTabCtrl@@IEAAXXZ @ 4390 NONAME
 ?OnDestroy@CTreeCtrl@@QEAAXXZ @ 4391 NONAME
 ?OnDestroy@CTreeView@@QEAAXXZ @ 4392 NONAME
 ?OnDestroy@CView@@IEAAXXZ @ 4393 NONAME
 ?OnDestroy@CWnd@@IEAAXXZ @ 4394 NONAME
 ?OnDestroyModeless@CDHtmlDialog@@IEAA_J_K_J@Z @ 4395 NONAME
 ?OnDevModeChange@CRichEditView@@IEAAXPEAD@Z @ 4396 NONAME
 ?OnDevModeChange@CWnd@@IEAAXPEAD@Z @ 4397 NONAME
 ?OnDisableModal@CToolTipCtrl@@IEAA_J_K_J@Z @ 4398 NONAME
 ?OnDiscardUndoState@COleClientItem@@MEAAXXZ @ 4399 NONAME
 ?OnDisplayChange@CSplitterWnd@@IEAAXXZ @ 4400 NONAME
 ?OnDisplayChange@CWnd@@IEAA_J_K_J@Z @ 4401 NONAME
 ?OnDisplayPageNumber@CPreviewView@@MEAAXII@Z @ 4402 NONAME
 ?OnDocActivate@COleFrameHook@@UEAAHH@Z @ 4403 NONAME
 ?OnDocumentComplete@CDHtmlDialog@@UEAAXPEAUIDispatch@@PEBD@Z @ 4404 NONAME
 ?OnDocumentComplete@CHtmlView@@UEAAXPEBD@Z @ 4405 NONAME
 ?OnDocumentReadyStateChange@CDHtmlDialog@@QEAAJPEAUIHTMLElement@@@Z @ 4406 NONAME
 ?OnDocWindowActivate@CBrowserControlSite@@MEAAJH@Z @ 4407 NONAME
 ?OnDocWindowActivate@CDHtmlDialog@@UEAAJH@Z @ 4408 NONAME
 ?OnDocWindowActivate@CHtmlView@@UEAAJH@Z @ 4409 NONAME
 ?OnDocWindowActivate@COleServerDoc@@UEAAXH@Z @ 4410 NONAME
 ?OnDocWindowActivate@XDocHostUIHandler@CHtmlControlSite@@UEAAJH@Z @ 4411 NONAME
 ?OnDocWindowActivate@XOleInPlaceActiveObject@COleControl@@UEAAJH@Z @ 4412 NONAME
 ?OnDocWindowActivate@XOleInPlaceActiveObject@COleServerDoc@@UEAAJH@Z @ 4413 NONAME
 ?OnDoVerb@CDocObjectServerItem@@MEAAXJ@Z @ 4414 NONAME
 ?OnDoVerb@COleControl@@UEAAHJPEAUtagMSG@@PEAUHWND__@@PEBUtagRECT@@@Z @ 4415 NONAME
 ?OnDoVerb@COleServerItem@@UEAAXJ@Z @ 4416 NONAME
 ?OnDownloadBegin@CHtmlView@@UEAAXXZ @ 4417 NONAME
 ?OnDownloadComplete@CHtmlView@@UEAAXXZ @ 4418 NONAME
 ?OnDragEnter@COleDropTarget@@UEAAKPEAVCWnd@@PEAVCOleDataObject@@KVCPoint@@@Z @ 4419 NONAME
 ?OnDragEnter@CView@@UEAAKPEAVCOleDataObject@@KVCPoint@@@Z @ 4420 NONAME
 ?OnDragLeave@COleDropTarget@@UEAAXPEAVCWnd@@@Z @ 4421 NONAME
 ?OnDragLeave@CView@@UEAAXXZ @ 4422 NONAME
 ?OnDragList@CWnd@@IEAA_J_K_J@Z @ 4423 NONAME
 ?OnDragOver@COleDropTarget@@UEAAKPEAVCWnd@@PEAVCOleDataObject@@KVCPoint@@@Z @ 4424 NONAME
 ?OnDragOver@CView@@UEAAKPEAVCOleDataObject@@KVCPoint@@@Z @ 4425 NONAME
 ?OnDragScroll@COleDropTarget@@UEAAKPEAVCWnd@@KVCPoint@@@Z @ 4426 NONAME
 ?OnDragScroll@CView@@UEAAKKVCPoint@@@Z @ 4427 NONAME
 ?OnDraw@CCtrlView@@MEAAXPEAVCDC@@@Z @ 4428 NONAME
 ?OnDraw@CFormView@@MEAAXPEAVCDC@@@Z @ 4429 NONAME
 ?OnDraw@CHtmlView@@UEAAXPEAVCDC@@@Z @ 4430 NONAME
 ?OnDraw@COleControl@@UEAAXPEAVCDC@@AEBVCRect@@1@Z @ 4431 NONAME
 ?OnDraw@CPreviewView@@MEAAXPEAVCDC@@@Z @ 4432 NONAME
 ?OnDraw@CView@@MEAAXPEAVCDC@@@Z @ 4433 NONAME
 ?OnDrawEx@COleServerItem@@UEAAHPEAVCDC@@W4tagDVASPECT@@AEAVCSize@@@Z @ 4434 NONAME
 ?OnDrawItem@CWnd@@IEAAXHPEAUtagDRAWITEMSTRUCT@@@Z @ 4435 NONAME
 ?OnDrawMetafile@COleControl@@UEAAXPEAVCDC@@AEBVCRect@@@Z @ 4436 NONAME
 ?OnDrawPage@CPageSetupDialog@@UEAAIPEAVCDC@@IPEAUtagRECT@@@Z @ 4437 NONAME
 ?OnDrawSplitter@CSplitterWnd@@MEAAXPEAVCDC@@W4ESplitType@1@AEBVCRect@@@Z @ 4438 NONAME
 ?OnDrop@COleDropTarget@@UEAAHPEAVCWnd@@PEAVCOleDataObject@@KVCPoint@@@Z @ 4439 NONAME
 ?OnDrop@CView@@UEAAHPEAVCOleDataObject@@KVCPoint@@@Z @ 4440 NONAME
 ?OnDropEx@COleDropTarget@@UEAAKPEAVCWnd@@PEAVCOleDataObject@@KKVCPoint@@@Z @ 4441 NONAME
 ?OnDropEx@CView@@UEAAKPEAVCOleDataObject@@KKVCPoint@@@Z @ 4442 NONAME
 ?OnDropFiles@CFrameWnd@@IEAAXPEAUHDROP__@@@Z @ 4443 NONAME
 ?OnDropFiles@CRichEditView@@IEAAXPEAUHDROP__@@@Z @ 4444 NONAME
 ?OnEdit@COleControl@@UEAAHPEAUtagMSG@@PEAUHWND__@@PEBUtagRECT@@@Z @ 4445 NONAME
 ?OnEditChange@CEditView@@IEAAHXZ @ 4446 NONAME
 ?OnEditChangeIcon@COleDocument@@IEAAXXZ @ 4447 NONAME
 ?OnEditClear@CEditView@@IEAAXXZ @ 4448 NONAME
 ?OnEditClear@CRichEditView@@IEAAXXZ @ 4449 NONAME
 ?OnEditConvert@COleDocument@@IEAAXXZ @ 4450 NONAME
 ?OnEditCopy@CEditView@@IEAAXXZ @ 4451 NONAME
 ?OnEditCopy@CHtmlView@@IEAAXXZ @ 4452 NONAME
 ?OnEditCopy@CRichEditView@@IEAAXXZ @ 4453 NONAME
 ?OnEditCut@CEditView@@IEAAXXZ @ 4454 NONAME
 ?OnEditCut@CHtmlView@@IEAAXXZ @ 4455 NONAME
 ?OnEditCut@CRichEditView@@IEAAXXZ @ 4456 NONAME
 ?OnEditFind@CEditView@@IEAAXXZ @ 4457 NONAME
 ?OnEditFind@CRichEditView@@IEAAXXZ @ 4458 NONAME
 ?OnEditFindReplace@CEditView@@IEAAXH@Z @ 4459 NONAME
 ?OnEditFindReplace@CRichEditView@@IEAAXH@Z @ 4460 NONAME
 ?OnEditLinks@COleDocument@@IEAAXXZ @ 4461 NONAME
 ?OnEditPaste@CEditView@@IEAAXXZ @ 4462 NONAME
 ?OnEditPaste@CHtmlView@@IEAAXXZ @ 4463 NONAME
 ?OnEditPaste@CRichEditView@@IEAAXXZ @ 4464 NONAME
 ?OnEditPasteSpecial@CRichEditView@@IEAAXXZ @ 4465 NONAME
 ?OnEditProperties@CRichEditView@@IEAAXXZ @ 4466 NONAME
 ?OnEditProperty@COlePropertyPage@@UEAAHJ@Z @ 4467 NONAME
 ?OnEditRedo@CRichEditView@@IEAAXXZ @ 4468 NONAME
 ?OnEditRepeat@CEditView@@IEAAXXZ @ 4469 NONAME
 ?OnEditRepeat@CRichEditView@@IEAAXXZ @ 4470 NONAME
 ?OnEditReplace@CEditView@@IEAAXXZ @ 4471 NONAME
 ?OnEditReplace@CRichEditView@@IEAAXXZ @ 4472 NONAME
 ?OnEditSelectAll@CEditView@@IEAAXXZ @ 4473 NONAME
 ?OnEditSelectAll@CRichEditView@@IEAAXXZ @ 4474 NONAME
 ?OnEditUndo@CEditView@@IEAAXXZ @ 4475 NONAME
 ?OnEditUndo@CRichEditView@@IEAAXXZ @ 4476 NONAME
 ?OnEnable@CFrameWnd@@IEAAXH@Z @ 4477 NONAME
 ?OnEnable@CToolTipCtrl@@IEAAXH@Z @ 4478 NONAME
 ?OnEnabledChanged@COleControl@@UEAAXXZ @ 4479 NONAME
 ?OnEnableModeless@CHtmlView@@UEAAJH@Z @ 4480 NONAME
 ?OnEnableModeless@COleFrameHook@@UEAAXH@Z @ 4481 NONAME
 ?OnEndPrinting@CEditView@@MEAAXPEAVCDC@@PEAUCPrintInfo@@@Z @ 4482 NONAME
 ?OnEndPrinting@CRichEditView@@MEAAXPEAVCDC@@PEAUCPrintInfo@@@Z @ 4483 NONAME
 ?OnEndPrinting@CView@@MEAAXPEAVCDC@@PEAUCPrintInfo@@@Z @ 4484 NONAME
 ?OnEndPrintPreview@CView@@MEAAXPEAVCDC@@PEAUCPrintInfo@@UtagPOINT@@PEAVCPreviewView@@@Z @ 4485 NONAME
 ?OnEndSession@CFrameWnd@@IEAAXH@Z @ 4486 NONAME
 ?OnEnterIdle@CFrameWnd@@IEAAXIPEAVCWnd@@@Z @ 4487 NONAME
 ?OnEnterIdle@COleControl@@IEAAXIPEAVCWnd@@@Z @ 4488 NONAME
 ?OnEnterIdle@CWnd@@IEAAXIPEAV1@@Z @ 4489 NONAME
 ?OnEnumVerbs@COleControl@@UEAAHPEAPEAUIEnumOLEVERB@@@Z @ 4490 NONAME
 ?OnEraseBkgnd@CFrameWnd@@IEAAHPEAVCDC@@@Z @ 4491 NONAME
 ?OnEraseBkgnd@COleControl@@IEAAHPEAVCDC@@@Z @ 4492 NONAME
 ?OnEraseBkgnd@COleResizeBar@@IEAAHPEAVCDC@@@Z @ 4493 NONAME
 ?OnEraseBkgnd@CPreviewView@@IEAAHPEAVCDC@@@Z @ 4494 NONAME
 ?OnEraseBkgnd@CReBar@@IEAAHPEAVCDC@@@Z @ 4495 NONAME
 ?OnEraseBkgnd@CToolBar@@IEAAHPEAVCDC@@@Z @ 4496 NONAME
 ?OnEvent@CCmdTarget@@QEAAHIPEAUAFX_EVENT@@PEAUAFX_CMDHANDLERINFO@@@Z @ 4497 NONAME
 ?OnEvent@COccManager@@UEAAHPEAVCCmdTarget@@IPEAUAFX_EVENT@@PEAUAFX_CMDHANDLERINFO@@@Z @ 4498 NONAME
 ?OnEvent@COleControlSite@@IEAAHPEAUAFX_EVENT@@@Z @ 4499 NONAME
 ?OnEventAdvise@COleControl@@UEAAXH@Z @ 4500 NONAME
 ?OnExecOleCmd@CDocObjectServer@@IEAAJPEBU_GUID@@KKPEAUtagVARIANT@@1@Z @ 4501 NONAME
 ?OnExecOleCmd@COleServerDoc@@MEAAJPEBU_GUID@@KKPEAUtagVARIANT@@1@Z @ 4502 NONAME
 ?OnFieldChange@XRowsetNotify@COleControlSite@@UEAAJPEAUIRowset@@_K1QEA_KKKH@Z @ 4503 NONAME
 ?OnFileClose@CDocument@@IEAAXXZ @ 4504 NONAME
 ?OnFileNameChange@CFileDialog@@MEAAXXZ @ 4505 NONAME
 ?OnFileNameOK@CFileDialog@@MEAAHXZ @ 4506 NONAME
 ?OnFileNew@CDocManager@@UEAAXXZ @ 4507 NONAME
 ?OnFileNew@CWinApp@@IEAAXXZ @ 4508 NONAME
 ?OnFileOpen@CDocManager@@UEAAXXZ @ 4509 NONAME
 ?OnFileOpen@CWinApp@@IEAAXXZ @ 4510 NONAME
 ?OnFilePrint@CHtmlView@@QEAAXXZ @ 4511 NONAME
 ?OnFilePrint@CView@@IEAAXXZ @ 4512 NONAME
 ?OnFilePrintPreview@CView@@IEAAXXZ @ 4513 NONAME
 ?OnFilePrintSetup@CWinApp@@IEAAXXZ @ 4514 NONAME
 ?OnFileSave@CDocument@@IEAAXXZ @ 4515 NONAME
 ?OnFileSaveAs@CDocument@@IEAAXXZ @ 4516 NONAME
 ?OnFileSaveCopyAs@COleServerDoc@@IEAAXXZ @ 4517 NONAME
 ?OnFileSendMail@CDocument@@IEAAXXZ @ 4518 NONAME
 ?OnFileSendMail@COleDocument@@IEAAXXZ @ 4519 NONAME
 ?OnFileUpdate@COleServerDoc@@IEAAXXZ @ 4520 NONAME
 ?OnFilterDataObject@CHtmlView@@UEAAJPEAUIDataObject@@PEAPEAU2@@Z @ 4521 NONAME
 ?OnFinalRelease@CCmdTarget@@UEAAXXZ @ 4522 NONAME
 ?OnFinalRelease@CDocument@@UEAAXXZ @ 4523 NONAME
 ?OnFinalRelease@COleControl@@MEAAXXZ @ 4524 NONAME
 ?OnFinalRelease@COlePropertyPage@@MEAAXXZ @ 4525 NONAME
 ?OnFinalRelease@COleServerItem@@UEAAXXZ @ 4526 NONAME
 ?OnFinalRelease@CWnd@@UEAAXXZ @ 4527 NONAME
 ?OnFindEmbeddedItem@COleLinkingDoc@@MEAAPEAVCOleClientItem@@PEBD@Z @ 4528 NONAME
 ?OnFindNext@CEditView@@MEAAXPEBDHH@Z @ 4529 NONAME
 ?OnFindNext@CRichEditView@@MEAAXPEBDHHH@Z @ 4530 NONAME
 ?OnFindReplaceCmd@CEditView@@IEAA_J_K_J@Z @ 4531 NONAME
 ?OnFindReplaceCmd@CRichEditView@@IEAA_J_K_J@Z @ 4532 NONAME
 ?OnFloatStatus@CMiniFrameWnd@@QEAA_J_K_J@Z @ 4533 NONAME
 ?OnFocus@XOleControlSite@COleControlSite@@UEAAJH@Z @ 4534 NONAME
 ?OnFolderChange@CFileDialog@@MEAAXXZ @ 4535 NONAME
 ?OnFontChanged@COleControl@@UEAAXXZ @ 4536 NONAME
 ?OnForeColorChanged@COleControl@@UEAAXXZ @ 4537 NONAME
 ?OnFormatFont@CRichEditView@@IEAAXXZ @ 4538 NONAME
 ?OnFrameClose@COleControl@@MEAAXXZ @ 4539 NONAME
 ?OnFrameWindowActivate@CBrowserControlSite@@MEAAJH@Z @ 4540 NONAME
 ?OnFrameWindowActivate@CDHtmlDialog@@UEAAJH@Z @ 4541 NONAME
 ?OnFrameWindowActivate@CHtmlView@@UEAAJH@Z @ 4542 NONAME
 ?OnFrameWindowActivate@COleServerDoc@@MEAAXH@Z @ 4543 NONAME
 ?OnFrameWindowActivate@XDocHostUIHandler@CHtmlControlSite@@UEAAJH@Z @ 4544 NONAME
 ?OnFrameWindowActivate@XOleInPlaceActiveObject@COleControl@@UEAAJH@Z @ 4545 NONAME
 ?OnFrameWindowActivate@XOleInPlaceActiveObject@COleServerDoc@@UEAAJH@Z @ 4546 NONAME
 ?OnFreezeEvents@COleControl@@UEAAXH@Z @ 4547 NONAME
 ?OnFullScreen@CHtmlView@@UEAAXH@Z @ 4548 NONAME
 ?OnGetCheckPosition@CCheckListBox@@UEAA?AVCRect@@V2@0@Z @ 4549 NONAME
 ?OnGetClipboardData@COleClientItem@@UEAAPEAVCOleDataSource@@HPEAUtagPOINT@@PEAUtagSIZE@@@Z @ 4550 NONAME
 ?OnGetClipboardData@COleServerItem@@UEAAPEAVCOleDataSource@@HPEAUtagPOINT@@PEAUtagSIZE@@@Z @ 4551 NONAME
 ?OnGetClipRect@COleClientItem@@MEAAXAEAVCRect@@@Z @ 4552 NONAME
 ?OnGetColorSet@COleControl@@UEAAHPEAUtagDVTARGETDEVICE@@PEAUHDC__@@PEAPEAUtagLOGPALETTE@@@Z @ 4553 NONAME
 ?OnGetControlInfo@COleControl@@UEAAXPEAUtagCONTROLINFO@@@Z @ 4554 NONAME
 ?OnGetDisplayString@COleControl@@UEAAHJAEAV?$CStringT@DV?$StrTraitMFC_DLL@DV?$ChTraitsCRT@D@ATL@@@@@ATL@@@Z @ 4555 NONAME
 ?OnGetDlgCode@COleControl@@IEAAIXZ @ 4556 NONAME
 ?OnGetDropTarget@CHtmlView@@UEAAJPEAUIDropTarget@@PEAPEAU2@@Z @ 4557 NONAME
 ?OnGetEmbeddedItem@CRichEditDoc@@MEAAPEAVCOleServerItem@@XZ @ 4558 NONAME
 ?OnGetExtent@COleServerItem@@UEAAHW4tagDVASPECT@@AEAVCSize@@@Z @ 4559 NONAME
 ?OnGetExternal@CHtmlView@@UEAAJPEAPEAUIDispatch@@@Z @ 4560 NONAME
 ?OnGetHostInfo@CHtmlView@@UEAAJPEAU_DOCHOSTUIINFO@@@Z @ 4561 NONAME
 ?OnGetInPlaceMenu@COleControl@@UEAAPEAUHMENU__@@XZ @ 4562 NONAME
 ?OnGetItemPosition@COleClientItem@@MEAAXAEAVCRect@@@Z @ 4563 NONAME
 ?OnGetItemPosition@COleDocObjectItem@@MEAAXAEAVCRect@@@Z @ 4564 NONAME
 ?OnGetLinkedItem@COleLinkingDoc@@MEAAPEAVCOleServerItem@@PEBD@Z @ 4565 NONAME
 ?OnGetLinkedItem@COleServerDoc@@UEAAPEAVCOleServerItem@@PEBD@Z @ 4566 NONAME
 ?OnGetMinMaxInfo@CMiniFrameWnd@@QEAAXPEAUtagMINMAXINFO@@@Z @ 4567 NONAME
 ?OnGetNaturalExtent@COleControl@@UEAAHKJPEAUtagDVTARGETDEVICE@@PEAUHDC__@@PEAUtagExtentInfo@@PEAUtagSIZE@@@Z @ 4568 NONAME
 ?OnGetObject@CWnd@@IEAA_J_K_J@Z @ 4569 NONAME
 ?OnGetOptionKeyPath@CHtmlView@@UEAAJPEAPEA_WK@Z @ 4570 NONAME
 ?OnGetPredefinedStrings@COleControl@@UEAAHJPEAVCStringArray@@PEAVCDWordArray@@@Z @ 4571 NONAME
 ?OnGetPredefinedValue@COleControl@@UEAAHJKPEAUtagVARIANT@@@Z @ 4572 NONAME
 ?OnGetText@CStatusBar@@IEAA_J_K_J@Z @ 4573 NONAME
 ?OnGetTextLength@CStatusBar@@IEAA_J_K_J@Z @ 4574 NONAME
 ?OnGetViewExtent@COleControl@@UEAAHKJPEAUtagDVTARGETDEVICE@@PEAUtagSIZE@@@Z @ 4575 NONAME
 ?OnGetViewRect@COleControl@@UEAAHKPEAU_RECTL@@@Z @ 4576 NONAME
 ?OnGetViewStatus@COleControl@@UEAAKXZ @ 4577 NONAME
 ?OnGetWindowContext@COleClientItem@@MEAAHPEAPEAVCFrameWnd@@0PEAUtagOIFI@@@Z @ 4578 NONAME
 ?OnHeightChange@CReBar@@IEAAXPEAUtagNMHDR@@PEA_J@Z @ 4579 NONAME
 ?OnHelp@CFrameWnd@@IEAAXXZ @ 4580 NONAME
 ?OnHelp@COlePropertyPage@@UEAAHPEBD@Z @ 4581 NONAME
 ?OnHelp@CWinApp@@IEAAXXZ @ 4582 NONAME
 ?OnHelp@CWnd@@QEAAXXZ @ 4583 NONAME
 ?OnHelpFinder@CWinApp@@IEAAXXZ @ 4584 NONAME
 ?OnHelpFinder@CWnd@@QEAAXXZ @ 4585 NONAME
 ?OnHelpHitTest@CControlBar@@QEAA_J_K_J@Z @ 4586 NONAME
 ?OnHelpHitTest@CDialog@@IEAA_J_K_J@Z @ 4587 NONAME
 ?OnHelpHitTest@CFrameWnd@@IEAA_J_K_J@Z @ 4588 NONAME
 ?OnHelpIndex@CWinApp@@IEAAXXZ @ 4589 NONAME
 ?OnHelpIndex@CWnd@@QEAAXXZ @ 4590 NONAME
 ?OnHelpInfo@CCommonDialog@@IEAAHPEAUtagHELPINFO@@@Z @ 4591 NONAME
 ?OnHelpInfo@CWnd@@IEAAHPEAUtagHELPINFO@@@Z @ 4592 NONAME
 ?OnHelpPromptAddr@CFrameWnd@@IEAA_J_K_J@Z @ 4593 NONAME
 ?OnHelpUsing@CWinApp@@IEAAXXZ @ 4594 NONAME
 ?OnHelpUsing@CWnd@@QEAAXXZ @ 4595 NONAME
 ?OnHide@CDocObjectServerItem@@MEAAXXZ @ 4596 NONAME
 ?OnHide@COleControl@@MEAAJXZ @ 4597 NONAME
 ?OnHide@COleServerItem@@MEAAXXZ @ 4598 NONAME
 ?OnHideToolBars@COleControl@@UEAAXXZ @ 4599 NONAME
 ?OnHideUI@CHtmlView@@UEAAJXZ @ 4600 NONAME
 ?OnHScroll@CFrameWnd@@IEAAXIIPEAVCScrollBar@@@Z @ 4601 NONAME
 ?OnHScroll@CPreviewView@@IEAAXIIPEAVCScrollBar@@@Z @ 4602 NONAME
 ?OnHScroll@CScrollView@@QEAAXIIPEAVCScrollBar@@@Z @ 4603 NONAME
 ?OnHScroll@CSplitterWnd@@IEAAXIIPEAVCScrollBar@@@Z @ 4604 NONAME
 ?OnHScroll@CWnd@@IEAAXIIPEAVCScrollBar@@@Z @ 4605 NONAME
 ?OnIdle@CDocTemplate@@UEAAXXZ @ 4606 NONAME
 ?OnIdle@CDocument@@UEAAXXZ @ 4607 NONAME
 ?OnIdle@COleDocument@@UEAAXXZ @ 4608 NONAME
 ?OnIdle@CWinApp@@UEAAHJ@Z @ 4609 NONAME
 ?OnIdle@CWinThread@@UEAAHJ@Z @ 4610 NONAME
 ?OnIdleUpdateCmdUI@CControlBar@@QEAA_J_K_J@Z @ 4611 NONAME
 ?OnIdleUpdateCmdUI@CFrameWnd@@IEAAXXZ @ 4612 NONAME
 ?OnIdleUpdateCmdUI@CMDIFrameWnd@@IEAAXXZ @ 4613 NONAME
 ?OnIdleUpdateCmdUI@COleCntrFrameWnd@@QEAAXXZ @ 4614 NONAME
 ?OnIdleUpdateCmdUI@COleIPFrameWnd@@IEAAXXZ @ 4615 NONAME
 ?OnInactiveMouseMove@COleControl@@UEAAXPEBUtagRECT@@JJK@Z @ 4616 NONAME
 ?OnInactiveMouseMove@XPointerInactive@COleControl@@UEAAJPEBUtagRECT@@JJK@Z @ 4617 NONAME
 ?OnInactiveSetCursor@COleControl@@UEAAHPEBUtagRECT@@JJKH@Z @ 4618 NONAME
 ?OnInactiveSetCursor@XPointerInactive@COleControl@@UEAAJPEBUtagRECT@@JJKH@Z @ 4619 NONAME
 ?OnInitDialog@CDHtmlDialog@@UEAAHXZ @ 4620 NONAME
 ?OnInitDialog@CDialog@@UEAAHXZ @ 4621 NONAME
 ?OnInitDialog@COlePropertiesDialog@@UEAAHXZ @ 4622 NONAME
 ?OnInitDialog@COlePropertyPage@@UEAAHXZ @ 4623 NONAME
 ?OnInitDialog@CPropertySheet@@UEAAHXZ @ 4624 NONAME
 ?OnInitDone@CFileDialog@@MEAAXXZ @ 4625 NONAME
 ?OnInitFromData@COleServerItem@@UEAAHPEAVCOleDataObject@@H@Z @ 4626 NONAME
 ?OnInitialUpdate@CControlBar@@QEAAXXZ @ 4627 NONAME
 ?OnInitialUpdate@CFormView@@UEAAXXZ @ 4628 NONAME
 ?OnInitialUpdate@COleDBRecordView@@UEAAXXZ @ 4629 NONAME
 ?OnInitialUpdate@CRecordView@@UEAAXXZ @ 4630 NONAME
 ?OnInitialUpdate@CRichEditView@@MEAAXXZ @ 4631 NONAME
 ?OnInitialUpdate@CView@@UEAAXXZ @ 4632 NONAME
 ?OnInitMenu@CFrameWnd@@IEAAXPEAVCMenu@@@Z @ 4633 NONAME
 ?OnInitMenu@COleFrameHook@@UEAAXPEAVCMenu@@@Z @ 4634 NONAME
 ?OnInitMenuPopup@CFrameWnd@@IEAAXPEAVCMenu@@IH@Z @ 4635 NONAME
 ?OnInitMenuPopup@COleControl@@IEAAXPEAVCMenu@@IH@Z @ 4636 NONAME
 ?OnInitMenuPopup@COleFrameHook@@UEAAHPEAVCMenu@@HH@Z @ 4637 NONAME
 ?OnInPlaceActivate@XOleIPSite@COleClientItem@@UEAAJXZ @ 4638 NONAME
 ?OnInPlaceActivate@XOleIPSite@COleControlSite@@UEAAJXZ @ 4639 NONAME
 ?OnInPlaceActivateEx@XOleIPSite@COleControlSite@@UEAAJPEAHK@Z @ 4640 NONAME
 ?OnInPlaceDeactivate@XOleIPSite@COleClientItem@@UEAAJXZ @ 4641 NONAME
 ?OnInPlaceDeactivate@XOleIPSite@COleControlSite@@UEAAJXZ @ 4642 NONAME
 ?OnInPlaceDeactivateEx@XOleIPSite@COleControlSite@@UEAAJH@Z @ 4643 NONAME
 ?OnInsertMenus@COleClientItem@@UEAAXPEAVCMenu@@PEAUtagOleMenuGroupWidths@@@Z @ 4644 NONAME
 ?OnInsertMenus@COleDocObjectItem@@UEAAXPEAVCMenu@@PEAUtagOleMenuGroupWidths@@@Z @ 4645 NONAME
 ?OnInsertObject@CRichEditView@@IEAAXXZ @ 4646 NONAME
 ?OnInvertTracker@CSplitterWnd@@MEAAXAEBVCRect@@@Z @ 4647 NONAME
 ?OnKey@CDockContext@@QEAAXHH@Z @ 4648 NONAME
 ?OnKeyDown@CCheckListBox@@IEAAXIII@Z @ 4649 NONAME
 ?OnKeyDown@COleControl@@IEAAXIII@Z @ 4650 NONAME
 ?OnKeyDown@CRichEditView@@IEAAXIII@Z @ 4651 NONAME
 ?OnKeyDown@CSplitterWnd@@IEAAXIII@Z @ 4652 NONAME
 ?OnKeyDownEvent@COleControl@@UEAAXGG@Z @ 4653 NONAME
 ?OnKeyPressEvent@COleControl@@UEAAXG@Z @ 4654 NONAME
 ?OnKeyUp@COleControl@@IEAAXIII@Z @ 4655 NONAME
 ?OnKeyUpEvent@COleControl@@UEAAXGG@Z @ 4656 NONAME
 ?OnKickIdle@CPropertySheet@@IEAA_J_K_J@Z @ 4657 NONAME
 ?OnKillActive@CPropertyPage@@UEAAHXZ @ 4658 NONAME
 ?OnKillFocus@COleControl@@IEAAXPEAVCWnd@@@Z @ 4659 NONAME
 ?OnLBAddString@CCheckListBox@@IEAA_J_K_J@Z @ 4660 NONAME
 ?OnLBFindString@CCheckListBox@@IEAA_J_K_J@Z @ 4661 NONAME
 ?OnLBFindStringExact@CCheckListBox@@IEAA_J_K_J@Z @ 4662 NONAME
 ?OnLBGetItemData@CCheckListBox@@IEAA_J_K_J@Z @ 4663 NONAME
 ?OnLBGetText@CCheckListBox@@IEAA_J_K_J@Z @ 4664 NONAME
 ?OnLBInsertString@CCheckListBox@@IEAA_J_K_J@Z @ 4665 NONAME
 ?OnLBSelChangedNotify@CFileDialog@@MEAAXIII@Z @ 4666 NONAME
 ?OnLBSelectString@CCheckListBox@@IEAA_J_K_J@Z @ 4667 NONAME
 ?OnLBSetItemData@CCheckListBox@@IEAA_J_K_J@Z @ 4668 NONAME
 ?OnLBSetItemHeight@CCheckListBox@@IEAA_J_K_J@Z @ 4669 NONAME
 ?OnLButtonDblClk@CCheckListBox@@IEAAXIVCPoint@@@Z @ 4670 NONAME
 ?OnLButtonDblClk@CControlBar@@QEAAXIVCPoint@@@Z @ 4671 NONAME
 ?OnLButtonDblClk@COleControl@@IEAAXIVCPoint@@@Z @ 4672 NONAME
 ?OnLButtonDblClk@CSplitterWnd@@IEAAXIVCPoint@@@Z @ 4673 NONAME
 ?OnLButtonDown@CCheckListBox@@IEAAXIVCPoint@@@Z @ 4674 NONAME
 ?OnLButtonDown@CControlBar@@QEAAXIVCPoint@@@Z @ 4675 NONAME
 ?OnLButtonDown@COleControl@@IEAAXIVCPoint@@@Z @ 4676 NONAME
 ?OnLButtonDown@COleResizeBar@@IEAAXIVCPoint@@@Z @ 4677 NONAME
 ?OnLButtonDown@CPreviewView@@IEAAXIVCPoint@@@Z @ 4678 NONAME
 ?OnLButtonDown@CSplitterWnd@@IEAAXIVCPoint@@@Z @ 4679 NONAME
 ?OnLButtonUp@COleControl@@IEAAXIVCPoint@@@Z @ 4680 NONAME
 ?OnLButtonUp@CSplitterWnd@@IEAAXIVCPoint@@@Z @ 4681 NONAME
 ?OnLowResource@CAsyncMonikerFile@@MEAAXXZ @ 4682 NONAME
 ?OnMapPropertyToPage@COleControl@@UEAAHJPEAU_GUID@@PEAH@Z @ 4683 NONAME
 ?OnMButtonDblClk@COleControl@@IEAAXIVCPoint@@@Z @ 4684 NONAME
 ?OnMButtonDown@COleControl@@IEAAXIVCPoint@@@Z @ 4685 NONAME
 ?OnMButtonUp@COleControl@@IEAAXIVCPoint@@@Z @ 4686 NONAME
 ?OnMDIActivate@CMDIChildWnd@@IEAAXHPEAVCWnd@@0@Z @ 4687 NONAME
 ?OnMDIWindowCmd@CMDIFrameWnd@@IEAAHI@Z @ 4688 NONAME
 ?OnMeasureItem@CWnd@@IEAAXHPEAUtagMEASUREITEMSTRUCT@@@Z @ 4689 NONAME
 ?OnMenuBar@CHtmlView@@UEAAXH@Z @ 4690 NONAME
 ?OnMenuChar@CMDIFrameWnd@@IEAA_JIIPEAVCMenu@@@Z @ 4691 NONAME
 ?OnMenuSelect@CFrameWnd@@IEAAXIIPEAUHMENU__@@@Z @ 4692 NONAME
 ?OnMenuSelect@COleControl@@IEAAXIIPEAUHMENU__@@@Z @ 4693 NONAME
 ?OnMenuSelect@COleFrameHook@@UEAAHIIPEAUHMENU__@@@Z @ 4694 NONAME
 ?OnMessagePending@COleMessageFilter@@UEAAHPEBUtagMSG@@@Z @ 4695 NONAME
 ?OnMessagePending@CSocket@@MEAAHXZ @ 4696 NONAME
 ?OnMnemonic@COleControl@@UEAAXPEAUtagMSG@@@Z @ 4697 NONAME
 ?OnMnemonic@XOleControl@COleControl@@UEAAJPEAUtagMSG@@@Z @ 4698 NONAME
 ?OnMouseActivate@CControlBar@@QEAAHPEAVCWnd@@II@Z @ 4699 NONAME
 ?OnMouseActivate@CMDIChildWnd@@IEAAHPEAVCWnd@@II@Z @ 4700 NONAME
 ?OnMouseActivate@CMiniDockFrameWnd@@QEAAHPEAVCWnd@@II@Z @ 4701 NONAME
 ?OnMouseActivate@COleControl@@IEAAHPEAVCWnd@@II@Z @ 4702 NONAME
 ?OnMouseActivate@CView@@IEAAHPEAVCWnd@@II@Z @ 4703 NONAME
 ?OnMouseMove@COleControl@@IEAAXIVCPoint@@@Z @ 4704 NONAME
 ?OnMouseMove@CSplitterWnd@@IEAAXIVCPoint@@@Z @ 4705 NONAME
 ?OnMouseWheel@CScrollView@@QEAAHIFVCPoint@@@Z @ 4706 NONAME
 ?OnMouseWheel@CSplitterWnd@@IEAAHIFVCPoint@@@Z @ 4707 NONAME
 ?OnMove@COleControl@@IEAAXHH@Z @ 4708 NONAME
 ?OnMove@COleDBRecordView@@UEAAHI@Z @ 4709 NONAME
 ?OnMove@CRecordView@@UEAAHI@Z @ 4710 NONAME
 ?OnNavigateComplete@CDHtmlDialog@@UEAAXPEAUIDispatch@@PEBD@Z @ 4711 NONAME
 ?OnNavigateComplete@CMultiPageDHtmlDialog@@MEAAXPEAUIDispatch@@PEBD@Z @ 4712 NONAME
 ?OnNavigateComplete2@CHtmlEditView@@UEAAXPEBD@Z @ 4713 NONAME
 ?OnNavigateComplete2@CHtmlView@@UEAAXPEBD@Z @ 4714 NONAME
 ?OnNavigateError@CHtmlView@@UEAAXPEBD0KPEAH@Z @ 4715 NONAME
 ?OnNcActivate@CFrameWnd@@IEAAHH@Z @ 4716 NONAME
 ?OnNcActivate@CMDIChildWnd@@IEAAHH@Z @ 4717 NONAME
 ?OnNcActivate@CMiniFrameWnd@@QEAAHH@Z @ 4718 NONAME
 ?OnNcCalcSize@CDockBar@@IEAAXHPEAUtagNCCALCSIZE_PARAMS@@@Z @ 4719 NONAME
 ?OnNcCalcSize@COleControl@@IEAAXHPEAUtagNCCALCSIZE_PARAMS@@@Z @ 4720 NONAME
 ?OnNcCalcSize@CReBar@@IEAAXHPEAUtagNCCALCSIZE_PARAMS@@@Z @ 4721 NONAME
 ?OnNcCalcSize@CStatusBar@@IEAAXHPEAUtagNCCALCSIZE_PARAMS@@@Z @ 4722 NONAME
 ?OnNcCalcSize@CToolBar@@IEAAXHPEAUtagNCCALCSIZE_PARAMS@@@Z @ 4723 NONAME
 ?OnNcCreate@CMDIChildWnd@@IEAAHPEAUtagCREATESTRUCTA@@@Z @ 4724 NONAME
 ?OnNcCreate@CMiniFrameWnd@@QEAAHPEAUtagCREATESTRUCTA@@@Z @ 4725 NONAME
 ?OnNcCreate@COleControl@@IEAAHPEAUtagCREATESTRUCTA@@@Z @ 4726 NONAME
 ?OnNcCreate@CPropertySheet@@IEAAHPEAUtagCREATESTRUCTA@@@Z @ 4727 NONAME
 ?OnNcCreate@CReBar@@IEAAHPEAUtagCREATESTRUCTA@@@Z @ 4728 NONAME
 ?OnNcCreate@CSplitterWnd@@IEAAHPEAUtagCREATESTRUCTA@@@Z @ 4729 NONAME
 ?OnNcCreate@CToolBar@@IEAAHPEAUtagCREATESTRUCTA@@@Z @ 4730 NONAME
 ?OnNcDestroy@CListCtrl@@IEAAXXZ @ 4731 NONAME
 ?OnNcDestroy@CListView@@QEAAXXZ @ 4732 NONAME
 ?OnNcDestroy@CWnd@@IEAAXXZ @ 4733 NONAME
 ?OnNcHitTest@CMiniFrameWnd@@QEAA_JVCPoint@@@Z @ 4734 NONAME
 ?OnNcHitTest@COleControl@@IEAA_JVCPoint@@@Z @ 4735 NONAME
 ?OnNcHitTest@CStatusBar@@IEAA_JVCPoint@@@Z @ 4736 NONAME
 ?OnNcHitTest@CToolBar@@IEAA_JVCPoint@@@Z @ 4737 NONAME
 ?OnNcLButtonDblClk@CMiniDockFrameWnd@@QEAAXIVCPoint@@@Z @ 4738 NONAME
 ?OnNcLButtonDown@CMiniDockFrameWnd@@QEAAXIVCPoint@@@Z @ 4739 NONAME
 ?OnNcLButtonDown@COleControl@@IEAAXIVCPoint@@@Z @ 4740 NONAME
 ?OnNcPaint@CDockBar@@IEAAXXZ @ 4741 NONAME
 ?OnNcPaint@COleControl@@IEAAXXZ @ 4742 NONAME
 ?OnNcPaint@CReBar@@IEAAXXZ @ 4743 NONAME
 ?OnNcPaint@CStatusBar@@IEAAXXZ @ 4744 NONAME
 ?OnNcPaint@CToolBar@@IEAAXXZ @ 4745 NONAME
 ?OnNewDocument@CDocument@@UEAAHXZ @ 4746 NONAME
 ?OnNewDocument@CHtmlEditDoc@@UEAAHXZ @ 4747 NONAME
 ?OnNewDocument@COleDocument@@UEAAHXZ @ 4748 NONAME
 ?OnNewDocument@COleLinkingDoc@@UEAAHXZ @ 4749 NONAME
 ?OnNewEmbedding@COleServerDoc@@MEAAXPEAUIStorage@@@Z @ 4750 NONAME
 ?OnNewWindow2@CHtmlView@@UEAAXPEAPEAUIDispatch@@PEAH@Z @ 4751 NONAME
 ?OnNext@CEnumArray@@MEAAHPEAX@Z @ 4752 NONAME
 ?OnNext@CEnumConnections@@MEAAHPEAX@Z @ 4753 NONAME
 ?OnNext@CEnumConnPoints@@MEAAHPEAX@Z @ 4754 NONAME
 ?OnNext@CEnumFormatEtc@@MEAAHPEAX@Z @ 4755 NONAME
 ?OnNext@CEnumOleVerb@@MEAAHPEAX@Z @ 4756 NONAME
 ?OnNext@CEnumUnknown@@MEAAHPEAX@Z @ 4757 NONAME
 ?OnNextPage@CPreviewView@@IEAAXXZ @ 4758 NONAME
 ?OnNextPaneCmd@CView@@IEAAHI@Z @ 4759 NONAME
 ?OnNotify@CFileDialog@@MEAAH_K_JPEA_J@Z @ 4760 NONAME
 ?OnNotify@CPropertyPage@@MEAAH_K_JPEA_J@Z @ 4761 NONAME
 ?OnNotify@CSplitterWnd@@MEAAH_K_JPEA_J@Z @ 4762 NONAME
 ?OnNotify@CWnd@@MEAAH_K_JPEA_J@Z @ 4763 NONAME
 ?OnNotRespondingDialog@COleMessageFilter@@UEAAHPEAUHTASK__@@@Z @ 4764 NONAME
 ?OnNTCtlColor@CWnd@@IEAA_J_K_J@Z @ 4765 NONAME
 ?OnNumPageChange@CPreviewView@@IEAAXXZ @ 4766 NONAME
 ?OnObjectsChanged@COlePropertyPage@@UEAAXXZ @ 4767 NONAME
 ?OnOcmCtlColorBtn@COleControl@@IEAA_J_K_J@Z @ 4768 NONAME
 ?OnOcmCtlColorDlg@COleControl@@IEAA_J_K_J@Z @ 4769 NONAME
 ?OnOcmCtlColorEdit@COleControl@@IEAA_J_K_J@Z @ 4770 NONAME
 ?OnOcmCtlColorListBox@COleControl@@IEAA_J_K_J@Z @ 4771 NONAME
 ?OnOcmCtlColorMsgBox@COleControl@@IEAA_J_K_J@Z @ 4772 NONAME
 ?OnOcmCtlColorScrollBar@COleControl@@IEAA_J_K_J@Z @ 4773 NONAME
 ?OnOcmCtlColorStatic@COleControl@@IEAA_J_K_J@Z @ 4774 NONAME
 ?OnOK@CCommonDialog@@MEAAXXZ @ 4775 NONAME
 ?OnOK@CDialog@@MEAAXXZ @ 4776 NONAME
 ?OnOK@CPropertyPage@@UEAAXXZ @ 4777 NONAME
 ?OnOpen@COleControl@@MEAAJHPEAUtagMSG@@@Z @ 4778 NONAME
 ?OnOpen@COleServerItem@@MEAAXXZ @ 4779 NONAME
 ?OnOpenDocument@CDocument@@UEAAHPEBD@Z @ 4780 NONAME
 ?OnOpenDocument@CHtmlEditDoc@@UEAAHPEBD@Z @ 4781 NONAME
 ?OnOpenDocument@COleDocument@@UEAAHPEBD@Z @ 4782 NONAME
 ?OnOpenDocument@COleLinkingDoc@@UEAAHPEBD@Z @ 4783 NONAME
 ?OnOpenEmbedding@COleServerDoc@@MEAAXPEAUIStorage@@@Z @ 4784 NONAME
 ?OnOpenRecentFile@CWinApp@@IEAAHI@Z @ 4785 NONAME
 ?OnOutOfBandData@CAsyncSocket@@MEAAXH@Z @ 4786 NONAME
 ?OnPaint@CCommonDialog@@IEAAXXZ @ 4787 NONAME
 ?OnPaint@CControlBar@@QEAAXXZ @ 4788 NONAME
 ?OnPaint@CCtrlView@@IEAAXXZ @ 4789 NONAME
 ?OnPaint@CDialog@@IEAAXXZ @ 4790 NONAME
 ?OnPaint@CDockBar@@IEAAXXZ @ 4791 NONAME
 ?OnPaint@CHtmlEditView@@QEAAXXZ @ 4792 NONAME
 ?OnPaint@CHtmlView@@IEAAXXZ @ 4793 NONAME
 ?OnPaint@COleControl@@IEAAXPEAVCDC@@@Z @ 4794 NONAME
 ?OnPaint@COleControlContainer@@UEAAHPEAVCDC@@@Z @ 4795 NONAME
 ?OnPaint@COleResizeBar@@IEAAXXZ @ 4796 NONAME
 ?OnPaint@CReBar@@IEAAXXZ @ 4797 NONAME
 ?OnPaint@CSplitterWnd@@IEAAXXZ @ 4798 NONAME
 ?OnPaint@CStatusBar@@IEAAXXZ @ 4799 NONAME
 ?OnPaint@CToolBar@@IEAAXXZ @ 4800 NONAME
 ?OnPaint@CView@@IEAAXXZ @ 4801 NONAME
 ?OnPaint@CWnd@@IEAAXXZ @ 4802 NONAME
 ?OnPaletteChanged@CFrameWnd@@IEAAXPEAVCWnd@@@Z @ 4803 NONAME
 ?OnPaletteChanged@COleFrameHook@@UEAAXPEAVCWnd@@@Z @ 4804 NONAME
 ?OnParaAlign@CRichEditView@@QEAAXG@Z @ 4805 NONAME
 ?OnParaCenter@CRichEditView@@IEAAXXZ @ 4806 NONAME
 ?OnParaLeft@CRichEditView@@IEAAXXZ @ 4807 NONAME
 ?OnParaRight@CRichEditView@@IEAAXXZ @ 4808 NONAME
 ?OnParentNotify@CWnd@@IEAAXI_J@Z @ 4809 NONAME
 ?OnPasteNativeObject@CRichEditView@@MEAAHPEAUIStorage@@@Z @ 4810 NONAME
 ?OnPopMessageString@CFrameWnd@@IEAA_J_K_J@Z @ 4811 NONAME
 ?OnPosRectChange@XOleIPSite@COleClientItem@@UEAAJPEBUtagRECT@@@Z @ 4812 NONAME
 ?OnPosRectChange@XOleIPSite@COleControlSite@@UEAAJPEBUtagRECT@@@Z @ 4813 NONAME
 ?OnPrepareDC@CEditView@@UEAAXPEAVCDC@@PEAUCPrintInfo@@@Z @ 4814 NONAME
 ?OnPrepareDC@CPreviewView@@UEAAXPEAVCDC@@PEAUCPrintInfo@@@Z @ 4815 NONAME
 ?OnPrepareDC@CRichEditView@@UEAAXPEAVCDC@@PEAUCPrintInfo@@@Z @ 4816 NONAME
 ?OnPrepareDC@CScrollView@@UEAAXPEAVCDC@@PEAUCPrintInfo@@@Z @ 4817 NONAME
 ?OnPrepareDC@CView@@UEAAXPEAVCDC@@PEAUCPrintInfo@@@Z @ 4818 NONAME
 ?OnPreparePrinting@CEditView@@MEAAHPEAUCPrintInfo@@@Z @ 4819 NONAME
 ?OnPreparePrinting@CHtmlEditView@@UEAAHPEAUCPrintInfo@@@Z @ 4820 NONAME
 ?OnPreparePrinting@COleDocObjectItem@@SAHPEAVCView@@PEAUCPrintInfo@@H@Z @ 4821 NONAME
 ?OnPreparePrinting@CView@@MEAAHPEAUCPrintInfo@@@Z @ 4822 NONAME
 ?OnPreserveSizingPolicyHelper@CToolBar@@IEAA_J_K_J@Z @ 4823 NONAME
 ?OnPreserveZeroBorderHelper@CToolBar@@IEAA_J_K_J@Z @ 4824 NONAME
 ?OnPreTranslateMessage@COleFrameHook@@UEAAHPEAUtagMSG@@@Z @ 4825 NONAME
 ?OnPreviewClose@CPreviewView@@IEAAXXZ @ 4826 NONAME
 ?OnPreviewPrint@CPreviewView@@IEAAXXZ @ 4827 NONAME
 ?OnPrevPage@CPreviewView@@IEAAXXZ @ 4828 NONAME
 ?OnPrint@CEditView@@MEAAXPEAVCDC@@PEAUCPrintInfo@@@Z @ 4829 NONAME
 ?OnPrint@COleDocObjectItem@@SAXPEAVCView@@PEAUCPrintInfo@@H@Z @ 4830 NONAME
 ?OnPrint@CRichEditView@@MEAAXPEAVCDC@@PEAUCPrintInfo@@@Z @ 4831 NONAME
 ?OnPrint@CView@@MEAAXPEAVCDC@@PEAUCPrintInfo@@@Z @ 4832 NONAME
 ?OnPrinterChanged@CRichEditView@@MEAAXAEBVCDC@@@Z @ 4833 NONAME
 ?OnPrintSetup@CPrintDialog@@IEAAXXZ @ 4834 NONAME
 ?OnProgress@CAsyncMonikerFile@@MEAAXKKKPEBD@Z @ 4835 NONAME
 ?OnProgressChange@CHtmlView@@UEAAXJJ@Z @ 4836 NONAME
 ?OnProperties@COleControl@@UEAAHPEAUtagMSG@@PEAUHWND__@@PEBUtagRECT@@@Z @ 4837 NONAME
 ?OnPropertyChange@CHtmlView@@UEAAXPEBD@Z @ 4838 NONAME
 ?OnQueryCancel@CPropertyPage@@UEAAHXZ @ 4839 NONAME
 ?OnQueryCenterWnd@CMiniFrameWnd@@QEAA_J_K_J@Z @ 4840 NONAME
 ?OnQueryEndSession@CFrameWnd@@IEAAHXZ @ 4841 NONAME
 ?OnQueryHitPoint@COleControl@@UEAAHKPEBUtagRECT@@UtagPOINT@@JPEAK@Z @ 4842 NONAME
 ?OnQueryHitRect@COleControl@@UEAAHKPEBUtagRECT@@0JPEAK@Z @ 4843 NONAME
 ?OnQueryNewPalette@CFrameWnd@@IEAAHXZ @ 4844 NONAME
 ?OnQueryNewPalette@COleFrameHook@@UEAAHXZ @ 4845 NONAME
 ?OnQueryUpdateItems@COleServerItem@@UEAAHXZ @ 4846 NONAME
 ?OnQuit@CHtmlView@@UEAAXXZ @ 4847 NONAME
 ?OnRButtonDblClk@COleControl@@IEAAXIVCPoint@@@Z @ 4848 NONAME
 ?OnRButtonDown@COleControl@@IEAAXIVCPoint@@@Z @ 4849 NONAME
 ?OnRButtonUp@COleControl@@IEAAXIVCPoint@@@Z @ 4850 NONAME
 ?OnReactivateAndUndo@COleServerDoc@@MEAAHXZ @ 4851 NONAME
 ?OnRecalcLayout@COleFrameHook@@UEAAXXZ @ 4852 NONAME
 ?OnRecalcParent@COleIPFrameWnd@@IEAA_J_K_J@Z @ 4853 NONAME
 ?OnRecalcParent@CReBar@@IEAAXXZ @ 4854 NONAME
 ?OnReceive@CAsyncSocket@@MEAAXH@Z @ 4855 NONAME
 ?OnReflectorDestroyed@COleControl@@MEAAXXZ @ 4856 NONAME
 ?OnRegisteredMouseWheel@CFrameWnd@@IEAA_J_K_J@Z @ 4857 NONAME
 ?OnRemoveMenus@COleClientItem@@UEAAXPEAVCMenu@@@Z @ 4858 NONAME
 ?OnRemoveMenus@COleDocObjectItem@@UEAAXPEAVCMenu@@@Z @ 4859 NONAME
 ?OnRename@XAdviseSink@COleClientItem@@UEAAXPEAUIMoniker@@@Z @ 4860 NONAME
 ?OnRenderData@CControlDataSource@COleControl@@MEAAHPEAUtagFORMATETC@@PEAUtagSTGMEDIUM@@@Z @ 4861 NONAME
 ?OnRenderData@CItemDataSource@COleServerItem@@MEAAHPEAUtagFORMATETC@@PEAUtagSTGMEDIUM@@@Z @ 4862 NONAME
 ?OnRenderData@COleControl@@UEAAHPEAUtagFORMATETC@@PEAUtagSTGMEDIUM@@@Z @ 4863 NONAME
 ?OnRenderData@COleDataSource@@UEAAHPEAUtagFORMATETC@@PEAUtagSTGMEDIUM@@@Z @ 4864 NONAME
 ?OnRenderData@COleServerItem@@UEAAHPEAUtagFORMATETC@@PEAUtagSTGMEDIUM@@@Z @ 4865 NONAME
 ?OnRenderFileData@CControlDataSource@COleControl@@MEAAHPEAUtagFORMATETC@@PEAVCFile@@@Z @ 4866 NONAME
 ?OnRenderFileData@CItemDataSource@COleServerItem@@MEAAHPEAUtagFORMATETC@@PEAVCFile@@@Z @ 4867 NONAME
 ?OnRenderFileData@COleControl@@UEAAHPEAUtagFORMATETC@@PEAVCFile@@@Z @ 4868 NONAME
 ?OnRenderFileData@COleDataSource@@UEAAHPEAUtagFORMATETC@@PEAVCFile@@@Z @ 4869 NONAME
 ?OnRenderFileData@COleServerItem@@UEAAHPEAUtagFORMATETC@@PEAVCFile@@@Z @ 4870 NONAME
 ?OnRenderGlobalData@CControlDataSource@COleControl@@MEAAHPEAUtagFORMATETC@@PEAPEAX@Z @ 4871 NONAME
 ?OnRenderGlobalData@CItemDataSource@COleServerItem@@MEAAHPEAUtagFORMATETC@@PEAPEAX@Z @ 4872 NONAME
 ?OnRenderGlobalData@COleControl@@UEAAHPEAUtagFORMATETC@@PEAPEAX@Z @ 4873 NONAME
 ?OnRenderGlobalData@COleDataSource@@UEAAHPEAUtagFORMATETC@@PEAPEAX@Z @ 4874 NONAME
 ?OnRenderGlobalData@COleServerItem@@UEAAHPEAUtagFORMATETC@@PEAPEAX@Z @ 4875 NONAME
 ?OnReplaceAll@CEditView@@MEAAXPEBD0H@Z @ 4876 NONAME
 ?OnReplaceAll@CRichEditView@@MEAAXPEBD0HH@Z @ 4877 NONAME
 ?OnReplaceSel@CEditView@@MEAAXPEBDHH0@Z @ 4878 NONAME
 ?OnReplaceSel@CRichEditView@@MEAAXPEBDHHH0@Z @ 4879 NONAME
 ?OnRequestEdit@XFontNotification@COleControl@@UEAAJJ@Z @ 4880 NONAME
 ?OnRequestEdit@XPropertyNotifySink@COleControlSite@@UEAAJJ@Z @ 4881 NONAME
 ?OnRequestEdit@XPropNotifySink@COlePropertyPage@@UEAAJJ@Z @ 4882 NONAME
 ?OnRequestPositionChange@COleDocIPFrameWnd@@MEAAXPEBUtagRECT@@@Z @ 4883 NONAME
 ?OnRequestPositionChange@COleIPFrameWnd@@MEAAXPEBUtagRECT@@@Z @ 4884 NONAME
 ?OnReset@CEnumArray@@MEAAXXZ @ 4885 NONAME
 ?OnReset@CPropertyPage@@UEAAXXZ @ 4886 NONAME
 ?OnResetState@COleControl@@UEAAXXZ @ 4887 NONAME
 ?OnResizeBorder@CHtmlView@@UEAAJPEBUtagRECT@@PEAUIOleInPlaceUIWindow@@H@Z @ 4888 NONAME
 ?OnResizeBorder@COleServerDoc@@UEAAXPEBUtagRECT@@PEAUIOleInPlaceUIWindow@@H@Z @ 4889 NONAME
 ?OnResizeChild@COleIPFrameWnd@@IEAA_J_K_J@Z @ 4890 NONAME
 ?OnRowChange@XRowsetNotify@COleControlSite@@UEAAJPEAUIRowset@@_KQEB_KKKH@Z @ 4891 NONAME
 ?OnRowsetChange@XRowsetNotify@COleControlSite@@UEAAJPEAUIRowset@@KKH@Z @ 4892 NONAME
 ?OnSave@XAdviseSink@COleClientItem@@UEAAXXZ @ 4893 NONAME
 ?OnSaveDocument@CDocument@@UEAAHPEBD@Z @ 4894 NONAME
 ?OnSaveDocument@CHtmlEditDoc@@UEAAHPEBD@Z @ 4895 NONAME
 ?OnSaveDocument@COleDocument@@UEAAHPEBD@Z @ 4896 NONAME
 ?OnSaveDocument@COleLinkingDoc@@UEAAHPEBD@Z @ 4897 NONAME
 ?OnSaveDocument@COleServerDoc@@UEAAHPEBD@Z @ 4898 NONAME
 ?OnSaveEmbedding@COleServerDoc@@MEAAXPEAUIStorage@@@Z @ 4899 NONAME
 ?OnSaveEmbedding@COleServerItem@@MEAAXPEAUIStorage@@@Z @ 4900 NONAME
 ?OnSaveViewState@CDocObjectServer@@MEAAXAEAVCArchive@@@Z @ 4901 NONAME
 ?OnScroll@CScrollView@@UEAAHIIH@Z @ 4902 NONAME
 ?OnScroll@CView@@UEAAHIIH@Z @ 4903 NONAME
 ?OnScrollBy@COleClientItem@@MEAAHVCSize@@@Z @ 4904 NONAME
 ?OnScrollBy@CScrollView@@UEAAHVCSize@@H@Z @ 4905 NONAME
 ?OnScrollBy@CView@@UEAAHVCSize@@H@Z @ 4906 NONAME
 ?OnSelChange@CRichEditView@@IEAAXPEAUtagNMHDR@@PEA_J@Z @ 4907 NONAME
 ?OnSend@CAsyncSocket@@MEAAXH@Z @ 4908 NONAME
 ?OnSetActive@CPropertyPage@@UEAAHXZ @ 4909 NONAME
 ?OnSetBitmapSize@CToolBar@@IEAA_J_K_J@Z @ 4910 NONAME
 ?OnSetButtonSize@CToolBar@@IEAA_J_K_J@Z @ 4911 NONAME
 ?OnSetClientSite@COleControl@@UEAAXXZ @ 4912 NONAME
 ?OnSetColorScheme@COleServerItem@@UEAAHPEBUtagLOGPALETTE@@@Z @ 4913 NONAME
 ?OnSetCursor@CFrameWnd@@IEAAHPEAVCWnd@@II@Z @ 4914 NONAME
 ?OnSetCursor@COleControl@@IEAAHPEAVCWnd@@II@Z @ 4915 NONAME
 ?OnSetCursor@COleResizeBar@@IEAAHPEAVCWnd@@II@Z @ 4916 NONAME
 ?OnSetCursor@CPreviewView@@IEAAHPEAVCWnd@@II@Z @ 4917 NONAME
 ?OnSetCursor@CSplitterWnd@@IEAAHPEAVCWnd@@II@Z @ 4918 NONAME
 ?OnSetData@CControlDataSource@COleControl@@MEAAHPEAUtagFORMATETC@@PEAUtagSTGMEDIUM@@H@Z @ 4919 NONAME
 ?OnSetData@CItemDataSource@COleServerItem@@MEAAHPEAUtagFORMATETC@@PEAUtagSTGMEDIUM@@H@Z @ 4920 NONAME
 ?OnSetData@COleControl@@UEAAHPEAUtagFORMATETC@@PEAUtagSTGMEDIUM@@H@Z @ 4921 NONAME
 ?OnSetData@COleDataSource@@UEAAHPEAUtagFORMATETC@@PEAUtagSTGMEDIUM@@H@Z @ 4922 NONAME
 ?OnSetData@COleServerItem@@UEAAHPEAUtagFORMATETC@@PEAUtagSTGMEDIUM@@H@Z @ 4923 NONAME
 ?OnSetDefID@CPropertySheet@@IEAA_J_K_J@Z @ 4924 NONAME
 ?OnSetExtent@COleControl@@UEAAHPEAUtagSIZE@@@Z @ 4925 NONAME
 ?OnSetExtent@COleServerItem@@UEAAHW4tagDVASPECT@@AEBVCSize@@@Z @ 4926 NONAME
 ?OnSetFocus@CFormView@@IEAAXPEAVCWnd@@@Z @ 4927 NONAME
 ?OnSetFocus@CFrameWnd@@IEAAXPEAVCWnd@@@Z @ 4928 NONAME
 ?OnSetFocus@COleControl@@IEAAXPEAVCWnd@@@Z @ 4929 NONAME
 ?OnSetFocus@CWnd@@IEAAXPEAV1@@Z @ 4930 NONAME
 ?OnSetFont@CCheckListBox@@IEAA_J_K_J@Z @ 4931 NONAME
 ?OnSetFont@CDialog@@UEAAXPEAVCFont@@@Z @ 4932 NONAME
 ?OnSetFont@CEditView@@IEAA_J_K_J@Z @ 4933 NONAME
 ?OnSetHostNames@COleServerDoc@@MEAAXPEBD0@Z @ 4934 NONAME
 ?OnSetItemRects@CDocObjectServer@@IEAAXPEAUtagRECT@@0@Z @ 4935 NONAME
 ?OnSetItemRects@COleServerDoc@@MEAAXPEBUtagRECT@@0@Z @ 4936 NONAME
 ?OnSetMenu@COleClientItem@@UEAAXPEAVCMenu@@PEAXPEAUHWND__@@@Z @ 4937 NONAME
 ?OnSetMessageString@CFrameWnd@@IEAA_J_K_J@Z @ 4938 NONAME
 ?OnSetMessageString@COleControl@@IEAA_J_K_J@Z @ 4939 NONAME
 ?OnSetMessageString@COleIPFrameWnd@@UEAA_J_K_J@Z @ 4940 NONAME
 ?OnSetMinHeight@CStatusBar@@IEAA_J_K_J@Z @ 4941 NONAME
 ?OnSetObjectRects@COleControl@@UEAAHPEBUtagRECT@@0@Z @ 4942 NONAME
 ?OnSetOptions@CDatabase@@UEAAXPEAX@Z @ 4943 NONAME
 ?OnSetOptions@CRecordset@@UEAAXPEAX@Z @ 4944 NONAME
 ?OnSetPageSite@COlePropertyPage@@UEAAXXZ @ 4945 NONAME
 ?OnSetPreviewMode@CFrameWnd@@UEAAXHPEAUCPrintPreviewState@@@Z @ 4946 NONAME
 ?OnSetSizeHelper@CToolBar@@IEAA_JAEAVCSize@@_J@Z @ 4947 NONAME
 ?OnSetText@COleControl@@IEAA_J_K_J@Z @ 4948 NONAME
 ?OnSetText@CStatusBar@@IEAA_J_K_J@Z @ 4949 NONAME
 ?OnSettingChange@CWnd@@IEAAXIPEBD@Z @ 4950 NONAME
 ?OnSetUpdateOptions@CRecordset@@UEAAXPEAX@Z @ 4951 NONAME
 ?OnShareViolation@CFileDialog@@MEAAIPEBD@Z @ 4952 NONAME
 ?OnShow@CDocObjectServerItem@@MEAAXXZ @ 4953 NONAME
 ?OnShow@COleServerItem@@MEAAXXZ @ 4954 NONAME
 ?OnShowBand@CReBar@@IEAA_J_K_J@Z @ 4955 NONAME
 ?OnShowContextMenu@CHtmlView@@UEAAJKPEAUtagPOINT@@PEAUIUnknown@@PEAUIDispatch@@@Z @ 4956 NONAME
 ?OnShowControlBars@COleClientItem@@UEAAHPEAVCFrameWnd@@H@Z @ 4957 NONAME
 ?OnShowControlBars@COleServerDoc@@UEAAXPEAVCFrameWnd@@H@Z @ 4958 NONAME
 ?OnShowDocument@COleServerDoc@@MEAAXH@Z @ 4959 NONAME
 ?OnShowItem@COleClientItem@@MEAAXXZ @ 4960 NONAME
 ?OnShowToolBars@COleControl@@UEAAXXZ @ 4961 NONAME
 ?OnShowUI@CHtmlView@@UEAAJKPEAUIOleInPlaceActiveObject@@PEAUIOleCommandTarget@@PEAUIOleInPlaceFrame@@PEAUIOleInPlaceUIWindow@@@Z @ 4962 NONAME
 ?OnShowViews@COleDocument@@UEAAXH@Z @ 4963 NONAME
 ?OnShowViews@COleLinkingDoc@@MEAAXH@Z @ 4964 NONAME
 ?OnShowWindow@COleControl@@IEAAXHI@Z @ 4965 NONAME
 ?OnShowWindow@XOleClientSite@COleClientItem@@UEAAJH@Z @ 4966 NONAME
 ?OnShowWindow@XOleClientSite@COleControlSite@@UEAAJH@Z @ 4967 NONAME
 ?OnSize@CDHtmlDialog@@IEAAXIHH@Z @ 4968 NONAME
 ?OnSize@CFrameWnd@@IEAAXIHH@Z @ 4969 NONAME
 ?OnSize@CHtmlView@@IEAAXIHH@Z @ 4970 NONAME
 ?OnSize@CMDIChildWnd@@IEAAXIHH@Z @ 4971 NONAME
 ?OnSize@CMDIFrameWnd@@IEAAXIHH@Z @ 4972 NONAME
 ?OnSize@COleControl@@IEAAXIHH@Z @ 4973 NONAME
 ?OnSize@COleIPFrameWnd@@IEAAXIHH@Z @ 4974 NONAME
 ?OnSize@COleResizeBar@@IEAAXIHH@Z @ 4975 NONAME
 ?OnSize@CPreviewView@@IEAAXIHH@Z @ 4976 NONAME
 ?OnSize@CScrollView@@QEAAXIHH@Z @ 4977 NONAME
 ?OnSize@CSplitterWnd@@IEAAXIHH@Z @ 4978 NONAME
 ?OnSize@CStatusBar@@IEAAXIHH@Z @ 4979 NONAME
 ?OnSizeParent@CControlBar@@QEAA_J_K_J@Z @ 4980 NONAME
 ?OnSizeParent@CDockBar@@IEAA_J_K_J@Z @ 4981 NONAME
 ?OnSizeParent@COleResizeBar@@IEAA_J_K_J@Z @ 4982 NONAME
 ?OnSkip@CEnumArray@@MEAAHXZ @ 4983 NONAME
 ?OnSocketDead@CSocketWnd@@IEAA_J_K_J@Z @ 4984 NONAME
 ?OnSocketNotify@CSocketWnd@@IEAA_J_K_J@Z @ 4985 NONAME
 ?OnSplitCmd@CView@@IEAAHI@Z @ 4986 NONAME
 ?OnStartBinding@CAsyncMonikerFile@@MEAAXXZ @ 4987 NONAME
 ?OnStatusBar@CHtmlView@@UEAAXH@Z @ 4988 NONAME
 ?OnStatusCallback@CInternetSession@@UEAAX_KKPEAXK@Z @ 4989 NONAME
 ?OnStatusTextChange@CHtmlView@@UEAAXPEBD@Z @ 4990 NONAME
 ?OnStopBinding@CAsyncMonikerFile@@MEAAXJPEBD@Z @ 4991 NONAME
 ?OnSysColorChange@CToolBar@@IEAAXXZ @ 4992 NONAME
 ?OnSysColorChange@CWnd@@IEAAXXZ @ 4993 NONAME
 ?OnSysCommand@CFrameWnd@@IEAAXI_J@Z @ 4994 NONAME
 ?OnSysCommand@CMiniFrameWnd@@QEAAXI_J@Z @ 4995 NONAME
 ?OnSysCommand@CPropertySheet@@IEAAXI_J@Z @ 4996 NONAME
 ?OnSysCommand@CSplitterWnd@@IEAAXI_J@Z @ 4997 NONAME
 ?OnSysKeyDown@COleControl@@IEAAXIII@Z @ 4998 NONAME
 ?OnSysKeyUp@COleControl@@IEAAXIII@Z @ 4999 NONAME
 ?OnTextChanged@COleControl@@UEAAXXZ @ 5000 NONAME
 ?OnTextNotFound@CEditView@@MEAAXPEBD@Z @ 5001 NONAME
 ?OnTextNotFound@CRichEditView@@MEAAXPEBD@Z @ 5002 NONAME
 ?OnTheaterMode@CHtmlView@@UEAAXH@Z @ 5003 NONAME
 ?OnTimer@CControlBar@@QEAAX_K@Z @ 5004 NONAME
 ?OnTitleChange@CHtmlView@@UEAAXPEBD@Z @ 5005 NONAME
 ?OnToolBar@CHtmlView@@UEAAXH@Z @ 5006 NONAME
 ?OnToolHitTest@CReBar@@UEBA_JVCPoint@@PEAUtagTOOLINFOA@@@Z @ 5007 NONAME
 ?OnToolHitTest@CToolBar@@UEBA_JVCPoint@@PEAUtagTOOLINFOA@@@Z @ 5008 NONAME
 ?OnToolHitTest@CWnd@@UEBA_JVCPoint@@PEAUtagTOOLINFOA@@@Z @ 5009 NONAME
 ?OnToolTipText@CFrameWnd@@IEAAHIPEAUtagNMHDR@@PEA_J@Z @ 5010 NONAME
 ?OnToolTipText@CMDIChildWnd@@IEAAHIPEAUtagNMHDR@@PEA_J@Z @ 5011 NONAME
 ?OnTranslateAccelerator@CHtmlView@@UEAAJPEAUtagMSG@@PEBU_GUID@@K@Z @ 5012 NONAME
 ?OnTranslateUrl@CHtmlView@@UEAAJKPEA_WPEAPEA_W@Z @ 5013 NONAME
 ?OnTypeChange@CFileDialog@@MEAAXXZ @ 5014 NONAME
 ?OnUIActivate@COleControlContainer@@UEAAXPEAVCOleControlSite@@@Z @ 5015 NONAME
 ?OnUIActivate@XOleIPSite@COleClientItem@@UEAAJXZ @ 5016 NONAME
 ?OnUIActivate@XOleIPSite@COleControlSite@@UEAAJXZ @ 5017 NONAME
 ?OnUIDeactivate@COleControlContainer@@UEAAXPEAVCOleControlSite@@@Z @ 5018 NONAME
 ?OnUIDeactivate@XOleIPSite@COleClientItem@@UEAAJH@Z @ 5019 NONAME
 ?OnUIDeactivate@XOleIPSite@COleControlSite@@UEAAJH@Z @ 5020 NONAME
 ?OnUpdate@COleServerItem@@UEAAXPEAV1@_JPEAVCObject@@W4tagDVASPECT@@@Z @ 5021 NONAME
 ?OnUpdate@CView@@MEAAXPEAV1@_JPEAVCObject@@@Z @ 5022 NONAME
 ?OnUpdateBullet@CRichEditView@@IEAAXPEAVCCmdUI@@@Z @ 5023 NONAME
 ?OnUpdateCharBold@CRichEditView@@IEAAXPEAVCCmdUI@@@Z @ 5024 NONAME
 ?OnUpdateCharEffect@CRichEditView@@QEAAXPEAVCCmdUI@@KK@Z @ 5025 NONAME
 ?OnUpdateCharItalic@CRichEditView@@IEAAXPEAVCCmdUI@@@Z @ 5026 NONAME
 ?OnUpdateCharUnderline@CRichEditView@@IEAAXPEAVCCmdUI@@@Z @ 5027 NONAME
 ?OnUpdateCmdUI@CDialogBar@@UEAAXPEAVCFrameWnd@@H@Z @ 5028 NONAME
 ?OnUpdateCmdUI@CDockBar@@MEAAXPEAVCFrameWnd@@H@Z @ 5029 NONAME
 ?OnUpdateCmdUI@COleResizeBar@@UEAAXPEAVCFrameWnd@@H@Z @ 5030 NONAME
 ?OnUpdateCmdUI@CReBar@@UEAAXPEAVCFrameWnd@@H@Z @ 5031 NONAME
 ?OnUpdateCmdUI@CStatusBar@@UEAAXPEAVCFrameWnd@@H@Z @ 5032 NONAME
 ?OnUpdateCmdUI@CToolBar@@UEAAXPEAVCFrameWnd@@H@Z @ 5033 NONAME
 ?OnUpdateContextHelp@CFrameWnd@@IEAAXPEAVCCmdUI@@@Z @ 5034 NONAME
 ?OnUpdateControlBarMenu@CFrameWnd@@QEAAXPEAVCCmdUI@@@Z @ 5035 NONAME
 ?OnUpdateControlBarMenu@COleIPFrameWnd@@IEAAXPEAVCCmdUI@@@Z @ 5036 NONAME
 ?OnUpdateDocument@COleServerDoc@@UEAAHXZ @ 5037 NONAME
 ?OnUpdateEditChangeIcon@COleDocument@@IEAAXPEAVCCmdUI@@@Z @ 5038 NONAME
 ?OnUpdateEditCopy@CHtmlView@@IEAAXPEAVCCmdUI@@@Z @ 5039 NONAME
 ?OnUpdateEditCut@CHtmlView@@IEAAXPEAVCCmdUI@@@Z @ 5040 NONAME
 ?OnUpdateEditLinksMenu@COleDocument@@IEAAXPEAVCCmdUI@@@Z @ 5041 NONAME
 ?OnUpdateEditPaste@CHtmlView@@IEAAXPEAVCCmdUI@@@Z @ 5042 NONAME
 ?OnUpdateEditPasteSpecial@CRichEditView@@IEAAXPEAVCCmdUI@@@Z @ 5043 NONAME
 ?OnUpdateEditProperties@CRichEditView@@IEAAXPEAVCCmdUI@@@Z @ 5044 NONAME
 ?OnUpdateEditRedo@CRichEditView@@IEAAXPEAVCCmdUI@@@Z @ 5045 NONAME
 ?OnUpdateEditUndo@CEditView@@IEAAXPEAVCCmdUI@@@Z @ 5046 NONAME
 ?OnUpdateEditUndo@CRichEditView@@IEAAXPEAVCCmdUI@@@Z @ 5047 NONAME
 ?OnUpdateFileExit@COleServerDoc@@IEAAXPEAVCCmdUI@@@Z @ 5048 NONAME
 ?OnUpdateFileSendMail@CDocument@@IEAAXPEAVCCmdUI@@@Z @ 5049 NONAME
 ?OnUpdateFileUpdate@COleServerDoc@@IEAAXPEAVCCmdUI@@@Z @ 5050 NONAME
 ?OnUpdateFrameMenu@CFrameWnd@@UEAAXPEAUHMENU__@@@Z @ 5051 NONAME
 ?OnUpdateFrameMenu@CMDIChildWnd@@UEAAXHPEAVCWnd@@PEAUHMENU__@@@Z @ 5052 NONAME
 ?OnUpdateFrameMenu@CMDIFrameWnd@@UEAAXPEAUHMENU__@@@Z @ 5053 NONAME
 ?OnUpdateFrameTitle@CFrameWnd@@UEAAXH@Z @ 5054 NONAME
 ?OnUpdateFrameTitle@CMDIChildWnd@@MEAAXH@Z @ 5055 NONAME
 ?OnUpdateFrameTitle@CMDIFrameWnd@@UEAAXH@Z @ 5056 NONAME
 ?OnUpdateFrameTitle@COleClientItem@@UEAAHXZ @ 5057 NONAME
 ?OnUpdateFrameTitle@COleFrameHook@@UEAAHXZ @ 5058 NONAME
 ?OnUpdateItems@COleServerItem@@UEAAXXZ @ 5059 NONAME
 ?OnUpdateKeyIndicator@CFrameWnd@@IEAAXPEAVCCmdUI@@@Z @ 5060 NONAME
 ?OnUpdateMDIWindowCmd@CMDIFrameWnd@@IEAAXPEAVCCmdUI@@@Z @ 5061 NONAME
 ?OnUpdateNeedClip@CEditView@@IEAAXPEAVCCmdUI@@@Z @ 5062 NONAME
 ?OnUpdateNeedClip@CRichEditView@@IEAAXPEAVCCmdUI@@@Z @ 5063 NONAME
 ?OnUpdateNeedFind@CEditView@@IEAAXPEAVCCmdUI@@@Z @ 5064 NONAME
 ?OnUpdateNeedFind@CRichEditView@@IEAAXPEAVCCmdUI@@@Z @ 5065 NONAME
 ?OnUpdateNeedSel@CEditView@@IEAAXPEAVCCmdUI@@@Z @ 5066 NONAME
 ?OnUpdateNeedSel@CRichEditView@@IEAAXPEAVCCmdUI@@@Z @ 5067 NONAME
 ?OnUpdateNeedText@CEditView@@IEAAXPEAVCCmdUI@@@Z @ 5068 NONAME
 ?OnUpdateNeedText@CRichEditView@@IEAAXPEAVCCmdUI@@@Z @ 5069 NONAME
 ?OnUpdateNextPage@CPreviewView@@IEAAXPEAVCCmdUI@@@Z @ 5070 NONAME
 ?OnUpdateNextPaneMenu@CView@@IEAAXPEAVCCmdUI@@@Z @ 5071 NONAME
 ?OnUpdateNumPageChange@CPreviewView@@IEAAXPEAVCCmdUI@@@Z @ 5072 NONAME
 ?OnUpdateObjectVerbMenu@COleDocument@@IEAAXPEAVCCmdUI@@@Z @ 5073 NONAME
 ?OnUpdateParaAlign@CRichEditView@@QEAAXPEAVCCmdUI@@G@Z @ 5074 NONAME
 ?OnUpdateParaCenter@CRichEditView@@IEAAXPEAVCCmdUI@@@Z @ 5075 NONAME
 ?OnUpdateParaLeft@CRichEditView@@IEAAXPEAVCCmdUI@@@Z @ 5076 NONAME
 ?OnUpdateParaRight@CRichEditView@@IEAAXPEAVCCmdUI@@@Z @ 5077 NONAME
 ?OnUpdatePasteLinkMenu@COleDocument@@IEAAXPEAVCCmdUI@@@Z @ 5078 NONAME
 ?OnUpdatePasteMenu@COleDocument@@IEAAXPEAVCCmdUI@@@Z @ 5079 NONAME
 ?OnUpdatePrevPage@CPreviewView@@IEAAXPEAVCCmdUI@@@Z @ 5080 NONAME
 ?OnUpdateRecentFileMenu@CWinApp@@IEAAXPEAVCCmdUI@@@Z @ 5081 NONAME
 ?OnUpdateRecordFirst@COleDBRecordView@@IEAAXPEAVCCmdUI@@@Z @ 5082 NONAME
 ?OnUpdateRecordFirst@CRecordView@@IEAAXPEAVCCmdUI@@@Z @ 5083 NONAME
 ?OnUpdateRecordLast@COleDBRecordView@@IEAAXPEAVCCmdUI@@@Z @ 5084 NONAME
 ?OnUpdateRecordLast@CRecordView@@IEAAXPEAVCCmdUI@@@Z @ 5085 NONAME
 ?OnUpdateRecordNext@COleDBRecordView@@IEAAXPEAVCCmdUI@@@Z @ 5086 NONAME
 ?OnUpdateRecordNext@CRecordView@@IEAAXPEAVCCmdUI@@@Z @ 5087 NONAME
 ?OnUpdateRecordPrev@COleDBRecordView@@IEAAXPEAVCCmdUI@@@Z @ 5088 NONAME
 ?OnUpdateRecordPrev@CRecordView@@IEAAXPEAVCCmdUI@@@Z @ 5089 NONAME
 ?OnUpdateSplitCmd@CView@@IEAAXPEAVCCmdUI@@@Z @ 5090 NONAME
 ?OnUpdateUI@CHtmlView@@UEAAJXZ @ 5091 NONAME
 ?OnUpdateZoomIn@CPreviewView@@IEAAXPEAVCCmdUI@@@Z @ 5092 NONAME
 ?OnUpdateZoomOut@CPreviewView@@IEAAXPEAVCCmdUI@@@Z @ 5093 NONAME
 ?OnViewChange@XAdviseSink@COleClientItem@@UEAAXKJ@Z @ 5094 NONAME
 ?OnVisible@CHtmlView@@UEAAXH@Z @ 5095 NONAME
 ?OnVKeyToItem@CWnd@@IEAAHIPEAVCListBox@@I@Z @ 5096 NONAME
 ?OnVScroll@CFrameWnd@@IEAAXIIPEAVCScrollBar@@@Z @ 5097 NONAME
 ?OnVScroll@CPreviewView@@IEAAXIIPEAVCScrollBar@@@Z @ 5098 NONAME
 ?OnVScroll@CScrollView@@QEAAXIIPEAVCScrollBar@@@Z @ 5099 NONAME
 ?OnVScroll@CSplitterWnd@@IEAAXIIPEAVCScrollBar@@@Z @ 5100 NONAME
 ?OnVScroll@CWnd@@IEAAXIIPEAVCScrollBar@@@Z @ 5101 NONAME
 ?OnWindowFromPoint@CToolTipCtrl@@IEAA_J_K_J@Z @ 5102 NONAME
 ?OnWindowlessMessage@COleControl@@UEAAHI_K_JPEA_J@Z @ 5103 NONAME
 ?OnWindowMessage@XOleInPlaceObject@COleControl@@UEAAJI_K_JPEA_J@Z @ 5104 NONAME
 ?OnWindowNew@CMDIFrameWnd@@IEAAXXZ @ 5105 NONAME
 ?OnWindowPosChanging@CControlBar@@QEAAXPEAUtagWINDOWPOS@@@Z @ 5106 NONAME
 ?OnWindowPosChanging@CDockBar@@IEAAXPEAUtagWINDOWPOS@@@Z @ 5107 NONAME
 ?OnWindowPosChanging@CMDIChildWnd@@IEAAXPEAUtagWINDOWPOS@@@Z @ 5108 NONAME
 ?OnWindowPosChanging@COleIPFrameWnd@@IEAAXPEAUtagWINDOWPOS@@@Z @ 5109 NONAME
 ?OnWindowPosChanging@CStatusBar@@IEAAXPEAUtagWINDOWPOS@@@Z @ 5110 NONAME
 ?OnWindowPosChanging@CToolBar@@IEAAXPEAUtagWINDOWPOS@@@Z @ 5111 NONAME
 ?OnWizardBack@CPropertyPage@@UEAA_JXZ @ 5112 NONAME
 ?OnWizardFinish@CPropertyPage@@UEAAHXZ @ 5113 NONAME
 ?OnWizardNext@CPropertyPage@@UEAA_JXZ @ 5114 NONAME
 ?OnWndMsg@CWnd@@MEAAHI_K_JPEA_J@Z @ 5115 NONAME
 ?OnZoomIn@CPreviewView@@IEAAXXZ @ 5116 NONAME
 ?OnZoomOut@CPreviewView@@IEAAXXZ @ 5117 NONAME
 ?Open@CAsyncMonikerFile@@UEAAHPEAUIMoniker@@PEAUIBindHost@@PEAVCFileException@@@Z @ 5118 NONAME
 ?Open@CAsyncMonikerFile@@UEAAHPEAUIMoniker@@PEAUIServiceProvider@@PEAVCFileException@@@Z @ 5119 NONAME
 ?Open@CAsyncMonikerFile@@UEAAHPEAUIMoniker@@PEAUIUnknown@@PEAVCFileException@@@Z @ 5120 NONAME
 ?Open@CAsyncMonikerFile@@UEAAHPEAUIMoniker@@PEAVCFileException@@@Z @ 5121 NONAME
 ?Open@CAsyncMonikerFile@@UEAAHPEBDPEAUIBindHost@@PEAVCFileException@@@Z @ 5122 NONAME
 ?Open@CAsyncMonikerFile@@UEAAHPEBDPEAUIServiceProvider@@PEAVCFileException@@@Z @ 5123 NONAME
 ?Open@CAsyncMonikerFile@@UEAAHPEBDPEAUIUnknown@@PEAVCFileException@@@Z @ 5124 NONAME
 ?Open@CAsyncMonikerFile@@UEAAHPEBDPEAVCFileException@@@Z @ 5125 NONAME
 ?Open@CDatabase@@UEAAHPEBDHH0H@Z @ 5126 NONAME
 ?Open@CDataPathProperty@@UEAAHPEAVCFileException@@@Z @ 5127 NONAME
 ?Open@CDataPathProperty@@UEAAHPEAVCOleControl@@PEAVCFileException@@@Z @ 5128 NONAME
 ?Open@CDataPathProperty@@UEAAHPEBDPEAVCFileException@@@Z @ 5129 NONAME
 ?Open@CDataPathProperty@@UEAAHPEBDPEAVCOleControl@@PEAVCFileException@@@Z @ 5130 NONAME
 ?Open@CFile@@UEAAHPEBDIPEAVCFileException@@@Z @ 5131 NONAME
 ?Open@CMirrorFile@@UEAAHPEBDIPEAVCFileException@@@Z @ 5132 NONAME
 ?Open@CMonikerFile@@MEAAHPEAUIMoniker@@PEAUIBindHost@@PEAUIBindStatusCallback@@PEAUIBindCtx@@PEAVCFileException@@@Z @ 5133 NONAME
 ?Open@CMonikerFile@@MEAAHPEBDPEAUIBindHost@@PEAUIBindStatusCallback@@PEAUIBindCtx@@PEAVCFileException@@@Z @ 5134 NONAME
 ?Open@CMonikerFile@@UEAAHPEAUIMoniker@@PEAVCFileException@@@Z @ 5135 NONAME
 ?Open@CMonikerFile@@UEAAHPEBDPEAVCFileException@@@Z @ 5136 NONAME
 ?Open@CRecordset@@UEAAHIPEBDK@Z @ 5137 NONAME
 ?Open@CSocketFile@@UEAAHPEBDIPEAVCFileException@@@Z @ 5138 NONAME
 ?Open@CStdioFile@@UEAAHPEBDIPEAVCFileException@@@Z @ 5139 NONAME
 ?Open@XOleDocumentView@CDocObjectServer@@UEAAJXZ @ 5140 NONAME
 ?OpenDocumentFile@CDocManager@@UEAAPEAVCDocument@@PEBD@Z @ 5141 NONAME
 ?OpenDocumentFile@CMultiDocTemplate@@UEAAPEAVCDocument@@PEBDH@Z @ 5142 NONAME
 ?OpenDocumentFile@CSingleDocTemplate@@UEAAPEAVCDocument@@PEBDH@Z @ 5143 NONAME
 ?OpenDocumentFile@CWinApp@@UEAAPEAVCDocument@@PEBD@Z @ 5144 NONAME
 ?OpenEx@CDatabase@@UEAAHPEBDK@Z @ 5145 NONAME
 ?OpenFile@CFtpConnection@@QEAAPEAVCInternetFile@@PEBDKK_K@Z @ 5146 NONAME
 ?OpenFile@CGopherConnection@@QEAAPEAVCGopherFile@@AEAVCGopherLocator@@KPEBD_K@Z @ 5147 NONAME
 ?OpenLinkSource@COleUILinkInfo@@UEAAJK@Z @ 5148 NONAME
 ?OpenRequest@CHttpConnection@@QEAAPEAVCHttpFile@@HPEBD0_KPEAPEBD0K@Z @ 5149 NONAME
 ?OpenRequest@CHttpConnection@@QEAAPEAVCHttpFile@@PEBD00_KPEAPEBD0K@Z @ 5150 NONAME
 ?OpenStream@COleStreamFile@@QEAAHPEAUIStorage@@PEBDKPEAVCFileException@@@Z @ 5151 NONAME
 ?OpenURL@CHtmlEditDoc@@UEAAHPEBD@Z @ 5152 NONAME
 ?OpenURL@CInternetSession@@QEAAPEAVCStdioFile@@PEBD_KK0K@Z @ 5153 NONAME
 ?OsErrorToException@CFileException@@SAHJ@Z @ 5154 NONAME
 ?OutputString@CDumpContext@@IEAAXPEBD@Z @ 5155 NONAME
 ?PaginateTo@CEditView@@IEAAHPEAVCDC@@PEAUCPrintInfo@@@Z @ 5156 NONAME
 ?PaginateTo@CRichEditView@@IEAAHPEAVCDC@@PEAUCPrintInfo@@@Z @ 5157 NONAME
 ?PaintHookProc@CPageSetupDialog@@KAIPEAUHWND__@@I_K_J@Z @ 5158 NONAME
 ?PaintWindowlessControls@CWnd@@QEAAHPEAVCDC@@@Z @ 5159 NONAME
 ?ParentToClient@COleControl@@UEBAIPEBUtagRECT@@PEAUtagPOINT@@H@Z @ 5160 NONAME
 ?ParseCommandLine@CWinApp@@QEAAXAEAVCCommandLineInfo@@@Z @ 5161 NONAME
 ?ParseCurrency@COleCurrency@@QEAAHPEBDKK@Z @ 5162 NONAME
 ?ParseDisplayName@XOleContainer@COleControlContainer@@UEAAJPEAUIBindCtx@@PEA_WPEAKPEAPEAUIMoniker@@@Z @ 5163 NONAME
 ?ParseDisplayName@XOleItemContainer@COleLinkingDoc@@UEAAJPEAUIBindCtx@@PEA_WPEAKPEAPEAUIMoniker@@@Z @ 5164 NONAME
 ?ParseLast@CCommandLineInfo@@IEAAXH@Z @ 5165 NONAME
 ?ParseParam@CCommandLineInfo@@UEAAXPEBDHH@Z @ 5166 NONAME
 ?ParseParamFlag@CCommandLineInfo@@IEAAXPEBD@Z @ 5167 NONAME
 ?ParseParamNotFlag@CCommandLineInfo@@IEAAXPEBD@Z @ 5168 NONAME
 ?PasteSpecial@CRichEditCtrl@@QEAAXIKPEAUHMETAFILE__@@@Z @ 5169 NONAME
 ?PGetFirstAssoc@CMapStringToString@@QEAAPEAUCPair@1@XZ @ 5170 NONAME
 ?PGetFirstAssoc@CMapStringToString@@QEBAPEBUCPair@1@XZ @ 5171 NONAME
 ?PGetNextAssoc@CMapStringToString@@QEAAPEAUCPair@1@PEBU21@@Z @ 5172 NONAME
 ?PGetNextAssoc@CMapStringToString@@QEBAPEBUCPair@1@PEBU21@@Z @ 5173 NONAME
 ?PlayMetaFile@CDC@@QEAAHPEAUHMETAFILE__@@@Z @ 5174 NONAME
 ?PLookup@CMapStringToString@@QEAAPEAUCPair@1@PEBD@Z @ 5175 NONAME
 ?PLookup@CMapStringToString@@QEBAPEBUCPair@1@PEBD@Z @ 5176 NONAME
 ?PolyBezierTo@CDC@@QEAAHPEBUtagPOINT@@H@Z @ 5177 NONAME
 ?PolyDraw@CDC@@QEAAHPEBUtagPOINT@@PEBEH@Z @ 5178 NONAME
 ?PolylineTo@CDC@@QEAAHPEBUtagPOINT@@H@Z @ 5179 NONAME
 ?PositionPage@CPreviewView@@MEAAXI@Z @ 5180 NONAME
 ?PostBindToStream@CAsyncMonikerFile@@MEAAHPEAVCFileException@@@Z @ 5181 NONAME
 ?PostBindToStream@CMonikerFile@@MEAAHPEAVCFileException@@@Z @ 5182 NONAME
 ?PostCreateDialog@COccManager@@UEAAXPEAU_AFX_OCC_DIALOG_INFO@@@Z @ 5183 NONAME
 ?PostModal@CDialog@@IEAAXXZ @ 5184 NONAME
 ?PostModal@CPrintDialogEx@@QEAAXXZ @ 5185 NONAME
 ?PostModalDialog@COleControl@@QEAAXPEAUHWND__@@@Z @ 5186 NONAME
 ?PostNcDestroy@CControlBar@@UEAAXXZ @ 5187 NONAME
 ?PostNcDestroy@CControlFrameWnd@@MEAAXXZ @ 5188 NONAME
 ?PostNcDestroy@CFindReplaceDialog@@MEAAXXZ @ 5189 NONAME
 ?PostNcDestroy@CFrameWnd@@MEAAXXZ @ 5190 NONAME
 ?PostNcDestroy@COleCntrFrameWnd@@MEAAXXZ @ 5191 NONAME
 ?PostNcDestroy@CReflectorWnd@@MEAAXXZ @ 5192 NONAME
 ?PostNcDestroy@CView@@MEAAXXZ @ 5193 NONAME
 ?PostNcDestroy@CWnd@@MEAAXXZ @ 5194 NONAME
 ?Preallocate@?$CSimpleStringT@_W$00@ATL@@QEAAXH@Z @ 5195 NONAME
 ?Preallocate@?$CSimpleStringT@D$00@ATL@@QEAAXH@Z @ 5196 NONAME
 ?PreBindFields@CRecordset@@UEAAXXZ @ 5197 NONAME
 ?PreCloseFrame@CDocument@@UEAAXPEAVCFrameWnd@@@Z @ 5198 NONAME
 ?PreCloseFrame@COleDocument@@UEAAXPEAVCFrameWnd@@@Z @ 5199 NONAME
 ?PreCloseFrame@CRichEditDoc@@UEAAXPEAVCFrameWnd@@@Z @ 5200 NONAME
 ?PreCompareItem@CCheckListBox@@IEAAHPEAUtagCOMPAREITEMSTRUCT@@@Z @ 5201 NONAME
 ?PreCreateDialog@COccManager@@UEAAPEBUDLGTEMPLATE@@PEAU_AFX_OCC_DIALOG_INFO@@PEBU2@@Z @ 5202 NONAME
 ?PreCreateWindow@CControlBar@@UEAAHAEAUtagCREATESTRUCTA@@@Z @ 5203 NONAME
 ?PreCreateWindow@CControlFrameWnd@@UEAAHAEAUtagCREATESTRUCTA@@@Z @ 5204 NONAME
 ?PreCreateWindow@CCtrlView@@MEAAHAEAUtagCREATESTRUCTA@@@Z @ 5205 NONAME
 ?PreCreateWindow@CEditView@@MEAAHAEAUtagCREATESTRUCTA@@@Z @ 5206 NONAME
 ?PreCreateWindow@CFrameWnd@@MEAAHAEAUtagCREATESTRUCTA@@@Z @ 5207 NONAME
 ?PreCreateWindow@CHtmlView@@UEAAHAEAUtagCREATESTRUCTA@@@Z @ 5208 NONAME
 ?PreCreateWindow@CListView@@UEAAHAEAUtagCREATESTRUCTA@@@Z @ 5209 NONAME
 ?PreCreateWindow@CMDIChildWnd@@UEAAHAEAUtagCREATESTRUCTA@@@Z @ 5210 NONAME
 ?PreCreateWindow@CMDIFrameWnd@@UEAAHAEAUtagCREATESTRUCTA@@@Z @ 5211 NONAME
 ?PreCreateWindow@CMiniFrameWnd@@MEAAHAEAUtagCREATESTRUCTA@@@Z @ 5212 NONAME
 ?PreCreateWindow@CRichEditView@@MEAAHAEAUtagCREATESTRUCTA@@@Z @ 5213 NONAME
 ?PreCreateWindow@CStatusBar@@UEAAHAEAUtagCREATESTRUCTA@@@Z @ 5214 NONAME
 ?PreCreateWindow@CTreeView@@UEAAHAEAUtagCREATESTRUCTA@@@Z @ 5215 NONAME
 ?PreCreateWindow@CView@@MEAAHAEAUtagCREATESTRUCTA@@@Z @ 5216 NONAME
 ?PreCreateWindow@CWnd@@UEAAHAEAUtagCREATESTRUCTA@@@Z @ 5217 NONAME
 ?PreDeleteItem@CCheckListBox@@IEAAXPEAUtagDELETEITEMSTRUCT@@@Z @ 5218 NONAME
 ?PreDrawItem@CCheckListBox@@IEAAXPEAUtagDRAWITEMSTRUCT@@@Z @ 5219 NONAME
 ?PreDrawItemHelper@CCheckListBox@@IEAAXPEAUtagDRAWITEMSTRUCT@@@Z @ 5220 NONAME
 ?PreDrawItemNonThemed@CCheckListBox@@IEAAXPEAVCDC@@AEAUtagDRAWITEMSTRUCT@@HH@Z @ 5221 NONAME
 ?PreDrawItemThemed@CCheckListBox@@IEAA_NPEAVCDC@@AEAUtagDRAWITEMSTRUCT@@HH@Z @ 5222 NONAME
 ?PreDrawPage@CPageSetupDialog@@UEAAIGGPEAUtagPSDA@@@Z @ 5223 NONAME
 ?PreInitDialog@CDialog@@MEAAXXZ @ 5224 NONAME
 ?PreInitDialog@COleChangeSourceDialog@@UEAAXXZ @ 5225 NONAME
 ?PreMeasureItem@CCheckListBox@@IEAAXPEAUtagMEASUREITEMSTRUCT@@@Z @ 5226 NONAME
 ?PreModal@CDialog@@IEAAPEAUHWND__@@XZ @ 5227 NONAME
 ?PreModal@CPrintDialogEx@@QEAAPEAUHWND__@@XZ @ 5228 NONAME
 ?PreModalDialog@COleControl@@QEAAXPEAUHWND__@@@Z @ 5229 NONAME
 ?PrepareAndExecute@CRecordset@@IEAAXXZ @ 5230 NONAME
 ?PrepareCtrl@CDataExchange@@QEAAPEAUHWND__@@H@Z @ 5231 NONAME
 ?PrepareEditCtrl@CDataExchange@@QEAAPEAUHWND__@@H@Z @ 5232 NONAME
 ?PrepareForHelp@CWnd@@QEAAXXZ @ 5233 NONAME
 ?PrepareOleCtrl@CDataExchange@@QEAAPEAVCOleControlSite@@H@Z @ 5234 NONAME
 ?PrepareUpdateHstmt@CRecordset@@IEAAXXZ @ 5235 NONAME
 ?PrepareWrite@?$CSimpleStringT@_W$00@ATL@@AEAAPEA_WH@Z @ 5236 NONAME
 ?PrepareWrite@?$CSimpleStringT@D$00@ATL@@AEAAPEADH@Z @ 5237 NONAME
 ?PrepareWrite2@?$CSimpleStringT@_W$00@ATL@@AEAAXH@Z @ 5238 NONAME
 ?PrepareWrite2@?$CSimpleStringT@D$00@ATL@@AEAAXH@Z @ 5239 NONAME
 ?PreProcessPageTemplate@CPropertyPage@@IEAAXAEAU_PROPSHEETPAGEA@@H@Z @ 5240 NONAME
 ?PreSubclassWindow@CDragListBox@@UEAAXXZ @ 5241 NONAME
 ?PreSubclassWindow@CWnd@@UEAAXXZ @ 5242 NONAME
 ?PreTranslateInput@CWnd@@QEAAHPEAUtagMSG@@@Z @ 5243 NONAME
 ?PreTranslateMessage@CControlBar@@UEAAHPEAUtagMSG@@@Z @ 5244 NONAME
 ?PreTranslateMessage@CDialog@@UEAAHPEAUtagMSG@@@Z @ 5245 NONAME
 ?PreTranslateMessage@CFormView@@MEAAHPEAUtagMSG@@@Z @ 5246 NONAME
 ?PreTranslateMessage@CFrameWnd@@UEAAHPEAUtagMSG@@@Z @ 5247 NONAME
 ?PreTranslateMessage@CHtmlView@@UEAAHPEAUtagMSG@@@Z @ 5248 NONAME
 ?PreTranslateMessage@CMDIChildWnd@@UEAAHPEAUtagMSG@@@Z @ 5249 NONAME
 ?PreTranslateMessage@CMDIFrameWnd@@UEAAHPEAUtagMSG@@@Z @ 5250 NONAME
 ?PreTranslateMessage@COleIPFrameWnd@@UEAAHPEAUtagMSG@@@Z @ 5251 NONAME
 ?PreTranslateMessage@COlePropertyPage@@MEAAHPEAUtagMSG@@@Z @ 5252 NONAME
 ?PreTranslateMessage@CPropertyPage@@MEAAHPEAUtagMSG@@@Z @ 5253 NONAME
 ?PreTranslateMessage@CPropertySheet@@UEAAHPEAUtagMSG@@@Z @ 5254 NONAME
 ?PreTranslateMessage@CWinThread@@UEAAHPEAUtagMSG@@@Z @ 5255 NONAME
 ?PreTranslateMessage@CWnd@@UEAAHPEAUtagMSG@@@Z @ 5256 NONAME
 ?Print@XPrint@CDocObjectServer@@UEAAJKPEAPEAUtagDVTARGETDEVICE@@PEAPEAUtagPAGESET@@PEAUtagSTGMEDIUM@@PEAUIContinueCallback@@JPEAJ4@Z @ 5257 NONAME
 ?PrinterDPtoScreenDP@CPreviewDC@@QEBAXPEAUtagPOINT@@@Z @ 5258 NONAME
 ?PrintInsideRect@CEditView@@QEAAIPEAVCDC@@AEAUtagRECT@@II@Z @ 5259 NONAME
 ?PrintInsideRect@CRichEditView@@QEAAJPEAVCDC@@AEAUtagRECT@@JJH@Z @ 5260 NONAME
 ?PrintPage@CRichEditView@@QEAAJPEAVCDC@@JJ@Z @ 5261 NONAME
 ?Process@COleDispatchException@@SAXPEAUtagEXCEPINFO@@PEBVCException@@@Z @ 5262 NONAME
 ?Process@COleException@@SAJPEBVCException@@@Z @ 5263 NONAME
 ?ProcessAuxQueue@CSocket@@SAHXZ @ 5264 NONAME
 ?ProcessHelpMsg@CFrameWnd@@IEAAHAEAUtagMSG@@PEAK@Z @ 5265 NONAME
 ?ProcessMessageFilter@CWinThread@@UEAAHHPEAUtagMSG@@@Z @ 5266 NONAME
 ?ProcessShellCommand@CWinApp@@QEAAHAEAVCCommandLineInfo@@@Z @ 5267 NONAME
 ?ProcessWndProcException@CWinApp@@UEAA_JPEAVCException@@PEBUtagMSG@@@Z @ 5268 NONAME
 ?ProcessWndProcException@CWinThread@@UEAA_JPEAVCException@@PEBUtagMSG@@@Z @ 5269 NONAME
 ?PtrOfIndex@COleSafeArray@@QEAAXPEAJPEAPEAX@Z @ 5270 NONAME
 ?PtVisible@CMetaFileDC@@UEBAHHH@Z @ 5271 NONAME
 ?PumpMessage@CWinThread@@UEAAHXZ @ 5272 NONAME
 ?PumpMessages@CSocket@@MEAAHI@Z @ 5273 NONAME
 ?PushStackArgs@CCmdTarget@@IEAAJPEAEPEBEPEAXGPEAUtagDISPPARAMS@@PEAIPEAUtagVARIANT@@PEAVCVariantBoolConverter@@@Z @ 5274 NONAME
 ?put_accName@CWnd@@UEAAJUtagVARIANT@@PEA_W@Z @ 5275 NONAME
 ?put_accName@XAccessible@CWnd@@UEAAJUtagVARIANT@@PEA_W@Z @ 5276 NONAME
 ?put_accValue@CWnd@@UEAAJUtagVARIANT@@PEA_W@Z @ 5277 NONAME
 ?put_accValue@XAccessible@CWnd@@UEAAJUtagVARIANT@@PEA_W@Z @ 5278 NONAME
 ?PutElement@COleSafeArray@@QEAAXPEAJPEAX@Z @ 5279 NONAME
 ?PutFile@CFtpConnection@@QEAAHPEBD0K_K@Z @ 5280 NONAME
 ?PutProperty@CHtmlView@@QEAAXPEBDAEBUtagVARIANT@@@Z @ 5281 NONAME
 ?PX_Blob@@YAHPEAVCPropExchange@@PEBDAEAPEAXPEAX@Z @ 5282 NONAME
 ?PX_Bool@@YAHPEAVCPropExchange@@PEBDAEAH@Z @ 5283 NONAME
 ?PX_Bool@@YAHPEAVCPropExchange@@PEBDAEAHH@Z @ 5284 NONAME
 ?PX_Color@@YAHPEAVCPropExchange@@PEBDAEAK@Z @ 5285 NONAME
 ?PX_Color@@YAHPEAVCPropExchange@@PEBDAEAKK@Z @ 5286 NONAME
 ?PX_Currency@@YAHPEAVCPropExchange@@PEBDAEATtagCY@@@Z @ 5287 NONAME
 ?PX_Currency@@YAHPEAVCPropExchange@@PEBDAEATtagCY@@T2@@Z @ 5288 NONAME
 ?PX_DataPath@@YAHPEAVCPropExchange@@PEBDAEAVCDataPathProperty@@1@Z @ 5289 NONAME
 ?PX_DataPath@@YAHPEAVCPropExchange@@PEBDAEAVCDataPathProperty@@AEBV?$CStringT@DV?$StrTraitMFC_DLL@DV?$ChTraitsCRT@D@ATL@@@@@ATL@@@Z @ 5290 NONAME
 ?PX_Double@@YAHPEAVCPropExchange@@PEBDAEAN@Z @ 5291 NONAME
 ?PX_Double@@YAHPEAVCPropExchange@@PEBDAEANN@Z @ 5292 NONAME
 ?PX_Float@@YAHPEAVCPropExchange@@PEBDAEAM@Z @ 5293 NONAME
 ?PX_Float@@YAHPEAVCPropExchange@@PEBDAEAMM@Z @ 5294 NONAME
 ?PX_Font@@YAHPEAVCPropExchange@@PEBDAEAVCFontHolder@@PEBUtagFONTDESC@@PEAUIFontDisp@@@Z @ 5295 NONAME
 ?PX_IUnknown@@YAHPEAVCPropExchange@@PEBDAEAPEAUIUnknown@@AEBU_GUID@@PEAU2@@Z @ 5296 NONAME
 ?PX_Long@@YAHPEAVCPropExchange@@PEBDAEAJ@Z @ 5297 NONAME
 ?PX_Long@@YAHPEAVCPropExchange@@PEBDAEAJJ@Z @ 5298 NONAME
 ?PX_Picture@@YAHPEAVCPropExchange@@PEBDAEAVCPictureHolder@@@Z @ 5299 NONAME
 ?PX_Picture@@YAHPEAVCPropExchange@@PEBDAEAVCPictureHolder@@2@Z @ 5300 NONAME
 ?PX_Short@@YAHPEAVCPropExchange@@PEBDAEAF@Z @ 5301 NONAME
 ?PX_Short@@YAHPEAVCPropExchange@@PEBDAEAFF@Z @ 5302 NONAME
 ?PX_String@@YAHPEAVCPropExchange@@PEBDAEAV?$CStringT@DV?$StrTraitMFC_DLL@DV?$ChTraitsCRT@D@ATL@@@@@ATL@@@Z @ 5303 NONAME
 ?PX_String@@YAHPEAVCPropExchange@@PEBDAEAV?$CStringT@DV?$StrTraitMFC_DLL@DV?$ChTraitsCRT@D@ATL@@@@@ATL@@1@Z @ 5304 NONAME
 ?PX_String@@YAHPEAVCPropExchange@@PEBDAEAV?$CStringT@DV?$StrTraitMFC_DLL@DV?$ChTraitsCRT@D@ATL@@@@@ATL@@AEBV23@@Z @ 5305 NONAME
 ?PX_ULong@@YAHPEAVCPropExchange@@PEBDAEAK@Z @ 5306 NONAME
 ?PX_ULong@@YAHPEAVCPropExchange@@PEBDAEAKK@Z @ 5307 NONAME
 ?PX_UShort@@YAHPEAVCPropExchange@@PEBDAEAG@Z @ 5308 NONAME
 ?PX_UShort@@YAHPEAVCPropExchange@@PEBDAEAGG@Z @ 5309 NONAME
 ?PX_VBXFontConvert@@YAHPEAVCPropExchange@@AEAVCFontHolder@@@Z @ 5310 NONAME
 ?QueryAcceptData@CRichEditView@@MEAAJPEAUIDataObject@@PEAGKHPEAX@Z @ 5311 NONAME
 ?QueryAcceptData@XRichEditOleCallback@CRichEditView@@UEAAJPEAUIDataObject@@PEAGKHPEAX@Z @ 5312 NONAME
 ?QueryAggregates@CCmdTarget@@QEAAPEAUIUnknown@@PEBX@Z @ 5313 NONAME
 ?QueryCommand@COleDocObjectItem@@QEAAJKPEAKPEAU_tagOLECMDTEXT@@PEBU_GUID@@@Z @ 5314 NONAME
 ?QueryContinueDrag@COleDropSource@@UEAAJHK@Z @ 5315 NONAME
 ?QueryContinueDrag@XDropSource@COleDropSource@@UEAAJHK@Z @ 5316 NONAME
 ?QueryDefHandler@COleControl@@IEAAPEAXAEBU_GUID@@@Z @ 5317 NONAME
 ?QueryFormsCommand@CHtmlView@@QEAAJKPEAH00@Z @ 5318 NONAME
 ?QueryGetData@XDataObject@COleControl@@UEAAJPEAUtagFORMATETC@@@Z @ 5319 NONAME
 ?QueryGetData@XDataObject@COleDataSource@@UEAAJPEAUtagFORMATETC@@@Z @ 5320 NONAME
 ?QueryGetData@XDataObject@COleServerDoc@@UEAAJPEAUtagFORMATETC@@@Z @ 5321 NONAME
 ?QueryGetData@XDataObject@COleServerItem@@UEAAJPEAUtagFORMATETC@@@Z @ 5322 NONAME
 ?QueryHitPoint@XViewObject@COleControl@@UEAAJKPEBUtagRECT@@UtagPOINT@@JPEAK@Z @ 5323 NONAME
 ?QueryHitRect@XViewObject@COleControl@@UEAAJKPEBUtagRECT@@0JPEAK@Z @ 5324 NONAME
 ?QueryInfo@CHttpFile@@QEBAHKAEAKPEAK@Z @ 5325 NONAME
 ?QueryInfo@CHttpFile@@QEBAHKAEAV?$CStringT@DV?$StrTraitMFC_DLL@DV?$ChTraitsCRT@D@ATL@@@@@ATL@@PEAK@Z @ 5326 NONAME
 ?QueryInfo@CHttpFile@@QEBAHKPEAU_SYSTEMTIME@@PEAK@Z @ 5327 NONAME
 ?QueryInfo@CHttpFile@@QEBAHKPEAXPEAK1@Z @ 5328 NONAME
 ?QueryInfoStatusCode@CHttpFile@@QEBAHAEAK@Z @ 5329 NONAME
 ?QueryInsertObject@XRichEditOleCallback@CRichEditView@@UEAAJPEAU_GUID@@PEAUIStorage@@J@Z @ 5330 NONAME
 ?QueryInterface@CArchiveStream@@UEAAJAEBU_GUID@@PEAPEAX@Z @ 5331 NONAME
 ?QueryInterface@CBlobProperty@@UEAAJAEBU_GUID@@PEAPEAX@Z @ 5332 NONAME
 ?QueryInterface@CBrowserControlSite@@MEAAJAEBU_GUID@@PEAPEAX@Z @ 5333 NONAME
 ?QueryInterface@CDHtmlControlSink@@UEAAJAEBU_GUID@@PEAPEAX@Z @ 5334 NONAME
 ?QueryInterface@CDHtmlElementEventSink@@UEAAJAEBU_GUID@@PEAPEAX@Z @ 5335 NONAME
 ?QueryInterface@CInnerUnknown@@UEAAJAEBU_GUID@@PEAPEAX@Z @ 5336 NONAME
 ?QueryInterface@COleConnPtContainer@@UEAAJAEBU_GUID@@PEAPEAX@Z @ 5337 NONAME
 ?QueryInterface@COleDispatchImpl@@UEAAJAEBU_GUID@@PEAPEAX@Z @ 5338 NONAME
 ?QueryInterface@COleUILinkInfo@@UEAAJAEBU_GUID@@PEAPEAX@Z @ 5339 NONAME
 ?QueryInterface@CPrintDialogEx@@UEAAJAEBU_GUID@@PEAPEAX@Z @ 5340 NONAME
 ?QueryOption@CInternetConnection@@QEBAHKAEAK@Z @ 5341 NONAME
 ?QueryOption@CInternetConnection@@QEBAHKAEAV?$CStringT@DV?$StrTraitMFC_DLL@DV?$ChTraitsCRT@D@ATL@@@@@ATL@@@Z @ 5342 NONAME
 ?QueryOption@CInternetConnection@@QEBAHKPEAXPEAK@Z @ 5343 NONAME
 ?QueryOption@CInternetFile@@QEBAHKAEAK@Z @ 5344 NONAME
 ?QueryOption@CInternetFile@@QEBAHKAEAV?$CStringT@DV?$StrTraitMFC_DLL@DV?$ChTraitsCRT@D@ATL@@@@@ATL@@@Z @ 5345 NONAME
 ?QueryOption@CInternetFile@@QEBAHKPEAXPEAK@Z @ 5346 NONAME
 ?QueryOption@CInternetSession@@QEBAHKAEAK@Z @ 5347 NONAME
 ?QueryOption@CInternetSession@@QEBAHKAEAV?$CStringT@DV?$StrTraitMFC_DLL@DV?$ChTraitsCRT@D@ATL@@@@@ATL@@@Z @ 5348 NONAME
 ?QueryOption@CInternetSession@@QEBAHKPEAXPEAK@Z @ 5349 NONAME
 ?QuerySiblings@CPropertyPage@@QEAA_J_K_J@Z @ 5350 NONAME
 ?QuerySinkInterface@CConnectionPoint@@UEAAJPEAUIUnknown@@PEAPEAX@Z @ 5351 NONAME
 ?QuerySinkInterface@XEventConnPt@COleControl@@UEAAJPEAUIUnknown@@PEAPEAX@Z @ 5352 NONAME
 ?QueryStatus@XOleCommandTarget@CDocObjectServer@@UEAAJPEBU_GUID@@KQEAU_tagOLECMD@@PEAU_tagOLECMDTEXT@@@Z @ 5353 NONAME
 ?QueryStatus@XOleCommandTarget@COleFrameHook@@UEAAJPEBU_GUID@@KQEAU_tagOLECMD@@PEAU_tagOLECMDTEXT@@@Z @ 5354 NONAME
 ?QueryStatusWB@CHtmlView@@QEBA?AW4OLECMDF@@W4OLECMDID@@@Z @ 5355 NONAME
 ?QueryTextMetrics@CFontHolder@@QEAAXPEAUtagTEXTMETRICA@@@Z @ 5356 NONAME
 ?QuickActivate@COleControlSite@@UEAAHXZ @ 5357 NONAME
 ?QuickActivate@XQuickActivate@COleControl@@UEAAJPEAUtagQACONTAINER@@PEAUtagQACONTROL@@@Z @ 5358 NONAME
 ?ReactivateAndUndo@COleClientItem@@QEAAHXZ @ 5359 NONAME
 ?ReactivateAndUndo@XOleInPlaceObject@COleControl@@UEAAJXZ @ 5360 NONAME
 ?ReactivateAndUndo@XOleInPlaceObject@COleServerDoc@@UEAAJXZ @ 5361 NONAME
 ?Read@CArchive@@QEAAIPEAXI@Z @ 5362 NONAME
 ?Read@CArchiveStream@@UEAAJPEAXKPEAK@Z @ 5363 NONAME
 ?Read@CAsyncMonikerFile@@UEAAIPEAXI@Z @ 5364 NONAME
 ?Read@CFile@@UEAAIPEAXI@Z @ 5365 NONAME
 ?Read@CImageList@@QEAAHPEAVCArchive@@@Z @ 5366 NONAME
 ?Read@CInternetFile@@UEAAIPEAXI@Z @ 5367 NONAME
 ?Read@CMemFile@@UEAAIPEAXI@Z @ 5368 NONAME
 ?Read@COleStreamFile@@UEAAIPEAXI@Z @ 5369 NONAME
 ?Read@CSocketFile@@UEAAIPEAXI@Z @ 5370 NONAME
 ?Read@CStdioFile@@UEAAIPEAXI@Z @ 5371 NONAME
 ?ReadClass@CArchive@@QEAAPEAUCRuntimeClass@@PEBU2@PEAIPEAK@Z @ 5372 NONAME
 ?ReadCount@CArchive@@QEAA_KXZ @ 5373 NONAME
 ?ReadFromArchive@CEditView@@QEAAXAEAVCArchive@@I@Z @ 5374 NONAME
 ?ReadFromStream@CProperty@@QEAAHPEAUIStream@@@Z @ 5375 NONAME
 ?ReadFromStream@CPropertySection@@QEAAHPEAUIStream@@T_LARGE_INTEGER@@@Z @ 5376 NONAME
 ?ReadFromStream@CPropertySet@@QEAAHPEAUIStream@@@Z @ 5377 NONAME
 ?ReadItem@COleClientItem@@UEAAXAEAVCArchive@@@Z @ 5378 NONAME
 ?ReadItemCompound@COleClientItem@@QEAAXAEAVCArchive@@@Z @ 5379 NONAME
 ?ReadItemFlat@COleClientItem@@QEAAXAEAVCArchive@@@Z @ 5380 NONAME
 ?ReadList@CRecentFileList@@UEAAXXZ @ 5381 NONAME
 ?ReadNameDictFromStream@CPropertySection@@QEAAHPEAUIStream@@@Z @ 5382 NONAME
 ?ReadObject@CArchive@@QEAAPEAVCObject@@PEBUCRuntimeClass@@@Z @ 5383 NONAME
 ?ReadString@CArchive@@QEAAHAEAV?$CStringT@DV?$StrTraitMFC_DLL@DV?$ChTraitsCRT@D@ATL@@@@@ATL@@@Z @ 5384 NONAME
 ?ReadString@CArchive@@QEAAPEADPEADI@Z @ 5385 NONAME
 ?ReadString@CInternetFile@@UEAAHAEAV?$CStringT@DV?$StrTraitMFC_DLL@DV?$ChTraitsCRT@D@ATL@@@@@ATL@@@Z @ 5386 NONAME
 ?ReadString@CInternetFile@@UEAAPEADPEADI@Z @ 5387 NONAME
 ?ReadString@CStdioFile@@UEAAHAEAV?$CStringT@DV?$StrTraitMFC_DLL@DV?$ChTraitsCRT@D@ATL@@@@@ATL@@@Z @ 5388 NONAME
 ?ReadString@CStdioFile@@UEAAPEADPEADI@Z @ 5389 NONAME
 ?Realloc@CMemFile@@MEAAPEAEPEAE_K@Z @ 5390 NONAME
 ?Realloc@CSharedFile@@MEAAPEAEPEAE_K@Z @ 5391 NONAME
 ?Reallocate@?$CSimpleStringT@_W$00@ATL@@AEAAXH@Z @ 5392 NONAME
 ?Reallocate@?$CSimpleStringT@D$00@ATL@@AEAAXH@Z @ 5393 NONAME
 ?Reallocate@CAfxStringMgr@@UEAAPEAUCStringData@ATL@@PEAU23@HH@Z @ 5394 NONAME
 ?ReallocLongBinary@CFieldExchange@@QEAAPEAEAEAVCLongBinary@@_J1@Z @ 5395 NONAME
 ?RebindParams@CRecordset@@QEAAXPEAX@Z @ 5396 NONAME
 ?RecalcDelayShow@CControlBar@@UEAAKPEAUAFX_SIZEPARENTPARAMS@@@Z @ 5397 NONAME
 ?RecalcLayout@CFrameWnd@@UEAAXH@Z @ 5398 NONAME
 ?RecalcLayout@CMiniDockFrameWnd@@UEAAXH@Z @ 5399 NONAME
 ?RecalcLayout@COleCntrFrameWnd@@UEAAXH@Z @ 5400 NONAME
 ?RecalcLayout@COleDocIPFrameWnd@@MEAAXH@Z @ 5401 NONAME
 ?RecalcLayout@COleIPFrameWnd@@UEAAXH@Z @ 5402 NONAME
 ?RecalcLayout@CSplitterWnd@@UEAAXXZ @ 5403 NONAME
 ?Receive@CAsyncSocket@@UEAAHPEAXHH@Z @ 5404 NONAME
 ?Receive@CSocket@@UEAAHPEAXHH@Z @ 5405 NONAME
 ?ReceiveFrom@CAsyncSocket@@QEAAHPEAXHAEAV?$CStringT@DV?$StrTraitMFC_DLL@DV?$ChTraitsCRT@D@ATL@@@@@ATL@@AEAIH@Z @ 5406 NONAME
 ?ReceiveFromHelper@CAsyncSocket@@MEAAHPEAXHPEAUsockaddr@@PEAHH@Z @ 5407 NONAME
 ?ReceiveFromHelper@CSocket@@MEAAHPEAXHPEAUsockaddr@@PEAHH@Z @ 5408 NONAME
 ?RecreateControlWindow@COleControl@@QEAAXXZ @ 5409 NONAME
 ?rectDefault@CFrameWnd@@2VCRect@@B @ 5410 NONAME DATA
 ?RectVisible@CMetaFileDC@@UEBAHPEBUtagRECT@@@Z @ 5411 NONAME
 ?Redim@COleSafeArray@@QEAAXPEAUtagSAFEARRAYBOUND@@@Z @ 5412 NONAME
 ?ReDockControlBar@CDockBar@@QEAAXPEAVCControlBar@@PEBUtagRECT@@@Z @ 5413 NONAME
 ?ReDockControlBar@CFrameWnd@@QEAAXPEAVCControlBar@@PEAVCDockBar@@PEBUtagRECT@@@Z @ 5414 NONAME
 ?ReflectChildNotify@CWnd@@IEAAHI_K_JPEA_J@Z @ 5415 NONAME
 ?ReflectLastMsg@CWnd@@KAHPEAUHWND__@@PEA_J@Z @ 5416 NONAME
 ?Refresh@COleControl@@QEAAXXZ @ 5417 NONAME
 ?RefreshRowset@CRecordset@@QEAAXGG@Z @ 5418 NONAME
 ?Register@COleDropTarget@@QEAAHPEAVCWnd@@@Z @ 5419 NONAME
 ?Register@COleLinkingDoc@@QEAAHPEAVCOleObjectFactory@@PEBD@Z @ 5420 NONAME
 ?Register@COleMessageFilter@@QEAAHXZ @ 5421 NONAME
 ?Register@COleObjectFactory@@UEAAHXZ @ 5422 NONAME
 ?Register@COleTemplateServer@@UEAAHXZ @ 5423 NONAME
 ?Register@CWinApp@@UEAAHXZ @ 5424 NONAME
 ?RegisterAll@COleObjectFactory@@SAHXZ @ 5425 NONAME
 ?RegisterIfServerAttached@COleLinkingDoc@@MEAAHPEBDH@Z @ 5426 NONAME
 ?RegisterShellFileTypes@CDocManager@@UEAAXH@Z @ 5427 NONAME
 ?RegisterShellFileTypes@CWinApp@@IEAAXH@Z @ 5428 NONAME
 ?RegisterSiteFactory@CControlSiteFactoryMgr@@QEAAHPEAVIControlSiteFactory@@@Z @ 5429 NONAME
 ?Release@CArchiveStream@@UEAAKXZ @ 5430 NONAME
 ?Release@CBlobProperty@@UEAAKXZ @ 5431 NONAME
 ?Release@CBrowserControlSite@@MEAAKXZ @ 5432 NONAME
 ?Release@CDHtmlControlSink@@UEAAKXZ @ 5433 NONAME
 ?Release@CDHtmlElementEventSink@@UEAAKXZ @ 5434 NONAME
 ?Release@CDHtmlEventSink@@UEAAKXZ @ 5435 NONAME
 ?Release@CInnerUnknown@@UEAAKXZ @ 5436 NONAME
 ?Release@COleClientItem@@UEAAXW4tagOLECLOSE@@@Z @ 5437 NONAME
 ?Release@COleConnPtContainer@@UEAAKXZ @ 5438 NONAME
 ?Release@COleDataObject@@QEAAXXZ @ 5439 NONAME
 ?Release@COleDispatchImpl@@UEAAKXZ @ 5440 NONAME
 ?Release@COleDocObjectItem@@UEAAXW4tagOLECLOSE@@@Z @ 5441 NONAME
 ?Release@COleUILinkInfo@@UEAAKXZ @ 5442 NONAME
 ?Release@CPrintDialogEx@@UEAAKXZ @ 5443 NONAME
 ?ReleaseAttribDC@CDC@@UEAAXXZ @ 5444 NONAME
 ?ReleaseBuffer@?$CSimpleStringT@_W$00@ATL@@QEAAXH@Z @ 5445 NONAME
 ?ReleaseBuffer@?$CSimpleStringT@D$00@ATL@@QEAAXH@Z @ 5446 NONAME
 ?ReleaseBufferSetLength@?$CSimpleStringT@_W$00@ATL@@QEAAXH@Z @ 5447 NONAME
 ?ReleaseBufferSetLength@?$CSimpleStringT@D$00@ATL@@QEAAXH@Z @ 5448 NONAME
 ?ReleaseCaches@COleControl@@IEAAXXZ @ 5449 NONAME
 ?ReleaseCapture@COleControl@@QEAAHXZ @ 5450 NONAME
 ?ReleaseDC@COleControl@@QEAAHPEAVCDC@@@Z @ 5451 NONAME
 ?ReleaseDC@XOleIPSite@COleControlSite@@UEAAJPEAUHDC__@@@Z @ 5452 NONAME
 ?ReleaseDispatch@COleDispatchDriver@@QEAAXXZ @ 5453 NONAME
 ?ReleaseDocSite@CDocObjectServer@@QEAAXXZ @ 5454 NONAME
 ?ReleaseFile@CDocument@@UEAAXPEAVCFile@@H@Z @ 5455 NONAME
 ?ReleaseFont@CFontHolder@@QEAAXXZ @ 5456 NONAME
 ?ReleaseOutputDC@CDC@@UEAAXXZ @ 5457 NONAME
 ?ReleaseOutputDC@CMetaFileDC@@MEAAXXZ @ 5458 NONAME
 ?ReleaseOutputDC@CPreviewDC@@UEAAXXZ @ 5459 NONAME
 ?Reload@COleClientItem@@QEAAHXZ @ 5460 NONAME
 ?Remove@?$CStringT@_WV?$StrTraitMFC_DLL@_WV?$ChTraitsCRT@_W@ATL@@@@@ATL@@QEAAH_W@Z @ 5461 NONAME
 ?Remove@?$CStringT@DV?$StrTraitMFC_DLL@DV?$ChTraitsCRT@D@ATL@@@@@ATL@@QEAAHD@Z @ 5462 NONAME
 ?Remove@CFile@@SAXPEBD@Z @ 5463 NONAME
 ?Remove@CFtpConnection@@QEAAHPEBD@Z @ 5464 NONAME
 ?Remove@CPropertySection@@QEAAXK@Z @ 5465 NONAME
 ?Remove@CPropertySet@@QEAAXU_GUID@@@Z @ 5466 NONAME
 ?Remove@CPropertySet@@QEAAXU_GUID@@K@Z @ 5467 NONAME
 ?Remove@CRecentFileList@@UEAAXH@Z @ 5468 NONAME
 ?Remove@CSimpleList@@QEAAHPEAX@Z @ 5469 NONAME
 ?RemoveAll@CMapPtrToPtr@@QEAAXXZ @ 5470 NONAME
 ?RemoveAll@CMapPtrToWord@@QEAAXXZ @ 5471 NONAME
 ?RemoveAll@CMapStringToOb@@QEAAXXZ @ 5472 NONAME
 ?RemoveAll@CMapStringToPtr@@QEAAXXZ @ 5473 NONAME
 ?RemoveAll@CMapStringToString@@QEAAXXZ @ 5474 NONAME
 ?RemoveAll@CMapWordToOb@@QEAAXXZ @ 5475 NONAME
 ?RemoveAll@CMapWordToPtr@@QEAAXXZ @ 5476 NONAME
 ?RemoveAll@CObList@@QEAAXXZ @ 5477 NONAME
 ?RemoveAll@CPropertySection@@QEAAXXZ @ 5478 NONAME
 ?RemoveAll@CPropertySet@@QEAAXXZ @ 5479 NONAME
 ?RemoveAll@CPtrList@@QEAAXXZ @ 5480 NONAME
 ?RemoveAll@CStringList@@QEAAXXZ @ 5481 NONAME
 ?RemoveAll@CTypeLibCacheMap@@UEAAXPEAX@Z @ 5482 NONAME
 ?RemoveAt@CByteArray@@QEAAX_J0@Z @ 5483 NONAME
 ?RemoveAt@CDWordArray@@QEAAX_J0@Z @ 5484 NONAME
 ?RemoveAt@CObArray@@QEAAX_J0@Z @ 5485 NONAME
 ?RemoveAt@CObList@@QEAAXPEAU__POSITION@@@Z @ 5486 NONAME
 ?RemoveAt@CPtrArray@@QEAAX_J0@Z @ 5487 NONAME
 ?RemoveAt@CPtrList@@QEAAXPEAU__POSITION@@@Z @ 5488 NONAME
 ?RemoveAt@CStringArray@@QEAAX_J0@Z @ 5489 NONAME
 ?RemoveAt@CStringList@@QEAAXPEAU__POSITION@@@Z @ 5490 NONAME
 ?RemoveAt@CUIntArray@@QEAAX_J0@Z @ 5491 NONAME
 ?RemoveAt@CWordArray@@QEAAX_J0@Z @ 5492 NONAME
 ?RemoveControlBar@CDockBar@@QEAAHPEAVCControlBar@@HH@Z @ 5493 NONAME
 ?RemoveControlBar@CFrameWnd@@QEAAXPEAVCControlBar@@@Z @ 5494 NONAME
 ?RemoveDirectoryA@CFtpConnection@@QEAAHPEBD@Z @ 5495 NONAME
 ?RemoveDocument@CDocTemplate@@UEAAXPEAVCDocument@@@Z @ 5496 NONAME
 ?RemoveDocument@CMultiDocTemplate@@UEAAXPEAVCDocument@@@Z @ 5497 NONAME
 ?RemoveDocument@CSingleDocTemplate@@UEAAXPEAVCDocument@@@Z @ 5498 NONAME
 ?RemoveFrameLevelUI@COleControl@@MEAAXXZ @ 5499 NONAME
 ?RemoveFrameWnd@CFrameWnd@@IEAAXXZ @ 5500 NONAME
 ?RemoveHead@CObList@@QEAAPEAVCObject@@XZ @ 5501 NONAME
 ?RemoveHead@CPtrList@@QEAAPEAXXZ @ 5502 NONAME
 ?RemoveHead@CStringList@@QEAA?AV?$CStringT@DV?$StrTraitMFC_DLL@DV?$ChTraitsCRT@D@ATL@@@@@ATL@@XZ @ 5503 NONAME
 ?RemoveImageList@CListCtrl@@IEAAXH@Z @ 5504 NONAME
 ?RemoveImageList@CListView@@IEAAXH@Z @ 5505 NONAME
 ?RemoveImageList@CTreeCtrl@@IEAAXH@Z @ 5506 NONAME
 ?RemoveImageList@CTreeView@@IEAAXH@Z @ 5507 NONAME
 ?RemoveItem@COleDocument@@UEAAXPEAVCDocItem@@@Z @ 5508 NONAME
 ?RemoveKey@CMapPtrToPtr@@QEAAHPEAX@Z @ 5509 NONAME
 ?RemoveKey@CMapPtrToWord@@QEAAHPEAX@Z @ 5510 NONAME
 ?RemoveKey@CMapStringToOb@@QEAAHPEBD@Z @ 5511 NONAME
 ?RemoveKey@CMapStringToPtr@@QEAAHPEBD@Z @ 5512 NONAME
 ?RemoveKey@CMapStringToString@@QEAAHPEBD@Z @ 5513 NONAME
 ?RemoveKey@CMapWordToOb@@QEAAHG@Z @ 5514 NONAME
 ?RemoveKey@CMapWordToPtr@@QEAAHG@Z @ 5515 NONAME
 ?RemoveMenus@XOleInPlaceFrame@COleFrameHook@@UEAAJPEAUHMENU__@@@Z @ 5516 NONAME
 ?RemoveMenus@XOleIPFrame@COleControlContainer@@UEAAJPEAUHMENU__@@@Z @ 5517 NONAME
 ?RemovePage@CPropertySheet@@QEAAXH@Z @ 5518 NONAME
 ?RemovePage@CPropertySheet@@QEAAXPEAVCPropertyPage@@@Z @ 5519 NONAME
 ?RemovePlaceHolder@CDockBar@@QEAAXPEAVCControlBar@@@Z @ 5520 NONAME
 ?RemoveRadioCheckFromGroup@CWnd@@QEBAXPEBUCOleControlSiteOrWnd@@@Z @ 5521 NONAME
 ?RemoveSource@CDataBoundProperty@@QEAAXXZ @ 5522 NONAME
 ?RemoveTail@CObList@@QEAAPEAVCObject@@XZ @ 5523 NONAME
 ?RemoveTail@CPtrList@@QEAAPEAXXZ @ 5524 NONAME
 ?RemoveTail@CStringList@@QEAA?AV?$CStringT@DV?$StrTraitMFC_DLL@DV?$ChTraitsCRT@D@ATL@@@@@ATL@@XZ @ 5525 NONAME
 ?RemoveView@CDocument@@QEAAXPEAVCView@@@Z @ 5526 NONAME
 ?Rename@CFile@@SAXPEBD0@Z @ 5527 NONAME
 ?Rename@CFtpConnection@@QEAAHPEBD0@Z @ 5528 NONAME
 ?Render@CPictureHolder@@QEAAXPEAVCDC@@AEBVCRect@@1@Z @ 5529 NONAME
 ?ReparentControlWindow@COleControl@@UEAAXPEAUHWND__@@0@Z @ 5530 NONAME
 ?Replace@?$CStringT@_WV?$StrTraitMFC_DLL@_WV?$ChTraitsCRT@_W@ATL@@@@@ATL@@QEAAH_W0@Z @ 5531 NONAME
 ?Replace@?$CStringT@_WV?$StrTraitMFC_DLL@_WV?$ChTraitsCRT@_W@ATL@@@@@ATL@@QEAAHPEB_W0@Z @ 5532 NONAME
 ?Replace@?$CStringT@DV?$StrTraitMFC_DLL@DV?$ChTraitsCRT@D@ATL@@@@@ATL@@QEAAHDD@Z @ 5533 NONAME
 ?Replace@?$CStringT@DV?$StrTraitMFC_DLL@DV?$ChTraitsCRT@D@ATL@@@@@ATL@@QEAAHPEBD0@Z @ 5534 NONAME
 ?ReplaceBrackets@CDatabase@@QEAAXPEAD@Z @ 5535 NONAME
 ?ReportError@CException@@UEAAHII@Z @ 5536 NONAME
 ?ReportError@COleClientItem@@UEBAHJ@Z @ 5537 NONAME
 ?ReportSaveLoadException@CDocument@@UEAAXPEBDPEAVCException@@HI@Z @ 5538 NONAME
 ?ReportSaveLoadException@COleLinkingDoc@@UEAAXPEBDPEAVCException@@HI@Z @ 5539 NONAME
 ?RepositionBars@CWnd@@QEAAXIIIIPEAUtagRECT@@PEBU2@H@Z @ 5540 NONAME
 ?RepositionFrame@COleIPFrameWnd@@UEAAXPEBUtagRECT@@0@Z @ 5541 NONAME
 ?Requery@CRecordset@@UEAAHXZ @ 5542 NONAME
 ?RequestBorderSpace@XOleInPlaceFrame@COleFrameHook@@UEAAJPEBUtagRECT@@@Z @ 5543 NONAME
 ?RequestBorderSpace@XOleIPFrame@COleControlContainer@@UEAAJPEBUtagRECT@@@Z @ 5544 NONAME
 ?RequestLicKey@XClassFactory@COleObjectFactory@@UEAAJKPEAPEA_W@Z @ 5545 NONAME
 ?RequestNewObjectLayout@XOleClientSite@COleClientItem@@UEAAJXZ @ 5546 NONAME
 ?RequestNewObjectLayout@XOleClientSite@COleControlSite@@UEAAJXZ @ 5547 NONAME
 ?RequestPositionChange@COleServerDoc@@QEAAXPEBUtagRECT@@@Z @ 5548 NONAME
 ?RequestUIActivate@XOleIPSite@COleControlSite@@UEAAJXZ @ 5549 NONAME
 ?Reset@XEnumVOID@CEnumArray@@UEAAJXZ @ 5550 NONAME
 ?ResetCursor@CRecordset@@QEAAXXZ @ 5551 NONAME
 ?ResetData@CCachedDataPathProperty@@UEAAXXZ @ 5552 NONAME
 ?ResetData@CDataPathProperty@@UEAAXXZ @ 5553 NONAME
 ?ResetStockProps@COleControl@@QEAAXXZ @ 5554 NONAME
 ?ResetTimer@CControlBar@@QEAAX_KI@Z @ 5555 NONAME
 ?ResetVersion@COleControl@@QEAAXK@Z @ 5556 NONAME
 ?ResizeBorder@CBrowserControlSite@@MEAAJPEBUtagRECT@@PEAUIOleInPlaceUIWindow@@H@Z @ 5557 NONAME
 ?ResizeBorder@CDHtmlDialog@@UEAAJPEBUtagRECT@@PEAUIOleInPlaceUIWindow@@H@Z @ 5558 NONAME
 ?ResizeBorder@XDocHostUIHandler@CHtmlControlSite@@UEAAJPEBUtagRECT@@PEAUIOleInPlaceUIWindow@@H@Z @ 5559 NONAME
 ?ResizeBorder@XOleInPlaceActiveObject@COleControl@@UEAAJPEBUtagRECT@@PEAUIOleInPlaceUIWindow@@H@Z @ 5560 NONAME
 ?ResizeBorder@XOleInPlaceActiveObject@COleServerDoc@@UEAAJPEBUtagRECT@@PEAUIOleInPlaceUIWindow@@H@Z @ 5561 NONAME
 ?ResizeFrameWindow@COleControl@@MEAAXHH@Z @ 5562 NONAME
 ?ResizeOneDim@COleSafeArray@@QEAAXK@Z @ 5563 NONAME
 ?ResizeOpenControl@COleControl@@IEAAXHH@Z @ 5564 NONAME
 ?ResizeParentToFit@CScrollView@@QEAAXH@Z @ 5565 NONAME
 ?RestoreDC@CDC@@UEAAHH@Z @ 5566 NONAME
 ?RestoreDC@CPreviewDC@@UEAAHH@Z @ 5567 NONAME
 ?RestoreState@CToolBarCtrl@@QEAAXPEAUHKEY__@@PEBD1@Z @ 5568 NONAME
 ?RestoreWaitCursor@CCmdTarget@@QEAAXXZ @ 5569 NONAME
 ?RetryRejectedCall@XMessageFilter@COleMessageFilter@@UEAAKPEAUHTASK__@@KK@Z @ 5570 NONAME
 ?ReverseFind@?$CStringT@_WV?$StrTraitMFC_DLL@_WV?$ChTraitsCRT@_W@ATL@@@@@ATL@@QEBAH_W@Z @ 5571 NONAME
 ?ReverseFind@?$CStringT@DV?$StrTraitMFC_DLL@DV?$ChTraitsCRT@D@ATL@@@@@ATL@@QEBAHD@Z @ 5572 NONAME
 ?Revert@CArchiveStream@@UEAAJXZ @ 5573 NONAME
 ?Revoke@COleDropTarget@@UEAAXXZ @ 5574 NONAME
 ?Revoke@COleLinkingDoc@@QEAAXXZ @ 5575 NONAME
 ?Revoke@COleMessageFilter@@QEAAXXZ @ 5576 NONAME
 ?Revoke@COleObjectFactory@@QEAAXXZ @ 5577 NONAME
 ?RevokeAll@COleObjectFactory@@SAXXZ @ 5578 NONAME
 ?RFX_BigInt@@YAXPEAVCFieldExchange@@PEBDAEA_J@Z @ 5579 NONAME
 ?RFX_Binary@@YAXPEAVCFieldExchange@@PEBDAEAVCByteArray@@_J@Z @ 5580 NONAME
 ?RFX_Binary_Bulk@@YAXPEAVCFieldExchange@@PEBDPEAPEAEPEAPEA_JH@Z @ 5581 NONAME
 ?RFX_Bool@@YAXPEAVCFieldExchange@@PEBDAEAH@Z @ 5582 NONAME
 ?RFX_Bool_Bulk@@YAXPEAVCFieldExchange@@PEBDPEAPEAHPEAPEA_J@Z @ 5583 NONAME
 ?RFX_Byte@@YAXPEAVCFieldExchange@@PEBDAEAE@Z @ 5584 NONAME
 ?RFX_Byte_Bulk@@YAXPEAVCFieldExchange@@PEBDPEAPEAEPEAPEA_J@Z @ 5585 NONAME
 ?RFX_Date@@YAXPEAVCFieldExchange@@PEBDAEAUtagTIMESTAMP_STRUCT@@@Z @ 5586 NONAME
 ?RFX_Date@@YAXPEAVCFieldExchange@@PEBDAEAVCOleDateTime@ATL@@@Z @ 5587 NONAME
 ?RFX_Date@@YAXPEAVCFieldExchange@@PEBDAEAVCTime@ATL@@@Z @ 5588 NONAME
 ?RFX_Date_Bulk@@YAXPEAVCFieldExchange@@PEBDPEAPEAUtagTIMESTAMP_STRUCT@@PEAPEA_J@Z @ 5589 NONAME
 ?RFX_Double@@YAXPEAVCFieldExchange@@PEBDAEAN@Z @ 5590 NONAME
 ?RFX_Double_Bulk@@YAXPEAVCFieldExchange@@PEBDPEAPEANPEAPEA_J@Z @ 5591 NONAME
 ?RFX_Int@@YAXPEAVCFieldExchange@@PEBDAEAH@Z @ 5592 NONAME
 ?RFX_Int_Bulk@@YAXPEAVCFieldExchange@@PEBDPEAPEAHPEAPEA_J@Z @ 5593 NONAME
 ?RFX_Long@@YAXPEAVCFieldExchange@@PEBDAEAJ@Z @ 5594 NONAME
 ?RFX_Long_Bulk@@YAXPEAVCFieldExchange@@PEBDPEAPEAJPEAPEA_J@Z @ 5595 NONAME
 ?RFX_LongBinary@@YAXPEAVCFieldExchange@@PEBDAEAVCLongBinary@@@Z @ 5596 NONAME
 ?RFX_Single@@YAXPEAVCFieldExchange@@PEBDAEAM@Z @ 5597 NONAME
 ?RFX_Single_Bulk@@YAXPEAVCFieldExchange@@PEBDPEAPEAMPEAPEA_J@Z @ 5598 NONAME
 ?RFX_Text@@YAXPEAVCFieldExchange@@PEBDAEAV?$CStringT@_WV?$StrTraitMFC_DLL@_WV?$ChTraitsCRT@_W@ATL@@@@@ATL@@HHF@Z @ 5599 NONAME
 ?RFX_Text@@YAXPEAVCFieldExchange@@PEBDAEAV?$CStringT@DV?$StrTraitMFC_DLL@DV?$ChTraitsCRT@D@ATL@@@@@ATL@@HHF@Z @ 5600 NONAME
 ?RFX_Text@@YAXPEAVCFieldExchange@@PEBDPEA_WHHF@Z @ 5601 NONAME
 ?RFX_Text@@YAXPEAVCFieldExchange@@PEBDPEADHHF@Z @ 5602 NONAME
 ?RFX_Text_Bulk@@YAXPEAVCFieldExchange@@PEBDPEAPEA_WPEAPEA_JH@Z @ 5603 NONAME
 ?RFX_Text_Bulk@@YAXPEAVCFieldExchange@@PEBDPEAPEADPEAPEA_JH@Z @ 5604 NONAME
 ?Right@?$CStringT@_WV?$StrTraitMFC_DLL@_WV?$ChTraitsCRT@_W@ATL@@@@@ATL@@QEBA?AV12@H@Z @ 5605 NONAME
 ?Right@?$CStringT@DV?$StrTraitMFC_DLL@DV?$ChTraitsCRT@D@ATL@@@@@ATL@@QEBA?AV12@H@Z @ 5606 NONAME
 ?Rollback@CDatabase@@QEAAHXZ @ 5607 NONAME
 ?Run@COleClientItem@@QEAAXXZ @ 5608 NONAME
 ?Run@CWinApp@@UEAAHXZ @ 5609 NONAME
 ?Run@CWinThread@@UEAAHXZ @ 5610 NONAME
 ?RunAutomated@CWinApp@@QEAAHXZ @ 5611 NONAME
 ?RunEmbedded@CWinApp@@QEAAHXZ @ 5612 NONAME
 ?RunModalLoop@CWnd@@QEAAHK@Z @ 5613 NONAME
 ?SafeSetProperty@COleControlSite@@UEAAHJGZZ @ 5614 NONAME
 ?SameAsSelected@CEditView@@IEAAHPEBDH@Z @ 5615 NONAME
 ?SameAsSelected@CRichEditView@@IEAAHPEBDHH@Z @ 5616 NONAME
 ?Save@CBlobProperty@@UEAAJPEAUIStream@@H@Z @ 5617 NONAME
 ?Save@XPersistFile@COleLinkingDoc@@UEAAJPEB_WH@Z @ 5618 NONAME
 ?Save@XPersistMemory@COleControl@@UEAAJPEAXHK@Z @ 5619 NONAME
 ?Save@XPersistPropertyBag@COleControl@@UEAAJPEAUIPropertyBag@@HH@Z @ 5620 NONAME
 ?Save@XPersistStorage@COleControl@@UEAAJPEAUIStorage@@H@Z @ 5621 NONAME
 ?Save@XPersistStorage@COleServerDoc@@UEAAJPEAUIStorage@@H@Z @ 5622 NONAME
 ?Save@XPersistStreamInit@COleControl@@UEAAJPEAUIStream@@H@Z @ 5623 NONAME
 ?SaveAllModified@CDocManager@@UEAAHXZ @ 5624 NONAME
 ?SaveAllModified@CDocTemplate@@UEAAHXZ @ 5625 NONAME
 ?SaveAllModified@CWinApp@@UEAAHXZ @ 5626 NONAME
 ?SaveBarState@CFrameWnd@@QEBAXPEBD@Z @ 5627 NONAME
 ?SaveCompleted@XPersistFile@COleLinkingDoc@@UEAAJPEB_W@Z @ 5628 NONAME
 ?SaveCompleted@XPersistStorage@COleControl@@UEAAJPEAUIStorage@@@Z @ 5629 NONAME
 ?SaveCompleted@XPersistStorage@COleServerDoc@@UEAAJPEAUIStorage@@@Z @ 5630 NONAME
 ?SaveDC@CDC@@UEAAHXZ @ 5631 NONAME
 ?SaveDC@CPreviewDC@@UEAAHXZ @ 5632 NONAME
 ?SaveEmbedding@COleServerDoc@@QEAAXXZ @ 5633 NONAME
 ?SaveFocusControl@CFormView@@IEAAHXZ @ 5634 NONAME
 ?SaveModified@CDocument@@UEAAHXZ @ 5635 NONAME
 ?SaveModified@COleDocument@@UEAAHXZ @ 5636 NONAME
 ?SaveModified@COleServerDoc@@MEAAHXZ @ 5637 NONAME
 ?SaveModifiedPrompt@COleServerDoc@@IEAAHXZ @ 5638 NONAME
 ?SaveObject@XOleClientSite@COleClientItem@@UEAAJXZ @ 5639 NONAME
 ?SaveObject@XOleClientSite@COleControlSite@@UEAAJXZ @ 5640 NONAME
 ?SaveState@CControlBarInfo@@QEAAHPEBDH@Z @ 5641 NONAME
 ?SaveState@CDockState@@QEAAXPEBD@Z @ 5642 NONAME
 ?SaveState@COleControl@@IEAAJPEAUIStream@@@Z @ 5643 NONAME
 ?SaveState@CToolBarCtrl@@QEAAXPEAUHKEY__@@PEBD1@Z @ 5644 NONAME
 ?SaveStdProfileSettings@CWinApp@@IEAAXXZ @ 5645 NONAME
 ?SaveToStorage@COleDocument@@MEAAXPEAVCObject@@@Z @ 5646 NONAME
 ?SaveToStorage@COleLinkingDoc@@MEAAXPEAVCObject@@@Z @ 5647 NONAME
 ?SaveViewState@XOleDocumentView@CDocObjectServer@@UEAAJPEAUIStream@@@Z @ 5648 NONAME
 ?ScalePoint@CDockState@@QEAAXAEAVCPoint@@@Z @ 5649 NONAME
 ?ScaleRectPos@CDockState@@QEAAXAEAVCRect@@@Z @ 5650 NONAME
 ?ScaleViewportExt@CDC@@UEAA?AVCSize@@HHHH@Z @ 5651 NONAME
 ?ScaleViewportExt@CMetaFileDC@@UEAA?AVCSize@@HHHH@Z @ 5652 NONAME
 ?ScaleViewportExt@CPreviewDC@@UEAA?AVCSize@@HHHH@Z @ 5653 NONAME
 ?ScaleWindowExt@CDC@@UEAA?AVCSize@@HHHH@Z @ 5654 NONAME
 ?ScaleWindowExt@CPreviewDC@@UEAA?AVCSize@@HHHH@Z @ 5655 NONAME
 ?ScreenToClient@CWnd@@QEBAXPEAUtagRECT@@@Z @ 5656 NONAME
 ?Scroll@XOleIPSite@COleClientItem@@UEAAJUtagSIZE@@@Z @ 5657 NONAME
 ?Scroll@XOleIPSite@COleControlSite@@UEAAJUtagSIZE@@@Z @ 5658 NONAME
 ?ScrollChildren@COleControlContainer@@UEAAXHH@Z @ 5659 NONAME
 ?ScrollContainerBy@COleServerDoc@@QEAAHVCSize@@@Z @ 5660 NONAME
 ?ScrollRect@XOleIPSite@COleControlSite@@UEAAJHHPEBUtagRECT@@0@Z @ 5661 NONAME
 ?ScrollToDevicePosition@CScrollView@@IEAAXUtagPOINT@@@Z @ 5662 NONAME
 ?ScrollToPosition@CScrollView@@QEAAXUtagPOINT@@@Z @ 5663 NONAME
 ?ScrollWindow@COleControl@@QEAAXHHPEBUtagRECT@@0@Z @ 5664 NONAME
 ?ScrollWindow@CWnd@@QEAAXHHPEBUtagRECT@@0@Z @ 5665 NONAME
 ?ScrollWindowEx@CWnd@@QEAAHHHPEBUtagRECT@@0PEAVCRgn@@PEAU2@I@Z @ 5666 NONAME
 ?Seek@CArchiveStream@@UEAAJT_LARGE_INTEGER@@KPEAT_ULARGE_INTEGER@@@Z @ 5667 NONAME
 ?Seek@CFile@@UEAA_K_JI@Z @ 5668 NONAME
 ?Seek@CInternetFile@@UEAA_K_JI@Z @ 5669 NONAME
 ?Seek@CMemFile@@UEAA_K_JI@Z @ 5670 NONAME
 ?Seek@COleStreamFile@@UEAA_K_JI@Z @ 5671 NONAME
 ?Seek@CSocketFile@@UEAA_K_JI@Z @ 5672 NONAME
 ?Seek@CStdioFile@@UEAA_K_JI@Z @ 5673 NONAME
 ?Select@CFontHolder@@QEAAPEAVCFont@@PEAVCDC@@JJ@Z @ 5674 NONAME
 ?Select_FindString@CDHtmlDialog@@IEAAJPEAUIHTMLSelectElement@@PEA_WH@Z @ 5675 NONAME
 ?SelectClipPath@CDC@@QEAAHH@Z @ 5676 NONAME
 ?SelectClipRgn@CDC@@QEAAHPEAVCRgn@@@Z @ 5677 NONAME
 ?SelectClipRgn@CDC@@QEAAHPEAVCRgn@@H@Z @ 5678 NONAME
 ?SelectFontObject@COleControl@@QEAAPEAVCFont@@PEAVCDC@@AEAVCFontHolder@@@Z @ 5679 NONAME
 ?SelectGdiObject@CDC@@KAPEAVCGdiObject@@PEAUHDC__@@PEAX@Z @ 5680 NONAME
 ?SelectionChange@CPrintDialogEx@@UEAAJXZ @ 5681 NONAME
 ?SelectObject@CDC@@QEAAHPEAVCRgn@@@Z @ 5682 NONAME
 ?SelectObject@CDC@@QEAAPEAVCBrush@@PEAV2@@Z @ 5683 NONAME
 ?SelectObject@CDC@@QEAAPEAVCPen@@PEAV2@@Z @ 5684 NONAME
 ?SelectObject@CDC@@UEAAPEAVCFont@@PEAV2@@Z @ 5685 NONAME
 ?SelectObject@CPreviewDC@@UEAAPEAVCFont@@PEAV2@@Z @ 5686 NONAME
 ?SelectPalette@CDC@@QEAAPEAVCPalette@@PEAV2@H@Z @ 5687 NONAME
 ?SelectPrinter@CWinApp@@QEAAXPEAX0H@Z @ 5688 NONAME
 ?SelectStockFont@COleControl@@QEAAPEAVCFont@@PEAVCDC@@@Z @ 5689 NONAME
 ?SelectStockObject@CDC@@UEAAPEAVCGdiObject@@H@Z @ 5690 NONAME
 ?SelectStockObject@CPreviewDC@@UEAAPEAVCGdiObject@@H@Z @ 5691 NONAME
 ?Send@CAsyncSocket@@UEAAHPEBXHH@Z @ 5692 NONAME
 ?Send@CSocket@@UEAAHPEBXHH@Z @ 5693 NONAME
 ?SendAdvise@COleControl@@IEAAXI@Z @ 5694 NONAME
 ?SendChildNotifyLastMsg@CWnd@@QEAAHPEA_J@Z @ 5695 NONAME
 ?SendChunk@CSocket@@QEAAHPEBXHH@Z @ 5696 NONAME
 ?SendDlgItemMessageA@COleControlContainer@@UEAA_JHI_K_J@Z @ 5697 NONAME
 ?SendDlgItemMessageA@CWnd@@QEAA_JHI_K_J@Z @ 5698 NONAME
 ?SendInitialUpdate@CDocument@@QEAAXXZ @ 5699 NONAME
 ?SendLongBinaryData@CRecordset@@IEAAXPEAX@Z @ 5700 NONAME
 ?SendMessageToDescendants@CWnd@@SAXPEAUHWND__@@I_K_JHH@Z @ 5701 NONAME
 ?SendMnemonic@COleControlSite@@QEAAXPEAUtagMSG@@@Z @ 5702 NONAME
 ?SendRequest@CHttpFile@@QEAAHAEAV?$CStringT@DV?$StrTraitMFC_DLL@DV?$ChTraitsCRT@D@ATL@@@@@ATL@@PEAXK@Z @ 5703 NONAME
 ?SendRequest@CHttpFile@@QEAAHPEBDKPEAXK@Z @ 5704 NONAME
 ?SendRequestEx@CHttpFile@@QEAAHKK_K@Z @ 5705 NONAME
 ?SendRequestEx@CHttpFile@@QEAAHPEAU_INTERNET_BUFFERSA@@0K_K@Z @ 5706 NONAME
 ?SendTo@CAsyncSocket@@QEAAHPEBXHIPEBDH@Z @ 5707 NONAME
 ?SendToHelper@CAsyncSocket@@MEAAHPEBXHPEBUsockaddr@@HH@Z @ 5708 NONAME
 ?SendToHelper@CSocket@@MEAAHPEBXHPEBUsockaddr@@HH@Z @ 5709 NONAME
 ?Serialize@CByteArray@@UEAAXAEAVCArchive@@@Z @ 5710 NONAME
 ?Serialize@CControlBarInfo@@QEAAXAEAVCArchive@@PEAVCDockState@@@Z @ 5711 NONAME
 ?Serialize@CDocItem@@UEAAXAEAVCArchive@@@Z @ 5712 NONAME
 ?Serialize@CDockState@@UEAAXAEAVCArchive@@@Z @ 5713 NONAME
 ?Serialize@CDWordArray@@UEAAXAEAVCArchive@@@Z @ 5714 NONAME
 ?Serialize@CEditView@@UEAAXAEAVCArchive@@@Z @ 5715 NONAME
 ?Serialize@CMapStringToOb@@UEAAXAEAVCArchive@@@Z @ 5716 NONAME
 ?Serialize@CMapStringToString@@UEAAXAEAVCArchive@@@Z @ 5717 NONAME
 ?Serialize@CMapWordToOb@@UEAAXAEAVCArchive@@@Z @ 5718 NONAME
 ?Serialize@CObArray@@UEAAXAEAVCArchive@@@Z @ 5719 NONAME
 ?Serialize@CObList@@UEAAXAEAVCArchive@@@Z @ 5720 NONAME
 ?Serialize@COleClientItem@@UEAAXAEAVCArchive@@@Z @ 5721 NONAME
 ?Serialize@COleControl@@MEAAXAEAVCArchive@@@Z @ 5722 NONAME
 ?Serialize@COleDocument@@UEAAXAEAVCArchive@@@Z @ 5723 NONAME
 ?Serialize@CRichEditDoc@@UEAAXAEAVCArchive@@@Z @ 5724 NONAME
 ?Serialize@CRichEditView@@UEAAXAEAVCArchive@@@Z @ 5725 NONAME
 ?Serialize@CStringArray@@UEAAXAEAVCArchive@@@Z @ 5726 NONAME
 ?Serialize@CStringList@@UEAAXAEAVCArchive@@@Z @ 5727 NONAME
 ?Serialize@CWordArray@@UEAAXAEAVCArchive@@@Z @ 5728 NONAME
 ?Serialize64@CTime@ATL@@QEAAAEAVCArchive@@AEAV3@@Z @ 5729 NONAME
 ?Serialize64@CTimeSpan@ATL@@QEAAAEAVCArchive@@AEAV3@@Z @ 5730 NONAME
 ?SerializeClass@CArchive@@QEAAXPEBUCRuntimeClass@@@Z @ 5731 NONAME
 ?SerializeExtent@COleControl@@QEAAXAEAVCArchive@@@Z @ 5732 NONAME
 ?SerializeRaw@CEditView@@QEAAXAEAVCArchive@@@Z @ 5733 NONAME
 ?SerializeStockProps@COleControl@@QEAAXAEAVCArchive@@@Z @ 5734 NONAME
 ?SerializeVersion@COleControl@@QEAAKAEAVCArchive@@KH@Z @ 5735 NONAME
 ?Set@CProperty@@QEAAHKQEAXK@Z @ 5736 NONAME
 ?Set@CProperty@@QEAAHQEAX@Z @ 5737 NONAME
 ?Set@CProperty@@QEAAHQEAXK@Z @ 5738 NONAME
 ?Set@CPropertySection@@QEAAHKPEAX@Z @ 5739 NONAME
 ?Set@CPropertySection@@QEAAHKPEAXK@Z @ 5740 NONAME
 ?Set@CPropertySet@@QEAAHU_GUID@@KPEAX@Z @ 5741 NONAME
 ?Set@CPropertySet@@QEAAHU_GUID@@KPEAXK@Z @ 5742 NONAME
 ?SetActiveObject@XOleInPlaceFrame@COleFrameHook@@UEAAJPEAUIOleInPlaceActiveObject@@PEB_W@Z @ 5743 NONAME
 ?SetActiveObject@XOleIPFrame@COleControlContainer@@UEAAJPEAUIOleInPlaceActiveObject@@PEB_W@Z @ 5744 NONAME
 ?SetActivePage@CPropertySheet@@QEAAHH@Z @ 5745 NONAME
 ?SetActivePage@CPropertySheet@@QEAAHPEAVCPropertyPage@@@Z @ 5746 NONAME
 ?SetActivePane@CSplitterWnd@@UEAAXHHPEAVCWnd@@@Z @ 5747 NONAME
 ?SetActiveView@CFrameWnd@@QEAAXPEAVCView@@H@Z @ 5748 NONAME
 ?SetAdvise@XViewObject@COleControl@@UEAAJKKPEAUIAdviseSink@@@Z @ 5749 NONAME
 ?SetAppearance@COleControl@@QEAAXF@Z @ 5750 NONAME
 ?SetArcDirection@CDC@@QEAAHH@Z @ 5751 NONAME
 ?SetAt@?$CSimpleStringT@_W$00@ATL@@QEAAXH_W@Z @ 5752 NONAME
 ?SetAt@?$CSimpleStringT@D$00@ATL@@QEAAXHD@Z @ 5753 NONAME
 ?SetAtGrow@CByteArray@@QEAAX_JE@Z @ 5754 NONAME
 ?SetAtGrow@CDWordArray@@QEAAX_JK@Z @ 5755 NONAME
 ?SetAtGrow@CObArray@@QEAAX_JPEAVCObject@@@Z @ 5756 NONAME
 ?SetAtGrow@CPtrArray@@QEAAX_JPEAX@Z @ 5757 NONAME
 ?SetAtGrow@CStringArray@@QEAAX_JAEBV?$CStringT@DV?$StrTraitMFC_DLL@DV?$ChTraitsCRT@D@ATL@@@@@ATL@@@Z @ 5758 NONAME
 ?SetAtGrow@CStringArray@@QEAAX_JPEBD@Z @ 5759 NONAME
 ?SetAtGrow@CUIntArray@@QEAAX_JI@Z @ 5760 NONAME
 ?SetAtGrow@CWordArray@@QEAAX_JG@Z @ 5761 NONAME
 ?SetAttribDC@CDC@@UEAAXPEAUHDC__@@@Z @ 5762 NONAME
 ?SetAttribDC@CMetaFileDC@@UEAAXPEAUHDC__@@@Z @ 5763 NONAME
 ?SetAttribDC@CPreviewDC@@UEAAXPEAUHDC__@@@Z @ 5764 NONAME
 ?SetBackColor@COleControl@@QEAAXK@Z @ 5765 NONAME
 ?SetBarInfo@CControlBar@@QEAAXPEAVCControlBarInfo@@PEAVCFrameWnd@@@Z @ 5766 NONAME
 ?SetBarInfo@CDockBar@@QEAAXPEAVCControlBarInfo@@PEAVCFrameWnd@@@Z @ 5767 NONAME
 ?SetBarStyle@CControlBar@@QEAAXK@Z @ 5768 NONAME
 ?SetBitmap@CToolBar@@QEAAHPEAUHBITMAP__@@@Z @ 5769 NONAME
 ?SetBkColor@CDC@@UEAAKK@Z @ 5770 NONAME
 ?SetBkColor@CPreviewDC@@UEAAKK@Z @ 5771 NONAME
 ?SetBkImage@CListCtrl@@QEAAHPEADHHH@Z @ 5772 NONAME
 ?SetBkImage@CListCtrl@@QEAAHPEAUHBITMAP__@@HHH@Z @ 5773 NONAME
 ?SetBkMode@CDC@@QEAAHH@Z @ 5774 NONAME
 ?SetBookmark@CRecordset@@QEAAXAEBVCDBVariant@@@Z @ 5775 NONAME
 ?SetBorders@CControlBar@@QEAAXHHHH@Z @ 5776 NONAME
 ?SetBorderSpace@XOleInPlaceFrame@COleFrameHook@@UEAAJPEBUtagRECT@@@Z @ 5777 NONAME
 ?SetBorderSpace@XOleIPFrame@COleControlContainer@@UEAAJPEBUtagRECT@@@Z @ 5778 NONAME
 ?SetBorderStyle@COleControl@@QEAAXF@Z @ 5779 NONAME
 ?SetButtonInfo@CToolBar@@QEAAXHIIH@Z @ 5780 NONAME
 ?SetButtons@CToolBar@@QEAAHPEBIH@Z @ 5781 NONAME
 ?SetButtonStyle@CToolBar@@QEAAXHI@Z @ 5782 NONAME
 ?SetButtonText@CToolBar@@QEAAHHPEBD@Z @ 5783 NONAME
 ?SetCapture@COleControl@@QEAAPEAVCWnd@@XZ @ 5784 NONAME
 ?SetCapture@XOleIPSite@COleControlSite@@UEAAJH@Z @ 5785 NONAME
 ?SetCharFormat@CRichEditView@@QEAAXUCHARFORMAT2A@@@Z @ 5786 NONAME
 ?SetCheck@CCheckListBox@@QEAAXHH@Z @ 5787 NONAME
 ?SetCheck@CCmdUI@@UEAAXH@Z @ 5788 NONAME
 ?SetCheck@CListCtrl@@QEAAHHH@Z @ 5789 NONAME
 ?SetCheck@COleCmdUI@@UEAAXH@Z @ 5790 NONAME
 ?SetCheck@CStatusCmdUI@@UEAAXH@Z @ 5791 NONAME
 ?SetCheck@CTestCmdUI@@UEAAXH@Z @ 5792 NONAME
 ?SetCheck@CToolCmdUI@@UEAAXH@Z @ 5793 NONAME
 ?SetCheck@CTreeCtrl@@QEAAHPEAU_TREEITEM@@H@Z @ 5794 NONAME
 ?SetCheckStyle@CCheckListBox@@QEAAXI@Z @ 5795 NONAME
 ?SetClassID@CPropertySet@@QEAAXU_GUID@@@Z @ 5796 NONAME
 ?SetClientSite@CDataBoundProperty@@QEAAXPEAVCOleControlSite@@@Z @ 5797 NONAME
 ?SetClientSite@XOleObject@CDocObjectServer@@UEAAJPEAUIOleClientSite@@@Z @ 5798 NONAME
 ?SetClientSite@XOleObject@COleControl@@UEAAJPEAUIOleClientSite@@@Z @ 5799 NONAME
 ?SetClientSite@XOleObject@COleServerDoc@@UEAAJPEAUIOleClientSite@@@Z @ 5800 NONAME
 ?SetClientSite@XOleObject@COleServerItem@@UEAAJPEAUIOleClientSite@@@Z @ 5801 NONAME
 ?SetClipboard@COleDataSource@@QEAAXXZ @ 5802 NONAME
 ?SetColorAdjustment@CDC@@QEAAHPEBUtagCOLORADJUSTMENT@@@Z @ 5803 NONAME
 ?SetColorScheme@CReBarCtrl@@QEAAXPEBUtagCOLORSCHEME@@@Z @ 5804 NONAME
 ?SetColorScheme@XOleObject@CDocObjectServer@@UEAAJPEAUtagLOGPALETTE@@@Z @ 5805 NONAME
 ?SetColorScheme@XOleObject@COleControl@@UEAAJPEAUtagLOGPALETTE@@@Z @ 5806 NONAME
 ?SetColorScheme@XOleObject@COleServerDoc@@UEAAJPEAUtagLOGPALETTE@@@Z @ 5807 NONAME
 ?SetColorScheme@XOleObject@COleServerItem@@UEAAJPEAUtagLOGPALETTE@@@Z @ 5808 NONAME
 ?SetColumnInfo@CSplitterWnd@@QEAAXHHH@Z @ 5809 NONAME
 ?SetColumnOrderArray@CListCtrl@@QEAAHHPEAH@Z @ 5810 NONAME
 ?SetConcurrencyAndCursorType@CRecordset@@IEAAXPEAXK@Z @ 5811 NONAME
 ?SetContainerInfo@CDocTemplate@@QEAAXI@Z @ 5812 NONAME
 ?SetContentExtent@XQuickActivate@COleControl@@UEAAJPEAUtagSIZE@@@Z @ 5813 NONAME
 ?SetControl@CReflectorWnd@@QEAAXPEAVCOleControl@@@Z @ 5814 NONAME
 ?SetControlProperty@CDHtmlDialog@@QEAAXPEAUIDispatch@@JPEAUtagVARIANT@@@Z @ 5815 NONAME
 ?SetControlProperty@CDHtmlDialog@@QEAAXPEBD0PEAUtagVARIANT@@@Z @ 5816 NONAME
 ?SetControlProperty@CDHtmlDialog@@QEAAXPEBDJPEAUtagVARIANT@@@Z @ 5817 NONAME
 ?SetControlSize@COleControl@@QEAAHHH@Z @ 5818 NONAME
 ?SetControlStatus@COlePropertyPage@@QEAAHIH@Z @ 5819 NONAME
 ?SetControlText@CFileDialog@@QEAAXHPEBD@Z @ 5820 NONAME
 ?SetCookie@CInternetSession@@SAHPEBD00@Z @ 5821 NONAME
 ?SetCurrency@COleCurrency@@QEAAXJJ@Z @ 5822 NONAME
 ?SetCurrentColor@CColorDialog@@QEAAXK@Z @ 5823 NONAME
 ?SetCurrentDirectoryA@CFtpConnection@@QEAAHPEBD@Z @ 5824 NONAME
 ?SetCurrentHandles@CWinApp@@QEAAXXZ @ 5825 NONAME
 ?SetCurrentPage@CPreviewView@@IEAAXIH@Z @ 5826 NONAME
 ?SetCurSel@CMonthCalCtrl@@QEAAHAEBVCOleDateTime@ATL@@@Z @ 5827 NONAME
 ?SetCurSel@CMonthCalCtrl@@QEAAHAEBVCTime@ATL@@@Z @ 5828 NONAME
 ?SetCursor@CRectTracker@@QEBAHPEAVCWnd@@I@Z @ 5829 NONAME
 ?SetData@XDataObject@COleControl@@UEAAJPEAUtagFORMATETC@@PEAUtagSTGMEDIUM@@H@Z @ 5830 NONAME
 ?SetData@XDataObject@COleDataSource@@UEAAJPEAUtagFORMATETC@@PEAUtagSTGMEDIUM@@H@Z @ 5831 NONAME
 ?SetData@XDataObject@COleServerDoc@@UEAAJPEAUtagFORMATETC@@PEAUtagSTGMEDIUM@@H@Z @ 5832 NONAME
 ?SetData@XDataObject@COleServerItem@@UEAAJPEAUtagFORMATETC@@PEAUtagSTGMEDIUM@@H@Z @ 5833 NONAME
 ?SetData@XOleCache@COleControl@@UEAAJPEAUtagFORMATETC@@PEAUtagSTGMEDIUM@@H@Z @ 5834 NONAME
 ?SetDayState@CMonthCalCtrl@@QEAAHHPEAK@Z @ 5835 NONAME
 ?SetDefaultButton@COccManager@@SAXPEAVCWnd@@H@Z @ 5836 NONAME
 ?SetDefaultButton@COleControlSite@@QEAAXH@Z @ 5837 NONAME
 ?SetDefaultCharFormat@CRichEditCtrl@@QEAAHAEAU_charformat@@@Z @ 5838 NONAME
 ?SetDefaultCharFormat@CRichEditCtrl@@QEAAHAEAUCHARFORMAT2A@@@Z @ 5839 NONAME
 ?SetDefaultTitle@CMultiDocTemplate@@UEAAXPEAVCDocument@@@Z @ 5840 NONAME
 ?SetDefaultTitle@CSingleDocTemplate@@UEAAXPEAVCDocument@@@Z @ 5841 NONAME
 ?SetDefExt@CFileDialog@@QEAAXPEBD@Z @ 5842 NONAME
 ?SetDialogResource@COlePropertyPage@@QEAAXPEAX@Z @ 5843 NONAME
 ?SetDirtyFieldStatus@CRecordset@@QEAAXK@Z @ 5844 NONAME
 ?SetDlgCtrlID@COleControlSite@@UEAAHH@Z @ 5845 NONAME
 ?SetDlgCtrlID@CWnd@@QEAAHH@Z @ 5846 NONAME
 ?SetDlgItemInt@COleControlContainer@@UEAAXHIH@Z @ 5847 NONAME
 ?SetDlgItemInt@CWnd@@QEAAXHIH@Z @ 5848 NONAME
 ?SetDlgItemTextA@COleControlContainer@@UEAAXHPEBD@Z @ 5849 NONAME
 ?SetDlgItemTextA@CWnd@@QEAAXHPEBD@Z @ 5850 NONAME
 ?SetDockState@CFrameWnd@@QEAAXAEBVCDockState@@@Z @ 5851 NONAME
 ?SetDocSite@CDocObjectServer@@QEAAXPEAUIOleDocumentSite@@@Z @ 5852 NONAME
 ?SetDrawAspect@COleClientItem@@UEAAXW4tagDVASPECT@@@Z @ 5853 NONAME
 ?SetDrawAspect@CRichEditCntrItem@@UEAAXW4tagDVASPECT@@@Z @ 5854 NONAME
 ?SetDSCSite@CDataBoundProperty@@QEAAXPEAVCOleControlSite@@@Z @ 5855 NONAME
 ?SetElementHtml@CDHtmlDialog@@QEAAXPEAUIUnknown@@PEA_W@Z @ 5856 NONAME
 ?SetElementHtml@CDHtmlDialog@@QEAAXPEBDPEA_W@Z @ 5857 NONAME
 ?SetElementProperty@CDHtmlDialog@@QEAAXPEBDJPEAUtagVARIANT@@@Z @ 5858 NONAME
 ?SetElementText@CDHtmlDialog@@QEAAXPEAUIUnknown@@PEA_W@Z @ 5859 NONAME
 ?SetElementText@CDHtmlDialog@@QEAAXPEBDPEA_W@Z @ 5860 NONAME
 ?SetEnabled@COleControl@@QEAAXH@Z @ 5861 NONAME
 ?SetExtent@COleClientItem@@QEAAXAEBVCSize@@W4tagDVASPECT@@@Z @ 5862 NONAME
 ?SetExtent@COleControlSite@@IEAAHXZ @ 5863 NONAME
 ?SetExtent@XOleObject@CDocObjectServer@@UEAAJKPEAUtagSIZE@@@Z @ 5864 NONAME
 ?SetExtent@XOleObject@COleControl@@UEAAJKPEAUtagSIZE@@@Z @ 5865 NONAME
 ?SetExtent@XOleObject@COleServerDoc@@UEAAJKPEAUtagSIZE@@@Z @ 5866 NONAME
 ?SetExtent@XOleObject@COleServerItem@@UEAAJKPEAUtagSIZE@@@Z @ 5867 NONAME
 ?SetExternalDispatch@CDHtmlDialog@@QEAAXPEAUIDispatch@@@Z @ 5868 NONAME
 ?SetFieldDirty@CRecordset@@QEAAXPEAXH@Z @ 5869 NONAME
 ?SetFieldNull@CRecordset@@QEAAXPEAXH@Z @ 5870 NONAME
 ?SetFieldStatus@CRecordset@@QEAAXKE@Z @ 5871 NONAME
 ?SetFirstDayOfWeek@CMonthCalCtrl@@QEAAHHPEAH@Z @ 5872 NONAME
 ?SetFocus@COleControl@@QEAAPEAVCWnd@@XZ @ 5873 NONAME
 ?SetFocus@COleControlSite@@UEAAPEAVCWnd@@PEAUtagMSG@@@Z @ 5874 NONAME
 ?SetFocus@COleControlSite@@UEAAPEAVCWnd@@XZ @ 5875 NONAME
 ?SetFocus@CWnd@@QEAAPEAV1@XZ @ 5876 NONAME
 ?SetFocus@XOleIPSite@COleControlSite@@UEAAJH@Z @ 5877 NONAME
 ?SetFocusToElement@CDHtmlDialog@@IEAAXPEBD@Z @ 5878 NONAME
 ?SetFont@CDialogTemplate@@QEAAHPEBDG@Z @ 5879 NONAME
 ?SetFont@CFontHolder@@QEAAXPEAUIFont@@@Z @ 5880 NONAME
 ?SetFont@COleControl@@QEAAXPEAUIFontDisp@@@Z @ 5881 NONAME
 ?SetFontNotifySink@CFontHolder@@QEAAXPEAUIPropertyNotifySink@@@Z @ 5882 NONAME
 ?SetForeColor@COleControl@@QEAAXK@Z @ 5883 NONAME
 ?SetFormatID@CPropertySection@@QEAAXU_GUID@@@Z @ 5884 NONAME
 ?SetFormatVersion@CPropertySet@@QEAAXG@Z @ 5885 NONAME
 ?SetGraphicsMode@CDC@@QEAAHH@Z @ 5886 NONAME
 ?SetHandle@CSharedFile@@QEAAXPEAXH@Z @ 5887 NONAME
 ?SetHandles@CMDIChildWnd@@QEAAXPEAUHMENU__@@PEAUHACCEL__@@@Z @ 5888 NONAME
 ?SetHeight@CToolBar@@QEAAXH@Z @ 5889 NONAME
 ?SetHelpCapture@CFrameWnd@@IEAAPEAUHWND__@@UtagPOINT@@PEAH@Z @ 5890 NONAME
 ?SetHelpInfo@COlePropertyPage@@QEAAXPEBD0K@Z @ 5891 NONAME
 ?SetHostFlags@CDHtmlDialog@@QEAAXK@Z @ 5892 NONAME
 ?SetHostNames@COleClientItem@@QEAAXPEBD0@Z @ 5893 NONAME
 ?SetHostNames@XOleObject@CDocObjectServer@@UEAAJPEB_W0@Z @ 5894 NONAME
 ?SetHostNames@XOleObject@COleControl@@UEAAJPEB_W0@Z @ 5895 NONAME
 ?SetHostNames@XOleObject@COleServerDoc@@UEAAJPEB_W0@Z @ 5896 NONAME
 ?SetHostNames@XOleObject@COleServerItem@@UEAAJPEB_W0@Z @ 5897 NONAME
 ?SetIconicMetafile@COleClientItem@@QEAAHPEAX@Z @ 5898 NONAME
 ?SetIconSpacing@CListCtrl@@QEAA?AVCSize@@HH@Z @ 5899 NONAME
 ?SetIconSpacing@CListCtrl@@QEAA?AVCSize@@V2@@Z @ 5900 NONAME
 ?SetID@CProperty@@QEAAXK@Z @ 5901 NONAME
 ?SetImageList@CReBarCtrl@@QEAAHPEAVCImageList@@@Z @ 5902 NONAME
 ?SetIndicators@CStatusBar@@QEAAHPEBIH@Z @ 5903 NONAME
 ?SetInitialDataFormats@COleControl@@MEAAXXZ @ 5904 NONAME
 ?SetInitialPageNum@XPrint@CDocObjectServer@@UEAAJJ@Z @ 5905 NONAME
 ?SetInitialSize@COleControl@@QEAAXHH@Z @ 5906 NONAME
 ?SetInPlaceOwner@CControlBar@@QEAAXPEAVCWnd@@@Z @ 5907 NONAME
 ?SetInPlaceSite@XOleDocumentView@CDocObjectServer@@UEAAJPEAUIOleInPlaceSite@@@Z @ 5908 NONAME
 ?SetItem@CComboBoxEx@@QEAAHPEBUtagCOMBOBOXEXITEMA@@@Z @ 5909 NONAME
 ?SetItem@CListCtrl@@QEAAHHHIPEBDHII_J@Z @ 5910 NONAME
 ?SetItem@CListCtrl@@QEAAHHHIPEBDHII_JH@Z @ 5911 NONAME
 ?SetItem@CTreeCtrl@@QEAAHPEAU_TREEITEM@@IPEBDHHII_J@Z @ 5912 NONAME
 ?SetItemCountEx@CListCtrl@@QEAAHHK@Z @ 5913 NONAME
 ?SetItemRects@COleClientItem@@QEAAHPEBUtagRECT@@0@Z @ 5914 NONAME
 ?SetItemState@CListCtrl@@QEAAHHII@Z @ 5915 NONAME
 ?SetItemState@CTabCtrl@@QEAAHHKK@Z @ 5916 NONAME
 ?SetItemText@CListCtrl@@QEAAHHHPEBD@Z @ 5917 NONAME
 ?SetLayout@CDC@@QEAAKK@Z @ 5918 NONAME
 ?SetLength@?$CSimpleStringT@_W$00@ATL@@AEAAXH@Z @ 5919 NONAME
 ?SetLength@?$CSimpleStringT@D$00@ATL@@AEAAXH@Z @ 5920 NONAME
 ?SetLength@CFile@@UEAAX_K@Z @ 5921 NONAME
 ?SetLength@CInternetFile@@UEAAX_K@Z @ 5922 NONAME
 ?SetLength@CMemFile@@UEAAX_K@Z @ 5923 NONAME
 ?SetLength@COleStreamFile@@UEAAX_K@Z @ 5924 NONAME
 ?SetLength@CSocketFile@@UEAAX_K@Z @ 5925 NONAME
 ?SetLinkSource@COleUILinkInfo@@UEAAJKPEADKPEAKH@Z @ 5926 NONAME
 ?SetLinkUpdateOptions@COleClientItem@@QEAAXW4tagOLEUPDATE@@@Z @ 5927 NONAME
 ?SetLinkUpdateOptions@COleUILinkInfo@@UEAAJKK@Z @ 5928 NONAME
 ?SetLockingMode@CRecordset@@QEAAXI@Z @ 5929 NONAME
 ?SetManager@?$CSimpleStringT@_W$00@ATL@@QEAAXPEAUIAtlStringMgr@2@@Z @ 5930 NONAME
 ?SetManager@?$CSimpleStringT@D$00@ATL@@QEAAXPEAUIAtlStringMgr@2@@Z @ 5931 NONAME
 ?SetMapMode@CDC@@UEAAHH@Z @ 5932 NONAME
 ?SetMapMode@CPreviewDC@@UEAAHH@Z @ 5933 NONAME
 ?SetMapperFlags@CDC@@QEAAKK@Z @ 5934 NONAME
 ?SetMenu@XOleInPlaceFrame@COleFrameHook@@UEAAJPEAUHMENU__@@PEAXPEAUHWND__@@@Z @ 5935 NONAME
 ?SetMenu@XOleIPFrame@COleControlContainer@@UEAAJPEAUHMENU__@@PEAXPEAUHWND__@@@Z @ 5936 NONAME
 ?SetMessageText@CFrameWnd@@QEAAXI@Z @ 5937 NONAME
 ?SetMessageText@CFrameWnd@@QEAAXPEBD@Z @ 5938 NONAME
 ?SetModified@CPropertyPage@@QEAAXH@Z @ 5939 NONAME
 ?SetModifiedFlag@COleControl@@QEAAXH@Z @ 5940 NONAME
 ?SetModifiedFlag@COlePropertyPage@@QEAAXH@Z @ 5941 NONAME
 ?SetModifiedFlag@CRichEditDoc@@UEAAXH@Z @ 5942 NONAME
 ?SetMoniker@XOleObject@CDocObjectServer@@UEAAJKPEAUIMoniker@@@Z @ 5943 NONAME
 ?SetMoniker@XOleObject@COleControl@@UEAAJKPEAUIMoniker@@@Z @ 5944 NONAME
 ?SetMoniker@XOleObject@COleServerDoc@@UEAAJKPEAUIMoniker@@@Z @ 5945 NONAME
 ?SetMoniker@XOleObject@COleServerItem@@UEAAJKPEAUIMoniker@@@Z @ 5946 NONAME
 ?SetName@CPropertySection@@QEAAHKPEBD@Z @ 5947 NONAME
 ?SetNotPermitted@COleControl@@QEAAXXZ @ 5948 NONAME
 ?SetNotSupported@CCmdTarget@@QEAAXXZ @ 5949 NONAME
 ?SetNotSupported@COleControl@@QEAAXXZ @ 5950 NONAME
 ?SetNullFieldStatus@CRecordset@@QEAAXK@Z @ 5951 NONAME
 ?SetNullParamStatus@CRecordset@@QEAAXK@Z @ 5952 NONAME
 ?SetObjectRects@XOleInPlaceObject@COleControl@@UEAAJPEBUtagRECT@@0@Z @ 5953 NONAME
 ?SetObjectRects@XOleInPlaceObject@COleServerDoc@@UEAAJPEBUtagRECT@@0@Z @ 5954 NONAME
 ?SetObjects@XPropertyPage@COlePropertyPage@@UEAAJKPEAPEAUIUnknown@@@Z @ 5955 NONAME
 ?SetOccDialogInfo@CDialog@@MEAAHPEAU_AFX_OCC_DIALOG_INFO@@@Z @ 5956 NONAME
 ?SetOccDialogInfo@CDialogBar@@MEAAHPEAU_AFX_OCC_DIALOG_INFO@@@Z @ 5957 NONAME
 ?SetOccDialogInfo@CFormView@@MEAAHPEAU_AFX_OCC_DIALOG_INFO@@@Z @ 5958 NONAME
 ?SetOccDialogInfo@CWnd@@MEAAHPEAU_AFX_OCC_DIALOG_INFO@@@Z @ 5959 NONAME
 ?SetOption@CInternetConnection@@QEAAHKPEAXKK@Z @ 5960 NONAME
 ?SetOption@CInternetFile@@QEAAHKPEAXKK@Z @ 5961 NONAME
 ?SetOption@CInternetSession@@QEAAHKPEAXKK@Z @ 5962 NONAME
 ?SetOrderArray@CHeaderCtrl@@QEAAHHPEAH@Z @ 5963 NONAME
 ?SetOSVersion@CPropertySet@@QEAAXK@Z @ 5964 NONAME
 ?SetOutputDC@CDC@@UEAAXPEAUHDC__@@@Z @ 5965 NONAME
 ?SetOutputDC@CMetaFileDC@@MEAAXPEAUHDC__@@@Z @ 5966 NONAME
 ?SetOutputDC@CPreviewDC@@UEAAXPEAUHDC__@@@Z @ 5967 NONAME
 ?SetOwner@CToolBar@@QEAAXPEAVCWnd@@@Z @ 5968 NONAME
 ?SetPageName@COlePropertyPage@@QEAAXPEBD@Z @ 5969 NONAME
 ?SetPageSite@XPropertyPage@COlePropertyPage@@UEAAJPEAUIPropertyPageSite@@@Z @ 5970 NONAME
 ?SetPaneInfo@CStatusBar@@QEAAXHIIH@Z @ 5971 NONAME
 ?SetPaneStyle@CStatusBar@@QEAAXHI@Z @ 5972 NONAME
 ?SetPaneText@CStatusBar@@QEAAHHPEBDH@Z @ 5973 NONAME
 ?SetParaFormat@CRichEditCtrl@@QEAAHAEAU_paraformat@@@Z @ 5974 NONAME
 ?SetParaFormat@CRichEditCtrl@@QEAAHAEAUPARAFORMAT2@@@Z @ 5975 NONAME
 ?SetParaFormat@CRichEditView@@QEAAHAEAUPARAFORMAT2@@@Z @ 5976 NONAME
 ?SetParamNull@CRecordset@@QEAAXHH@Z @ 5977 NONAME
 ?SetPathName@CDocument@@UEAAXPEBDH@Z @ 5978 NONAME
 ?SetPathName@COleDocument@@UEAAXPEBDH@Z @ 5979 NONAME
 ?SetPathName@CRichEditDoc@@UEAAXPEBDH@Z @ 5980 NONAME
 ?SetPictureDispatch@CPictureHolder@@QEAAXPEAUIPictureDisp@@@Z @ 5981 NONAME
 ?SetPolyFillMode@CDC@@QEAAHH@Z @ 5982 NONAME
 ?SetPrintDevice@COleClientItem@@QEAAHPEBUtagDVTARGETDEVICE@@@Z @ 5983 NONAME
 ?SetPrintDevice@COleClientItem@@QEAAHPEBUtagPDA@@@Z @ 5984 NONAME
 ?SetPrinterFont@CEditView@@QEAAXPEAVCFont@@@Z @ 5985 NONAME
 ?SetPrintView@CPreviewView@@QEAAHPEAVCView@@@Z @ 5986 NONAME
 ?SetPropCheck@COlePropertyPage@@QEAAHPEBDH@Z @ 5987 NONAME
 ?SetProperty@COleControlSite@@UEAAXJGZZ @ 5988 NONAME
 ?SetProperty@COleDispatchDriver@@QEAAXJGZZ @ 5989 NONAME
 ?SetProperty@CWnd@@QEAAXJGZZ @ 5990 NONAME
 ?SetPropertyV@COleControlSite@@UEAAXJGPEAD@Z @ 5991 NONAME
 ?SetPropIndex@COlePropertyPage@@QEAAHPEBDH@Z @ 5992 NONAME
 ?SetPropRadio@COlePropertyPage@@QEAAHPEBDH@Z @ 5993 NONAME
 ?SetPropsetData@COleControl@@IEAAHPEAUtagFORMATETC@@PEAUtagSTGMEDIUM@@AEBU_GUID@@@Z @ 5994 NONAME
 ?SetPropText@COlePropertyPage@@QEAAHPEBDAEAE@Z @ 5995 NONAME
 ?SetPropText@COlePropertyPage@@QEAAHPEBDAEAF@Z @ 5996 NONAME
 ?SetPropText@COlePropertyPage@@QEAAHPEBDAEAH@Z @ 5997 NONAME
 ?SetPropText@COlePropertyPage@@QEAAHPEBDAEAI@Z @ 5998 NONAME
 ?SetPropText@COlePropertyPage@@QEAAHPEBDAEAJ@Z @ 5999 NONAME
 ?SetPropText@COlePropertyPage@@QEAAHPEBDAEAK@Z @ 6000 NONAME
 ?SetPropText@COlePropertyPage@@QEAAHPEBDAEAM@Z @ 6001 NONAME
 ?SetPropText@COlePropertyPage@@QEAAHPEBDAEAN@Z @ 6002 NONAME
 ?SetPropText@COlePropertyPage@@QEAAHPEBDAEAV?$CStringT@DV?$StrTraitMFC_DLL@DV?$ChTraitsCRT@D@ATL@@@@@ATL@@@Z @ 6003 NONAME
 ?SetProxy@CWnd@@UEAAJPEAUIAccessibleProxy@@@Z @ 6004 NONAME
 ?SetProxy@XAccessibleServer@CWnd@@UEAAJPEAUIAccessibleProxy@@@Z @ 6005 NONAME
 ?SetRadio@CCmdUI@@UEAAXH@Z @ 6006 NONAME
 ?SetRadio@CTestCmdUI@@UEAAXH@Z @ 6007 NONAME
 ?SetRange@CDateTimeCtrl@@QEAAHPEBVCOleDateTime@ATL@@0@Z @ 6008 NONAME
 ?SetRange@CDateTimeCtrl@@QEAAHPEBVCTime@ATL@@0@Z @ 6009 NONAME
 ?SetRange@CMonthCalCtrl@@QEAAHPEBVCOleDateTime@ATL@@0@Z @ 6010 NONAME
 ?SetRange@CMonthCalCtrl@@QEAAHPEBVCTime@ATL@@0@Z @ 6011 NONAME
 ?SetRange@CMonthCalCtrl@@QEAAHQEAU_SYSTEMTIME@@0@Z @ 6012 NONAME
 ?SetRange@CSliderCtrl@@QEAAXHHH@Z @ 6013 NONAME
 ?SetReadBufferSize@CInternetFile@@QEAAHI@Z @ 6014 NONAME
 ?SetRect@XOleDocumentView@CDocObjectServer@@UEAAJPEAUtagRECT@@@Z @ 6015 NONAME
 ?SetRectComplex@XOleDocumentView@CDocObjectServer@@UEAAJPEAUtagRECT@@000@Z @ 6016 NONAME
 ?SetRectInContainer@COleControl@@QEAAHPEBUtagRECT@@@Z @ 6017 NONAME
 ?SetRegistryKey@CWinApp@@IEAAXI@Z @ 6018 NONAME
 ?SetRegistryKey@CWinApp@@IEAAXPEBD@Z @ 6019 NONAME
 ?SetROP2@CDC@@QEAAHH@Z @ 6020 NONAME
 ?SetRowInfo@CSplitterWnd@@QEAAXHHH@Z @ 6021 NONAME
 ?SetRowsetCurrencyStatus@CRecordset@@UEAAXFGJ_K@Z @ 6022 NONAME
 ?SetRowsetCursorPosition@CRecordset@@QEAAXGG@Z @ 6023 NONAME
 ?SetRowsetSize@CRecordset@@UEAAXK@Z @ 6024 NONAME
 ?SetScaledSize@CPreviewView@@IEAAXI@Z @ 6025 NONAME
 ?SetScaleRatio@CPreviewDC@@QEAAXHH@Z @ 6026 NONAME
 ?SetScaleToFitSize@CScrollView@@QEAAXUtagSIZE@@@Z @ 6027 NONAME
 ?SetScreenSize@CDockState@@QEAAXAEAVCSize@@@Z @ 6028 NONAME
 ?SetScrollInfo@CWnd@@QEAAHHPEAUtagSCROLLINFO@@H@Z @ 6029 NONAME
 ?SetScrollPos@CWnd@@QEAAHHHH@Z @ 6030 NONAME
 ?SetScrollRange@CWnd@@QEAAXHHHH@Z @ 6031 NONAME
 ?SetScrollSizes@CScrollView@@QEAAXHUtagSIZE@@AEBU2@1@Z @ 6032 NONAME
 ?SetScrollStyle@CSplitterWnd@@QEAAXK@Z @ 6033 NONAME
 ?SetSectionName@CPropertySection@@QEAAHPEBD@Z @ 6034 NONAME
 ?SetSel@CRichEditCtrl@@QEAAXJJ@Z @ 6035 NONAME
 ?SetSelection@CSliderCtrl@@QEAAXHH@Z @ 6036 NONAME
 ?SetSelectionCharFormat@CRichEditCtrl@@QEAAHAEAU_charformat@@@Z @ 6037 NONAME
 ?SetSelectionCharFormat@CRichEditCtrl@@QEAAHAEAUCHARFORMAT2A@@@Z @ 6038 NONAME
 ?SetSelectionCheck@CCheckListBox@@IEAAXH@Z @ 6039 NONAME
 ?SetSelRange@CMonthCalCtrl@@QEAAHAEBVCOleDateTime@ATL@@0@Z @ 6040 NONAME
 ?SetSelRange@CMonthCalCtrl@@QEAAHAEBVCTime@ATL@@0@Z @ 6041 NONAME
 ?SetSelRange@CMonthCalCtrl@@QEAAHQEAU_SYSTEMTIME@@0@Z @ 6042 NONAME
 ?SetServerInfo@CDocTemplate@@QEAAXIIPEAUCRuntimeClass@@0@Z @ 6043 NONAME
 ?SetSite@CPrintDialogEx@@UEAAJPEAUIUnknown@@@Z @ 6044 NONAME
 ?SetSize@CArchiveStream@@UEAAJT_ULARGE_INTEGER@@@Z @ 6045 NONAME
 ?SetSize@CByteArray@@QEAAX_J0@Z @ 6046 NONAME
 ?SetSize@CDWordArray@@QEAAX_J0@Z @ 6047 NONAME
 ?SetSize@CObArray@@QEAAX_J0@Z @ 6048 NONAME
 ?SetSize@CPtrArray@@QEAAX_J0@Z @ 6049 NONAME
 ?SetSize@CStringArray@@QEAAX_J0@Z @ 6050 NONAME
 ?SetSize@CUIntArray@@QEAAX_J0@Z @ 6051 NONAME
 ?SetSize@CWordArray@@QEAAX_J0@Z @ 6052 NONAME
 ?SetSizes@CToolBar@@QEAAXUtagSIZE@@0@Z @ 6053 NONAME
 ?SetSplitCursor@CSplitterWnd@@MEAAXH@Z @ 6054 NONAME
 ?SetStandardProp@CCmdTarget@@IEAAJPEBUAFX_DISPMAP_ENTRY@@PEAUtagDISPPARAMS@@PEAI@Z @ 6055 NONAME
 ?SetState@CRecordset@@IEAAXHPEBDK@Z @ 6056 NONAME
 ?SetStatus@CFile@@SAXPEBDAEBUCFileStatus@@@Z @ 6057 NONAME
 ?SetStatusText@CControlBar@@UEAAH_J@Z @ 6058 NONAME
 ?SetStatusText@CControlBar@@UEAAHH@Z @ 6059 NONAME
 ?SetStatusText@XOleInPlaceFrame@COleFrameHook@@UEAAJPEB_W@Z @ 6060 NONAME
 ?SetStatusText@XOleIPFrame@COleControlContainer@@UEAAJPEB_W@Z @ 6061 NONAME
 ?SetStretchBltMode@CDC@@QEAAHH@Z @ 6062 NONAME
 ?SetString@?$CSimpleStringT@_W$00@ATL@@QEAAXPEB_W@Z @ 6063 NONAME
 ?SetString@?$CSimpleStringT@_W$00@ATL@@QEAAXPEB_WH@Z @ 6064 NONAME
 ?SetString@?$CSimpleStringT@D$00@ATL@@QEAAXPEBD@Z @ 6065 NONAME
 ?SetString@?$CSimpleStringT@D$00@ATL@@QEAAXPEBDH@Z @ 6066 NONAME
 ?SetString@COleVariant@@QEAAXPEBDG@Z @ 6067 NONAME
 ?SetSysString@?$CStringT@_WV?$StrTraitMFC_DLL@_WV?$ChTraitsCRT@_W@ATL@@@@@ATL@@QEBAPEA_WPEAPEA_W@Z @ 6068 NONAME
 ?SetSysString@?$CStringT@DV?$StrTraitMFC_DLL@DV?$ChTraitsCRT@D@ATL@@@@@ATL@@QEBAPEA_WPEAPEA_W@Z @ 6069 NONAME
 ?SetSystemFont@CDialogTemplate@@QEAAHG@Z @ 6070 NONAME
 ?SetTabStops@CEditView@@QEAAXH@Z @ 6071 NONAME
 ?SetTemplate@CDialogTemplate@@IEAAHPEBUDLGTEMPLATE@@I@Z @ 6072 NONAME
 ?SetTemplate@CFileDialog@@QEAAXPEBD0@Z @ 6073 NONAME
 ?SetText@CCmdUI@@UEAAXPEBD@Z @ 6074 NONAME
 ?SetText@COleCmdUI@@UEAAXPEBD@Z @ 6075 NONAME
 ?SetText@COleControl@@QEAAXPEBD@Z @ 6076 NONAME
 ?SetText@CStatusCmdUI@@UEAAXPEBD@Z @ 6077 NONAME
 ?SetText@CTestCmdUI@@UEAAXPEBD@Z @ 6078 NONAME
 ?SetText@CToolCmdUI@@UEAAXPEBD@Z @ 6079 NONAME
 ?SetTextAlign@CDC@@QEAAII@Z @ 6080 NONAME
 ?SetTextCharacterExtra@CDC@@QEAAHH@Z @ 6081 NONAME
 ?SetTextColor@CDC@@UEAAKK@Z @ 6082 NONAME
 ?SetTextColor@CPreviewDC@@UEAAKK@Z @ 6083 NONAME
 ?SetTextJustification@CDC@@QEAAHHH@Z @ 6084 NONAME
 ?SetTime@CDateTimeCtrl@@QEAAHAEBVCOleDateTime@ATL@@@Z @ 6085 NONAME
 ?SetTime@CDateTimeCtrl@@QEAAHPEAU_SYSTEMTIME@@@Z @ 6086 NONAME
 ?SetTime@CDateTimeCtrl@@QEAAHPEBVCTime@ATL@@@Z @ 6087 NONAME
 ?SetTitle@CDocument@@UEAAXPEBD@Z @ 6088 NONAME
 ?SetTitle@CPropertySheet@@QEAAXPEBDI@Z @ 6089 NONAME
 ?SetTitle@CRichEditDoc@@UEAAXPEBD@Z @ 6090 NONAME
 ?SetToday@CMonthCalCtrl@@QEAAXAEBVCOleDateTime@ATL@@@Z @ 6091 NONAME
 ?SetToday@CMonthCalCtrl@@QEAAXPEBVCTime@ATL@@@Z @ 6092 NONAME
 ?SetToolRect@CToolTipCtrl@@QEAAXPEAVCWnd@@_KPEBUtagRECT@@@Z @ 6093 NONAME
 ?SetTopLeftOffset@CPreviewDC@@QEAAXVCSize@@@Z @ 6094 NONAME
 ?SetType@CProperty@@QEAAXK@Z @ 6095 NONAME
 ?SetUpdateMethod@CRecordset@@IEAAXXZ @ 6096 NONAME
 ?SetValue@CThreadSlotData@@QEAAXHPEAX@Z @ 6097 NONAME
 ?SetViewInfo@XOleUIObjInfo@COlePropertiesDialog@@UEAAJKPEAXKHH@Z @ 6098 NONAME
 ?SetViewportExt@CDC@@UEAA?AVCSize@@HH@Z @ 6099 NONAME
 ?SetViewportExt@CMetaFileDC@@UEAA?AVCSize@@HH@Z @ 6100 NONAME
 ?SetViewportExt@CPreviewDC@@UEAA?AVCSize@@HH@Z @ 6101 NONAME
 ?SetViewportOrg@CDC@@UEAA?AVCPoint@@HH@Z @ 6102 NONAME
 ?SetViewportOrg@CMetaFileDC@@UEAA?AVCPoint@@HH@Z @ 6103 NONAME
 ?SetViewportOrg@CPreviewDC@@UEAA?AVCPoint@@HH@Z @ 6104 NONAME
 ?SetWindowExt@CDC@@UEAA?AVCSize@@HH@Z @ 6105 NONAME
 ?SetWindowExt@CPreviewDC@@UEAA?AVCSize@@HH@Z @ 6106 NONAME
 ?SetWindowOrg@CDC@@QEAA?AVCPoint@@HH@Z @ 6107 NONAME
 ?SetWindowPlacement@CWnd@@QEAAHPEBUtagWINDOWPLACEMENT@@@Z @ 6108 NONAME
 ?SetWindowPos@COleControlSite@@UEAAHPEBVCWnd@@HHHHI@Z @ 6109 NONAME
 ?SetWindowPos@CWnd@@QEAAHPEBV1@HHHHI@Z @ 6110 NONAME
 ?SetWindowTextA@COleControlSite@@UEAAXPEBD@Z @ 6111 NONAME
 ?SetWindowTextA@CWnd@@QEAAXPEBD@Z @ 6112 NONAME
 ?SetWordCharFormat@CRichEditCtrl@@QEAAHAEAU_charformat@@@Z @ 6113 NONAME
 ?SetWordCharFormat@CRichEditCtrl@@QEAAHAEAUCHARFORMAT2A@@@Z @ 6114 NONAME
 ?SetWorldTransform@CDC@@QEAAHPEBUtagXFORM@@@Z @ 6115 NONAME
 ?SetWriteBufferSize@CInternetFile@@QEAAHI@Z @ 6116 NONAME
 ?SetZoomState@CPreviewView@@IEAAXIIVCPoint@@@Z @ 6117 NONAME
 ?Show@XOleDocumentView@CDocObjectServer@@UEAAJH@Z @ 6118 NONAME
 ?Show@XPropertyPage@COlePropertyPage@@UEAAJI@Z @ 6119 NONAME
 ?ShowAll@CDockBar@@QEAAXH@Z @ 6120 NONAME
 ?ShowAppMessageBox@CWinApp@@SAHPEAV1@PEBDII@Z @ 6121 NONAME
 ?ShowContainerUI@CRichEditCntrItem@@QEAAJH@Z @ 6122 NONAME
 ?ShowContainerUI@CRichEditView@@QEAAJH@Z @ 6123 NONAME
 ?ShowContainerUI@XRichEditOleCallback@CRichEditView@@UEAAJH@Z @ 6124 NONAME
 ?ShowContextMenu@CBrowserControlSite@@MEAAJKPEAUtagPOINT@@PEAUIUnknown@@PEAUIDispatch@@@Z @ 6125 NONAME
 ?ShowContextMenu@CDHtmlDialog@@UEAAJKPEAUtagPOINT@@PEAUIUnknown@@PEAUIDispatch@@@Z @ 6126 NONAME
 ?ShowContextMenu@XDocHostUIHandler@CHtmlControlSite@@UEAAJKPEAUtagPOINT@@PEAUIUnknown@@PEAUIDispatch@@@Z @ 6127 NONAME
 ?ShowControlBar@CFrameWnd@@QEAAXPEAVCControlBar@@HH@Z @ 6128 NONAME
 ?ShowObject@XOleClientSite@COleClientItem@@UEAAJXZ @ 6129 NONAME
 ?ShowObject@XOleClientSite@COleControlSite@@UEAAJXZ @ 6130 NONAME
 ?ShowOwnedWindows@CFrameWnd@@QEAAXH@Z @ 6131 NONAME
 ?ShowPropertyFrame@XOleControlSite@COleControlSite@@UEAAJXZ @ 6132 NONAME
 ?ShowUI@CBrowserControlSite@@MEAAJKPEAUIOleInPlaceActiveObject@@PEAUIOleCommandTarget@@PEAUIOleInPlaceFrame@@PEAUIOleInPlaceUIWindow@@@Z @ 6133 NONAME
 ?ShowUI@CDHtmlDialog@@UEAAJKPEAUIOleInPlaceActiveObject@@PEAUIOleCommandTarget@@PEAUIOleInPlaceFrame@@PEAUIOleInPlaceUIWindow@@@Z @ 6134 NONAME
 ?ShowUI@XDocHostUIHandler@CHtmlControlSite@@UEAAJKPEAUIOleInPlaceActiveObject@@PEAUIOleCommandTarget@@PEAUIOleInPlaceFrame@@PEAUIOleInPlaceUIWindow@@@Z @ 6135 NONAME
 ?ShowWindow@COleControlSite@@UEAAHH@Z @ 6136 NONAME
 ?ShowWindow@CWnd@@QEAAHH@Z @ 6137 NONAME
 ?sizeDefault@CScrollView@@2UtagSIZE@@B @ 6138 NONAME DATA
 ?SizeMinReq@CMonthCalCtrl@@QEAAHH@Z @ 6139 NONAME
 ?SizeToContent@CBitmapButton@@QEAAXXZ @ 6140 NONAME
 ?SizeToolBar@CToolBar@@IEAAXPEAU_TBBUTTON@@HHH@Z @ 6141 NONAME
 ?Skip@XEnumVOID@CEnumArray@@UEAAJK@Z @ 6142 NONAME
 ?SkipDeletedRecords@CRecordset@@QEAAXGJPEA_KPEAF@Z @ 6143 NONAME
 ?Socket@CAsyncSocket@@QEAAHHJHH@Z @ 6144 NONAME
 ?SpanExcluding@?$CStringT@_WV?$StrTraitMFC_DLL@_WV?$ChTraitsCRT@_W@ATL@@@@@ATL@@QEBA?AV12@PEB_W@Z @ 6145 NONAME
 ?SpanExcluding@?$CStringT@DV?$StrTraitMFC_DLL@DV?$ChTraitsCRT@D@ATL@@@@@ATL@@QEBA?AV12@PEBD@Z @ 6146 NONAME
 ?SpanIncluding@?$CStringT@_WV?$StrTraitMFC_DLL@_WV?$ChTraitsCRT@_W@ATL@@@@@ATL@@QEBA?AV12@PEB_W@Z @ 6147 NONAME
 ?SpanIncluding@?$CStringT@DV?$StrTraitMFC_DLL@DV?$ChTraitsCRT@D@ATL@@@@@ATL@@QEBA?AV12@PEBD@Z @ 6148 NONAME
 ?SplitColumn@CSplitterWnd@@UEAAHH@Z @ 6149 NONAME
 ?SplitDialogTemplate@COccManager@@UEAAPEAUDLGTEMPLATE@@PEBU2@PEAPEAUDLGITEMTEMPLATE@@@Z @ 6150 NONAME
 ?SplitRow@CSplitterWnd@@UEAAHH@Z @ 6151 NONAME
 ?StartDocA@CDC@@QEAAHPEBD@Z @ 6152 NONAME
 ?StartDrag@CDockContext@@UEAAXVCPoint@@@Z @ 6153 NONAME
 ?StartResize@CDockContext@@UEAAXHVCPoint@@@Z @ 6154 NONAME
 ?StartTracking@CSplitterWnd@@MEAAXH@Z @ 6155 NONAME
 ?Stat@CArchiveStream@@UEAAJPEAUtagSTATSTG@@K@Z @ 6156 NONAME
 ?StopTracking@CSplitterWnd@@MEAAXH@Z @ 6157 NONAME
 ?Store@CRuntimeClass@@QEBAXAEAVCArchive@@@Z @ 6158 NONAME
 ?StoreFields@CRecordset@@QEAAXXZ @ 6159 NONAME
 ?Stream@CRichEditView@@QEAAXAEAVCArchive@@H@Z @ 6160 NONAME
 ?Stretch@CDockContext@@QEAAXVCPoint@@@Z @ 6161 NONAME
 ?StringLength@?$CSimpleStringT@_W$00@ATL@@SAHPEB_W@Z @ 6162 NONAME
 ?StringLength@?$CSimpleStringT@_W$00@ATL@@SAHPEBD@Z @ 6163 NONAME
 ?StringLength@?$CSimpleStringT@D$00@ATL@@SAHPEB_W@Z @ 6164 NONAME
 ?StringLength@?$CSimpleStringT@D$00@ATL@@SAHPEBD@Z @ 6165 NONAME
 ?SubclassDlgItem@CWnd@@QEAAHIPEAV1@@Z @ 6166 NONAME
 ?SubclassWindow@CWnd@@QEAAHPEAUHWND__@@@Z @ 6167 NONAME
 ?SupportsIPrint@COleDocObjectItem@@IEAAHXZ @ 6168 NONAME
 ?SyncAfter@XNotifyDBEvents@COleControlSite@@UEAAJKKQEAUtagDBNOTIFYREASON@@@Z @ 6169 NONAME
 ?SyncBefore@XNotifyDBEvents@COleControlSite@@UEAAJKKQEAUtagDBNOTIFYREASON@@@Z @ 6170 NONAME
 ?SyncToRichEditObject@CRichEditCntrItem@@QEAAXAEAU_reobject@@@Z @ 6171 NONAME
 ?TabbedTextOutA@CMetaFileDC@@UEAA?AVCSize@@HHPEBDHHPEAHH@Z @ 6172 NONAME
 ?TabbedTextOutA@CPreviewDC@@UEAA?AVCSize@@HHPEBDHHPEAHH@Z @ 6173 NONAME
 ?TextNotFound@CRichEditView@@QEAAXPEBD@Z @ 6174 NONAME
 ?TextOutA@CMetaFileDC@@UEAAHHHPEBDH@Z @ 6175 NONAME
 ?TextOutA@CPreviewDC@@UEAAHHHPEBDH@Z @ 6176 NONAME
 ?ThrowErrno@CFileException@@SAXHPEBD@Z @ 6177 NONAME
 ?ThrowError@COleControl@@QEAAXJII@Z @ 6178 NONAME
 ?ThrowError@COleControl@@QEAAXJPEBDI@Z @ 6179 NONAME
 ?ThrowMemoryException@?$CSimpleStringT@_W$00@ATL@@KAXXZ @ 6180 NONAME
 ?ThrowMemoryException@?$CSimpleStringT@D$00@ATL@@KAXXZ @ 6181 NONAME
 ?ThrowOsError@CFileException@@SAXJPEBD@Z @ 6182 NONAME
 ?ToggleDocking@CDockContext@@UEAAXXZ @ 6183 NONAME
 ?Tokenize@?$CStringT@_WV?$StrTraitMFC_DLL@_WV?$ChTraitsCRT@_W@ATL@@@@@ATL@@QEBA?AV12@PEB_WAEAH@Z @ 6184 NONAME
 ?Tokenize@?$CStringT@DV?$StrTraitMFC_DLL@DV?$ChTraitsCRT@D@ATL@@@@@ATL@@QEBA?AV12@PEBDAEAH@Z @ 6185 NONAME
 ?ToVariant@CDataSourceControl@@QEAA?AVCOleVariant@@H@Z @ 6186 NONAME
 ?Track@CDockContext@@QEAAHXZ @ 6187 NONAME
 ?Track@CRectTracker@@QEAAHPEAVCWnd@@VCPoint@@H0@Z @ 6188 NONAME
 ?TrackColumnSize@CSplitterWnd@@MEAAXHH@Z @ 6189 NONAME
 ?TrackHandle@CRectTracker@@IEAAHHPEAVCWnd@@VCPoint@@0@Z @ 6190 NONAME
 ?TrackPopupMenu@CMenu@@QEAAHIHHPEAVCWnd@@PEBUtagRECT@@@Z @ 6191 NONAME
 ?TrackPopupMenuEx@CMenu@@QEAAHIHHPEAVCWnd@@PEAUtagTPMPARAMS@@@Z @ 6192 NONAME
 ?TrackRowSize@CSplitterWnd@@MEAAXHH@Z @ 6193 NONAME
 ?TrackRubberBand@CRectTracker@@QEAAHPEAVCWnd@@VCPoint@@H@Z @ 6194 NONAME
 ?TransformCoords@COleControl@@QEAAXPEAU_POINTL@@PEAUtagPOINTF@@K@Z @ 6195 NONAME
 ?TransformCoords@XOleControlSite@COleControlSite@@UEAAJPEAU_POINTL@@PEAUtagPOINTF@@K@Z @ 6196 NONAME
 ?TranslateAcceleratorA@CBrowserControlSite@@MEAAJPEAUtagMSG@@PEBU_GUID@@K@Z @ 6197 NONAME
 ?TranslateAcceleratorA@CDHtmlDialog@@UEAAJPEAUtagMSG@@PEBU_GUID@@K@Z @ 6198 NONAME
 ?TranslateAcceleratorA@XDocHostUIHandler@CHtmlControlSite@@UEAAJPEAUtagMSG@@PEBU_GUID@@K@Z @ 6199 NONAME
 ?TranslateAcceleratorA@XOleControlSite@COleControlSite@@UEAAJPEAUtagMSG@@K@Z @ 6200 NONAME
 ?TranslateAcceleratorA@XOleInPlaceActiveObject@COleControl@@UEAAJPEAUtagMSG@@@Z @ 6201 NONAME
 ?TranslateAcceleratorA@XOleInPlaceActiveObject@COleServerDoc@@UEAAJPEAUtagMSG@@@Z @ 6202 NONAME
 ?TranslateAcceleratorA@XOleInPlaceFrame@COleFrameHook@@UEAAJPEAUtagMSG@@G@Z @ 6203 NONAME
 ?TranslateAcceleratorA@XOleIPFrame@COleControlContainer@@UEAAJPEAUtagMSG@@G@Z @ 6204 NONAME
 ?TranslateAcceleratorA@XPropertyPage@COlePropertyPage@@UEAAJPEAUtagMSG@@@Z @ 6205 NONAME
 ?TranslateColor@COleControl@@QEAAKKPEAUHPALETTE__@@@Z @ 6206 NONAME
 ?TranslateUrl@CBrowserControlSite@@MEAAJKPEA_WPEAPEA_W@Z @ 6207 NONAME
 ?TranslateUrl@CDHtmlDialog@@UEAAJKPEA_WPEAPEA_W@Z @ 6208 NONAME
 ?TranslateUrl@XDocHostUIHandler@CHtmlControlSite@@UEAAJKPEA_WPEAPEA_W@Z @ 6209 NONAME
 ?Trim@?$CStringT@_WV?$StrTraitMFC_DLL@_WV?$ChTraitsCRT@_W@ATL@@@@@ATL@@QEAAAEAV12@_W@Z @ 6210 NONAME
 ?Trim@?$CStringT@_WV?$StrTraitMFC_DLL@_WV?$ChTraitsCRT@_W@ATL@@@@@ATL@@QEAAAEAV12@PEB_W@Z @ 6211 NONAME
 ?Trim@?$CStringT@_WV?$StrTraitMFC_DLL@_WV?$ChTraitsCRT@_W@ATL@@@@@ATL@@QEAAAEAV12@XZ @ 6212 NONAME
 ?Trim@?$CStringT@DV?$StrTraitMFC_DLL@DV?$ChTraitsCRT@D@ATL@@@@@ATL@@QEAAAEAV12@D@Z @ 6213 NONAME
 ?Trim@?$CStringT@DV?$StrTraitMFC_DLL@DV?$ChTraitsCRT@D@ATL@@@@@ATL@@QEAAAEAV12@PEBD@Z @ 6214 NONAME
 ?Trim@?$CStringT@DV?$StrTraitMFC_DLL@DV?$ChTraitsCRT@D@ATL@@@@@ATL@@QEAAAEAV12@XZ @ 6215 NONAME
 ?TrimLeft@?$CStringT@_WV?$StrTraitMFC_DLL@_WV?$ChTraitsCRT@_W@ATL@@@@@ATL@@QEAAAEAV12@_W@Z @ 6216 NONAME
 ?TrimLeft@?$CStringT@_WV?$StrTraitMFC_DLL@_WV?$ChTraitsCRT@_W@ATL@@@@@ATL@@QEAAAEAV12@PEB_W@Z @ 6217 NONAME
 ?TrimLeft@?$CStringT@_WV?$StrTraitMFC_DLL@_WV?$ChTraitsCRT@_W@ATL@@@@@ATL@@QEAAAEAV12@XZ @ 6218 NONAME
 ?TrimLeft@?$CStringT@DV?$StrTraitMFC_DLL@DV?$ChTraitsCRT@D@ATL@@@@@ATL@@QEAAAEAV12@D@Z @ 6219 NONAME
 ?TrimLeft@?$CStringT@DV?$StrTraitMFC_DLL@DV?$ChTraitsCRT@D@ATL@@@@@ATL@@QEAAAEAV12@PEBD@Z @ 6220 NONAME
 ?TrimLeft@?$CStringT@DV?$StrTraitMFC_DLL@DV?$ChTraitsCRT@D@ATL@@@@@ATL@@QEAAAEAV12@XZ @ 6221 NONAME
 ?TrimRight@?$CStringT@_WV?$StrTraitMFC_DLL@_WV?$ChTraitsCRT@_W@ATL@@@@@ATL@@QEAAAEAV12@_W@Z @ 6222 NONAME
 ?TrimRight@?$CStringT@_WV?$StrTraitMFC_DLL@_WV?$ChTraitsCRT@_W@ATL@@@@@ATL@@QEAAAEAV12@PEB_W@Z @ 6223 NONAME
 ?TrimRight@?$CStringT@_WV?$StrTraitMFC_DLL@_WV?$ChTraitsCRT@_W@ATL@@@@@ATL@@QEAAAEAV12@XZ @ 6224 NONAME
 ?TrimRight@?$CStringT@DV?$StrTraitMFC_DLL@DV?$ChTraitsCRT@D@ATL@@@@@ATL@@QEAAAEAV12@D@Z @ 6225 NONAME
 ?TrimRight@?$CStringT@DV?$StrTraitMFC_DLL@DV?$ChTraitsCRT@D@ATL@@@@@ATL@@QEAAAEAV12@PEBD@Z @ 6226 NONAME
 ?TrimRight@?$CStringT@DV?$StrTraitMFC_DLL@DV?$ChTraitsCRT@D@ATL@@@@@ATL@@QEAAAEAV12@XZ @ 6227 NONAME
 ?Truncate@?$CSimpleStringT@_W$00@ATL@@QEAAXH@Z @ 6228 NONAME
 ?Truncate@?$CSimpleStringT@D$00@ATL@@QEAAXH@Z @ 6229 NONAME
 ?UIActivate@XOleDocumentView@CDocObjectServer@@UEAAJH@Z @ 6230 NONAME
 ?UIActivateControl@COccManager@@KAXPEAVCWnd@@@Z @ 6231 NONAME
 ?UIDeactivate@XOleInPlaceObject@COleControl@@UEAAJXZ @ 6232 NONAME
 ?UIDeactivate@XOleInPlaceObject@COleServerDoc@@UEAAJXZ @ 6233 NONAME
 ?UIDeactivateIfNecessary@COccManager@@KAXPEAVCWnd@@0@Z @ 6234 NONAME
 ?UnaccessData@COleSafeArray@@QEAAXXZ @ 6235 NONAME
 ?UnAdvise@CDHtmlElementEventSink@@QEAAJPEAUIUnknown@@AEBU_GUID@@@Z @ 6236 NONAME
 ?Unadvise@XConnPt@CConnectionPoint@@UEAAJK@Z @ 6237 NONAME
 ?Unadvise@XOleObject@CDocObjectServer@@UEAAJK@Z @ 6238 NONAME
 ?Unadvise@XOleObject@COleControl@@UEAAJK@Z @ 6239 NONAME
 ?Unadvise@XOleObject@COleServerDoc@@UEAAJK@Z @ 6240 NONAME
 ?Unadvise@XOleObject@COleServerItem@@UEAAJK@Z @ 6241 NONAME
 ?UnbindFieldsForUpdate@CRecordset@@QEAAXXZ @ 6242 NONAME
 ?Uncache@XOleCache@COleControl@@UEAAJK@Z @ 6243 NONAME
 ?Unfreeze@XViewObject@COleControl@@UEAAJK@Z @ 6244 NONAME
 ?Unlock@CEvent@@UEAAHXZ @ 6245 NONAME
 ?Unlock@CMultiLock@@QEAAHJPEAJ@Z @ 6246 NONAME
 ?Unlock@CMultiLock@@QEAAHXZ @ 6247 NONAME
 ?Unlock@CMutex@@UEAAHXZ @ 6248 NONAME
 ?Unlock@COleSafeArray@@QEAAXXZ @ 6249 NONAME
 ?Unlock@CSemaphore@@UEAAHJPEAJ@Z @ 6250 NONAME
 ?Unlock@CSingleLock@@QEAAHJPEAJ@Z @ 6251 NONAME
 ?Unlock@CSingleLock@@QEAAHXZ @ 6252 NONAME
 ?Unlock@CTypeLibCache@@QEAAXXZ @ 6253 NONAME
 ?UnlockBuffer@?$CSimpleStringT@_W$00@ATL@@QEAAXXZ @ 6254 NONAME
 ?UnlockBuffer@?$CSimpleStringT@D$00@ATL@@QEAAXXZ @ 6255 NONAME
 ?UnlockBuffer@CEditView@@QEBAXXZ @ 6256 NONAME
 ?UnlockRange@CFile@@UEAAX_K0@Z @ 6257 NONAME
 ?UnlockRange@CInternetFile@@UEAAX_K0@Z @ 6258 NONAME
 ?UnlockRange@CMemFile@@UEAAX_K0@Z @ 6259 NONAME
 ?UnlockRange@COleStreamFile@@UEAAX_K0@Z @ 6260 NONAME
 ?UnlockRange@CSocketFile@@UEAAX_K0@Z @ 6261 NONAME
 ?UnlockRange@CStdioFile@@UEAAX_K0@Z @ 6262 NONAME
 ?UnlockRegion@CArchiveStream@@UEAAJT_ULARGE_INTEGER@@0K@Z @ 6263 NONAME
 ?Unregister@COleObjectFactory@@QEAAHXZ @ 6264 NONAME
 ?Unregister@COleTemplateServer@@QEAAHXZ @ 6265 NONAME
 ?Unregister@CWinApp@@UEAAHXZ @ 6266 NONAME
 ?UnregisterAll@COleObjectFactory@@SAHXZ @ 6267 NONAME
 ?UnregisterShellFileTypes@CDocManager@@QEAAXXZ @ 6268 NONAME
 ?UnregisterShellFileTypes@CWinApp@@IEAAXXZ @ 6269 NONAME
 ?UnregisterSiteFactory@CControlSiteFactoryMgr@@QEAAHPEAVIControlSiteFactory@@@Z @ 6270 NONAME
 ?UnsubclassWindow@CWnd@@QEAAPEAUHWND__@@XZ @ 6271 NONAME
 ?Update@CRecordset@@UEAAHXZ @ 6272 NONAME
 ?Update@XOleObject@CDocObjectServer@@UEAAJXZ @ 6273 NONAME
 ?Update@XOleObject@COleControl@@UEAAJXZ @ 6274 NONAME
 ?Update@XOleObject@COleServerDoc@@UEAAJXZ @ 6275 NONAME
 ?Update@XOleObject@COleServerItem@@UEAAJXZ @ 6276 NONAME
 ?UpdateAllItems@COleServerDoc@@QEAAXPEAVCOleServerItem@@_JPEAVCObject@@W4tagDVASPECT@@@Z @ 6277 NONAME
 ?UpdateAllPanes@CStatusBar@@IEAAXHH@Z @ 6278 NONAME
 ?UpdateAllViews@CDocument@@QEAAXPEAVCView@@_JPEAVCObject@@@Z @ 6279 NONAME
 ?UpdateBars@CScrollView@@IEAAXXZ @ 6280 NONAME
 ?UpdateClientEdge@CMDIChildWnd@@IEAAHPEAUtagRECT@@@Z @ 6281 NONAME
 ?UpdateControls@CDataSourceControl@@UEAAJXZ @ 6282 NONAME
 ?UpdateCursor@CDataSourceControl@@UEAAJXZ @ 6283 NONAME
 ?UpdateData@CWnd@@QEAAHH@Z @ 6284 NONAME
 ?UpdateDialogControls@CWnd@@QEAAXPEAVCCmdTarget@@H@Z @ 6285 NONAME
 ?UpdateFrameCounts@CDocument@@UEAAXXZ @ 6286 NONAME
 ?UpdateFrameTitleForDocument@CFrameWnd@@QEAAXPEBD@Z @ 6287 NONAME
 ?UpdateInsertDelete@CRecordset@@IEAAHXZ @ 6288 NONAME
 ?UpdateItemType@COleClientItem@@QEAAXXZ @ 6289 NONAME
 ?UpdateLink@COleClientItem@@QEAAHXZ @ 6290 NONAME
 ?UpdateLink@COleUILinkInfo@@UEAAJKHH@Z @ 6291 NONAME
 ?UpdateMenu@CRecentFileList@@UEAAXPEAVCCmdUI@@@Z @ 6292 NONAME
 ?UpdateModifiedFlag@COleDocument@@UEAAXXZ @ 6293 NONAME
 ?UpdateModifiedFlag@CRichEditDoc@@UEAAXXZ @ 6294 NONAME
 ?UpdateObjectCache@CRichEditDoc@@IEAAXXZ @ 6295 NONAME
 ?UpdatePrinterSelection@CWinApp@@IEAAXH@Z @ 6296 NONAME
 ?UpdateRegistry@COleObjectFactory@@MEAAHH@Z @ 6297 NONAME
 ?UpdateRegistry@COleObjectFactory@@QEAAXPEBD@Z @ 6298 NONAME
 ?UpdateRegistry@COleTemplateServer@@QEAAXW4OLE_APPTYPE@@PEAPEBD1H@Z @ 6299 NONAME
 ?UpdateRegistryAll@COleObjectFactory@@SAHH@Z @ 6300 NONAME
 ?UpdateState@CDockContext@@QEAAXPEAHH@Z @ 6301 NONAME
 ?UpdateTipText@CToolTipCtrl@@QEAAXIPEAVCWnd@@_K@Z @ 6302 NONAME
 ?UpdateTipText@CToolTipCtrl@@QEAAXPEBDPEAVCWnd@@_K@Z @ 6303 NONAME
 ?UpdateUI@CBrowserControlSite@@MEAAJXZ @ 6304 NONAME
 ?UpdateUI@CDHtmlDialog@@UEAAJXZ @ 6305 NONAME
 ?UpdateUI@XDocHostUIHandler@CHtmlControlSite@@UEAAJXZ @ 6306 NONAME
 ?UpdateUsingHostObj@COleServerDoc@@IEAAXIPEAVCCmdUI@@@Z @ 6307 NONAME
 ?UpdateVisibleLock@COleLinkingDoc@@IEAAXHH@Z @ 6308 NONAME
 ?VerifyConnect@CDatabase@@IEAAXXZ @ 6309 NONAME
 ?VerifyCursorSupport@CRecordset@@IEAAKXZ @ 6310 NONAME
 ?VerifyDriverBehavior@CRecordset@@IEAAXXZ @ 6311 NONAME
 ?VerifyLicenseKey@COleObjectFactory@@MEAAHPEA_W@Z @ 6312 NONAME
 ?VerifyUserLicense@COleObjectFactory@@MEAAHXZ @ 6313 NONAME
 ?VKeyToItem@CListBox@@UEAAHII@Z @ 6314 NONAME
 ?WalkPreTranslateTree@CWnd@@SAHPEAUHWND__@@PEAUtagMSG@@@Z @ 6315 NONAME
 ?WillAmbientsBeValidDuringLoad@COleControl@@QEAAHXZ @ 6316 NONAME
 ?WindowProc@CControlBar@@UEAA_JI_K_J@Z @ 6317 NONAME
 ?WindowProc@COleControl@@UEAA_JI_K_J@Z @ 6318 NONAME
 ?WindowProc@COlePropertyPage@@MEAA_JI_K_J@Z @ 6319 NONAME
 ?WindowProc@CParkingWnd@@UEAA_JI_K_J@Z @ 6320 NONAME
 ?WindowProc@CReBar@@MEAA_JI_K_J@Z @ 6321 NONAME
 ?WindowProc@CReflectorWnd@@MEAA_JI_K_J@Z @ 6322 NONAME
 ?WindowProc@CWnd@@MEAA_JI_K_J@Z @ 6323 NONAME
 ?WinHelpA@CWinApp@@UEAAX_KI@Z @ 6324 NONAME
 ?WinHelpA@CWnd@@UEAAX_KI@Z @ 6325 NONAME
 ?WinHelpInternal@CWinApp@@UEAAX_KI@Z @ 6326 NONAME
 ?WinHelpInternal@CWnd@@UEAAX_KI@Z @ 6327 NONAME
 ?wndBottom@CWnd@@2V1@B @ 6328 NONAME DATA
 ?wndNoTopMost@CWnd@@2V1@B @ 6329 NONAME DATA
 ?wndTop@CWnd@@2V1@B @ 6330 NONAME DATA
 ?wndTopMost@CWnd@@2V1@B @ 6331 NONAME DATA
 ?WrapChanged@CRichEditView@@MEAAXXZ @ 6332 NONAME
 ?WrapToolBar@CToolBar@@IEAAHPEAU_TBBUTTON@@HH@Z @ 6333 NONAME
 ?Write@CArchive@@QEAAXPEBXI@Z @ 6334 NONAME
 ?Write@CArchiveStream@@UEAAJPEBXKPEAK@Z @ 6335 NONAME
 ?Write@CFile@@UEAAXPEBXI@Z @ 6336 NONAME
 ?Write@CGopherFile@@UEAAXPEBXI@Z @ 6337 NONAME
 ?Write@CImageList@@QEAAHPEAVCArchive@@@Z @ 6338 NONAME
 ?Write@CInternetFile@@UEAAXPEBXI@Z @ 6339 NONAME
 ?Write@CMemFile@@UEAAXPEBXI@Z @ 6340 NONAME
 ?Write@COleStreamFile@@UEAAXPEBXI@Z @ 6341 NONAME
 ?Write@CSocketFile@@UEAAXPEBXI@Z @ 6342 NONAME
 ?Write@CStdioFile@@UEAAXPEBXI@Z @ 6343 NONAME
 ?WriteClass@CArchive@@QEAAXPEBUCRuntimeClass@@@Z @ 6344 NONAME
 ?WriteCount@CArchive@@QEAAX_K@Z @ 6345 NONAME
 ?WriteItem@COleClientItem@@UEAAXAEAVCArchive@@@Z @ 6346 NONAME
 ?WriteItemCompound@COleClientItem@@QEAAXAEAVCArchive@@@Z @ 6347 NONAME
 ?WriteItemFlat@COleClientItem@@QEAAXAEAVCArchive@@@Z @ 6348 NONAME
 ?WriteList@CRecentFileList@@UEAAXXZ @ 6349 NONAME
 ?WriteNameDictToStream@CPropertySection@@QEAAHPEAUIStream@@@Z @ 6350 NONAME
 ?WriteObject@CArchive@@QEAAXPEBVCObject@@@Z @ 6351 NONAME
 ?WriteProfileBinary@CWinApp@@QEAAHPEBD0PEAEI@Z @ 6352 NONAME
 ?WriteProfileInt@CWinApp@@QEAAHPEBD0H@Z @ 6353 NONAME
 ?WriteProfileStringA@CWinApp@@QEAAHPEBD00@Z @ 6354 NONAME
 ?WriteString@CArchive@@QEAAXPEBD@Z @ 6355 NONAME
 ?WriteString@CGopherFile@@UEAAXPEBD@Z @ 6356 NONAME
 ?WriteString@CInternetFile@@UEAAXPEBD@Z @ 6357 NONAME
 ?WriteString@CStdioFile@@UEAAXPEBD@Z @ 6358 NONAME
 ?WriteToArchive@CEditView@@QEAAXAEAVCArchive@@@Z @ 6359 NONAME
 ?WriteToStream@CProperty@@QEAAHPEAUIStream@@@Z @ 6360 NONAME
 ?WriteToStream@CPropertySection@@QEAAHPEAUIStream@@@Z @ 6361 NONAME
 ?WriteToStream@CPropertySet@@QEAAHPEAUIStream@@@Z @ 6362 NONAME
 ?AfxIsValidAtom@@YAHG@Z @ 6363 NONAME
 ?AfxIsValidAtom@@YAHPEBD@Z @ 6364 NONAME
 ?AfxUnregisterWndClasses@@YAXXZ @ 6365 NONAME
 ?OnWizardFinishEx@CPropertyPage@@UEAAPEAUHWND__@@XZ @ 6368 NONAME
 ?GetErrorMessage@CException@@UEBAHPEADIPEAI@Z @ 6369 NONAME
 ?AfxActivateActCtx@@YAHPEAXPEA_K@Z @ 6370 NONAME
 ?AfxActivateActCtxWrapper@@YA?AW4eActCtxResult@@PEAXPEA_K@Z @ 6371 NONAME
 ?AfxCreateActCtxW@@YAPEAXPEBUtagACTCTXW@@@Z @ 6372 NONAME
 ?AfxDeactivateActCtx@@YAHK_K@Z @ 6373 NONAME
 ?AfxReleaseActCtx@@YAXPEAX@Z @ 6374 NONAME
 ?GetItemName@COleClientItem@@QEBAXPEADI@Z @ 6375 NONAME
 ?AfxLoadLibraryEx@@YAPEAUHINSTANCE__@@PEBDPEAXK@Z @ 6376 NONAME
 ?EnsureRead@CArchive@@QEAAXPEAXI@Z @ 6377 NONAME
 ?AfxIsModuleDll@@YAHXZ @ 6378 NONAME
 ?AfxInitCurrentStateApp@@YAHXZ @ 6379 NONAME
 ?FormatMessage@?$CStringT@_WV?$StrTraitMFC_DLL@_WV?$ChTraitsCRT@_W@ATL@@@@@ATL@@QEAAXIZZ @ 6380 NONAME
 ?FormatMessage@?$CStringT@_WV?$StrTraitMFC_DLL@_WV?$ChTraitsCRT@_W@ATL@@@@@ATL@@QEAAXPEB_WZZ @ 6381 NONAME
 ?FormatMessage@?$CStringT@DV?$StrTraitMFC_DLL@DV?$ChTraitsCRT@D@ATL@@@@@ATL@@QEAAXIZZ @ 6382 NONAME
 ?FormatMessage@?$CStringT@DV?$StrTraitMFC_DLL@DV?$ChTraitsCRT@D@ATL@@@@@ATL@@QEAAXPEBDZZ @ 6383 NONAME
 ?AfxGetInstanceHandleHelper@@YAPEAUHINSTANCE__@@XZ @ 6384 NONAME
 ??1CFormView@@UEAA@XZ @ 6385 NONAME
 ?GetOccDialogInfo@CFormView@@MEAAPEAU_AFX_OCC_DIALOG_INFO@@XZ @ 6386 NONAME
