 atl80

 Timestamp is 62c3525f (Mon Jul 04 16:49:35 2022)

 Preferred load address is 7c630000

 Start         Length     Name                   Class
 0001:00000000 0001753aH .text                   CODE
 0001:00017540 0000005eH .text$yc                CODE
 0001:000175a0 0000002dH .text$yd                CODE
 0002:00000000 00000110H .idata$5                DATA
 0002:00000110 00000004H .CRT$XCA                DATA
 0002:00000114 0000000cH .CRT$XCL                DATA
 0002:00000120 00000004H .CRT$XCU                DATA
 0002:00000124 00000004H .CRT$XCZ                DATA
 0002:00000128 00000004H .CRT$XIA                DATA
 0002:0000012c 00000008H .CRT$XIC                DATA
 0002:00000134 00000004H .CRT$XIZ                DATA
 0002:00000138 00000004H .CRT$XPA                DATA
 0002:0000013c 00000004H .CRT$XPZ                DATA
 0002:00000140 00000004H .CRT$XTA                DATA
 0002:00000144 00000004H .CRT$XTZ                DATA
 0002:00000150 000033a0H .rdata                  DATA
 0002:000034f0 0000004dH .rdata$debug            DATA
 0002:00003540 0000000cH .rdata$sxdata           DATA
 0002:00003550 000000bcH .xdata$x                DATA
 0002:0000360c 00000004H ATL$__a                 DATA
 0002:00003610 00000004H ATL$__z                 DATA
 0002:00003614 000000a0H .didat$2                DATA
 0002:000036b4 00000020H .didat$3                DATA
 0002:000036d4 000001ecH .didat$4                DATA
 0002:000038c0 00000700H .didat$6                DATA
 0002:00003fc0 000001ecH .didat$7                DATA
 0002:000041ac 00000014H .idata$2                DATA
 0002:000041c0 00000014H .idata$3                DATA
 0002:000041d4 00000110H .idata$4                DATA
 0002:000042e4 000004d4H .idata$6                DATA
 0002:000047c0 000006ddH .edata                  DATA
 0003:00000000 000001c0H .data                   DATA
 0003:000001c0 000001ecH .didat$5                DATA
 0003:000003b0 0000052cH .bss                    DATA
 0004:00000000 00000128H .rsrc$01                DATA
 0004:00000130 00002218H .rsrc$02                DATA

  Address         Publics by Value              Rva+Base       Lib:Object

 0000:00000000       __except_list              00000000     <absolute>
 0000:00000003       ___safe_se_handler_count   00000003     <absolute>
 0000:00000000       ___ImageBase               7c630000     <linker-defined>
 0001:00000000       _AtlComPtrAssign@8         7c631000 f i RegObj.obj
 0001:00000050       _AtlInternalQueryInterface@16 7c631050 f i RegObj.obj
 0001:00000180       _InlineIsEqualGUID         7c631180 f i RegObj.obj
 0001:000001e0       ?InlineIsEqualUnknown@ATL@@YGHABU_GUID@@@Z 7c6311e0 f i RegObj.obj
 0001:00000230       _AtlWinModuleAddCreateWndData@12 7c631230 f i RegObj.obj
 0001:000002c0       ?_AtlRaiseException@ATL@@YAXKK@Z 7c6312c0 f i RegObj.obj
 0001:000002e0       _AtlWinModuleExtractCreateWndData@4 7c6312e0 f i RegObj.obj
 0001:000003b0       _AtlWinModuleRegisterClassExW@8 7c6313b0 f i RegObj.obj
 0001:00000400       _AtlWinModuleRegisterWndClassInfoW@16 7c631400 f i RegObj.obj
 0001:00000430       ?Add@?$CSimpleArray@GV?$CSimpleArrayEqualHelper@G@ATL@@@ATL@@QAEHABG@Z 7c631430 f i RegObj.obj
 0001:00000530       ?AtlThrowImpl@ATL@@YGXJ@Z  7c631530 f i RegObj.obj
 0001:00000570       ?InternalSetAtIndex@?$CSimpleArray@GV?$CSimpleArrayEqualHelper@G@ATL@@@ATL@@QAEXHABG@Z 7c631570 f i RegObj.obj
 0001:000005c0       ??0Wrapper@?$CSimpleArray@GV?$CSimpleArrayEqualHelper@G@ATL@@@ATL@@QAE@ABG@Z 7c6315c0 f i RegObj.obj
 0001:000005e0       ??0?$CComCritSecLock@VCComCriticalSection@ATL@@@ATL@@QAE@AAVCComCriticalSection@1@_N@Z 7c6315e0 f i RegObj.obj
 0001:00000630       ??1?$CComCritSecLock@VCComCriticalSection@ATL@@@ATL@@QAE@XZ 7c631630 f i RegObj.obj
 0001:00000650       ?Unlock@?$CComCritSecLock@VCComCriticalSection@ATL@@@ATL@@QAEXXZ 7c631650 f i RegObj.obj
 0001:00000670       ?Unlock@CComCriticalSection@ATL@@QAEJXZ 7c631670 f i RegObj.obj
 0001:00000690       ?Lock@?$CComCritSecLock@VCComCriticalSection@ATL@@@ATL@@QAEJXZ 7c631690 f i RegObj.obj
 0001:000006c0       ?Lock@CComCriticalSection@ATL@@QAEJXZ 7c6316c0 f i RegObj.obj
 0001:000006e0       ??$AtlModuleRegisterWndClassInfoT@VAtlModuleRegisterWndClassInfoParamW@ATL@@@ATL@@YAGPAU_ATL_BASE_MODULE70@0@PAU_ATL_WIN_MODULE70@0@PAU_ATL_WNDCLASSINFOW@0@PAP6GJPAUHWND__@@IIJ@ZVAtlModuleRegisterWndClassInfoParamW@0@@Z 7c6316e0 f i RegObj.obj
 0001:000008f0       ?GetClassInfoExW@AtlModuleRegisterWndClassInfoParamW@ATL@@SAHPAUHINSTANCE__@@PB_WPAUtagWNDCLASSEXW@@@Z 7c6318f0 f i RegObj.obj
 0001:00000910       ?FormatWindowClassName@AtlModuleRegisterWndClassInfoParamW@ATL@@SAXPA_WKPAX@Z 7c631910 f i RegObj.obj
 0001:00000960       ?AtlCrtErrorCheck@ATL@@YAHH@Z 7c631960 f i RegObj.obj
 0001:00000a10       ?ui64tow_s@Checked@ATL@@YAX_KPA_WIH@Z 7c631a10 f i RegObj.obj
 0001:00000a40       ?LoadCursorW@AtlModuleRegisterWndClassInfoParamW@ATL@@SAPAUHICON__@@PAUHINSTANCE__@@PB_W@Z 7c631a40 f i RegObj.obj
 0001:00000a60       ?RegisterClassExW@AtlModuleRegisterWndClassInfoParamW@ATL@@SAGPAU_ATL_WIN_MODULE70@2@PBUtagWNDCLASSEXW@@@Z 7c631a60 f i RegObj.obj
 0001:00000a80       ??$?2G@Wrapper@?$CSimpleArray@GV?$CSimpleArrayEqualHelper@G@ATL@@@ATL@@SAPAXIPAG@Z 7c631a80 f i RegObj.obj
 0001:00000a80       ??$?2PA_W@?$Wrapper@PA_W@?$CSimpleMap@PA_WPA_WVCExpansionVectorEqualHelper@ATL@@@ATL@@SAPAXIPAPA_W@Z 7c631a80 f i atl.obj
 0001:00000a90       ?UpdateRegistry@CDLLRegObject@@SGJH@Z 7c631a90 f i atl.obj
 0001:00000b60       _DllMain@12                7c631b60 f   atl.obj
 0001:00000c20       _AtlCreateRegistrar@4      7c631c20 f   atl.obj
 0001:00000c50       _AtlUpdateRegistryFromResourceD@20 7c631c50 f i atl.obj
 0001:00001080       ?GetWndCaption@?$CWindowImpl@VCAxUIWindow@ATL@@VCWindow@2@V?$CWinTraits@$0FGAAAAAA@$0A@@2@@ATL@@SAPB_WXZ 7c632080 f i stdafx.obj
 0001:00001080       ?GetObjectDescription@?$CComCoClass@VCDLLRegObject@@$1?CLSID_Registrar@@3U_GUID@@B@ATL@@SGPB_WXZ 7c632080 f i atl.obj
 0001:00001080       ?GetWndCaption@?$CWindowImpl@VCAxFrameWindow@ATL@@VCWindow@2@V?$CWinTraits@$0FGAAAAAA@$0A@@2@@ATL@@SAPB_WXZ 7c632080 f i stdafx.obj
 0001:00001080       ?GetWndClassName@CWindow@ATL@@SAPB_WXZ 7c632080 f i stdafx.obj
 0001:00001080       ?GetInvalidValue@_AtlCreateDialogIndirectParamHelper@ATL@@SAPAUHWND__@@XZ 7c632080 f i stdafx.obj
 0001:00001080       ?GetCategoryMap@CComObjectRootBase@ATL@@SAPBU_ATL_CATMAP_ENTRY@2@XZ 7c632080 f i atl.obj
 0001:00001090       ?CreateInstance@?$CComCreator@V?$CComObjectCached@VCComClassFactory@ATL@@@ATL@@@ATL@@SGJPAXABU_GUID@@PAPAX@Z 7c632090 f i atl.obj
 0001:000011b0       ?_AtlInitialConstruct@?$CComObjectRootEx@VCComMultiThreadModel@ATL@@@ATL@@QAEJXZ 7c6321b0 f i atl.obj
 0001:000011d0       ?CreateInstance@?$CComCreator2@V?$CComCreator@V?$CComObject@VCDLLRegObject@@@ATL@@@ATL@@V?$CComFailCreator@$0?HPPLPOPA@@2@@ATL@@SGJPAXABU_GUID@@PAPAX@Z 7c6321d0 f i atl.obj
 0001:00001210       ??_G?$CComObjectCached@VCComClassFactory@ATL@@@ATL@@QAEPAXI@Z 7c632210 f i atl.obj
 0001:00001240       ??0?$CComObjectCached@VCComClassFactory@ATL@@@ATL@@QAE@PAX@Z 7c632240 f i atl.obj
 0001:00001270       ??1?$CComObjectCached@VCComClassFactory@ATL@@@ATL@@QAE@XZ 7c632270 f i atl.obj
 0001:000012b0       ?AddRef@?$CComObjectCached@VCComClassFactory@ATL@@@ATL@@UAGKXZ 7c6322b0 f i atl.obj
 0001:000012f0       ?Release@?$CComObjectCached@VCComClassFactory@ATL@@@ATL@@UAGKXZ 7c6322f0 f i atl.obj
 0001:00001360       ?QueryInterface@?$CComObjectCached@VCComClassFactory@ATL@@@ATL@@UAGJABU_GUID@@PAPAX@Z 7c632360 f i atl.obj
 0001:00001380       ?CreateInstance@?$CComCreator@V?$CComObject@VCDLLRegObject@@@ATL@@@ATL@@SGJPAXABU_GUID@@PAPAX@Z 7c632380 f i atl.obj
 0001:000014a0       ?FinalConstruct@CDLLRegObject@@QAEJXZ 7c6324a0 f i atl.obj
 0001:000014d0       ?CreateInstance@?$CComFailCreator@$0?HPPLPOPA@@ATL@@SGJPAXABU_GUID@@PAPAX@Z 7c6324d0 f i atl.obj
 0001:00001500       ??0CComClassFactory@ATL@@QAE@XZ 7c632500 f i atl.obj
 0001:00001530       ??0?$CComObject@VCDLLRegObject@@@ATL@@QAE@PAX@Z 7c632530 f i atl.obj
 0001:00001570       ??0CDLLRegObject@@QAE@XZ   7c632570 f i atl.obj
 0001:000015a0       ??0CRegObject@ATL@@QAE@XZ  7c6325a0 f i atl.obj
 0001:000015d0       ??0CExpansionVector@ATL@@QAE@XZ 7c6325d0 f i atl.obj
 0001:000015f0       ??0?$CSimpleMap@PA_WPA_WVCExpansionVectorEqualHelper@ATL@@@ATL@@QAE@XZ 7c6325f0 f i atl.obj
 0001:00001620       ?AddRef@?$CComObject@VCDLLRegObject@@@ATL@@UAGKXZ 7c632620 f i atl.obj
 0001:00001640       ?Release@?$CComObject@VCDLLRegObject@@@ATL@@UAGKXZ 7c632640 f i atl.obj
 0001:00001690       ?QueryInterface@?$CComObject@VCDLLRegObject@@@ATL@@UAGJABU_GUID@@PAPAX@Z 7c632690 f i atl.obj
 0001:000016b0       ?_InternalQueryInterface@CDLLRegObject@@QAEJABU_GUID@@PAPAX@Z 7c6326b0 f i atl.obj
 0001:000016e0       ?_GetEntries@CDLLRegObject@@SGPBU_ATL_INTMAP_ENTRY@ATL@@XZ 7c6326e0 f i atl.obj
 0001:000016f0       ??_E?$CComObject@VCDLLRegObject@@@ATL@@UAEPAXI@Z 7c6326f0 f i atl.obj
 0001:000016f0       ??_G?$CComObject@VCDLLRegObject@@@ATL@@UAEPAXI@Z 7c6326f0 f i atl.obj
 0001:00001720       ??1?$CComObject@VCDLLRegObject@@@ATL@@UAE@XZ 7c632720 f i atl.obj
 0001:00001770       ??1CDLLRegObject@@UAE@XZ   7c632770 f i atl.obj
 0001:000017b0       ?FinalRelease@CDLLRegObject@@QAEXXZ 7c6327b0 f i atl.obj
 0001:000017d0       ?CreateInstance@?$CComObject@VCDLLRegObject@@@ATL@@SGJPAPAV12@@Z 7c6327d0 f i atl.obj
 0001:000018e0       ?_AtlGetConversionACP@ATL@@YGIXZ 7c6328e0 f i atl.obj
 0001:000018f0       ?ocslen@@YAHPB_W@Z         7c6328f0 f i atl.obj
 0001:00001900       ?ocscpy_s@@YA_NPA_WIPB_W@Z 7c632900 f i atl.obj
 0001:00001940       ?Init@CComSafeDeleteCriticalSection@ATL@@QAEJXZ 7c632940 f i atl.obj
 0001:00001970       ?Init@CComCriticalSection@ATL@@QAEJXZ 7c632970 f i atl.obj
 0001:00001a10       ?AtlHresultFromLastError@ATL@@YAJXZ 7c632a10 f i atl.obj
 0001:00001a50       ?AtlHresultFromWin32@ATL@@YAJK@Z 7c632a50 f i atl.obj
 0001:00001a90       ?EscapeSingleQuote@CAtlModule@ATL@@SAXPA_WIPB_W@Z 7c632a90 f i atl.obj
 0001:00001b30       ??1?$CComPtr@UIViewObjectEx@@@ATL@@QAE@XZ 7c632b30 f i stdafx.obj
 0001:00001b30       ??1?$CComPtr@UIRegistrar@@@ATL@@QAE@XZ 7c632b30 f i atl.obj
 0001:00001b30       ??1?$CComPtr@UIServiceProvider@@@ATL@@QAE@XZ 7c632b30 f i stdafx.obj
 0001:00001b30       ??1?$CComPtr@UIConnectionPoint@@@ATL@@QAE@XZ 7c632b30 f i stdafx.obj
 0001:00001b30       ??1?$CComPtr@UITypeLib@@@ATL@@QAE@XZ 7c632b30 f i stdafx.obj
 0001:00001b30       ??1?$CComPtr@UIWebBrowser2@@@ATL@@QAE@XZ 7c632b30 f i stdafx.obj
 0001:00001b30       ??1?$CComPtr@UIDocHostUIHandlerDispatch@@@ATL@@QAE@XZ 7c632b30 f i stdafx.obj
 0001:00001b30       ??1?$CComPtr@UIPersistStreamInit@@@ATL@@QAE@XZ 7c632b30 f i stdafx.obj
 0001:00001b30       ??1?$CComPtr@UICreateErrorInfo@@@ATL@@QAE@XZ 7c632b30 f i stdafx.obj
 0001:00001b30       ??1?$CComPtr@UIAxWinHostWindow@@@ATL@@QAE@XZ 7c632b30 f i stdafx.obj
 0001:00001b30       ??1?$CComPtr@UIObjectWithSite@@@ATL@@QAE@XZ 7c632b30 f i stdafx.obj
 0001:00001b30       ??1?$CComPtr@UIErrorInfo@@@ATL@@QAE@XZ 7c632b30 f i stdafx.obj
 0001:00001b30       ??1?$CComPtr@UIClassFactory2@@@ATL@@QAE@XZ 7c632b30 f i stdafx.obj
 0001:00001b30       ??1?$CComPtr@UIFontDisp@@@ATL@@QAE@XZ 7c632b30 f i stdafx.obj
 0001:00001b30       ??1?$CComPtr@UIOleInPlaceFrame@@@ATL@@QAE@XZ 7c632b30 f i stdafx.obj
 0001:00001b30       ??1?$CComPtr@UIOleInPlaceObjectWindowless@@@ATL@@QAE@XZ 7c632b30 f i stdafx.obj
 0001:00001b30       ??1?$CComPtr@UIStream@@@ATL@@QAE@XZ 7c632b30 f i stdafx.obj
 0001:00001b30       ??1?$CComPtr@UITypeInfo@@@ATL@@QAE@XZ 7c632b30 f i stdafx.obj
 0001:00001b30       ??1?$CComPtr@UIProvideClassInfo2@@@ATL@@QAE@XZ 7c632b30 f i stdafx.obj
 0001:00001b30       ??1?$CComPtr@UIPersist@@@ATL@@QAE@XZ 7c632b30 f i stdafx.obj
 0001:00001b30       ??1?$CComPtr@UIAdviseSink@@@ATL@@QAE@XZ 7c632b30 f i stdafx.obj
 0001:00001b30       ??1?$CComPtr@UIConnectionPointContainer@@@ATL@@QAE@XZ 7c632b30 f i stdafx.obj
 0001:00001b30       ??1?$CComPtr@UIOleInPlaceActiveObject@@@ATL@@QAE@XZ 7c632b30 f i stdafx.obj
 0001:00001b30       ??1?$CComPtr@UIOleObject@@@ATL@@QAE@XZ 7c632b30 f i stdafx.obj
 0001:00001b30       ??1?$CComPtr@UIUnknown@@@ATL@@QAE@XZ 7c632b30 f i stdafx.obj
 0001:00001b30       ??1?$CComPtr@UIPersistStream@@@ATL@@QAE@XZ 7c632b30 f i stdafx.obj
 0001:00001b30       ??1?$CComPtr@UIAxWinHostWindowLic@@@ATL@@QAE@XZ 7c632b30 f i stdafx.obj
 0001:00001b30       ??1?$CComPtr@UIDispatch@@@ATL@@QAE@XZ 7c632b30 f i stdafx.obj
 0001:00001b30       ??1?$CComPtr@UITypeInfo2@@@ATL@@QAE@XZ 7c632b30 f i stdafx.obj
 0001:00001b30       ??1?$CComPtr@UICatRegister@@@ATL@@QAE@XZ 7c632b30 f i stdafx.obj
 0001:00001b30       ??1?$CComPtr@UIOleControl@@@ATL@@QAE@XZ 7c632b30 f i stdafx.obj
 0001:00001b30       ??1?$CComPtr@UIOleClientSite@@@ATL@@QAE@XZ 7c632b30 f i stdafx.obj
 0001:00001b30       ??1?$CComPtr@UIOleInPlaceUIWindow@@@ATL@@QAE@XZ 7c632b30 f i stdafx.obj
 0001:00001b50       ?AtlModuleUpdateRegistryFromResourceD@ATL@@YAJPAU_ATL_MODULE70@1@PB_WHPAU_ATL_REGMAP_ENTRY@1@PAUIRegistrar@@@Z 7c632b50 f i atl.obj
 0001:00001b80       ?GetModuleInstance@CAtlBaseModule@ATL@@QAEPAUHINSTANCE__@@XZ 7c632b80 f i atl.obj
 0001:00001b80       ?GetSize@?$CSimpleArray@GV?$CSimpleArrayEqualHelper@G@ATL@@@ATL@@QBEHXZ 7c632b80 f i stdafx.obj
 0001:00001ba0       ?Init@CComModule@ATL@@QAEJPAU_ATL_OBJMAP_ENTRY30@2@PAUHINSTANCE__@@PBU_GUID@@@Z 7c632ba0 f i atl.obj
 0001:00001c50       ?Term@CComModule@ATL@@QAEXXZ 7c632c50 f i atl.obj
 0001:00001cf0       ?Term@CAtlModule@ATL@@QAEXXZ 7c632cf0 f i atl.obj
 0001:00001d70       ?Term@CComCriticalSection@ATL@@QAEJXZ 7c632d70 f i atl.obj
 0001:00001d90       _AtlCallTermFunc@4         7c632d90 f i atl.obj
 0001:00001e00       ?InternalQueryInterface@CComObjectRootBase@ATL@@SGJPAXPBU_ATL_INTMAP_ENTRY@2@ABU_GUID@@PAPAX@Z 7c632e00 f i atl.obj
 0001:00001e30       ?SetVoid@CComObjectRootBase@ATL@@QAEXPAX@Z 7c632e30 f i atl.obj
 0001:00001e30       ?OnFinalMessage@?$CWindowImplBaseT@VCWindow@ATL@@V?$CWinTraits@$0FGAAAAAA@$0A@@2@@ATL@@UAEXPAUHWND__@@@Z 7c632e30 f i stdafx.obj
 0001:00001e40       ?InternalFinalConstructRelease@CComObjectRootBase@ATL@@QAEXXZ 7c632e40 f i atl.obj
 0001:00001e50       ?_InternalQueryInterface@CComClassFactory@ATL@@QAEJABU_GUID@@PAPAX@Z 7c632e50 f i atl.obj
 0001:00001e80       ?_GetEntries@CComClassFactory@ATL@@SGPBU_ATL_INTMAP_ENTRY@2@XZ 7c632e80 f i atl.obj
 0001:00001e90       ??1CComClassFactory@ATL@@QAE@XZ 7c632e90 f i atl.obj
 0001:00001ed0       ?CreateInstance@CComClassFactory@ATL@@UAGJPAUIUnknown@@ABU_GUID@@PAPAX@Z 7c632ed0 f i atl.obj
 0001:00001f30       ?LockServer@CComClassFactory@ATL@@UAGJH@Z 7c632f30 f i atl.obj
 0001:00001f70       ?SetVoid@CComClassFactory@ATL@@QAEXPAX@Z 7c632f70 f i atl.obj
 0001:00001f90       ??1CRegObject@ATL@@UAE@XZ  7c632f90 f i atl.obj
 0001:00001fc0       ??1CExpansionVector@ATL@@QAE@XZ 7c632fc0 f i atl.obj
 0001:00001fe0       ?ClearReplacements@CExpansionVector@ATL@@QAEJXZ 7c632fe0 f i atl.obj
 0001:00002060       ?FinalConstruct@CRegObject@ATL@@QAEJXZ 7c633060 f i atl.obj
 0001:00002080       ?FileRegister@CRegObject@ATL@@UAGJPB_W@Z 7c633080 f i atl.obj
 0001:000020a0       ?FileUnregister@CRegObject@ATL@@UAGJPB_W@Z 7c6330a0 f i atl.obj
 0001:000020c0       ?StringRegister@CRegObject@ATL@@UAGJPB_W@Z 7c6330c0 f i atl.obj
 0001:000020e0       ?StringUnregister@CRegObject@ATL@@UAGJPB_W@Z 7c6330e0 f i atl.obj
 0001:00002100       ??1CComAutoDeleteCriticalSection@ATL@@QAE@XZ 7c633100 f i atl.obj
 0001:00002120       ??1CComSafeDeleteCriticalSection@ATL@@QAE@XZ 7c633120 f i atl.obj
 0001:00002150       ?AddReplacement@CRegObject@ATL@@UAGJPB_W0@Z 7c633150 f i atl.obj
 0001:000021e0       ?Lock@CComSafeDeleteCriticalSection@ATL@@QAEJXZ 7c6331e0 f i atl.obj
 0001:00002200       ?Add@CExpansionVector@ATL@@QAEHPB_W0@Z 7c633200 f i atl.obj
 0001:00002370       ?memcpy_s@Checked@ATL@@YAXPAXIPBXI@Z 7c633370 f i atl.obj
 0001:000023a0       ?ResourceRegister@CRegObject@ATL@@UAGJPB_WI0@Z 7c6333a0 f i atl.obj
 0001:00002400       ?RegisterFromResource@CRegObject@ATL@@IAEJPB_W00H@Z 7c633400 f i atl.obj
 0001:00002620       ?ResourceRegisterSz@CRegObject@ATL@@UAGJPB_W00@Z 7c633620 f i atl.obj
 0001:000026b0       ?ResourceUnregister@CRegObject@ATL@@UAGJPB_WI0@Z 7c6336b0 f i atl.obj
 0001:00002710       ?ResourceUnregisterSz@CRegObject@ATL@@UAGJPB_W00@Z 7c633710 f i atl.obj
 0001:000027a0       ?RegisterWithString@CRegObject@ATL@@IAEJPB_WH@Z 7c6337a0 f i atl.obj
 0001:00002810       ?ClearReplacements@CRegObject@ATL@@UAGJXZ 7c633810 f i atl.obj
 0001:00002850       ?CommonFileRegister@CRegObject@ATL@@IAEJPB_WH@Z 7c633850 f i atl.obj
 0001:00002a90       ??0CRegParser@ATL@@QAE@PAVCRegObject@1@@Z 7c633a90 f i atl.obj
 0001:00002ac0       ?RegisterBuffer@CRegParser@ATL@@QAEJPA_WH@Z 7c633ac0 f i atl.obj
 0001:00002c90       ?GenerateError@CRegParser@ATL@@IAEJI@Z 7c633c90 f i atl.obj
 0001:00002cb0       ?HKeyFromString@CRegParser@ATL@@KAPAUHKEY__@@PA_W@Z 7c633cb0 f i atl.obj
 0001:00002d00       ?SkipWhiteSpace@CRegParser@ATL@@IAEXXZ 7c633d00 f i atl.obj
 0001:00002d40       ?IsSpace@CRegParser@ATL@@IAEH_W@Z 7c633d40 f i atl.obj
 0001:00002da0       ?NextToken@CRegParser@ATL@@IAEJPA_W@Z 7c633da0 f i atl.obj
 0001:00002fd0       ?EndOfVar@CRegParser@ATL@@IAEHXZ 7c633fd0 f i atl.obj
 0001:00003020       ?PreProcessBuffer@CRegParser@ATL@@QAEJPA_WPAPA_W@Z 7c634020 f i atl.obj
 0001:00003230       ??0CParseBuffer@CRegParser@ATL@@QAE@H@Z 7c634230 f i atl.obj
 0001:00003290       ?AtlCoTaskMemCAlloc@ATL@@YAPAXKK@Z 7c634290 f i atl.obj
 0001:000032d0       ??$AtlMultiply@I@ATL@@YAJPAIII@Z 7c6342d0 f i atl.obj
 0001:000032d0       ??$AtlMultiply@K@ATL@@YAJPAKKK@Z 7c6342d0 f i atl.obj
 0001:00003310       ??1CParseBuffer@CRegParser@ATL@@QAE@XZ 7c634310 f i atl.obj
 0001:00003330       ?AddChar@CParseBuffer@CRegParser@ATL@@QAEHPB_W@Z 7c634330 f i atl.obj
 0001:00003360       ?Append@CParseBuffer@CRegParser@ATL@@QAEHPB_WH@Z 7c634360 f i atl.obj
 0001:00003480       ?AtlCoTaskMemRecalloc@ATL@@YAPAXPAXKK@Z 7c634480 f i atl.obj
 0001:000034c0       ?AddString@CParseBuffer@CRegParser@ATL@@QAEHPB_W@Z 7c6344c0 f i atl.obj
 0001:00003540       ?Detach@CParseBuffer@CRegParser@ATL@@QAEPA_WXZ 7c634540 f i atl.obj
 0001:00003580       ?StrFromMap@CRegObject@ATL@@QAEPB_WPA_W@Z 7c634580 f i atl.obj
 0001:000035c0       ?StrChrW@CRegParser@ATL@@KAPA_WPA_W_W@Z 7c6345c0 f i atl.obj
 0001:00003610       ?RegisterSubkeys@CRegParser@ATL@@IAEJPA_WPAUHKEY__@@HH@Z 7c634610 f i atl.obj
 0001:00003e00       ??1CRegKey@ATL@@QAE@XZ     7c634e00 f i atl.obj
 0001:00003e20       ?Detach@CWindow@ATL@@QAEPAUHWND__@@XZ 7c634e20 f i stdafx.obj
 0001:00003e20       ?Detach@?$CComPtrBase@UIUnknown@@@ATL@@QAEPAUIUnknown@@XZ 7c634e20 f i stdafx.obj
 0001:00003e20       ?Detach@?$CComPtrBase@UITypeInfo@@@ATL@@QAEPAUITypeInfo@@XZ 7c634e20 f i stdafx.obj
 0001:00003e20       ?Detach@CRegKey@ATL@@QAEPAUHKEY__@@XZ 7c634e20 f i atl.obj
 0001:00003e20       ?Detach@CComBSTR@ATL@@QAEPA_WXZ 7c634e20 f i stdafx.obj
 0001:00003e20       ?Detach@?$CAutoVectorPtr@_W@ATL@@QAEPA_WXZ 7c634e20 f i atl.obj
 0001:00003e50       ?Attach@CRegKey@ATL@@QAEXPAUHKEY__@@@Z 7c634e50 f i atl.obj
 0001:00003e50       ?Attach@?$CAutoVectorPtr@_W@ATL@@QAEXPA_W@Z 7c634e50 f i atl.obj
 0001:00003e70       ?DeleteSubKey@CRegKey@ATL@@QAEJPB_W@Z 7c634e70 f i atl.obj
 0001:00003ea0       ?DeleteValue@CRegKey@ATL@@QAEJPB_W@Z 7c634ea0 f i atl.obj
 0001:00003ed0       ?Close@CRegKey@ATL@@QAEJXZ 7c634ed0 f i atl.obj
 0001:00003f10       ?Create@CRegKey@ATL@@QAEJPAUHKEY__@@PB_WPA_WKKPAU_SECURITY_ATTRIBUTES@@PAK@Z 7c634f10 f i atl.obj
 0001:00003f80       ?Open@CRegKey@ATL@@QAEJPAUHKEY__@@PB_WK@Z 7c634f80 f i atl.obj
 0001:00003fd0       ?RecurseDeleteKey@CRegKey@ATL@@QAEJPB_W@Z 7c634fd0 f i atl.obj
 0001:000040e0       ?AddValue@CRegParser@ATL@@IAEJAAVCRegKey@2@PB_WPA_W@Z 7c6350e0 f i atl.obj
 0001:000045a0       ?SetDWORDValue@CRegKey@ATL@@QAEJPB_WK@Z 7c6355a0 f i atl.obj
 0001:000045d0       ?SetStringValue@CRegKey@ATL@@QAEJPB_W0K@Z 7c6355d0 f i atl.obj
 0001:00004630       ?SetMultiStringValue@CRegKey@ATL@@QAEJPB_W0@Z 7c635630 f i atl.obj
 0001:000046c0       ?VTFromRegType@CRegParser@ATL@@KAHPB_WAAG@Z 7c6356c0 f i atl.obj
 0001:00004780       ?ChToByte@CRegParser@ATL@@KAE_W@Z 7c635780 f i atl.obj
 0001:00004820       ?CanForceRemoveKey@CRegParser@ATL@@IAEHPB_W@Z 7c635820 f i atl.obj
 0001:00004870       ?HasSubKeys@CRegParser@ATL@@IAEHPAUHKEY__@@@Z 7c635870 f i atl.obj
 0001:000048c0       ?SkipAssignment@CRegParser@ATL@@IAEJPA_W@Z 7c6358c0 f i atl.obj
 0001:00004960       ?AtlAxWinTerm@ATL@@YAHXZ   7c635960 f i atl.obj
 0001:000049a0       ??0?$CComObjectRootEx@VCComMultiThreadModel@ATL@@@ATL@@QAE@XZ 7c6359a0 f i atl.obj
 0001:000049d0       ??0CComAutoDeleteCriticalSection@ATL@@QAE@XZ 7c6359d0 f i atl.obj
 0001:000049f0       ??0CComSafeDeleteCriticalSection@ATL@@QAE@XZ 7c6359f0 f i atl.obj
 0001:00004a10       ??0CComCriticalSection@ATL@@QAE@XZ 7c635a10 f i atl.obj
 0001:00004a30       ??1?$CAtlSafeAllocBufferManager@VCCRTAllocator@ATL@@@_ATL_SAFE_ALLOCA_IMPL@ATL@@QAE@XZ 7c635a30 f i atl.obj
 0001:00004a70       ?Free@CCRTAllocator@ATL@@SAXPAX@Z 7c635a70 f i atl.obj
 0001:00004a90       ??1?$CComObjectRootEx@VCComMultiThreadModel@ATL@@@ATL@@QAE@XZ 7c635a90 f i atl.obj
 0001:00004ab0       ?FinalRelease@CComObjectRootBase@ATL@@QAEXXZ 7c635ab0 f i atl.obj
 0001:00004ab0       ??1?$CW2CWEX@$0IA@@ATL@@QAE@XZ 7c635ab0 f i stdafx.obj
 0001:00004ab0       ?InternalFinalConstructAddRef@CComObjectRootBase@ATL@@QAEXXZ 7c635ab0 f i atl.obj
 0001:00004ab0       ??1CComCriticalSection@ATL@@QAE@XZ 7c635ab0 f i atl.obj
 0001:00004ab0       ??1CComObjectRootBase@ATL@@QAE@XZ 7c635ab0 f i atl.obj
 0001:00004ac0       ??1?$CSimpleMap@PA_WPA_WVCExpansionVectorEqualHelper@ATL@@@ATL@@QAE@XZ 7c635ac0 f i atl.obj
 0001:00004ae0       ?Add@?$CSimpleMap@PA_WPA_WVCExpansionVectorEqualHelper@ATL@@@ATL@@QAEHABQA_W0@Z 7c635ae0 f i atl.obj
 0001:00004b80       ?RemoveAll@?$CSimpleMap@PA_WPA_WVCExpansionVectorEqualHelper@ATL@@@ATL@@QAEXXZ 7c635b80 f i atl.obj
 0001:00004c00       ?Lookup@?$CSimpleMap@PA_WPA_WVCExpansionVectorEqualHelper@ATL@@@ATL@@QBEPA_WABQA_W@Z 7c635c00 f i atl.obj
 0001:00004c40       ?GetKeyAt@?$CSimpleMap@PA_WPA_WVCExpansionVectorEqualHelper@ATL@@@ATL@@QBEAAPA_WH@Z 7c635c40 f i atl.obj
 0001:00004c80       ?GetValueAt@?$CSimpleMap@PA_WPA_WVCExpansionVectorEqualHelper@ATL@@@ATL@@QBEAAPA_WH@Z 7c635c80 f i atl.obj
 0001:00004cc0       ??1?$CAutoVectorPtr@_W@ATL@@QAE@XZ 7c635cc0 f i atl.obj
 0001:00004ce0       ?Allocate@?$CTempBuffer@_W$0EAA@VCCRTAllocator@ATL@@@ATL@@QAEPA_WI@Z 7c635ce0 f i atl.obj
 0001:00004d10       ?Allocate@?$CTempBuffer@D$0EAA@VCCRTAllocator@ATL@@@ATL@@QAEPADI@Z 7c635d10 f i atl.obj
 0001:00004d40       ?Allocate@?$CTempBuffer@_W$0BAA@VCCRTAllocator@ATL@@@ATL@@QAEPA_WI@Z 7c635d40 f i atl.obj
 0001:00004d70       ??0CComObjectRootBase@ATL@@QAE@XZ 7c635d70 f i atl.obj
 0001:00004d70       ??0?$CComPtrBase@UIOleClientSite@@@ATL@@IAE@XZ 7c635d70 f i stdafx.obj
 0001:00004d70       ??0?$CComPtrBase@UIConnectionPoint@@@ATL@@IAE@XZ 7c635d70 f i stdafx.obj
 0001:00004d70       ??0?$CComPtrBase@UIStream@@@ATL@@IAE@XZ 7c635d70 f i stdafx.obj
 0001:00004d70       ??0?$CComPtrBase@UIWebBrowser2@@@ATL@@IAE@XZ 7c635d70 f i stdafx.obj
 0001:00004d70       ??0CDynamicStdCallThunk@ATL@@QAE@XZ 7c635d70 f i stdafx.obj
 0001:00004d70       ??0?$CComPtrBase@UIFontDisp@@@ATL@@IAE@XZ 7c635d70 f i stdafx.obj
 0001:00004d70       ??0?$CComPtrBase@UIViewObjectEx@@@ATL@@IAE@XZ 7c635d70 f i stdafx.obj
 0001:00004d70       ??0?$CComPtrBase@UIObjectWithSite@@@ATL@@IAE@XZ 7c635d70 f i stdafx.obj
 0001:00004d70       ??0?$CComPtrBase@UIOleInPlaceObjectWindowless@@@ATL@@IAE@XZ 7c635d70 f i stdafx.obj
 0001:00004d70       ??0?$CAtlSafeAllocBufferManager@VCCRTAllocator@ATL@@@_ATL_SAFE_ALLOCA_IMPL@ATL@@QAE@XZ 7c635d70 f i atl.obj
 0001:00004d70       ??0?$CComPtrBase@UIOleControl@@@ATL@@IAE@XZ 7c635d70 f i stdafx.obj
 0001:00004d70       ??0?$CComPtrBase@UIOleInPlaceUIWindow@@@ATL@@IAE@XZ 7c635d70 f i stdafx.obj
 0001:00004d70       ??0?$CComPtrBase@UIServiceProvider@@@ATL@@IAE@XZ 7c635d70 f i stdafx.obj
 0001:00004d70       ??0?$CComPtrBase@UIPersistStream@@@ATL@@IAE@XZ 7c635d70 f i stdafx.obj
 0001:00004d70       ??0?$CComPtrBase@UIClassFactory2@@@ATL@@IAE@XZ 7c635d70 f i stdafx.obj
 0001:00004d70       ??0?$CComPtrBase@UIRegistrar@@@ATL@@IAE@XZ 7c635d70 f i atl.obj
 0001:00004d70       ??0?$CComPtrBase@UIUnknown@@@ATL@@IAE@XZ 7c635d70 f i stdafx.obj
 0001:00004d70       ??0?$CComPtrBase@UITypeLib@@@ATL@@IAE@XZ 7c635d70 f i stdafx.obj
 0001:00004d70       ??0?$CComPtrBase@UITypeInfo2@@@ATL@@IAE@XZ 7c635d70 f i stdafx.obj
 0001:00004d70       ??0?$CComPtrBase@UIPersist@@@ATL@@IAE@XZ 7c635d70 f i stdafx.obj
 0001:00004d70       ??0?$CComPtrBase@UIOleObject@@@ATL@@IAE@XZ 7c635d70 f i stdafx.obj
 0001:00004d70       ??0?$CComPtrBase@UIErrorInfo@@@ATL@@IAE@XZ 7c635d70 f i stdafx.obj
 0001:00004d70       ??0?$CTempBuffer@E$0BAA@VCCRTAllocator@ATL@@@ATL@@QAE@XZ 7c635d70 f i atl.obj
 0001:00004d70       ??0?$CComPtrBase@UIOleInPlaceActiveObject@@@ATL@@IAE@XZ 7c635d70 f i stdafx.obj
 0001:00004d70       ??0?$CComPtrBase@UIProvideClassInfo2@@@ATL@@IAE@XZ 7c635d70 f i stdafx.obj
 0001:00004d70       ??0?$CAutoVectorPtr@_W@ATL@@QAE@XZ 7c635d70 f i atl.obj
 0001:00004d70       ??0?$CTempBuffer@_W$0BAA@VCCRTAllocator@ATL@@@ATL@@QAE@XZ 7c635d70 f i atl.obj
 0001:00004d70       ??0CRegKey@ATL@@QAE@XZ     7c635d70 f i atl.obj
 0001:00004d70       ??0?$CComPtrBase@UIDocHostUIHandlerDispatch@@@ATL@@IAE@XZ 7c635d70 f i stdafx.obj
 0001:00004d70       ??0?$CComPtrBase@UIAdviseSink@@@ATL@@IAE@XZ 7c635d70 f i stdafx.obj
 0001:00004d70       ??0CComBSTR@ATL@@QAE@XZ    7c635d70 f i stdafx.obj
 0001:00004d70       ??0?$CComPtrBase@UIOleInPlaceFrame@@@ATL@@IAE@XZ 7c635d70 f i stdafx.obj
 0001:00004d70       ??0?$CComPtrBase@UIConnectionPointContainer@@@ATL@@IAE@XZ 7c635d70 f i stdafx.obj
 0001:00004d70       ??0?$CTempBuffer@_W$0EAA@VCCRTAllocator@ATL@@@ATL@@QAE@XZ 7c635d70 f i atl.obj
 0001:00004d70       ??0?$CComPtrBase@UIAxWinHostWindowLic@@@ATL@@IAE@XZ 7c635d70 f i stdafx.obj
 0001:00004d70       ??0?$CComPtrBase@UICreateErrorInfo@@@ATL@@IAE@XZ 7c635d70 f i stdafx.obj
 0001:00004d70       ??0?$CComPtrBase@UITypeInfo@@@ATL@@IAE@XZ 7c635d70 f i stdafx.obj
 0001:00004d70       ??0?$CComPtrBase@UIPersistStreamInit@@@ATL@@IAE@XZ 7c635d70 f i stdafx.obj
 0001:00004d70       ??0?$CComPtrBase@UIAxWinHostWindow@@@ATL@@IAE@XZ 7c635d70 f i stdafx.obj
 0001:00004d70       ??0?$CComPtrBase@UIDispatch@@@ATL@@IAE@XZ 7c635d70 f i stdafx.obj
 0001:00004d70       ??0?$CComPtrBase@UICatRegister@@@ATL@@IAE@XZ 7c635d70 f i stdafx.obj
 0001:00004d70       ??0?$CTempBuffer@D$0EAA@VCCRTAllocator@ATL@@@ATL@@QAE@XZ 7c635d70 f i atl.obj
 0001:00004d90       ??1?$CTempBuffer@D$0EAA@VCCRTAllocator@ATL@@@ATL@@QAE@XZ 7c635d90 f i atl.obj
 0001:00004d90       ??1?$CTempBuffer@E$0BAA@VCCRTAllocator@ATL@@@ATL@@QAE@XZ 7c635d90 f i atl.obj
 0001:00004d90       ??1?$CTempBuffer@_W$0EAA@VCCRTAllocator@ATL@@@ATL@@QAE@XZ 7c635d90 f i atl.obj
 0001:00004d90       ??1?$CTempBuffer@_W$0BAA@VCCRTAllocator@ATL@@@ATL@@QAE@XZ 7c635d90 f i atl.obj
 0001:00004db0       ?Allocate@?$CTempBuffer@E$0BAA@VCCRTAllocator@ATL@@@ATL@@QAEPAEI@Z 7c635db0 f i atl.obj
 0001:00004de0       ?GetWndClassName@?$CAxWindowT@VCWindow@ATL@@@ATL@@SAPB_WXZ 7c635de0 f i atl.obj
 0001:00004df0       ?GetWndClassName@?$CAxWindow2T@VCWindow@ATL@@@ATL@@SAPB_WXZ 7c635df0 f i atl.obj
 0001:00004e00       ?InternalAddRef@?$CComObjectRootEx@VCComMultiThreadModel@ATL@@@ATL@@QAEKXZ 7c635e00 f i atl.obj
 0001:00004e20       ?Increment@CComMultiThreadModel@ATL@@SGKPAJ@Z 7c635e20 f i atl.obj
 0001:00004e40       ?InternalRelease@?$CComObjectRootEx@VCComMultiThreadModel@ATL@@@ATL@@QAEKXZ 7c635e40 f i atl.obj
 0001:00004e60       ?Decrement@CComMultiThreadModel@ATL@@SGKPAJ@Z 7c635e60 f i atl.obj
 0001:00004e80       ?FindKey@?$CSimpleMap@PA_WPA_WVCExpansionVectorEqualHelper@ATL@@@ATL@@QBEHABQA_W@Z 7c635e80 f i atl.obj
 0001:00004ee0       ?IsEqualKey@CExpansionVectorEqualHelper@ATL@@SA_NQA_W0@Z 7c635ee0 f i atl.obj
 0001:00004f00       ?InternalSetAtIndex@?$CSimpleMap@PA_WPA_WVCExpansionVectorEqualHelper@ATL@@@ATL@@QAEXHABQA_W0@Z 7c635f00 f i atl.obj
 0001:00004f80       ?Free@?$CAutoVectorPtr@_W@ATL@@QAEXXZ 7c635f80 f i atl.obj
 0001:00004fb0       ?AllocateBytes@?$CTempBuffer@D$0EAA@VCCRTAllocator@ATL@@@ATL@@QAEPADI@Z 7c635fb0 f i atl.obj
 0001:00004fb0       ?AllocateBytes@?$CTempBuffer@_W$0EAA@VCCRTAllocator@ATL@@@ATL@@QAEPA_WI@Z 7c635fb0 f i atl.obj
 0001:00004ff0       ?AllocateBytes@?$CTempBuffer@E$0BAA@VCCRTAllocator@ATL@@@ATL@@QAEPAEI@Z 7c635ff0 f i atl.obj
 0001:00004ff0       ?AllocateBytes@?$CTempBuffer@_W$0BAA@VCCRTAllocator@ATL@@@ATL@@QAEPA_WI@Z 7c635ff0 f i atl.obj
 0001:00005030       ?FreeHeap@?$CTempBuffer@E$0BAA@VCCRTAllocator@ATL@@@ATL@@AAEXXZ 7c636030 f i atl.obj
 0001:00005030       ?FreeHeap@?$CTempBuffer@D$0EAA@VCCRTAllocator@ATL@@@ATL@@AAEXXZ 7c636030 f i atl.obj
 0001:00005030       ?FreeHeap@?$CTempBuffer@_W$0BAA@VCCRTAllocator@ATL@@@ATL@@AAEXXZ 7c636030 f i atl.obj
 0001:00005030       ?FreeHeap@?$CTempBuffer@_W$0EAA@VCCRTAllocator@ATL@@@ATL@@AAEXXZ 7c636030 f i atl.obj
 0001:00005050       ?AllocateHeap@?$CTempBuffer@_W$0EAA@VCCRTAllocator@ATL@@@ATL@@AAEXI@Z 7c636050 f i atl.obj
 0001:00005050       ?AllocateHeap@?$CTempBuffer@_W$0BAA@VCCRTAllocator@ATL@@@ATL@@AAEXI@Z 7c636050 f i atl.obj
 0001:00005050       ?AllocateHeap@?$CTempBuffer@E$0BAA@VCCRTAllocator@ATL@@@ATL@@AAEXI@Z 7c636050 f i atl.obj
 0001:00005050       ?AllocateHeap@?$CTempBuffer@D$0EAA@VCCRTAllocator@ATL@@@ATL@@AAEXI@Z 7c636050 f i atl.obj
 0001:00005090       ?Allocate@CCRTAllocator@ATL@@SAPAXI@Z 7c636090 f i atl.obj
 0001:000050b0       ??0?$Wrapper@PA_W@?$CSimpleMap@PA_WPA_WVCExpansionVectorEqualHelper@ATL@@@ATL@@QAE@ABQA_W@Z 7c6360b0 f i atl.obj
 0001:000050d0       ??$AtlMultiplyThrow@I@ATL@@YAIII@Z 7c6360d0 f i atl.obj
 0001:00005110       ??0CComModule@ATL@@QAE@XZ  7c636110 f i atl.obj
 0001:00005140       ?Lock@CAtlModule@ATL@@UAEJXZ 7c636140 f i atl.obj
 0001:00005160       ?Unlock@CAtlModule@ATL@@UAEJXZ 7c636160 f i atl.obj
 0001:00005180       ?GetLockCount@CAtlModule@ATL@@UAEJXZ 7c636180 f i atl.obj
 0001:00005180       ?GetSize@?$CSimpleMap@PA_WPA_WVCExpansionVectorEqualHelper@ATL@@@ATL@@QBEHXZ 7c636180 f i atl.obj
 0001:000051a0       ?GetGITPtr@CAtlModule@ATL@@UAEJPAPAUIGlobalInterfaceTable@@@Z 7c6361a0 f i atl.obj
 0001:00005220       ?UpdateRegistryFromResourceD@CComModule@ATL@@UAGJPB_WHPAU_ATL_REGMAP_ENTRY@2@@Z 7c636220 f i atl.obj
 0001:00005240       ?UpdateRegistryFromResourceD@CAtlModule@ATL@@QAGJPB_WHPAU_ATL_REGMAP_ENTRY@2@@Z 7c636240 f i atl.obj
 0001:000052c0       ?UpdateRegistryFromResourceDHelper@CAtlModule@ATL@@QAGJPB_WHPAU_ATL_REGMAP_ENTRY@2@@Z 7c6362c0 f i atl.obj
 0001:000053b0       ?UpdateRegistryFromResourceD@CComModule@ATL@@UAGJIHPAU_ATL_REGMAP_ENTRY@2@@Z 7c6363b0 f i atl.obj
 0001:000053d0       ?UpdateRegistryFromResourceD@CAtlModule@ATL@@QAGJIHPAU_ATL_REGMAP_ENTRY@2@@Z 7c6363d0 f i atl.obj
 0001:000053f0       ?UpdateRegistryFromResourceS@CComModule@ATL@@UAGJIHPAU_ATL_REGMAP_ENTRY@2@@Z 7c6363f0 f i atl.obj
 0001:000053f0       ?UpdateRegistryFromResourceS@CComModule@ATL@@UAGJPB_WHPAU_ATL_REGMAP_ENTRY@2@@Z 7c6363f0 f i atl.obj
 0001:00005400       ??_GCComModule@ATL@@UAEPAXI@Z 7c636400 f i atl.obj
 0001:00005400       ??_ECComModule@ATL@@UAEPAXI@Z 7c636400 f i atl.obj
 0001:00005430       ??1CComModule@ATL@@UAE@XZ  7c636430 f i atl.obj
 0001:00005450       ??1?$CAtlModuleT@VCComModule@ATL@@@ATL@@UAE@XZ 7c636450 f i atl.obj
 0001:00005470       ??1CAtlModule@ATL@@UAE@XZ  7c636470 f i atl.obj
 0001:000054b0       ??1_ATL_MODULE70@ATL@@QAE@XZ 7c6364b0 f i atl.obj
 0001:000054d0       ??0?$CAtlModuleT@VCComModule@ATL@@@ATL@@QAE@XZ 7c6364d0 f i atl.obj
 0001:000054f0       ??0CAtlModule@ATL@@QAE@XZ  7c6364f0 f i atl.obj
 0001:00005560       ??0_ATL_MODULE70@ATL@@QAE@XZ 7c636560 f i atl.obj
 0001:00005580       ?AddCommonRGSReplacements@?$CAtlModuleT@VCComModule@ATL@@@ATL@@UAEJPAUIRegistrarBase@@@Z 7c636580 f i atl.obj
 0001:000055b0       ?InitLibId@?$CAtlModuleT@VCComModule@ATL@@@ATL@@SAXXZ 7c6365b0 f i atl.obj
 0001:000055b0       ?init@?$_CopyInterface@UIUnknown@@@ATL@@SAXPAPAUIUnknown@@@Z 7c6365b0 f i stdafx.obj
 0001:000055c0       ?GetAppId@?$CAtlModuleT@VCComModule@ATL@@@ATL@@SAPB_WXZ 7c6365c0 f i atl.obj
 0001:000055d0       _AtlDevModeW2A@8           7c6365d0 f i stdafx.obj
 0001:00005710       ?AtlW2AHelper@@YGPADPADPB_WHI@Z 7c636710 f i stdafx.obj
 0001:00005760       _AtlComQIPtrAssign@12      7c636760 f i stdafx.obj
 0001:000057c0       ??_I@YGXPAXIHP6EX0@Z@Z     7c6367c0 f i stdafx.obj
 0001:000057f0       _AtlLoadTypeLib@16         7c6367f0 f i stdafx.obj
 0001:000065a0       _AtlUnRegisterTypeLib@8    7c6375a0 f i stdafx.obj
 0001:00006670       ??1CComBSTR@ATL@@QAE@XZ    7c637670 f i stdafx.obj
 0001:00006690       _AtlRegisterTypeLib@8      7c637690 f i stdafx.obj
 0001:000067e0       ?tcsncpy_s@Checked@ATL@@YAHPA_WIPB_WI@Z 7c6377e0 f i atl.obj
 0001:000067e0       ?wcsncpy_s@Checked@ATL@@YAHPA_WIPB_WI@Z 7c6377e0 f i stdafx.obj
 0001:00006810       ?Length@CComBSTR@ATL@@QBEIXZ 7c637810 f i stdafx.obj
 0001:00006830       ?CharNextO@@YAPA_WPB_W@Z   7c637830 f i stdafx.obj
 0001:00006840       _AtlComModuleRegisterServer@12 7c637840 f i stdafx.obj
 0001:00006910       _IsEqualGUID               7c637910 f i stdafx.obj
 0001:00006930       _AtlComModuleUnregisterServer@12 7c637930 f i stdafx.obj
 0001:00006a00       _AtlRegisterClassCategoriesHelper@12 7c637a00 f i stdafx.obj
 0001:00006e70       ?wcscat_s@Checked@ATL@@YAXPA_WIPB_W@Z 7c637e70 f i stdafx.obj
 0001:00006ea0       _AtlWinModuleTerm@8        7c637ea0 f i stdafx.obj
 0001:00006f40       _AtlAdvise@16              7c637f40 f i stdafx.obj
 0001:00007000       _AtlUnadvise@12            7c638000 f i stdafx.obj
 0001:000070c0       _AtlFreeMarshalStream@4    7c6380c0 f i stdafx.obj
 0001:00007120       _AtlMarshalPtrInProc@12    7c638120 f i stdafx.obj
 0001:00007190       _AtlUnmarshalPtr@12        7c638190 f i stdafx.obj
 0001:00007200       _AtlComModuleGetClassObject@16 7c638200 f i stdafx.obj
 0001:00007360       _AtlComModuleRegisterClassObjects@12 7c638360 f i stdafx.obj
 0001:000073d0       ?RegisterClassObject@_ATL_OBJMAP_ENTRY30@ATL@@QAGJKK@Z 7c6383d0 f i stdafx.obj
 0001:00007450       _AtlComModuleRevokeClassObjects@4 7c638450 f i stdafx.obj
 0001:000074b0       ?RevokeClassObject@_ATL_OBJMAP_ENTRY30@ATL@@QAGJXZ 7c6384b0 f i stdafx.obj
 0001:000074e0       _AtlWaitWithMessageLoop@4  7c6384e0 f i stdafx.obj
 0001:000075d0       _AtlGetVersion@4           7c6385d0 f i stdafx.obj
 0001:000075e0       _AtlWinModuleInit@4        7c6385e0 f i stdafx.obj
 0001:00007630       _AtlModuleAddTermFunc@12   7c638630 f i stdafx.obj
 0001:000076f0       ??_Estringdispid@CComTypeInfoHolder@ATL@@QAEPAXI@Z 7c6386f0 f i stdafx.obj
 0001:00007760       ??1stringdispid@CComTypeInfoHolder@ATL@@QAE@XZ 7c638760 f i stdafx.obj
 0001:00007780       _AtlSetErrorInfo@28        7c638780 f i stdafx.obj
 0001:00007a10       ?tcscpy_s@Checked@ATL@@YAXPA_WIPB_W@Z 7c638a10 f i stdafx.obj
 0001:00007a10       ?wcscpy_s@Checked@ATL@@YAXPA_WIPB_W@Z 7c638a10 f i RegObj.obj
 0001:00007a40       _AtlIPersistStreamInit_Load@16 7c638a40 f i stdafx.obj
 0001:00007cd0       ?PutProperty@?$CComPtr@UIDispatch@@@ATL@@QAEJJPAUtagVARIANT@@@Z 7c638cd0 f i stdafx.obj
 0001:00007d00       ?PutProperty@?$CComPtr@UIDispatch@@@ATL@@SAJPAUIDispatch@@JPAUtagVARIANT@@@Z 7c638d00 f i stdafx.obj
 0001:00007df0       ?ReadFromStream@CComBSTR@ATL@@QAEJPAUIStream@@@Z 7c638df0 f i stdafx.obj
 0001:00007fb0       ?Empty@CComBSTR@ATL@@QAEXXZ 7c638fb0 f i stdafx.obj
 0001:00007fd0       ??7?$CComPtrBase@UIOleInPlaceUIWindow@@@ATL@@QBE_NXZ 7c638fd0 f i stdafx.obj
 0001:00007fd0       ??7?$CComPtrBase@UIOleInPlaceFrame@@@ATL@@QBE_NXZ 7c638fd0 f i stdafx.obj
 0001:00007fd0       ??7CComBSTR@ATL@@QBE_NXZ   7c638fd0 f i stdafx.obj
 0001:00007ff0       ??0CComVariant@ATL@@QAE@XZ 7c638ff0 f i stdafx.obj
 0001:00008010       ??1CComVariant@ATL@@QAE@XZ 7c639010 f i stdafx.obj
 0001:00008030       ?Clear@CComVariant@ATL@@QAEJXZ 7c639030 f i stdafx.obj
 0001:00008050       ?ReadFromStream@CComVariant@ATL@@QAEJPAUIStream@@G@Z 7c639050 f i stdafx.obj
 0001:00008080       ?ReadFromStream@CComVariant@ATL@@QAEJPAUIStream@@GTClassesAllowedInStream@2@K@Z 7c639080 f i stdafx.obj
 0001:00008300       ?ChangeType@CComVariant@ATL@@QAEJGPBUtagVARIANT@@@Z 7c639300 f i stdafx.obj
 0001:00008340       _AtlIPersistStreamInit_Save@20 7c639340 f i stdafx.obj
 0001:000085d0       ?GetProperty@?$CComPtr@UIDispatch@@@ATL@@QAEJJPAUtagVARIANT@@@Z 7c6395d0 f i stdafx.obj
 0001:00008600       ?GetProperty@?$CComPtr@UIDispatch@@@ATL@@SAJPAUIDispatch@@JPAUtagVARIANT@@@Z 7c639600 f i stdafx.obj
 0001:00008670       ?Attach@CComBSTR@ATL@@QAEXPA_W@Z 7c639670 f i stdafx.obj
 0001:000086a0       ?WriteToStream@CComBSTR@ATL@@QAEJPAUIStream@@@Z 7c6396a0 f i stdafx.obj
 0001:00008730       ?GetStreamSize@CComBSTR@ATL@@SAKPA_W@Z 7c639730 f i stdafx.obj
 0001:00008760       ?WriteToStream@CComVariant@ATL@@QAEJPAUIStream@@G@Z 7c639760 f i stdafx.obj
 0001:000087f0       ?WriteToStream@CComVariant@ATL@@QAEJPAUIStream@@@Z 7c6397f0 f i stdafx.obj
 0001:00008a70       _AtlIPersistPropertyBag_Load@20 7c639a70 f i stdafx.obj
 0001:00008df0       ?ClearToZero@CComVariant@ATL@@QAEJXZ 7c639df0 f i stdafx.obj
 0001:00008e30       _AtlIPersistPropertyBag_Save@24 7c639e30 f i stdafx.obj
 0001:00009210       _AtlGetObjectSourceInterface@20 7c63a210 f i stdafx.obj
 0001:00009680       ??_H@YGXPAXIHP6EPAX0@Z@Z   7c63a680 f i stdafx.obj
 0001:000096b0       _AtlAxDialogBoxW@20        7c63a6b0 f i stdafx.obj
 0001:000096e0       _AtlAxDialogBoxA@20        7c63a6e0 f i stdafx.obj
 0001:00009710       _AtlAxCreateDialogW@20     7c63a710 f i stdafx.obj
 0001:00009740       _AtlAxCreateDialogA@20     7c63a740 f i stdafx.obj
 0001:00009770       _AtlAxCreateControl@16     7c63a770 f i stdafx.obj
 0001:000097a0       _AtlAxCreateControlEx@28   7c63a7a0 f i stdafx.obj
 0001:000097d0       _AtlAxCreateControlLic@20  7c63a7d0 f i stdafx.obj
 0001:00009800       _AtlAxCreateControlLicEx@32 7c63a800 f i stdafx.obj
 0001:00009940       ??0CComBSTR@ATL@@QAE@PB_W@Z 7c63a940 f i stdafx.obj
 0001:00009990       _AtlAxAttachControl@12     7c63a990 f i stdafx.obj
 0001:00009a70       _AtlAxWinInit@0            7c63aa70 f i stdafx.obj
 0001:00009c90       __MarkAllocaS              7c63ac90 f i stdafx.obj
 0001:00009cb0       ?OLE2CT_EX_DEF@@YAPB_WPB_W@Z 7c63acb0 f i stdafx.obj
 0001:00009cb0       ?T2OLE_EX@@YAPA_WPA_WI@Z   7c63acb0 f i atl.obj
 0001:00009cb0       ?OLE2T_EX@@YAPA_WPA_WI@Z   7c63acb0 f i stdafx.obj
 0001:00009cb0       ?T2COLE_EX_DEF@@YAPB_WPB_W@Z 7c63acb0 f i stdafx.obj
 0001:00009cb0       ?T2OLE_EX_DEF@@YAPA_WPA_W@Z 7c63acb0 f i stdafx.obj
 0001:00009cb0       ?T2COLE_EX@@YAPB_WPB_WI@Z  7c63acb0 f i atl.obj
 0001:00009cb0       ?DEVMODEOLE2T_EX@@YAPAU_devicemodeW@@PAU1@@Z 7c63acb0 f i stdafx.obj
 0001:00009cb0       ?OLE2CT_EX@@YAPB_WPB_WI@Z  7c63acb0 f i atl.obj
 0001:00009cc0       ?SetWindowLongPtrW@@YAJPAUHWND__@@HJ@Z 7c63acc0 f i stdafx.obj
 0001:00009ce0       ?GetWindowLongPtrW@@YAJPAUHWND__@@H@Z 7c63ace0 f i stdafx.obj
 0001:00009d00       ?ParseInitData@_DialogSplitHelper@ATL@@SAJPAUIStream@@PAPA_W@Z 7c63ad00 f i stdafx.obj
 0001:00009f30       ??0CComBSTR@ATL@@QAE@H@Z   7c63af30 f i stdafx.obj
 0001:00009f80       _AtlAxGetControl@8         7c63af80 f i stdafx.obj
 0001:00009fc0       _AtlAxGetHost@8            7c63afc0 f i stdafx.obj
 0001:0000a000       _AtlWinModuleRegisterClassExA@8 7c63b000 f i stdafx.obj
 0001:0000a050       _AtlWinModuleRegisterWndClassInfoA@16 7c63b050 f i stdafx.obj
 0001:0000a080       _AtlCreateTargetDC@8       7c63b080 f i stdafx.obj
 0001:0000a190       _AtlHiMetricToPixel@8      7c63b190 f i stdafx.obj
 0001:0000a250       _AtlPixelToHiMetric@8      7c63b250 f i stdafx.obj
 0001:0000a310       ?RemoveAll@?$CSimpleArray@GV?$CSimpleArrayEqualHelper@G@ATL@@@ATL@@QAEXXZ 7c63b310 f i stdafx.obj
 0001:0000a370       ??A?$CSimpleArray@GV?$CSimpleArrayEqualHelper@G@ATL@@@ATL@@QAEAAGH@Z 7c63b370 f i stdafx.obj
 0001:0000a3b0       ??1?$CComPtrBase@UIRegistrar@@@ATL@@QAE@XZ 7c63b3b0 f i atl.obj
 0001:0000a3b0       ??1?$CComPtrBase@UIViewObjectEx@@@ATL@@QAE@XZ 7c63b3b0 f i stdafx.obj
 0001:0000a3b0       ??1?$CComPtrBase@UIServiceProvider@@@ATL@@QAE@XZ 7c63b3b0 f i stdafx.obj
 0001:0000a3b0       ??1?$CComPtrBase@UIClassFactory2@@@ATL@@QAE@XZ 7c63b3b0 f i stdafx.obj
 0001:0000a3b0       ??1?$CComPtrBase@UIOleControl@@@ATL@@QAE@XZ 7c63b3b0 f i stdafx.obj
 0001:0000a3b0       ??1?$CComPtrBase@UIUnknown@@@ATL@@QAE@XZ 7c63b3b0 f i stdafx.obj
 0001:0000a3b0       ??1?$CComPtrBase@UICatRegister@@@ATL@@QAE@XZ 7c63b3b0 f i stdafx.obj
 0001:0000a3b0       ??1?$CComPtrBase@UIOleObject@@@ATL@@QAE@XZ 7c63b3b0 f i stdafx.obj
 0001:0000a3b0       ??1?$CComPtrBase@UITypeInfo2@@@ATL@@QAE@XZ 7c63b3b0 f i stdafx.obj
 0001:0000a3b0       ??1?$CComPtrBase@UIPersistStream@@@ATL@@QAE@XZ 7c63b3b0 f i stdafx.obj
 0001:0000a3b0       ??1?$CComPtrBase@UIDispatch@@@ATL@@QAE@XZ 7c63b3b0 f i stdafx.obj
 0001:0000a3b0       ??1?$CComPtrBase@UITypeInfo@@@ATL@@QAE@XZ 7c63b3b0 f i stdafx.obj
 0001:0000a3b0       ??1?$CComPtrBase@UICreateErrorInfo@@@ATL@@QAE@XZ 7c63b3b0 f i stdafx.obj
 0001:0000a3b0       ??1?$CComPtrBase@UIObjectWithSite@@@ATL@@QAE@XZ 7c63b3b0 f i stdafx.obj
 0001:0000a3b0       ??1?$CComPtrBase@UIAdviseSink@@@ATL@@QAE@XZ 7c63b3b0 f i stdafx.obj
 0001:0000a3b0       ??1?$CComPtrBase@UIConnectionPoint@@@ATL@@QAE@XZ 7c63b3b0 f i stdafx.obj
 0001:0000a3b0       ??1?$CComPtrBase@UIPersistStreamInit@@@ATL@@QAE@XZ 7c63b3b0 f i stdafx.obj
 0001:0000a3b0       ??1?$CComPtrBase@UIOleInPlaceObjectWindowless@@@ATL@@QAE@XZ 7c63b3b0 f i stdafx.obj
 0001:0000a3b0       ??1?$CComPtrBase@UIOleInPlaceFrame@@@ATL@@QAE@XZ 7c63b3b0 f i stdafx.obj
 0001:0000a3b0       ??1?$CComPtrBase@UIOleInPlaceActiveObject@@@ATL@@QAE@XZ 7c63b3b0 f i stdafx.obj
 0001:0000a3b0       ??1?$CComPtrBase@UIOleInPlaceUIWindow@@@ATL@@QAE@XZ 7c63b3b0 f i stdafx.obj
 0001:0000a3b0       ??1?$CComPtrBase@UIConnectionPointContainer@@@ATL@@QAE@XZ 7c63b3b0 f i stdafx.obj
 0001:0000a3b0       ??1?$CComPtrBase@UIDocHostUIHandlerDispatch@@@ATL@@QAE@XZ 7c63b3b0 f i stdafx.obj
 0001:0000a3b0       ??1?$CComPtrBase@UITypeLib@@@ATL@@QAE@XZ 7c63b3b0 f i stdafx.obj
 0001:0000a3b0       ??1?$CComPtrBase@UIAxWinHostWindowLic@@@ATL@@QAE@XZ 7c63b3b0 f i stdafx.obj
 0001:0000a3b0       ??1?$CComPtrBase@UIErrorInfo@@@ATL@@QAE@XZ 7c63b3b0 f i stdafx.obj
 0001:0000a3b0       ??1?$CComPtrBase@UIStream@@@ATL@@QAE@XZ 7c63b3b0 f i stdafx.obj
 0001:0000a3b0       ??1?$CComPtrBase@UIWebBrowser2@@@ATL@@QAE@XZ 7c63b3b0 f i stdafx.obj
 0001:0000a3b0       ??1?$CComPtrBase@UIFontDisp@@@ATL@@QAE@XZ 7c63b3b0 f i stdafx.obj
 0001:0000a3b0       ??1?$CComPtrBase@UIPersist@@@ATL@@QAE@XZ 7c63b3b0 f i stdafx.obj
 0001:0000a3b0       ??1?$CComPtrBase@UIAxWinHostWindow@@@ATL@@QAE@XZ 7c63b3b0 f i stdafx.obj
 0001:0000a3b0       ??1?$CComPtrBase@UIProvideClassInfo2@@@ATL@@QAE@XZ 7c63b3b0 f i stdafx.obj
 0001:0000a3b0       ??1?$CComPtrBase@UIOleClientSite@@@ATL@@QAE@XZ 7c63b3b0 f i stdafx.obj
 0001:0000a3e0       ??0?$CComObjectRootEx@VCComSingleThreadModel@ATL@@@ATL@@QAE@XZ 7c63b3e0 f i stdafx.obj
 0001:0000a3e0       ??0?$CComPtr@UIErrorInfo@@@ATL@@QAE@XZ 7c63b3e0 f i stdafx.obj
 0001:0000a3e0       ??0?$CComPtr@UIOleClientSite@@@ATL@@QAE@XZ 7c63b3e0 f i stdafx.obj
 0001:0000a3e0       ??0?$CComPtr@UIAdviseSink@@@ATL@@QAE@XZ 7c63b3e0 f i stdafx.obj
 0001:0000a3e0       ??0?$CComPtr@UIPersistStream@@@ATL@@QAE@XZ 7c63b3e0 f i stdafx.obj
 0001:0000a3e0       ??0?$CComPtr@UIDocHostUIHandlerDispatch@@@ATL@@QAE@XZ 7c63b3e0 f i stdafx.obj
 0001:0000a3e0       ??0?$CComPtr@UIPersistStreamInit@@@ATL@@QAE@XZ 7c63b3e0 f i stdafx.obj
 0001:0000a3e0       ??0?$CComPtr@UIProvideClassInfo2@@@ATL@@QAE@XZ 7c63b3e0 f i stdafx.obj
 0001:0000a3e0       ??0?$CComPtr@UIOleInPlaceFrame@@@ATL@@QAE@XZ 7c63b3e0 f i stdafx.obj
 0001:0000a3e0       ??0?$CComPtr@UITypeInfo@@@ATL@@QAE@XZ 7c63b3e0 f i stdafx.obj
 0001:0000a3e0       ??0?$CComPtr@UIOleInPlaceUIWindow@@@ATL@@QAE@XZ 7c63b3e0 f i stdafx.obj
 0001:0000a3e0       ??0?$CComPtr@UIAxWinHostWindow@@@ATL@@QAE@XZ 7c63b3e0 f i stdafx.obj
 0001:0000a3e0       ??0?$CComPtr@UIOleInPlaceObjectWindowless@@@ATL@@QAE@XZ 7c63b3e0 f i stdafx.obj
 0001:0000a3e0       ??0?$CComPtr@UIObjectWithSite@@@ATL@@QAE@XZ 7c63b3e0 f i stdafx.obj
 0001:0000a3e0       ??0?$CComPtr@UIOleControl@@@ATL@@QAE@XZ 7c63b3e0 f i stdafx.obj
 0001:0000a3e0       ??0?$CComPtr@UICatRegister@@@ATL@@QAE@XZ 7c63b3e0 f i stdafx.obj
 0001:0000a3e0       ??0?$CComPtr@UIAxWinHostWindowLic@@@ATL@@QAE@XZ 7c63b3e0 f i stdafx.obj
 0001:0000a3e0       ??0?$CComPtr@UIOleInPlaceActiveObject@@@ATL@@QAE@XZ 7c63b3e0 f i stdafx.obj
 0001:0000a3e0       ??0?$CComPtr@UIServiceProvider@@@ATL@@QAE@XZ 7c63b3e0 f i stdafx.obj
 0001:0000a3e0       ??0?$CComPtr@UIUnknown@@@ATL@@QAE@XZ 7c63b3e0 f i stdafx.obj
 0001:0000a3e0       ??0?$CComPtr@UITypeInfo2@@@ATL@@QAE@XZ 7c63b3e0 f i stdafx.obj
 0001:0000a3e0       ??0?$CComPtr@UITypeLib@@@ATL@@QAE@XZ 7c63b3e0 f i stdafx.obj
 0001:0000a3e0       ??0?$CComPtr@UIRegistrar@@@ATL@@QAE@XZ 7c63b3e0 f i atl.obj
 0001:0000a3e0       ??0?$CComPtr@UIFontDisp@@@ATL@@QAE@XZ 7c63b3e0 f i stdafx.obj
 0001:0000a3e0       ??0?$CComPtr@UIConnectionPoint@@@ATL@@QAE@XZ 7c63b3e0 f i stdafx.obj
 0001:0000a3e0       ??0?$CComPtr@UIPersist@@@ATL@@QAE@XZ 7c63b3e0 f i stdafx.obj
 0001:0000a3e0       ??0?$CComPtr@UIClassFactory2@@@ATL@@QAE@XZ 7c63b3e0 f i stdafx.obj
 0001:0000a3e0       ??0?$CComPtr@UIConnectionPointContainer@@@ATL@@QAE@XZ 7c63b3e0 f i stdafx.obj
 0001:0000a3e0       ??0?$CComPtr@UICreateErrorInfo@@@ATL@@QAE@XZ 7c63b3e0 f i stdafx.obj
 0001:0000a3e0       ??0?$CComPtr@UIStream@@@ATL@@QAE@XZ 7c63b3e0 f i stdafx.obj
 0001:0000a3e0       ??0?$CComPtr@UIViewObjectEx@@@ATL@@QAE@XZ 7c63b3e0 f i stdafx.obj
 0001:0000a3e0       ??0?$CComPtr@UIDispatch@@@ATL@@QAE@XZ 7c63b3e0 f i stdafx.obj
 0001:0000a3e0       ??0?$CComPtr@UIOleObject@@@ATL@@QAE@XZ 7c63b3e0 f i stdafx.obj
 0001:0000a3e0       ??0?$CComPtr@UIWebBrowser2@@@ATL@@QAE@XZ 7c63b3e0 f i stdafx.obj
 0001:0000a400       ??1?$CAutoStackPtr@_W@ATL@@QAE@XZ 7c63b400 f i stdafx.obj
 0001:0000a420       ?CreateInstance@?$CComCreator@V?$CComPolyObject@VCAxHostWindow@ATL@@@ATL@@@ATL@@SGJPAXABU_GUID@@PAPAX@Z 7c63b420 f i stdafx.obj
 0001:0000a540       ??B?$CComPtrBase@UIServiceProvider@@@ATL@@QBEPAUIServiceProvider@@XZ 7c63b540 f i stdafx.obj
 0001:0000a540       ??C?$CComPtrBase@UITypeLib@@@ATL@@QBEPAV?$_NoAddRefReleaseOnCComPtr@UITypeLib@@@1@XZ 7c63b540 f i stdafx.obj
 0001:0000a540       ??C?$CComPtrBase@UIDispatch@@@ATL@@QBEPAV?$_NoAddRefReleaseOnCComPtr@UIDispatch@@@1@XZ 7c63b540 f i stdafx.obj
 0001:0000a540       ??C?$CComPtrBase@UIServiceProvider@@@ATL@@QBEPAV?$_NoAddRefReleaseOnCComPtr@UIServiceProvider@@@1@XZ 7c63b540 f i stdafx.obj
 0001:0000a540       ??C?$CComPtrBase@UIOleControl@@@ATL@@QBEPAV?$_NoAddRefReleaseOnCComPtr@UIOleControl@@@1@XZ 7c63b540 f i stdafx.obj
 0001:0000a540       ??B?$CComPtrBase@UIViewObjectEx@@@ATL@@QBEPAUIViewObjectEx@@XZ 7c63b540 f i stdafx.obj
 0001:0000a540       ??C?$CComPtrBase@UIOleObject@@@ATL@@QBEPAV?$_NoAddRefReleaseOnCComPtr@UIOleObject@@@1@XZ 7c63b540 f i stdafx.obj
 0001:0000a540       ??BCComBSTR@ATL@@QBEPA_WXZ 7c63b540 f i stdafx.obj
 0001:0000a540       ??C?$CComPtrBase@UIUnknown@@@ATL@@QBEPAV?$_NoAddRefReleaseOnCComPtr@UIUnknown@@@1@XZ 7c63b540 f i stdafx.obj
 0001:0000a540       ??B?$CComPtrBase@UIPersistStream@@@ATL@@QBEPAUIPersistStream@@XZ 7c63b540 f i stdafx.obj
 0001:0000a540       ??C?$CComPtrBase@UICreateErrorInfo@@@ATL@@QBEPAV?$_NoAddRefReleaseOnCComPtr@UICreateErrorInfo@@@1@XZ 7c63b540 f i stdafx.obj
 0001:0000a540       ??C?$CComPtrBase@UIAxWinHostWindowLic@@@ATL@@QBEPAV?$_NoAddRefReleaseOnCComPtr@UIAxWinHostWindowLic@@@1@XZ 7c63b540 f i stdafx.obj
 0001:0000a540       ??B?$CComPtrBase@UIOleClientSite@@@ATL@@QBEPAUIOleClientSite@@XZ 7c63b540 f i stdafx.obj
 0001:0000a540       ??B?$CComPtrBase@UIUnknown@@@ATL@@QBEPAUIUnknown@@XZ 7c63b540 f i stdafx.obj
 0001:0000a540       ??C?$CComPtrBase@UIOleInPlaceActiveObject@@@ATL@@QBEPAV?$_NoAddRefReleaseOnCComPtr@UIOleInPlaceActiveObject@@@1@XZ 7c63b540 f i stdafx.obj
 0001:0000a540       ??C?$CComPtrBase@UIOleInPlaceObjectWindowless@@@ATL@@QBEPAV?$_NoAddRefReleaseOnCComPtr@UIOleInPlaceObjectWindowless@@@1@XZ 7c63b540 f i stdafx.obj
 0001:0000a540       ??B?$CComPtrBase@UITypeLib@@@ATL@@QBEPAUITypeLib@@XZ 7c63b540 f i stdafx.obj
 0001:0000a540       ??B?$CComPtrBase@UIOleInPlaceActiveObject@@@ATL@@QBEPAUIOleInPlaceActiveObject@@XZ 7c63b540 f i stdafx.obj
 0001:0000a540       ??B?$CW2CWEX@$0IA@@ATL@@QBEPB_WXZ 7c63b540 f i stdafx.obj
 0001:0000a540       ??C?$CComPtrBase@UIConnectionPoint@@@ATL@@QBEPAV?$_NoAddRefReleaseOnCComPtr@UIConnectionPoint@@@1@XZ 7c63b540 f i stdafx.obj
 0001:0000a540       ??C?$CComPtrBase@UIProvideClassInfo2@@@ATL@@QBEPAV?$_NoAddRefReleaseOnCComPtr@UIProvideClassInfo2@@@1@XZ 7c63b540 f i stdafx.obj
 0001:0000a540       ??C?$CComPtrBase@UIClassFactory2@@@ATL@@QBEPAV?$_NoAddRefReleaseOnCComPtr@UIClassFactory2@@@1@XZ 7c63b540 f i stdafx.obj
 0001:0000a540       ??B?$CComPtrBase@UIOleObject@@@ATL@@QBEPAUIOleObject@@XZ 7c63b540 f i stdafx.obj
 0001:0000a540       ??B?$CComPtrBase@UIStream@@@ATL@@QBEPAUIStream@@XZ 7c63b540 f i stdafx.obj
 0001:0000a540       ??B?$CComPtrBase@UITypeInfo@@@ATL@@QBEPAUITypeInfo@@XZ 7c63b540 f i stdafx.obj
 0001:0000a540       ??C?$CComPtrBase@UIPersist@@@ATL@@QBEPAV?$_NoAddRefReleaseOnCComPtr@UIPersist@@@1@XZ 7c63b540 f i stdafx.obj
 0001:0000a540       ??B?$CComPtrBase@UIPersistStreamInit@@@ATL@@QBEPAUIPersistStreamInit@@XZ 7c63b540 f i stdafx.obj
 0001:0000a540       ??B?$CAutoStackPtr@_W@ATL@@QBEPA_WXZ 7c63b540 f i stdafx.obj
 0001:0000a540       ??B?$CComPtrBase@UIFontDisp@@@ATL@@QBEPAUIFontDisp@@XZ 7c63b540 f i stdafx.obj
 0001:0000a540       ??C?$CComPtrBase@UITypeInfo@@@ATL@@QBEPAV?$_NoAddRefReleaseOnCComPtr@UITypeInfo@@@1@XZ 7c63b540 f i stdafx.obj
 0001:0000a540       ??C?$CComPtrBase@UIAxWinHostWindow@@@ATL@@QBEPAV?$_NoAddRefReleaseOnCComPtr@UIAxWinHostWindow@@@1@XZ 7c63b540 f i stdafx.obj
 0001:0000a540       ??C?$CComPtrBase@UIWebBrowser2@@@ATL@@QBEPAV?$_NoAddRefReleaseOnCComPtr@UIWebBrowser2@@@1@XZ 7c63b540 f i stdafx.obj
 0001:0000a540       ??C?$CComPtrBase@UIDocHostUIHandlerDispatch@@@ATL@@QBEPAV?$_NoAddRefReleaseOnCComPtr@UIDocHostUIHandlerDispatch@@@1@XZ 7c63b540 f i stdafx.obj
 0001:0000a540       ??B?$CTempBuffer@_W$0EAA@VCCRTAllocator@ATL@@@ATL@@QBEPA_WXZ 7c63b540 f i atl.obj
 0001:0000a540       ??B?$CComPtrBase@UITypeInfo2@@@ATL@@QBEPAUITypeInfo2@@XZ 7c63b540 f i stdafx.obj
 0001:0000a540       ??B?$CComPtrBase@UIDispatch@@@ATL@@QBEPAUIDispatch@@XZ 7c63b540 f i stdafx.obj
 0001:0000a540       ??C?$CComPtrBase@UIViewObjectEx@@@ATL@@QBEPAV?$_NoAddRefReleaseOnCComPtr@UIViewObjectEx@@@1@XZ 7c63b540 f i stdafx.obj
 0001:0000a540       ??C?$CComPtrBase@UIObjectWithSite@@@ATL@@QBEPAV?$_NoAddRefReleaseOnCComPtr@UIObjectWithSite@@@1@XZ 7c63b540 f i stdafx.obj
 0001:0000a540       ??C?$CComPtrBase@UICatRegister@@@ATL@@QBEPAV?$_NoAddRefReleaseOnCComPtr@UICatRegister@@@1@XZ 7c63b540 f i stdafx.obj
 0001:0000a540       ??B?$CComPtrBase@UIRegistrar@@@ATL@@QBEPAUIRegistrar@@XZ 7c63b540 f i atl.obj
 0001:0000a540       ??B?$CTempBuffer@E$0BAA@VCCRTAllocator@ATL@@@ATL@@QBEPAEXZ 7c63b540 f i atl.obj
 0001:0000a540       ??B?$CTempBuffer@D$0EAA@VCCRTAllocator@ATL@@@ATL@@QBEPADXZ 7c63b540 f i atl.obj
 0001:0000a540       ??B?$CComPtrBase@UIOleInPlaceObjectWindowless@@@ATL@@QBEPAUIOleInPlaceObjectWindowless@@XZ 7c63b540 f i stdafx.obj
 0001:0000a540       ??C?$CComPtrBase@UIConnectionPointContainer@@@ATL@@QBEPAV?$_NoAddRefReleaseOnCComPtr@UIConnectionPointContainer@@@1@XZ 7c63b540 f i stdafx.obj
 0001:0000a540       ??BCWindow@ATL@@QBEPAUHWND__@@XZ 7c63b540 f i stdafx.obj
 0001:0000a540       ??B?$CTempBuffer@_W$0BAA@VCCRTAllocator@ATL@@@ATL@@QBEPA_WXZ 7c63b540 f i atl.obj
 0001:0000a540       ??C?$CComPtrBase@UIPersistStreamInit@@@ATL@@QBEPAV?$_NoAddRefReleaseOnCComPtr@UIPersistStreamInit@@@1@XZ 7c63b540 f i stdafx.obj
 0001:0000a540       ??B?$CComPtrBase@UIDocHostUIHandlerDispatch@@@ATL@@QBEPAUIDocHostUIHandlerDispatch@@XZ 7c63b540 f i stdafx.obj
 0001:0000a540       ??B?$CComPtrBase@UIWebBrowser2@@@ATL@@QBEPAUIWebBrowser2@@XZ 7c63b540 f i stdafx.obj
 0001:0000a540       ??C?$CComPtrBase@UIPersistStream@@@ATL@@QBEPAV?$_NoAddRefReleaseOnCComPtr@UIPersistStream@@@1@XZ 7c63b540 f i stdafx.obj
 0001:0000a540       ??B?$CComPtrBase@UIAdviseSink@@@ATL@@QBEPAUIAdviseSink@@XZ 7c63b540 f i stdafx.obj
 0001:0000a540       ??C?$CComPtrBase@UIRegistrar@@@ATL@@QBEPAV?$_NoAddRefReleaseOnCComPtr@UIRegistrar@@@1@XZ 7c63b540 f i atl.obj
 0001:0000a540       ??B?$CComPtrBase@UIErrorInfo@@@ATL@@QBEPAUIErrorInfo@@XZ 7c63b540 f i stdafx.obj
 0001:0000a540       ??BCRegKey@ATL@@QBEPAUHKEY__@@XZ 7c63b540 f i atl.obj
 0001:0000a550       ?Free@?$CAutoStackPtr@_W@ATL@@QAEXXZ 7c63b550 f i stdafx.obj
 0001:0000a580       __freea                    7c63b580 f i stdafx.obj
 0001:0000a5c0       ??0?$CComPolyObject@VCAxHostWindow@ATL@@@ATL@@QAE@PAX@Z 7c63b5c0 f i stdafx.obj
 0001:0000a630       ?_AtlInitialConstruct@?$CComPolyObject@VCAxHostWindow@ATL@@@ATL@@QAEJXZ 7c63b630 f i stdafx.obj
 0001:0000a670       ?FinalConstruct@CComObjectRootBase@ATL@@QAEJXZ 7c63b670 f i atl.obj
 0001:0000a670       ?_AtlInitialConstruct@?$CComObjectRootEx@VCComSingleThreadModel@ATL@@@ATL@@QAEJXZ 7c63b670 f i stdafx.obj
 0001:0000a670       ?_AtlFinalConstruct@CComObjectRootBase@ATL@@QAEJXZ 7c63b670 f i atl.obj
 0001:0000a680       ?FinalConstruct@?$CComPolyObject@VCAxHostWindow@ATL@@@ATL@@QAEJXZ 7c63b680 f i stdafx.obj
 0001:0000a6c0       ?InternalAddRef@?$CComObjectRootEx@VCComSingleThreadModel@ATL@@@ATL@@QAEKXZ 7c63b6c0 f i stdafx.obj
 0001:0000a6e0       ?Increment@CComSingleThreadModel@ATL@@SGKPAJ@Z 7c63b6e0 f i stdafx.obj
 0001:0000a700       ?InternalRelease@?$CComObjectRootEx@VCComSingleThreadModel@ATL@@@ATL@@QAEKXZ 7c63b700 f i stdafx.obj
 0001:0000a720       ?Decrement@CComSingleThreadModel@ATL@@SGKPAJ@Z 7c63b720 f i stdafx.obj
 0001:0000a740       ?AddRef@?$CComPolyObject@VCAxHostWindow@ATL@@@ATL@@UAGKXZ 7c63b740 f i stdafx.obj
 0001:0000a760       ?Release@?$CComPolyObject@VCAxHostWindow@ATL@@@ATL@@UAGKXZ 7c63b760 f i stdafx.obj
 0001:0000a7b0       ?QueryInterface@?$CComPolyObject@VCAxHostWindow@ATL@@@ATL@@UAGJABU_GUID@@PAPAX@Z 7c63b7b0 f i stdafx.obj
 0001:0000a820       ?_InternalQueryInterface@CAxHostWindow@ATL@@QAEJABU_GUID@@PAPAX@Z 7c63b820 f i stdafx.obj
 0001:0000a850       ?_GetEntries@CAxHostWindow@ATL@@SGPBU_ATL_INTMAP_ENTRY@2@XZ 7c63b850 f i stdafx.obj
 0001:0000a860       ??_G?$CComPolyObject@VCAxHostWindow@ATL@@@ATL@@UAEPAXI@Z 7c63b860 f i stdafx.obj
 0001:0000a860       ??_E?$CComPolyObject@VCAxHostWindow@ATL@@@ATL@@UAEPAXI@Z 7c63b860 f i stdafx.obj
 0001:0000a890       ??1?$CComPolyObject@VCAxHostWindow@ATL@@@ATL@@UAE@XZ 7c63b890 f i stdafx.obj
 0001:0000a900       ??1?$CComObjectRootEx@VCComSingleThreadModel@ATL@@@ATL@@QAE@XZ 7c63b900 f i stdafx.obj
 0001:0000a920       ??1?$CComContainedObject@VCAxHostWindow@ATL@@@ATL@@UAE@XZ 7c63b920 f i stdafx.obj
 0001:0000a940       ??1CAxHostWindow@ATL@@UAE@XZ 7c63b940 f i stdafx.obj
 0001:0000aa60       ??1?$CWindowImplBaseT@VCWindow@ATL@@V?$CWinTraits@$0FGAAAAAA@$0A@@2@@ATL@@UAE@XZ 7c63ba60 f i stdafx.obj
 0001:0000aa80       ??1?$CWindowImplRoot@VCWindow@ATL@@@ATL@@UAE@XZ 7c63ba80 f i stdafx.obj
 0001:0000aaa0       ??1?$IObjectWithSiteImpl@VCAxHostWindow@ATL@@@ATL@@UAE@XZ 7c63baa0 f i stdafx.obj
 0001:0000aac0       ??1?$IDispatchImpl@UIAxWinAmbientDispatchEx@@$1?_GUID_b2d0778b_ac99_4c58_a5c8_e7724e5316b5@@3U__s_GUID@@B$1?m_libid@CAtlModule@ATL@@2U_GUID@@A$0PPPP@$0PPPP@VCComTypeInfoHolder@ATL@@@ATL@@UAE@XZ 7c63bac0 f i stdafx.obj
 0001:0000aae0       ??1CComTypeInfoHolder@ATL@@QAE@XZ 7c63bae0 f i stdafx.obj
 0001:0000ab50       ??1CWndProcThunk@ATL@@QAE@XZ 7c63bb50 f i stdafx.obj
 0001:0000ab70       ??1CDynamicStdCallThunk@ATL@@QAE@XZ 7c63bb70 f i stdafx.obj
 0001:0000aba0       ??3_stdcallthunk@ATL@@SAXPAX@Z 7c63bba0 f i stdafx.obj
 0001:0000abb0       ?FinalRelease@?$CComPolyObject@VCAxHostWindow@ATL@@@ATL@@QAEXXZ 7c63bbb0 f i stdafx.obj
 0001:0000abe0       ?FinalRelease@CAxHostWindow@ATL@@QAEXXZ 7c63bbe0 f i stdafx.obj
 0001:0000ac00       ?ReleaseAll@CAxHostWindow@ATL@@QAEXXZ 7c63bc00 f i stdafx.obj
 0001:0000aeb0       ??8?$CComPtrBase@UIOleControl@@@ATL@@QBE_NPAUIOleControl@@@Z 7c63beb0 f i stdafx.obj
 0001:0000aeb0       ??8?$CComPtrBase@UIViewObjectEx@@@ATL@@QBE_NPAUIViewObjectEx@@@Z 7c63beb0 f i stdafx.obj
 0001:0000aeb0       ??8?$CComPtrBase@UIDispatch@@@ATL@@QBE_NPAUIDispatch@@@Z 7c63beb0 f i stdafx.obj
 0001:0000aeb0       ??8?$CComPtrBase@UIOleObject@@@ATL@@QBE_NPAUIOleObject@@@Z 7c63beb0 f i stdafx.obj
 0001:0000aeb0       ??8?$CComPtrBase@UIRegistrar@@@ATL@@QBE_NPAUIRegistrar@@@Z 7c63beb0 f i atl.obj
 0001:0000aeb0       ??8?$CComPtrBase@UIPersistStream@@@ATL@@QBE_NPAUIPersistStream@@@Z 7c63beb0 f i stdafx.obj
 0001:0000aeb0       ??8?$CComPtrBase@UIDocHostUIHandlerDispatch@@@ATL@@QBE_NPAUIDocHostUIHandlerDispatch@@@Z 7c63beb0 f i stdafx.obj
 0001:0000aeb0       ??8?$CComPtrBase@UIObjectWithSite@@@ATL@@QBE_NPAUIObjectWithSite@@@Z 7c63beb0 f i stdafx.obj
 0001:0000aeb0       ??8?$CComPtrBase@UIProvideClassInfo2@@@ATL@@QBE_NPAUIProvideClassInfo2@@@Z 7c63beb0 f i stdafx.obj
 0001:0000aeb0       ??8?$CComPtrBase@UIUnknown@@@ATL@@QBE_NPAUIUnknown@@@Z 7c63beb0 f i stdafx.obj
 0001:0000aeb0       ??8?$CComPtrBase@UIFontDisp@@@ATL@@QBE_NPAUIFontDisp@@@Z 7c63beb0 f i stdafx.obj
 0001:0000aeb0       ??8?$CComPtrBase@UIOleInPlaceActiveObject@@@ATL@@QBE_NPAUIOleInPlaceActiveObject@@@Z 7c63beb0 f i stdafx.obj
 0001:0000aeb0       ??8?$CComPtrBase@UIOleClientSite@@@ATL@@QBE_NPAUIOleClientSite@@@Z 7c63beb0 f i stdafx.obj
 0001:0000aed0       ??0?$CComContainedObject@VCAxHostWindow@ATL@@@ATL@@QAE@PAX@Z 7c63bed0 f i stdafx.obj
 0001:0000af60       ??0CAxHostWindow@ATL@@QAE@XZ 7c63bf60 f i stdafx.obj
 0001:0000b230       ?OnFinalMessage@CAxHostWindow@ATL@@UAEXPAUHWND__@@@Z 7c63c230 f i stdafx.obj
 0001:0000b260       ?ProcessWindowMessage@CAxHostWindow@ATL@@UAEHPAUHWND__@@IIJAAJK@Z 7c63c260 f i stdafx.obj
 0001:0000bb40       ?OnForwardMsg@CAxHostWindow@ATL@@QAEJIIJAAH@Z 7c63cb40 f i stdafx.obj
 0001:0000bbc0       ?OnGetUnknown@CAxHostWindow@ATL@@QAEJIIJAAH@Z 7c63cbc0 f i stdafx.obj
 0001:0000bbf0       ?OnGetControl@CAxHostWindow@ATL@@QAEJIIJAAH@Z 7c63cbf0 f i stdafx.obj
 0001:0000bc30       ?OnEraseBackground@CAxHostWindow@ATL@@QAEJIIJAAH@Z 7c63cc30 f i stdafx.obj
 0001:0000bc70       ?OnMouseActivate@CAxHostWindow@ATL@@QAEJIIJAAH@Z 7c63cc70 f i stdafx.obj
 0001:0000bd70       ?OnSetFocus@CAxHostWindow@ATL@@QAEJIIJAAH@Z 7c63cd70 f i stdafx.obj
 0001:0000bec0       ?IsChild@CWindow@ATL@@QBEHPAUHWND__@@@Z 7c63cec0 f i stdafx.obj
 0001:0000bee0       ?OnKillFocus@CAxHostWindow@ATL@@QAEJIIJAAH@Z 7c63cee0 f i stdafx.obj
 0001:0000bf10       ?OnSize@CAxHostWindow@ATL@@QAEJIIJAAH@Z 7c63cf10 f i stdafx.obj
 0001:0000c070       ?OnDestroy@CAxHostWindow@ATL@@QAEJIIJAAH@Z 7c63d070 f i stdafx.obj
 0001:0000c0d0       ?OnWindowMessage@CAxHostWindow@ATL@@QAEJIIJAAH@Z 7c63d0d0 f i stdafx.obj
 0001:0000c170       ?OnWindowlessMouseMessage@CAxHostWindow@ATL@@QAEJIIJAAH@Z 7c63d170 f i stdafx.obj
 0001:0000c200       ?OnPaint@CAxHostWindow@ATL@@QAEJIIJAAH@Z 7c63d200 f i stdafx.obj
 0001:0000c500       ?GetClientRect@CWindow@ATL@@QBEHPAUtagRECT@@@Z 7c63d500 f i stdafx.obj
 0001:0000c520       ?CreateControl@CAxHostWindow@ATL@@UAGJPB_WPAUHWND__@@PAUIStream@@@Z 7c63d520 f i stdafx.obj
 0001:0000c570       ?CreateControlEx@CAxHostWindow@ATL@@UAGJPB_WPAUHWND__@@PAUIStream@@PAPAUIUnknown@@ABU_GUID@@PAU5@@Z 7c63d570 f i stdafx.obj
 0001:0000c5a0       ?AttachControl@CAxHostWindow@ATL@@UAGJPAUIUnknown@@PAUHWND__@@@Z 7c63d5a0 f i stdafx.obj
 0001:0000c680       ?RedrawWindow@CWindow@ATL@@QAEHPBUtagRECT@@PAUHRGN__@@I@Z 7c63d680 f i stdafx.obj
 0001:0000c6b0       ?QueryControl@CAxHostWindow@ATL@@UAGJABU_GUID@@PAPAX@Z 7c63d6b0 f i stdafx.obj
 0001:0000c720       ?SetExternalDispatch@CAxHostWindow@ATL@@UAGJPAUIDispatch@@@Z 7c63d720 f i stdafx.obj
 0001:0000c740       ?SetExternalUIHandler@CAxHostWindow@ATL@@UAGJPAUIDocHostUIHandlerDispatch@@@Z 7c63d740 f i stdafx.obj
 0001:0000c760       ?CreateControlLic@CAxHostWindow@ATL@@UAGJPB_WPAUHWND__@@PAUIStream@@PA_W@Z 7c63d760 f i stdafx.obj
 0001:0000c7b0       ?CreateControlLicEx@CAxHostWindow@ATL@@UAGJPB_WPAUHWND__@@PAUIStream@@PAPAUIUnknown@@ABU_GUID@@PAU5@PA_W@Z 7c63d7b0 f i stdafx.obj
 0001:0000cc90       ??0CComVariant@ATL@@QAE@PB_W@Z 7c63dc90 f i stdafx.obj
 0001:0000ccc0       ??4CComVariant@ATL@@QAEAAV01@PB_W@Z 7c63dcc0 f i stdafx.obj
 0001:0000cd30       ?GetStyle@CWindow@ATL@@QBEKXZ 7c63dd30 f i stdafx.obj
 0001:0000cd50       ?SetWindowLongW@CWindow@ATL@@QAEJHJ@Z 7c63dd50 f i stdafx.obj
 0001:0000cd80       ?SetWindowPos@CWindow@ATL@@QAEHPAUHWND__@@HHHHI@Z 7c63dd80 f i stdafx.obj
 0001:0000cdc0       ?IsParentDialog@CWindow@ATL@@QAEHXZ 7c63ddc0 f i stdafx.obj
 0001:0000ce20       ?GetParent@CWindow@ATL@@QBE?AV12@XZ 7c63de20 f i stdafx.obj
 0001:0000ce50       ?FindOneOf@CAtlModule@ATL@@SAPB_WPB_W0@Z 7c63de50 f i stdafx.obj
 0001:0000cec0       ?ShowContextMenu@CAxHostWindow@ATL@@UAGJKPAUtagPOINT@@PAUIUnknown@@PAUIDispatch@@@Z 7c63dec0 f i stdafx.obj
 0001:0000cf40       ?GetHostInfo@CAxHostWindow@ATL@@UAGJPAU_DOCHOSTUIINFO@@@Z 7c63df40 f i stdafx.obj
 0001:0000cfc0       ?ShowUI@CAxHostWindow@ATL@@UAGJKPAUIOleInPlaceActiveObject@@PAUIOleCommandTarget@@PAUIOleInPlaceFrame@@PAUIOleInPlaceUIWindow@@@Z 7c63dfc0 f i stdafx.obj
 0001:0000d030       ?HideUI@CAxHostWindow@ATL@@UAGJXZ 7c63e030 f i stdafx.obj
 0001:0000d080       ?UpdateUI@CAxHostWindow@ATL@@UAGJXZ 7c63e080 f i stdafx.obj
 0001:0000d0d0       ?EnableModeless@CAxHostWindow@ATL@@UAGJH@Z 7c63e0d0 f i stdafx.obj
 0001:0000d130       ?OnDocWindowActivate@CAxHostWindow@ATL@@UAGJH@Z 7c63e130 f i stdafx.obj
 0001:0000d190       ?OnFrameWindowActivate@CAxHostWindow@ATL@@UAGJH@Z 7c63e190 f i stdafx.obj
 0001:0000d1f0       ?ResizeBorder@CAxHostWindow@ATL@@UAGJPBUtagRECT@@PAUIOleInPlaceUIWindow@@H@Z 7c63e1f0 f i stdafx.obj
 0001:0000d260       ?TranslateAcceleratorW@CAxHostWindow@ATL@@UAGJPAUtagMSG@@PBU_GUID@@K@Z 7c63e260 f i stdafx.obj
 0001:0000d2f0       ??0CComBSTR@ATL@@QAE@ABU_GUID@@@Z 7c63e2f0 f i stdafx.obj
 0001:0000d370       ?GetOptionKeyPath@CAxHostWindow@ATL@@UAGJPAPA_WK@Z 7c63e370 f i stdafx.obj
 0001:0000d470       ?ByteLength@CComBSTR@ATL@@QBEIXZ 7c63e470 f i stdafx.obj
 0001:0000d490       ?GetDropTarget@CAxHostWindow@ATL@@UAGJPAUIDropTarget@@PAPAU3@@Z 7c63e490 f i stdafx.obj
 0001:0000d570       ?GetExternal@CAxHostWindow@ATL@@UAGJPAPAUIDispatch@@@Z 7c63e570 f i stdafx.obj
 0001:0000d610       ?TranslateUrl@CAxHostWindow@ATL@@UAGJKPA_WPAPA_W@Z 7c63e610 f i stdafx.obj
 0001:0000d720       ?FilterDataObject@CAxHostWindow@ATL@@UAGJPAUIDataObject@@PAPAU3@@Z 7c63e720 f i stdafx.obj
 0001:0000d7e0       ?Invoke@CAxHostWindow@ATL@@UAGJJABU_GUID@@KGPAUtagDISPPARAMS@@PAUtagVARIANT@@PAUtagEXCEPINFO@@PAI@Z 7c63e7e0 f i stdafx.obj
 0001:0000d8b0       ?FireAmbientPropertyChange@CAxHostWindow@ATL@@QAEJJ@Z 7c63e8b0 f i stdafx.obj
 0001:0000d920       ?put_AllowWindowlessActivation@CAxHostWindow@ATL@@UAGJF@Z 7c63e920 f i stdafx.obj
 0001:0000d950       ?get_AllowWindowlessActivation@CAxHostWindow@ATL@@UAGJPAF@Z 7c63e950 f i stdafx.obj
 0001:0000d980       ?put_BackColor@CAxHostWindow@ATL@@UAGJK@Z 7c63e980 f i stdafx.obj
 0001:0000d9c0       ?get_BackColor@CAxHostWindow@ATL@@UAGJPAK@Z 7c63e9c0 f i stdafx.obj
 0001:0000d9f0       ?put_ForeColor@CAxHostWindow@ATL@@UAGJK@Z 7c63e9f0 f i stdafx.obj
 0001:0000da20       ?get_ForeColor@CAxHostWindow@ATL@@UAGJPAK@Z 7c63ea20 f i stdafx.obj
 0001:0000da50       ?put_LocaleID@CAxHostWindow@ATL@@UAGJK@Z 7c63ea50 f i stdafx.obj
 0001:0000da80       ?get_LocaleID@CAxHostWindow@ATL@@UAGJPAK@Z 7c63ea80 f i stdafx.obj
 0001:0000dab0       ?put_UserMode@CAxHostWindow@ATL@@UAGJF@Z 7c63eab0 f i stdafx.obj
 0001:0000daf0       ?get_UserMode@CAxHostWindow@ATL@@UAGJPAF@Z 7c63eaf0 f i stdafx.obj
 0001:0000db20       ?put_DisplayAsDefault@CAxHostWindow@ATL@@UAGJF@Z 7c63eb20 f i stdafx.obj
 0001:0000db60       ?get_DisplayAsDefault@CAxHostWindow@ATL@@UAGJPAF@Z 7c63eb60 f i stdafx.obj
 0001:0000db90       ?put_Font@CAxHostWindow@ATL@@UAGJPAUIFontDisp@@@Z 7c63eb90 f i stdafx.obj
 0001:0000dbc0       ?get_Font@CAxHostWindow@ATL@@UAGJPAPAUIFontDisp@@@Z 7c63ebc0 f i stdafx.obj
 0001:0000de10       ?put_MessageReflect@CAxHostWindow@ATL@@UAGJF@Z 7c63ee10 f i stdafx.obj
 0001:0000de50       ?get_MessageReflect@CAxHostWindow@ATL@@UAGJPAF@Z 7c63ee50 f i stdafx.obj
 0001:0000de80       ?get_ShowGrabHandles@CAxHostWindow@ATL@@UAGJPAF@Z 7c63ee80 f i stdafx.obj
 0001:0000dea0       ?get_ShowHatching@CAxHostWindow@ATL@@UAGJPAF@Z 7c63eea0 f i stdafx.obj
 0001:0000dec0       ?put_DocHostFlags@CAxHostWindow@ATL@@UAGJK@Z 7c63eec0 f i stdafx.obj
 0001:0000def0       ?get_DocHostFlags@CAxHostWindow@ATL@@UAGJPAK@Z 7c63eef0 f i stdafx.obj
 0001:0000df20       ?put_DocHostDoubleClickFlags@CAxHostWindow@ATL@@UAGJK@Z 7c63ef20 f i stdafx.obj
 0001:0000df40       ?get_DocHostDoubleClickFlags@CAxHostWindow@ATL@@UAGJPAK@Z 7c63ef40 f i stdafx.obj
 0001:0000df70       ?put_AllowContextMenu@CAxHostWindow@ATL@@UAGJF@Z 7c63ef70 f i stdafx.obj
 0001:0000dfa0       ?get_AllowContextMenu@CAxHostWindow@ATL@@UAGJPAF@Z 7c63efa0 f i stdafx.obj
 0001:0000dfd0       ?put_AllowShowUI@CAxHostWindow@ATL@@UAGJF@Z 7c63efd0 f i stdafx.obj
 0001:0000e000       ?get_AllowShowUI@CAxHostWindow@ATL@@UAGJPAF@Z 7c63f000 f i stdafx.obj
 0001:0000e030       ?put_OptionKeyPath@CAxHostWindow@ATL@@UAGJPA_W@Z 7c63f030 f i stdafx.obj
 0001:0000e050       ??4CComBSTR@ATL@@QAEAAV01@PB_W@Z 7c63f050 f i stdafx.obj
 0001:0000e0b0       ?get_OptionKeyPath@CAxHostWindow@ATL@@UAGJPAPA_W@Z 7c63f0b0 f i stdafx.obj
 0001:0000e0e0       ?SetAmbientDispatch@CAxHostWindow@ATL@@UAGJPAUIDispatch@@@Z 7c63f0e0 f i stdafx.obj
 0001:0000e100       ?SetSite@CAxHostWindow@ATL@@UAGJPAUIUnknown@@@Z 7c63f100 f i stdafx.obj
 0001:0000e180       ?GetContainer@CAxHostWindow@ATL@@UAGJPAPAUIOleContainer@@@Z 7c63f180 f i stdafx.obj
 0001:0000e210       ?ShowObject@CAxHostWindow@ATL@@UAGJXZ 7c63f210 f i stdafx.obj
 0001:0000e2a0       ?GetDC@CWindow@ATL@@QAEPAUHDC__@@XZ 7c63f2a0 f i stdafx.obj
 0001:0000e2c0       ?ReleaseDC@CWindow@ATL@@QAEHPAUHDC__@@@Z 7c63f2c0 f i stdafx.obj
 0001:0000e2e0       ?OnShowWindow@CAxHostWindow@ATL@@UAGJH@Z 7c63f2e0 f i stdafx.obj
 0001:0000e2e0       ?ContextSensitiveHelp@CAxHostWindow@ATL@@UAGJH@Z 7c63f2e0 f i stdafx.obj
 0001:0000e2f0       ?GetWindow@CAxHostWindow@ATL@@UAGJPAPAUHWND__@@@Z 7c63f2f0 f i stdafx.obj
 0001:0000e330       ?OnInPlaceActivate@CAxHostWindow@ATL@@UAGJXZ 7c63f330 f i stdafx.obj
 0001:0000e3b0       ?OnUIActivate@CAxHostWindow@ATL@@UAGJXZ 7c63f3b0 f i stdafx.obj
 0001:0000e3d0       ?GetWindowContext@CAxHostWindow@ATL@@UAGJPAPAUIOleInPlaceFrame@@PAPAUIOleInPlaceUIWindow@@PAUtagRECT@@2PAUtagOIFI@@@Z 7c63f3d0 f i stdafx.obj
 0001:0000e5a0       ?Scroll@CAxHostWindow@ATL@@UAGJUtagSIZE@@@Z 7c63f5a0 f i stdafx.obj
 0001:0000e5b0       ?OnUIDeactivate@CAxHostWindow@ATL@@UAGJH@Z 7c63f5b0 f i stdafx.obj
 0001:0000e5d0       ?OnInPlaceDeactivate@CAxHostWindow@ATL@@UAGJXZ 7c63f5d0 f i stdafx.obj
 0001:0000e600       ?DeactivateAndUndo@CAxHostWindow@ATL@@UAGJXZ 7c63f600 f i stdafx.obj
 0001:0000e600       ?DiscardUndoState@CAxHostWindow@ATL@@UAGJXZ 7c63f600 f i stdafx.obj
 0001:0000e600       ?SaveObject@CAxHostWindow@ATL@@UAGJXZ 7c63f600 f i stdafx.obj
 0001:0000e600       ?ShowPropertyFrame@CAxHostWindow@ATL@@UAGJXZ 7c63f600 f i stdafx.obj
 0001:0000e600       ?RequestNewObjectLayout@CAxHostWindow@ATL@@UAGJXZ 7c63f600 f i stdafx.obj
 0001:0000e610       ?OnPosRectChange@CAxHostWindow@ATL@@UAGJPBUtagRECT@@@Z 7c63f610 f i stdafx.obj
 0001:0000e6b0       ?MoveWindow@CWindow@ATL@@QAEHPBUtagRECT@@H@Z 7c63f6b0 f i stdafx.obj
 0001:0000e700       ?ClientToScreen@CWindow@ATL@@QBEHPAUtagRECT@@@Z 7c63f700 f i stdafx.obj
 0001:0000e740       ?ScreenToClient@CWindow@ATL@@QBEHPAUtagRECT@@@Z 7c63f740 f i stdafx.obj
 0001:0000e780       ?OnInPlaceActivateEx@CAxHostWindow@ATL@@UAGJPAHK@Z 7c63f780 f i stdafx.obj
 0001:0000e8a0       ?OnInPlaceDeactivateEx@CAxHostWindow@ATL@@UAGJH@Z 7c63f8a0 f i stdafx.obj
 0001:0000e8d0       ?CanWindowlessActivate@CAxHostWindow@ATL@@UAGJXZ 7c63f8d0 f i stdafx.obj
 0001:0000e8f0       ?GetCapture@CAxHostWindow@ATL@@UAGJXZ 7c63f8f0 f i stdafx.obj
 0001:0000e910       ?SetCapture@CAxHostWindow@ATL@@UAGJH@Z 7c63f910 f i stdafx.obj
 0001:0000e960       ?SetCapture@CWindow@ATL@@QAEPAUHWND__@@XZ 7c63f960 f i stdafx.obj
 0001:0000e980       ?GetFocus@CAxHostWindow@ATL@@UAGJXZ 7c63f980 f i stdafx.obj
 0001:0000e9a0       ?SetFocus@CAxHostWindow@ATL@@UAGJH@Z 7c63f9a0 f i stdafx.obj
 0001:0000e9d0       ?GetDC@CAxHostWindow@ATL@@UAGJPBUtagRECT@@KPAPAUHDC__@@@Z 7c63f9d0 f i stdafx.obj
 0001:0000eb00       ?ReleaseDC@CAxHostWindow@ATL@@UAGJPAUHDC__@@@Z 7c63fb00 f i stdafx.obj
 0001:0000eb80       ?InvalidateRect@CAxHostWindow@ATL@@UAGJPBUtagRECT@@H@Z 7c63fb80 f i stdafx.obj
 0001:0000eba0       ?InvalidateRect@CWindow@ATL@@QAEHPBUtagRECT@@H@Z 7c63fba0 f i stdafx.obj
 0001:0000ebd0       ?InvalidateRgn@CAxHostWindow@ATL@@UAGJPAUHRGN__@@H@Z 7c63fbd0 f i stdafx.obj
 0001:0000ebf0       ?InvalidateRgn@CWindow@ATL@@QAEXPAUHRGN__@@H@Z 7c63fbf0 f i stdafx.obj
 0001:0000ec20       ?ScrollRect@CAxHostWindow@ATL@@UAGJHHPBUtagRECT@@0@Z 7c63fc20 f i stdafx.obj
 0001:0000ec30       ?SetBorderSpace@CAxFrameWindow@ATL@@UAGJPBUtagRECT@@@Z 7c63fc30 f i stdafx.obj
 0001:0000ec30       ?SetBorderSpace@CAxUIWindow@ATL@@UAGJPBUtagRECT@@@Z 7c63fc30 f i stdafx.obj
 0001:0000ec30       ?EnableModeless@CAxFrameWindow@ATL@@UAGJH@Z 7c63fc30 f i stdafx.obj
 0001:0000ec30       ?SetStatusText@CAxFrameWindow@ATL@@UAGJPB_W@Z 7c63fc30 f i stdafx.obj
 0001:0000ec30       ?GetBorder@CAxFrameWindow@ATL@@UAGJPAUtagRECT@@@Z 7c63fc30 f i stdafx.obj
 0001:0000ec30       ?GetBorder@CAxUIWindow@ATL@@UAGJPAUtagRECT@@@Z 7c63fc30 f i stdafx.obj
 0001:0000ec30       ?ContextSensitiveHelp@CAxUIWindow@ATL@@UAGJH@Z 7c63fc30 f i stdafx.obj
 0001:0000ec30       ?RemoveMenus@CAxFrameWindow@ATL@@UAGJPAUHMENU__@@@Z 7c63fc30 f i stdafx.obj
 0001:0000ec30       ?ContextSensitiveHelp@CAxFrameWindow@ATL@@UAGJH@Z 7c63fc30 f i stdafx.obj
 0001:0000ec30       ?LockInPlaceActive@CAxHostWindow@ATL@@UAGJH@Z 7c63fc30 f i stdafx.obj
 0001:0000ec30       ?AdjustRect@CAxHostWindow@ATL@@UAGJPAUtagRECT@@@Z 7c63fc30 f i stdafx.obj
 0001:0000ec40       ?OnDefWindowMessage@CAxHostWindow@ATL@@UAGJIIJPAJ@Z 7c63fc40 f i stdafx.obj
 0001:0000ec70       ?CanInPlaceActivate@CAxHostWindow@ATL@@UAGJXZ 7c63fc70 f i stdafx.obj
 0001:0000ec70       ?OnControlInfoChanged@CAxHostWindow@ATL@@UAGJXZ 7c63fc70 f i stdafx.obj
 0001:0000ec70       ?UpdateRegistry@CAxHostWindow@ATL@@SGJH@Z 7c63fc70 f i atl.obj
 0001:0000ec70       ?RequestUIActivate@CAxHostWindow@ATL@@UAGJXZ 7c63fc70 f i stdafx.obj
 0001:0000ec80       ?GetExtendedControl@CAxHostWindow@ATL@@UAGJPAPAUIDispatch@@@Z 7c63fc80 f i stdafx.obj
 0001:0000ecb0       ?GetMoniker@CAxHostWindow@ATL@@UAGJKKPAPAUIMoniker@@@Z 7c63fcb0 f i stdafx.obj
 0001:0000ecb0       ?TransformCoords@CAxHostWindow@ATL@@UAGJPAU_POINTL@@PAUtagPOINTF@@K@Z 7c63fcb0 f i stdafx.obj
 0001:0000ecc0       ?TranslateAcceleratorW@CAxFrameWindow@ATL@@UAGJPAUtagMSG@@G@Z 7c63fcc0 f i stdafx.obj
 0001:0000ecc0       ?TranslateAcceleratorW@CAxHostWindow@ATL@@UAGJPAUtagMSG@@K@Z 7c63fcc0 f i stdafx.obj
 0001:0000ecd0       ?OnFocus@CAxHostWindow@ATL@@UAGJH@Z 7c63fcd0 f i stdafx.obj
 0001:0000ed00       ?OnViewChange@CAxHostWindow@ATL@@UAGXKJ@Z 7c63fd00 f i stdafx.obj
 0001:0000ed00       ?OnDataChange@CAxHostWindow@ATL@@UAGXPAUtagFORMATETC@@PAUtagSTGMEDIUM@@@Z 7c63fd00 f i stdafx.obj
 0001:0000ed10       ?OnRename@CAxHostWindow@ATL@@UAGXPAUIMoniker@@@Z 7c63fd10 f i stdafx.obj
 0001:0000ed20       ?OnSave@CAxHostWindow@ATL@@UAGXXZ 7c63fd20 f i stdafx.obj
 0001:0000ed20       ?ObjectMain@CComObjectRootBase@ATL@@SGX_N@Z 7c63fd20 f i atl.obj
 0001:0000ed20       ?OnClose@CAxHostWindow@ATL@@UAGXXZ 7c63fd20 f i stdafx.obj
 0001:0000ed30       ?ParseDisplayName@CAxHostWindow@ATL@@UAGJPAUIBindCtx@@PA_WPAKPAPAUIMoniker@@@Z 7c63fd30 f i stdafx.obj
 0001:0000ed40       ?EnumObjects@CAxHostWindow@ATL@@UAGJKPAPAUIEnumUnknown@@@Z 7c63fd40 f i stdafx.obj
 0001:0000ee40       ?LockContainer@CAxHostWindow@ATL@@UAGJH@Z 7c63fe40 f i stdafx.obj
 0001:0000ee70       ?ActivateAx@CAxHostWindow@ATL@@QAEJPAUIUnknown@@_NPAUIStream@@@Z 7c63fe70 f i stdafx.obj
 0001:0000f490       ?SubclassWindow@CAxHostWindow@ATL@@QAEXPAUHWND__@@@Z 7c640490 f i stdafx.obj
 0001:0000f4d0       ?ReleaseWindow@CAxHostWindow@ATL@@QAEXXZ 7c6404d0 f i stdafx.obj
 0001:0000f520       ?ReflectNotifications@CAxHostWindow@ATL@@QAEJIIJAAH@Z 7c640520 f i stdafx.obj
 0001:0000f770       ?GetDlgItem@CWindow@ATL@@QBE?AV12@H@Z 7c640770 f i stdafx.obj
 0001:0000f7a0       ?QueryService@CAxHostWindow@ATL@@UAGJABU_GUID@@0PAPAX@Z 7c6407a0 f i stdafx.obj
 0001:0000f820       ??0?$CWindowImpl@VCAxUIWindow@ATL@@VCWindow@2@V?$CWinTraits@$0FGAAAAAA@$0A@@2@@ATL@@QAE@XZ 7c640820 f i stdafx.obj
 0001:0000f820       ??0?$CWindowImpl@VCAxFrameWindow@ATL@@VCWindow@2@V?$CWinTraits@$0FGAAAAAA@$0A@@2@@ATL@@QAE@XZ 7c640820 f i stdafx.obj
 0001:0000f820       ??0?$CWindowImpl@VCAxHostWindow@ATL@@VCWindow@2@V?$CWinTraits@$0FGAAAAAA@$0A@@2@@ATL@@QAE@XZ 7c640820 f i stdafx.obj
 0001:0000f840       ??0IOleInPlaceSiteWindowless@@QAE@XZ 7c640840 f i stdafx.obj
 0001:0000f860       ??0?$IObjectWithSiteImpl@VCAxHostWindow@ATL@@@ATL@@QAE@XZ 7c640860 f i stdafx.obj
 0001:0000f890       ??1?$CComQIPtr@UIPersistStream@@$1?_GUID_00000109_0000_0000_c000_000000000046@@3U__s_GUID@@B@ATL@@QAE@XZ 7c640890 f i stdafx.obj
 0001:0000f890       ??1?$CComQIPtr@UIAdviseSink@@$1?_GUID_0000010f_0000_0000_c000_000000000046@@3U__s_GUID@@B@ATL@@QAE@XZ 7c640890 f i stdafx.obj
 0001:0000f890       ??1?$CComQIPtr@UIOleControl@@$1?_GUID_b196b288_bab4_101a_b69c_00aa00341d07@@3U__s_GUID@@B@ATL@@QAE@XZ 7c640890 f i stdafx.obj
 0001:0000f890       ??1?$CComQIPtr@UIOleInPlaceActiveObject@@$1?_GUID_00000117_0000_0000_c000_000000000046@@3U__s_GUID@@B@ATL@@QAE@XZ 7c640890 f i stdafx.obj
 0001:0000f890       ??1?$CComQIPtr@UIOleClientSite@@$1?_GUID_00000118_0000_0000_c000_000000000046@@3U__s_GUID@@B@ATL@@QAE@XZ 7c640890 f i stdafx.obj
 0001:0000f890       ??1?$CComQIPtr@UIPersistStreamInit@@$1?_GUID_7fd52380_4e07_101b_ae2d_08002b2ec713@@3U__s_GUID@@B@ATL@@QAE@XZ 7c640890 f i stdafx.obj
 0001:0000f8b0       ??9?$CComPtrBase@UIOleInPlaceActiveObject@@@ATL@@QBE_NPAUIOleInPlaceActiveObject@@@Z 7c6408b0 f i stdafx.obj
 0001:0000f8b0       ??9?$CComPtrBase@UIUnknown@@@ATL@@QBE_NPAUIUnknown@@@Z 7c6408b0 f i stdafx.obj
 0001:0000f8b0       ??9?$CComPtrBase@UIDocHostUIHandlerDispatch@@@ATL@@QBE_NPAUIDocHostUIHandlerDispatch@@@Z 7c6408b0 f i stdafx.obj
 0001:0000f8b0       ??9?$CComPtrBase@UIDispatch@@@ATL@@QBE_NPAUIDispatch@@@Z 7c6408b0 f i stdafx.obj
 0001:0000f8b0       ??9?$CComPtrBase@UIFontDisp@@@ATL@@QBE_NPAUIFontDisp@@@Z 7c6408b0 f i stdafx.obj
 0001:0000f8b0       ??9?$CComPtrBase@UIOleObject@@@ATL@@QBE_NPAUIOleObject@@@Z 7c6408b0 f i stdafx.obj
 0001:0000f8b0       ??9?$CComPtrBase@UIOleClientSite@@@ATL@@QBE_NPAUIOleClientSite@@@Z 7c6408b0 f i stdafx.obj
 0001:0000f8b0       ??9?$CComPtrBase@UIPersistStream@@@ATL@@QBE_NPAUIPersistStream@@@Z 7c6408b0 f i stdafx.obj
 0001:0000f8b0       ??9?$CComPtrBase@UIRegistrar@@@ATL@@QBE_NPAUIRegistrar@@@Z 7c6408b0 f i atl.obj
 0001:0000f8b0       ??9?$CComPtrBase@UIOleControl@@@ATL@@QBE_NPAUIOleControl@@@Z 7c6408b0 f i stdafx.obj
 0001:0000f8b0       ??9?$CComPtrBase@UIObjectWithSite@@@ATL@@QBE_NPAUIObjectWithSite@@@Z 7c6408b0 f i stdafx.obj
 0001:0000f8b0       ??9?$CComPtrBase@UIViewObjectEx@@@ATL@@QBE_NPAUIViewObjectEx@@@Z 7c6408b0 f i stdafx.obj
 0001:0000f8b0       ??9?$CComPtrBase@UIProvideClassInfo2@@@ATL@@QBE_NPAUIProvideClassInfo2@@@Z 7c6408b0 f i stdafx.obj
 0001:0000f8e0       ??0?$CComPtr@UIUnknown@@@ATL@@QAE@PAUIUnknown@@@Z 7c6408e0 f i stdafx.obj
 0001:0000f900       ??0_U_RECT@ATL@@QAE@PAUtagRECT@@@Z 7c640900 f i stdafx.obj
 0001:0000f900       ??0CRegKey@ATL@@QAE@PAUHKEY__@@@Z 7c640900 f i stdafx.obj
 0001:0000f900       ??0CWindow@ATL@@QAE@PAUHWND__@@@Z 7c640900 f i stdafx.obj
 0001:0000f900       ??0?$CW2CWEX@$0IA@@ATL@@QAE@PB_W@Z 7c640900 f i stdafx.obj
 0001:0000f900       ??0?$CAutoStackPtr@_W@ATL@@QAE@PA_W@Z 7c640900 f i stdafx.obj
 0001:0000f900       ??0_U_MENUorID@ATL@@QAE@I@Z 7c640900 f i stdafx.obj
 0001:0000f920       ??0?$CWindowImplBaseT@VCWindow@ATL@@V?$CWinTraits@$0FGAAAAAA@$0A@@2@@ATL@@QAE@XZ 7c640920 f i stdafx.obj
 0001:0000f950       ?GetWindowProc@?$CWindowImplBaseT@VCWindow@ATL@@V?$CWinTraits@$0FGAAAAAA@$0A@@2@@ATL@@UAEP6GJPAUHWND__@@IIJ@ZXZ 7c640950 f i stdafx.obj
 0001:0000f960       ?DestroyWindow@?$CWindowImplBaseT@VCWindow@ATL@@V?$CWinTraits@$0FGAAAAAA@$0A@@2@@ATL@@QAEHXZ 7c640960 f i stdafx.obj
 0001:0000f980       ?DefWindowProcW@?$CWindowImplBaseT@VCWindow@ATL@@V?$CWinTraits@$0FGAAAAAA@$0A@@2@@ATL@@QAEJXZ 7c640980 f i stdafx.obj
 0001:0000f9d0       ?DefWindowProcW@?$CWindowImplBaseT@VCWindow@ATL@@V?$CWinTraits@$0FGAAAAAA@$0A@@2@@ATL@@QAEJIIJ@Z 7c6409d0 f i stdafx.obj
 0001:0000fa00       ?SetSite@?$IObjectWithSiteImpl@VCAxHostWindow@ATL@@@ATL@@UAGJPAUIUnknown@@@Z 7c640a00 f i stdafx.obj
 0001:0000fa40       ?GetSite@?$IObjectWithSiteImpl@VCAxHostWindow@ATL@@@ATL@@UAGJABU_GUID@@PAPAX@Z 7c640a40 f i stdafx.obj
 0001:0000fad0       ?GetTypeInfoCount@?$IDispatchImpl@UIAxWinAmbientDispatchEx@@$1?_GUID_b2d0778b_ac99_4c58_a5c8_e7724e5316b5@@3U__s_GUID@@B$1?m_libid@CAtlModule@ATL@@2U_GUID@@A$0PPPP@$0PPPP@VCComTypeInfoHolder@ATL@@@ATL@@UAGJPAI@Z 7c640ad0 f i stdafx.obj
 0001:0000faf0       ?GetTypeInfo@?$IDispatchImpl@UIAxWinAmbientDispatchEx@@$1?_GUID_b2d0778b_ac99_4c58_a5c8_e7724e5316b5@@3U__s_GUID@@B$1?m_libid@CAtlModule@ATL@@2U_GUID@@A$0PPPP@$0PPPP@VCComTypeInfoHolder@ATL@@@ATL@@UAGJIKPAPAUITypeInfo@@@Z 7c640af0 f i stdafx.obj
 0001:0000fb10       ?GetTypeInfo@CComTypeInfoHolder@ATL@@QAEJIKPAPAUITypeInfo@@@Z 7c640b10 f i stdafx.obj
 0001:0000fb30       ?GetTI@CComTypeInfoHolder@ATL@@QAEJKPAPAUITypeInfo@@@Z 7c640b30 f i stdafx.obj
 0001:0000fba0       ?GetTI@CComTypeInfoHolder@ATL@@QAEJK@Z 7c640ba0 f i stdafx.obj
 0001:0000fe70       ?LoadNameCache@CComTypeInfoHolder@ATL@@QAEJPAUITypeInfo@@@Z 7c640e70 f i stdafx.obj
 0001:00010060       ??0stringdispid@CComTypeInfoHolder@ATL@@QAE@XZ 7c641060 f i stdafx.obj
 0001:00010090       ??0?$CComPtr@UITypeInfo@@@ATL@@QAE@ABV01@@Z 7c641090 f i stdafx.obj
 0001:000100b0       ?GetIDsOfNames@?$IDispatchImpl@UIAxWinAmbientDispatchEx@@$1?_GUID_b2d0778b_ac99_4c58_a5c8_e7724e5316b5@@3U__s_GUID@@B$1?m_libid@CAtlModule@ATL@@2U_GUID@@A$0PPPP@$0PPPP@VCComTypeInfoHolder@ATL@@@ATL@@UAGJABU_GUID@@PAPA_WIKPAJ@Z 7c6410b0 f i stdafx.obj
 0001:000100e0       ?GetIDsOfNames@CComTypeInfoHolder@ATL@@QAEJABU_GUID@@PAPA_WIKPAJ@Z 7c6410e0 f i stdafx.obj
 0001:000101f0       ?EnsureTI@CComTypeInfoHolder@ATL@@QAEJK@Z 7c6411f0 f i stdafx.obj
 0001:00010230       ?Invoke@?$IDispatchImpl@UIAxWinAmbientDispatchEx@@$1?_GUID_b2d0778b_ac99_4c58_a5c8_e7724e5316b5@@3U__s_GUID@@B$1?m_libid@CAtlModule@ATL@@2U_GUID@@A$0PPPP@$0PPPP@VCComTypeInfoHolder@ATL@@@ATL@@UAGJJABU_GUID@@KGPAUtagDISPPARAMS@@PAUtagVARIANT@@PAUtagEXCEPINFO@@PAI@Z 7c641230 f i stdafx.obj
 0001:00010270       ?Invoke@CComTypeInfoHolder@ATL@@QAEJPAUIDispatch@@JABU_GUID@@KGPAUtagDISPPARAMS@@PAUtagVARIANT@@PAUtagEXCEPINFO@@PAI@Z 7c641270 f i stdafx.obj
 0001:000102d0       ??0?$IDispatchImpl@UIAxWinAmbientDispatchEx@@$1?_GUID_b2d0778b_ac99_4c58_a5c8_e7724e5316b5@@3U__s_GUID@@B$1?m_libid@CAtlModule@ATL@@2U_GUID@@A$0PPPP@$0PPPP@VCComTypeInfoHolder@ATL@@@ATL@@QAE@XZ 7c6412d0 f i stdafx.obj
 0001:00010310       ??0CComTypeInfoHolder@ATL@@QAE@PBU_GUID@@0GG@Z 7c641310 f i stdafx.obj
 0001:00010370       ??I?$CComPtrBase@UIFontDisp@@@ATL@@QAEPAPAUIFontDisp@@XZ 7c641370 f i stdafx.obj
 0001:00010370       ??I?$CComPtrBase@UIOleObject@@@ATL@@QAEPAPAUIOleObject@@XZ 7c641370 f i stdafx.obj
 0001:00010370       ??I?$CComPtrBase@UICatRegister@@@ATL@@QAEPAPAUICatRegister@@XZ 7c641370 f i stdafx.obj
 0001:00010370       ??I?$CComPtrBase@UIProvideClassInfo2@@@ATL@@QAEPAPAUIProvideClassInfo2@@XZ 7c641370 f i stdafx.obj
 0001:00010370       ??I?$CComPtrBase@UIOleInPlaceFrame@@@ATL@@QAEPAPAUIOleInPlaceFrame@@XZ 7c641370 f i stdafx.obj
 0001:00010370       ??I?$CComPtrBase@UIAxWinHostWindow@@@ATL@@QAEPAPAUIAxWinHostWindow@@XZ 7c641370 f i stdafx.obj
 0001:00010370       ??I?$CComPtrBase@UITypeLib@@@ATL@@QAEPAPAUITypeLib@@XZ 7c641370 f i stdafx.obj
 0001:00010370       ??0IUnknown@@QAE@XZ        7c641370 f i atl.obj
 0001:00010370       ??I?$CComPtrBase@UIConnectionPoint@@@ATL@@QAEPAPAUIConnectionPoint@@XZ 7c641370 f i stdafx.obj
 0001:00010370       ??I?$CComPtrBase@UIOleInPlaceUIWindow@@@ATL@@QAEPAPAUIOleInPlaceUIWindow@@XZ 7c641370 f i stdafx.obj
 0001:00010370       ??I?$CComPtrBase@UIPersistStreamInit@@@ATL@@QAEPAPAUIPersistStreamInit@@XZ 7c641370 f i stdafx.obj
 0001:00010370       ??I?$CComPtrBase@UIConnectionPointContainer@@@ATL@@QAEPAPAUIConnectionPointContainer@@XZ 7c641370 f i stdafx.obj
 0001:00010370       ??I?$CComPtrBase@UIStream@@@ATL@@QAEPAPAUIStream@@XZ 7c641370 f i stdafx.obj
 0001:00010370       ??I?$CComPtrBase@UIAxWinHostWindowLic@@@ATL@@QAEPAPAUIAxWinHostWindowLic@@XZ 7c641370 f i stdafx.obj
 0001:00010370       ??I?$CComPtrBase@UIErrorInfo@@@ATL@@QAEPAPAUIErrorInfo@@XZ 7c641370 f i stdafx.obj
 0001:00010370       ??I?$CComPtrBase@UITypeInfo2@@@ATL@@QAEPAPAUITypeInfo2@@XZ 7c641370 f i stdafx.obj
 0001:00010370       ??I?$CComPtrBase@UIOleInPlaceObjectWindowless@@@ATL@@QAEPAPAUIOleInPlaceObjectWindowless@@XZ 7c641370 f i stdafx.obj
 0001:00010370       ??0CMessageMap@ATL@@QAE@XZ 7c641370 f i stdafx.obj
 0001:00010370       ??ICComBSTR@ATL@@QAEPAPA_WXZ 7c641370 f i stdafx.obj
 0001:00010370       ??I?$CComPtrBase@UIObjectWithSite@@@ATL@@QAEPAPAUIObjectWithSite@@XZ 7c641370 f i stdafx.obj
 0001:00010370       ??I?$CComPtrBase@UICreateErrorInfo@@@ATL@@QAEPAPAUICreateErrorInfo@@XZ 7c641370 f i stdafx.obj
 0001:00010370       ??I?$CComPtrBase@UIOleClientSite@@@ATL@@QAEPAPAUIOleClientSite@@XZ 7c641370 f i stdafx.obj
 0001:00010370       ??I?$CComPtrBase@UIClassFactory2@@@ATL@@QAEPAPAUIClassFactory2@@XZ 7c641370 f i stdafx.obj
 0001:00010370       ??I?$CComPtrBase@UIRegistrar@@@ATL@@QAEPAPAUIRegistrar@@XZ 7c641370 f i atl.obj
 0001:00010370       ?GetCodeAddress@_stdcallthunk@ATL@@QAEPAXXZ 7c641370 f i stdafx.obj
 0001:00010370       ??I?$CComPtrBase@UIServiceProvider@@@ATL@@QAEPAPAUIServiceProvider@@XZ 7c641370 f i stdafx.obj
 0001:00010370       ??I?$CComPtrBase@UIWebBrowser2@@@ATL@@QAEPAPAUIWebBrowser2@@XZ 7c641370 f i stdafx.obj
 0001:00010370       ??I?$CComPtrBase@UIPersistStream@@@ATL@@QAEPAPAUIPersistStream@@XZ 7c641370 f i stdafx.obj
 0001:00010370       ??I?$CComPtrBase@UIViewObjectEx@@@ATL@@QAEPAPAUIViewObjectEx@@XZ 7c641370 f i stdafx.obj
 0001:00010370       ??I?$CComPtrBase@UIPersist@@@ATL@@QAEPAPAUIPersist@@XZ 7c641370 f i stdafx.obj
 0001:00010370       ??I?$CComPtrBase@UIDispatch@@@ATL@@QAEPAPAUIDispatch@@XZ 7c641370 f i stdafx.obj
 0001:00010370       ??I?$CComPtrBase@UITypeInfo@@@ATL@@QAEPAPAUITypeInfo@@XZ 7c641370 f i stdafx.obj
 0001:00010370       ??I?$CComPtrBase@UIUnknown@@@ATL@@QAEPAPAUIUnknown@@XZ 7c641370 f i stdafx.obj
 0001:00010380       ?CopyTo@?$CComPtrBase@UIFontDisp@@@ATL@@QAEJPAPAUIFontDisp@@@Z 7c641380 f i stdafx.obj
 0001:00010380       ?CopyTo@?$CComPtrBase@UIOleInPlaceFrame@@@ATL@@QAEJPAPAUIOleInPlaceFrame@@@Z 7c641380 f i stdafx.obj
 0001:00010380       ?CopyTo@?$CComPtrBase@UIDispatch@@@ATL@@QAEJPAPAUIDispatch@@@Z 7c641380 f i stdafx.obj
 0001:00010380       ?CopyTo@?$CComPtrBase@UIOleInPlaceUIWindow@@@ATL@@QAEJPAPAUIOleInPlaceUIWindow@@@Z 7c641380 f i stdafx.obj
 0001:000103c0       ??0?$CComQIPtr@UIOleInPlaceActiveObject@@$1?_GUID_00000117_0000_0000_c000_000000000046@@3U__s_GUID@@B@ATL@@QAE@PAUIUnknown@@@Z 7c6413c0 f i stdafx.obj
 0001:00010400       ??0?$CComQIPtr@UIOleControl@@$1?_GUID_b196b288_bab4_101a_b69c_00aa00341d07@@3U__s_GUID@@B@ATL@@QAE@PAUIUnknown@@@Z 7c641400 f i stdafx.obj
 0001:00010440       ??0?$CComObject@V?$CComEnum@UIEnumUnknown@@$1?_GUID_00000100_0000_0000_c000_000000000046@@3U__s_GUID@@BPAUIUnknown@@V?$_CopyInterface@UIUnknown@@@ATL@@VCComMultiThreadModel@6@@ATL@@@ATL@@QAE@PAX@Z 7c641440 f i stdafx.obj
 0001:00010480       ?AddRef@?$CComObject@V?$CComEnum@UIEnumUnknown@@$1?_GUID_00000100_0000_0000_c000_000000000046@@3U__s_GUID@@BPAUIUnknown@@V?$_CopyInterface@UIUnknown@@@ATL@@VCComMultiThreadModel@6@@ATL@@@ATL@@UAGKXZ 7c641480 f i stdafx.obj
 0001:000104a0       ?Release@?$CComObject@V?$CComEnum@UIEnumUnknown@@$1?_GUID_00000100_0000_0000_c000_000000000046@@3U__s_GUID@@BPAUIUnknown@@V?$_CopyInterface@UIUnknown@@@ATL@@VCComMultiThreadModel@6@@ATL@@@ATL@@UAGKXZ 7c6414a0 f i stdafx.obj
 0001:000104f0       ?QueryInterface@?$CComObject@V?$CComEnum@UIEnumUnknown@@$1?_GUID_00000100_0000_0000_c000_000000000046@@3U__s_GUID@@BPAUIUnknown@@V?$_CopyInterface@UIUnknown@@@ATL@@VCComMultiThreadModel@6@@ATL@@@ATL@@UAGJABU_GUID@@PAPAX@Z 7c6414f0 f i stdafx.obj
 0001:00010510       ?Reset@?$CComEnumImpl@UIEnumUnknown@@$1?_GUID_00000100_0000_0000_c000_000000000046@@3U__s_GUID@@BPAUIUnknown@@V?$_CopyInterface@UIUnknown@@@ATL@@@ATL@@UAGJXZ 7c641510 f i stdafx.obj
 0001:00010530       ??0?$CComQIPtr@UIOleClientSite@@$1?_GUID_00000118_0000_0000_c000_000000000046@@3U__s_GUID@@B@ATL@@QAE@PAUIUnknown@@@Z 7c641530 f i stdafx.obj
 0001:00010570       ??0?$CComQIPtr@UIPersistStreamInit@@$1?_GUID_7fd52380_4e07_101b_ae2d_08002b2ec713@@3U__s_GUID@@B@ATL@@QAE@PAUIUnknown@@@Z 7c641570 f i stdafx.obj
 0001:000105b0       ??0?$CComQIPtr@UIPersistStream@@$1?_GUID_00000109_0000_0000_c000_000000000046@@3U__s_GUID@@B@ATL@@QAE@PAUIUnknown@@@Z 7c6415b0 f i stdafx.obj
 0001:000105f0       ??0?$CComQIPtr@UIAdviseSink@@$1?_GUID_0000010f_0000_0000_c000_000000000046@@3U__s_GUID@@B@ATL@@QAE@PAUIUnknown@@@Z 7c6415f0 f i stdafx.obj
 0001:00010630       ??0IOleInPlaceSiteEx@@QAE@XZ 7c641630 f i stdafx.obj
 0001:00010630       ??0IAxWinAmbientDispatchEx@@QAE@XZ 7c641630 f i stdafx.obj
 0001:00010630       ??0IOleInPlaceFrame@@QAE@XZ 7c641630 f i stdafx.obj
 0001:00010650       ??_G?$CComObject@V?$CComEnum@UIEnumUnknown@@$1?_GUID_00000100_0000_0000_c000_000000000046@@3U__s_GUID@@BPAUIUnknown@@V?$_CopyInterface@UIUnknown@@@ATL@@VCComMultiThreadModel@6@@ATL@@@ATL@@UAEPAXI@Z 7c641650 f i stdafx.obj
 0001:00010650       ??_E?$CComObject@V?$CComEnum@UIEnumUnknown@@$1?_GUID_00000100_0000_0000_c000_000000000046@@3U__s_GUID@@BPAUIUnknown@@V?$_CopyInterface@UIUnknown@@@ATL@@VCComMultiThreadModel@6@@ATL@@@ATL@@UAEPAXI@Z 7c641650 f i stdafx.obj
 0001:00010680       ??1?$CComObject@V?$CComEnum@UIEnumUnknown@@$1?_GUID_00000100_0000_0000_c000_000000000046@@3U__s_GUID@@BPAUIUnknown@@V?$_CopyInterface@UIUnknown@@@ATL@@VCComMultiThreadModel@6@@ATL@@@ATL@@UAE@XZ 7c641680 f i stdafx.obj
 0001:000106d0       ??0?$CComEnum@UIEnumUnknown@@$1?_GUID_00000100_0000_0000_c000_000000000046@@3U__s_GUID@@BPAUIUnknown@@V?$_CopyInterface@UIUnknown@@@ATL@@VCComMultiThreadModel@6@@ATL@@QAE@XZ 7c6416d0 f i stdafx.obj
 0001:00010700       ??1?$CComEnum@UIEnumUnknown@@$1?_GUID_00000100_0000_0000_c000_000000000046@@3U__s_GUID@@BPAUIUnknown@@V?$_CopyInterface@UIUnknown@@@ATL@@VCComMultiThreadModel@6@@ATL@@UAE@XZ 7c641700 f i stdafx.obj
 0001:00010740       ??0IAxWinHostWindowLic@@QAE@XZ 7c641740 f i stdafx.obj
 0001:00010740       ??0IOleInPlaceSite@@QAE@XZ 7c641740 f i stdafx.obj
 0001:00010740       ??0IOleInPlaceUIWindow@@QAE@XZ 7c641740 f i stdafx.obj
 0001:00010740       ??0IOleContainer@@QAE@XZ   7c641740 f i stdafx.obj
 0001:00010740       ??0IRegistrar@@QAE@XZ      7c641740 f i atl.obj
 0001:00010740       ??0IAxWinAmbientDispatch@@QAE@XZ 7c641740 f i stdafx.obj
 0001:00010760       ??0?$CComPtrBase@UITypeInfo@@@ATL@@IAE@PAUITypeInfo@@@Z 7c641760 f i stdafx.obj
 0001:00010760       ??0?$CComPtrBase@UIUnknown@@@ATL@@IAE@PAUIUnknown@@@Z 7c641760 f i stdafx.obj
 0001:000107a0       ??0?$CWindowImplRoot@VCWindow@ATL@@@ATL@@QAE@XZ 7c6417a0 f i stdafx.obj
 0001:000107f0       ?_InternalQueryInterface@?$CComEnum@UIEnumUnknown@@$1?_GUID_00000100_0000_0000_c000_000000000046@@3U__s_GUID@@BPAUIUnknown@@V?$_CopyInterface@UIUnknown@@@ATL@@VCComMultiThreadModel@6@@ATL@@QAEJABU_GUID@@PAPAX@Z 7c6417f0 f i stdafx.obj
 0001:00010820       ??0?$CComEnumImpl@UIEnumUnknown@@$1?_GUID_00000100_0000_0000_c000_000000000046@@3U__s_GUID@@BPAUIUnknown@@V?$_CopyInterface@UIUnknown@@@ATL@@@ATL@@QAE@XZ 7c641820 f i stdafx.obj
 0001:00010870       ?AddRef@?$CComContainedObject@VCAxHostWindow@ATL@@@ATL@@UAGKXZ 7c641870 f i stdafx.obj
 0001:00010890       ?OuterAddRef@CComObjectRootBase@ATL@@QAEKXZ 7c641890 f i stdafx.obj
 0001:000108b0       ?Release@?$CComContainedObject@VCAxHostWindow@ATL@@@ATL@@UAGKXZ 7c6418b0 f i stdafx.obj
 0001:000108d0       ?OuterRelease@CComObjectRootBase@ATL@@QAEKXZ 7c6418d0 f i stdafx.obj
 0001:000108f0       ?QueryInterface@?$CComContainedObject@VCAxHostWindow@ATL@@@ATL@@UAGJABU_GUID@@PAPAX@Z 7c6418f0 f i stdafx.obj
 0001:00010910       ?OuterQueryInterface@CComObjectRootBase@ATL@@QAEJABU_GUID@@PAPAX@Z 7c641910 f i stdafx.obj
 0001:00010940       ?GetControllingUnknown@?$CComContainedObject@VCAxHostWindow@ATL@@@ATL@@UAEPAUIUnknown@@XZ 7c641940 f i stdafx.obj
 0001:00010960       ??0CWndProcThunk@ATL@@QAE@XZ 7c641960 f i stdafx.obj
 0001:00010980       ??0IAxWinHostWindow@@QAE@XZ 7c641980 f i stdafx.obj
 0001:00010980       ??0IClassFactory@@QAE@XZ   7c641980 f i atl.obj
 0001:00010980       ??0IAdviseSink@@QAE@XZ     7c641980 f i stdafx.obj
 0001:00010980       ??0IOleWindow@@QAE@XZ      7c641980 f i stdafx.obj
 0001:00010980       ??0IOleClientSite@@QAE@XZ  7c641980 f i stdafx.obj
 0001:00010980       ??0IServiceProvider@@QAE@XZ 7c641980 f i stdafx.obj
 0001:00010980       ??0IObjectWithSite@@QAE@XZ 7c641980 f i stdafx.obj
 0001:00010980       ??0IDispatch@@QAE@XZ       7c641980 f i stdafx.obj
 0001:00010980       ??0IOleControlSite@@QAE@XZ 7c641980 f i stdafx.obj
 0001:00010980       ??0IEnumUnknown@@QAE@XZ    7c641980 f i stdafx.obj
 0001:00010980       ??0IParseDisplayName@@QAE@XZ 7c641980 f i stdafx.obj
 0001:00010980       ??0IDocHostUIHandler@@QAE@XZ 7c641980 f i stdafx.obj
 0001:00010980       ??0IRegistrarBase@@QAE@XZ  7c641980 f i atl.obj
 0001:000109a0       ?_GetEntries@?$CComEnum@UIEnumUnknown@@$1?_GUID_00000100_0000_0000_c000_000000000046@@3U__s_GUID@@BPAUIUnknown@@V?$_CopyInterface@UIUnknown@@@ATL@@VCComMultiThreadModel@6@@ATL@@SGPBU_ATL_INTMAP_ENTRY@2@XZ 7c6419a0 f i stdafx.obj
 0001:000109b0       ??_E?$CComContainedObject@VCAxHostWindow@ATL@@@ATL@@UAEPAXI@Z 7c6419b0 f i stdafx.obj
 0001:000109b0       ??_G?$CComContainedObject@VCAxHostWindow@ATL@@@ATL@@UAEPAXI@Z 7c6419b0 f i stdafx.obj
 0001:000109e0       ??$QueryInterface@UITypeInfo2@@@IUnknown@@QAGJPAPAUITypeInfo2@@@Z 7c6419e0 f i stdafx.obj
 0001:00010a00       ??$?4UITypeInfo2@@@?$CComPtr@UITypeInfo@@@ATL@@QAEPAUITypeInfo@@ABV?$CComPtr@UITypeInfo2@@@1@@Z 7c641a00 f i stdafx.obj
 0001:00010a50       ?IsEqualObject@?$CComPtrBase@UITypeInfo@@@ATL@@QAE_NPAUIUnknown@@@Z 7c641a50 f i stdafx.obj
 0001:00010b00       ?WindowProc@?$CWindowImplBaseT@VCWindow@ATL@@V?$CWinTraits@$0FGAAAAAA@$0A@@2@@ATL@@SGJPAUHWND__@@IIJ@Z 7c641b00 f i stdafx.obj
 0001:00010c70       ??0_ATL_MSG@ATL@@QAE@PAUHWND__@@IIJH@Z 7c641c70 f i stdafx.obj
 0001:00010ce0       ?SubclassWindow@?$CWindowImplBaseT@VCWindow@ATL@@V?$CWinTraits@$0FGAAAAAA@$0A@@2@@ATL@@QAEHPAUHWND__@@@Z 7c641ce0 f i stdafx.obj
 0001:00010d70       ?Init@CWndProcThunk@ATL@@QAEHP6GJPAUHWND__@@IIJ@ZPAX@Z 7c641d70 f i stdafx.obj
 0001:00010d90       ?Init@CDynamicStdCallThunk@ATL@@QAEHKPAX@Z 7c641d90 f i stdafx.obj
 0001:00010de0       ?Init@_stdcallthunk@ATL@@QAEHKPAX@Z 7c641de0 f i stdafx.obj
 0001:00010e30       ??2_stdcallthunk@ATL@@SAPAXI@Z 7c641e30 f i stdafx.obj
 0001:00010e40       ?GetWNDPROC@CWndProcThunk@ATL@@QAEP6GJPAUHWND__@@IIJ@ZXZ 7c641e40 f i stdafx.obj
 0001:00010e60       ?GetCodeAddress@CDynamicStdCallThunk@ATL@@QAEPAXXZ 7c641e60 f i stdafx.obj
 0001:00010e80       ?UnsubclassWindow@?$CWindowImplBaseT@VCWindow@ATL@@V?$CWinTraits@$0FGAAAAAA@$0A@@2@@ATL@@QAEPAUHWND__@@H@Z 7c641e80 f i stdafx.obj
 0001:00010f10       ?CreateInstance@?$CComObject@VCAxFrameWindow@ATL@@@ATL@@SGJPAPAV12@@Z 7c641f10 f i stdafx.obj
 0001:00011020       ??0?$CComObject@VCAxFrameWindow@ATL@@@ATL@@QAE@PAX@Z 7c642020 f i stdafx.obj
 0001:00011060       ??0CAxFrameWindow@ATL@@QAE@XZ 7c642060 f i stdafx.obj
 0001:000110a0       ?ProcessWindowMessage@CAxUIWindow@ATL@@UAEHPAUHWND__@@IIJAAJK@Z 7c6420a0 f i stdafx.obj
 0001:000110a0       ?ProcessWindowMessage@CAxFrameWindow@ATL@@UAEHPAUHWND__@@IIJAAJK@Z 7c6420a0 f i stdafx.obj
 0001:000110b0       ?GetWindow@CAxFrameWindow@ATL@@UAGJPAPAUHWND__@@@Z 7c6420b0 f i stdafx.obj
 0001:00011110       ?SetActiveObject@CAxFrameWindow@ATL@@UAGJPAUIOleInPlaceActiveObject@@PB_W@Z 7c642110 f i stdafx.obj
 0001:00011110       ?SetActiveObject@CAxUIWindow@ATL@@UAGJPAUIOleInPlaceActiveObject@@PB_W@Z 7c642110 f i stdafx.obj
 0001:00011130       ?InsertMenus@CAxFrameWindow@ATL@@UAGJPAUHMENU__@@PAUtagOleMenuGroupWidths@@@Z 7c642130 f i stdafx.obj
 0001:00011140       ?SetMenu@CAxFrameWindow@ATL@@UAGJPAUHMENU__@@PAXPAUHWND__@@@Z 7c642140 f i stdafx.obj
 0001:00011150       ?Create@?$CWindowImpl@VCAxFrameWindow@ATL@@VCWindow@2@V?$CWinTraits@$0FGAAAAAA@$0A@@2@@ATL@@QAEPAUHWND__@@PAU3@V_U_RECT@2@PB_WKKV_U_MENUorID@2@PAX@Z 7c642150 f i stdafx.obj
 0001:000111f0       ?Register@_ATL_WNDCLASSINFOW@ATL@@QAEGPAP6GJPAUHWND__@@IIJ@Z@Z 7c6421f0 f i stdafx.obj
 0001:00011220       ??4?$CComPtr@UIUnknown@@@ATL@@QAEPAUIUnknown@@PAU2@@Z 7c642220 f i stdafx.obj
 0001:00011220       ??4?$CComPtr@UIDispatch@@@ATL@@QAEPAUIDispatch@@PAU2@@Z 7c642220 f i stdafx.obj
 0001:00011220       ??4?$CComPtr@UIFontDisp@@@ATL@@QAEPAUIFontDisp@@PAU2@@Z 7c642220 f i stdafx.obj
 0001:00011220       ??4?$CComPtr@UIRegistrar@@@ATL@@QAEPAUIRegistrar@@PAU2@@Z 7c642220 f i atl.obj
 0001:00011220       ??4?$CComPtr@UIDocHostUIHandlerDispatch@@@ATL@@QAEPAUIDocHostUIHandlerDispatch@@PAU2@@Z 7c642220 f i stdafx.obj
 0001:00011220       ??4?$CComPtr@UIOleInPlaceActiveObject@@@ATL@@QAEPAUIOleInPlaceActiveObject@@PAU2@@Z 7c642220 f i stdafx.obj
 0001:00011260       ?AddRef@?$CComObject@VCAxUIWindow@ATL@@@ATL@@UAGKXZ 7c642260 f i stdafx.obj
 0001:00011260       ?AddRef@?$CComObject@VCAxFrameWindow@ATL@@@ATL@@UAGKXZ 7c642260 f i stdafx.obj
 0001:00011280       ?QueryInterface@?$CComObject@VCAxFrameWindow@ATL@@@ATL@@UAGJABU_GUID@@PAPAX@Z 7c642280 f i stdafx.obj
 0001:000112a0       ?_InternalQueryInterface@CAxFrameWindow@ATL@@QAEJABU_GUID@@PAPAX@Z 7c6422a0 f i stdafx.obj
 0001:000112d0       ?_GetEntries@CAxFrameWindow@ATL@@SGPBU_ATL_INTMAP_ENTRY@2@XZ 7c6422d0 f i stdafx.obj
 0001:000112e0       ??_E?$CComObject@VCAxFrameWindow@ATL@@@ATL@@UAEPAXI@Z 7c6422e0 f i stdafx.obj
 0001:000112e0       ??_G?$CComObject@VCAxFrameWindow@ATL@@@ATL@@UAEPAXI@Z 7c6422e0 f i stdafx.obj
 0001:00011310       ??1?$CComObject@VCAxFrameWindow@ATL@@@ATL@@UAE@XZ 7c642310 f i stdafx.obj
 0001:00011360       ??1CAxFrameWindow@ATL@@UAE@XZ 7c642360 f i stdafx.obj
 0001:00011360       ??1CAxUIWindow@ATL@@UAE@XZ 7c642360 f i stdafx.obj
 0001:000113a0       ??1?$CWindowImpl@VCAxUIWindow@ATL@@VCWindow@2@V?$CWinTraits@$0FGAAAAAA@$0A@@2@@ATL@@UAE@XZ 7c6423a0 f i stdafx.obj
 0001:000113a0       ??1?$CWindowImpl@VCAxFrameWindow@ATL@@VCWindow@2@V?$CWinTraits@$0FGAAAAAA@$0A@@2@@ATL@@UAE@XZ 7c6423a0 f i stdafx.obj
 0001:000113a0       ??1?$CWindowImpl@VCAxHostWindow@ATL@@VCWindow@2@V?$CWinTraits@$0FGAAAAAA@$0A@@2@@ATL@@UAE@XZ 7c6423a0 f i stdafx.obj
 0001:000113c0       ?Release@?$CComPtrBase@UIOleInPlaceActiveObject@@@ATL@@QAEXXZ 7c6423c0 f i stdafx.obj
 0001:000113c0       ?Release@?$CComPtrBase@UIOleInPlaceFrame@@@ATL@@QAEXXZ 7c6423c0 f i stdafx.obj
 0001:000113c0       ?Release@?$CComPtrBase@UIOleObject@@@ATL@@QAEXXZ 7c6423c0 f i stdafx.obj
 0001:000113c0       ?Release@?$CComPtrBase@UIOleInPlaceObjectWindowless@@@ATL@@QAEXXZ 7c6423c0 f i stdafx.obj
 0001:000113c0       ?Release@?$CComPtrBase@UIViewObjectEx@@@ATL@@QAEXXZ 7c6423c0 f i stdafx.obj
 0001:000113c0       ?Release@?$CComPtrBase@UIServiceProvider@@@ATL@@QAEXXZ 7c6423c0 f i stdafx.obj
 0001:000113c0       ?Release@?$CComPtrBase@UIDispatch@@@ATL@@QAEXXZ 7c6423c0 f i stdafx.obj
 0001:000113c0       ?Release@?$CComPtrBase@UIUnknown@@@ATL@@QAEXXZ 7c6423c0 f i stdafx.obj
 0001:000113c0       ?Release@?$CComPtrBase@UIOleInPlaceUIWindow@@@ATL@@QAEXXZ 7c6423c0 f i stdafx.obj
 0001:00011400       ?GetWndClassInfo@?$CWindowImpl@VCAxFrameWindow@ATL@@VCWindow@2@V?$CWinTraits@$0FGAAAAAA@$0A@@2@@ATL@@SAAAU_ATL_WNDCLASSINFOW@2@XZ 7c642400 f i stdafx.obj
 0001:00011410       ?GetWndStyle@?$CWindowImplBaseT@VCWindow@ATL@@V?$CWinTraits@$0FGAAAAAA@$0A@@2@@ATL@@SAKK@Z 7c642410 f i stdafx.obj
 0001:00011430       ?GetWndExStyle@?$CWindowImplBaseT@VCWindow@ATL@@V?$CWinTraits@$0FGAAAAAA@$0A@@2@@ATL@@SAKK@Z 7c642430 f i stdafx.obj
 0001:00011450       ?GetWndStyle@?$CWinTraits@$0FGAAAAAA@$0A@@ATL@@SAKK@Z 7c642450 f i stdafx.obj
 0001:00011470       ?GetWndExStyle@?$CWinTraits@$0FGAAAAAA@$0A@@ATL@@SAKK@Z 7c642470 f i stdafx.obj
 0001:00011480       ?StartWindowProc@?$CWindowImplBaseT@VCWindow@ATL@@V?$CWinTraits@$0FGAAAAAA@$0A@@2@@ATL@@SGJPAUHWND__@@IIJ@Z 7c642480 f i stdafx.obj
 0001:00011500       ?ExtractCreateWndData@CAtlWinModule@ATL@@QAEPAXXZ 7c642500 f i stdafx.obj
 0001:00011520       ?Create@?$CWindowImplBaseT@VCWindow@ATL@@V?$CWinTraits@$0FGAAAAAA@$0A@@2@@ATL@@QAEPAUHWND__@@PAU3@V_U_RECT@2@PB_WKKV_U_MENUorID@2@GPAX@Z 7c642520 f i stdafx.obj
 0001:00011600       ?AddCreateWndData@CAtlWinModule@ATL@@QAEXPAU_AtlCreateWndData@2@PAX@Z 7c642600 f i stdafx.obj
 0001:00011620       ?CreateInstance@?$CComObject@VCAxUIWindow@ATL@@@ATL@@SGJPAPAV12@@Z 7c642620 f i stdafx.obj
 0001:00011730       ??0?$CComObject@VCAxUIWindow@ATL@@@ATL@@QAE@PAX@Z 7c642730 f i stdafx.obj
 0001:00011770       ??0CAxUIWindow@ATL@@QAE@XZ 7c642770 f i stdafx.obj
 0001:000117b0       ?GetWindow@CAxUIWindow@ATL@@UAGJPAPAUHWND__@@@Z 7c6427b0 f i stdafx.obj
 0001:00011820       ?RequestBorderSpace@CAxFrameWindow@ATL@@UAGJPBUtagRECT@@@Z 7c642820 f i stdafx.obj
 0001:00011820       ?RequestBorderSpace@CAxUIWindow@ATL@@UAGJPBUtagRECT@@@Z 7c642820 f i stdafx.obj
 0001:00011830       ?Create@?$CWindowImpl@VCAxUIWindow@ATL@@VCWindow@2@V?$CWinTraits@$0FGAAAAAA@$0A@@2@@ATL@@QAEPAUHWND__@@PAU3@V_U_RECT@2@PB_WKKV_U_MENUorID@2@PAX@Z 7c642830 f i stdafx.obj
 0001:000118d0       ?Release@?$CComObject@VCAxUIWindow@ATL@@@ATL@@UAGKXZ 7c6428d0 f i stdafx.obj
 0001:000118d0       ?Release@?$CComObject@VCAxFrameWindow@ATL@@@ATL@@UAGKXZ 7c6428d0 f i stdafx.obj
 0001:00011930       ?QueryInterface@?$CComObject@VCAxUIWindow@ATL@@@ATL@@UAGJABU_GUID@@PAPAX@Z 7c642930 f i stdafx.obj
 0001:00011950       ?_InternalQueryInterface@CAxUIWindow@ATL@@QAEJABU_GUID@@PAPAX@Z 7c642950 f i stdafx.obj
 0001:00011980       ?_GetEntries@CAxUIWindow@ATL@@SGPBU_ATL_INTMAP_ENTRY@2@XZ 7c642980 f i stdafx.obj
 0001:00011990       ??_E?$CComObject@VCAxUIWindow@ATL@@@ATL@@UAEPAXI@Z 7c642990 f i stdafx.obj
 0001:00011990       ??_G?$CComObject@VCAxUIWindow@ATL@@@ATL@@UAEPAXI@Z 7c642990 f i stdafx.obj
 0001:000119c0       ??1?$CComObject@VCAxUIWindow@ATL@@@ATL@@UAE@XZ 7c6429c0 f i stdafx.obj
 0001:00011a10       ?FinalRelease@CAxFrameWindow@ATL@@QAEXXZ 7c642a10 f i stdafx.obj
 0001:00011a10       ?FinalRelease@CAxUIWindow@ATL@@QAEXXZ 7c642a10 f i stdafx.obj
 0001:00011a40       ?GetWndClassInfo@?$CWindowImpl@VCAxUIWindow@ATL@@VCWindow@2@V?$CWinTraits@$0FGAAAAAA@$0A@@2@@ATL@@SAAAU_ATL_WNDCLASSINFOW@2@XZ 7c642a40 f i stdafx.obj
 0001:00011a50       ??$QueryInterface@UIDispatch@@@?$CComPtrBase@UIOleObject@@@ATL@@QBEJPAPAUIDispatch@@@Z 7c642a50 f i stdafx.obj
 0001:00011a80       ??1?$CComEnumImpl@UIEnumUnknown@@$1?_GUID_00000100_0000_0000_c000_000000000046@@3U__s_GUID@@BPAUIUnknown@@V?$_CopyInterface@UIUnknown@@@ATL@@@ATL@@UAE@XZ 7c642a80 f i stdafx.obj
 0001:00011af0       ?destroy@?$_CopyInterface@UIUnknown@@@ATL@@SAXPAPAUIUnknown@@@Z 7c642af0 f i stdafx.obj
 0001:00011b10       ?Next@?$CComEnumImpl@UIEnumUnknown@@$1?_GUID_00000100_0000_0000_c000_000000000046@@3U__s_GUID@@BPAUIUnknown@@V?$_CopyInterface@UIUnknown@@@ATL@@@ATL@@UAGJKPAPAUIUnknown@@PAK@Z 7c642b10 f i stdafx.obj
 0001:00011c60       ?copy@?$_CopyInterface@UIUnknown@@@ATL@@SAJPAPAUIUnknown@@PBQAU3@@Z 7c642c60 f i stdafx.obj
 0001:00011cd0       ?Skip@?$CComEnumImpl@UIEnumUnknown@@$1?_GUID_00000100_0000_0000_c000_000000000046@@3U__s_GUID@@BPAUIUnknown@@V?$_CopyInterface@UIUnknown@@@ATL@@@ATL@@UAGJK@Z 7c642cd0 f i stdafx.obj
 0001:00011d40       ?Clone@?$CComEnumImpl@UIEnumUnknown@@$1?_GUID_00000100_0000_0000_c000_000000000046@@3U__s_GUID@@BPAUIUnknown@@V?$_CopyInterface@UIUnknown@@@ATL@@@ATL@@UAGJPAPAUIEnumUnknown@@@Z 7c642d40 f i stdafx.obj
 0001:00011e50       ?CreateInstance@?$CComObject@V?$CComEnum@UIEnumUnknown@@$1?_GUID_00000100_0000_0000_c000_000000000046@@3U__s_GUID@@BPAUIUnknown@@V?$_CopyInterface@UIUnknown@@@ATL@@VCComMultiThreadModel@6@@ATL@@@ATL@@SGJPAPAV12@@Z 7c642e50 f i stdafx.obj
 0001:00011f60       ?Init@?$CComEnumImpl@UIEnumUnknown@@$1?_GUID_00000100_0000_0000_c000_000000000046@@3U__s_GUID@@BPAUIUnknown@@V?$_CopyInterface@UIUnknown@@@ATL@@@ATL@@QAEJPAPAUIUnknown@@0PAU3@W4CComEnumFlags@2@@Z 7c642f60 f i stdafx.obj
 0001:000120f0       ??$AtlAxDialogCreateT@PB_WV_AtlDialogBoxIndirectParamHelper@ATL@@$1?DialogBoxIndirectParamW@@YGHPAUHINSTANCE__@@PBUDLGTEMPLATE@@PAUHWND__@@P6GH2IIJ@ZJ@Z@ATL@@YAHPAUHINSTANCE__@@PB_WPAUHWND__@@P6GH2IIJ@ZJ@Z 7c6430f0 f i stdafx.obj
 0001:00012240       ?SplitDialogTemplate@_DialogSplitHelper@ATL@@SAPAUDLGTEMPLATE@@PAU3@PAE@Z 7c643240 f i stdafx.obj
 0001:00012480       ?IsDialogEx@_DialogSplitHelper@ATL@@SAHPBUDLGTEMPLATE@@@Z 7c643480 f i stdafx.obj
 0001:000124a0       ?DlgTemplateItemCount@_DialogSplitHelper@ATL@@SAAAGPAUDLGTEMPLATE@@@Z 7c6434a0 f i stdafx.obj
 0001:000124d0       ?FindFirstDlgItem@_DialogSplitHelper@ATL@@SAPAUDLGITEMTEMPLATE@@PBUDLGTEMPLATE@@@Z 7c6434d0 f i stdafx.obj
 0001:000125d0       ?FindNextDlgItem@_DialogSplitHelper@ATL@@SAPAUDLGITEMTEMPLATE@@PAU3@H@Z 7c6435d0 f i stdafx.obj
 0001:00012690       ?AtlFindResource@ATL@@YAPAUHRSRC__@@PAUHINSTANCE__@@PB_W1@Z 7c643690 f i stdafx.obj
 0001:000126b0       ?GetInvalidValue@_AtlDialogBoxIndirectParamHelper@ATL@@SAHXZ 7c6436b0 f i stdafx.obj
 0001:000126c0       ?IsValidReturnVal@_AtlDialogBoxIndirectParamHelper@ATL@@SA_NH@Z 7c6436c0 f i stdafx.obj
 0001:000126f0       ??$AtlAxDialogCreateT@PBDV_AtlDialogBoxIndirectParamHelper@ATL@@$1?DialogBoxIndirectParamA@@YGHPAUHINSTANCE__@@PBUDLGTEMPLATE@@PAUHWND__@@P6GH2IIJ@ZJ@Z@ATL@@YAHPAUHINSTANCE__@@PBDPAUHWND__@@P6GH2IIJ@ZJ@Z 7c6436f0 f i stdafx.obj
 0001:00012840       ?AtlFindResource@ATL@@YAPAUHRSRC__@@PAUHINSTANCE__@@PBD1@Z 7c643840 f i stdafx.obj
 0001:00012860       ??$AtlAxDialogCreateT@PB_WV_AtlCreateDialogIndirectParamHelper@ATL@@$1?CreateDialogIndirectParamW@@YGPAUHWND__@@PAUHINSTANCE__@@PBUDLGTEMPLATE@@PAU4@P6GH2IIJ@ZJ@Z@ATL@@YAPAUHWND__@@PAUHINSTANCE__@@PB_WPAU1@P6GH2IIJ@ZJ@Z 7c643860 f i stdafx.obj
 0001:000129b0       ?IsValidReturnVal@_AtlCreateDialogIndirectParamHelper@ATL@@SA_NPAUHWND__@@@Z 7c6439b0 f i stdafx.obj
 0001:000129c0       ??$AtlAxDialogCreateT@PBDV_AtlCreateDialogIndirectParamHelper@ATL@@$1?CreateDialogIndirectParamA@@YGPAUHWND__@@PAUHINSTANCE__@@PBUDLGTEMPLATE@@PAU4@P6GH2IIJ@ZJ@Z@ATL@@YAPAUHWND__@@PAUHINSTANCE__@@PBDPAU1@P6GH2IIJ@ZJ@Z 7c6439c0 f i stdafx.obj
 0001:00012b10       ??$QueryInterface@UIAxWinHostWindow@@@IUnknown@@QAGJPAPAUIAxWinHostWindow@@@Z 7c643b10 f i stdafx.obj
 0001:00012b30       ??$AtlModuleRegisterWndClassInfoT@VAtlModuleRegisterWndClassInfoParamA@ATL@@@ATL@@YAGPAU_ATL_BASE_MODULE70@0@PAU_ATL_WIN_MODULE70@0@PAU_ATL_WNDCLASSINFOA@0@PAP6GJPAUHWND__@@IIJ@ZVAtlModuleRegisterWndClassInfoParamA@0@@Z 7c643b30 f i stdafx.obj
 0001:00012d40       ?GetClassInfoExW@AtlModuleRegisterWndClassInfoParamA@ATL@@SAHPAUHINSTANCE__@@PBDPAUtagWNDCLASSEXA@@@Z 7c643d40 f i stdafx.obj
 0001:00012d60       ?FormatWindowClassName@AtlModuleRegisterWndClassInfoParamA@ATL@@SAXPADKPAX@Z 7c643d60 f i stdafx.obj
 0001:00012db0       ?strcpy_s@Checked@ATL@@YAXPADIPBD@Z 7c643db0 f i stdafx.obj
 0001:00012de0       ?ui64toa_s@Checked@ATL@@YAX_KPADIH@Z 7c643de0 f i stdafx.obj
 0001:00012e10       ?LoadCursorW@AtlModuleRegisterWndClassInfoParamA@ATL@@SAPAUHICON__@@PAUHINSTANCE__@@PBD@Z 7c643e10 f i stdafx.obj
 0001:00012e30       ?RegisterClassExW@AtlModuleRegisterWndClassInfoParamA@ATL@@SAGPAU_ATL_WIN_MODULE70@2@PBUtagWNDCLASSEXA@@@Z 7c643e30 f i stdafx.obj
 0001:00012e50       ?AddRef@?$CComContainedObject@VCAxHostWindow@ATL@@@ATL@@WCE@AGKXZ 7c643e50 f i stdafx.obj
 0001:00012e60       ?QueryInterface@?$CComContainedObject@VCAxHostWindow@ATL@@@ATL@@WBA@AGJABU_GUID@@PAPAX@Z 7c643e60 f i stdafx.obj
 0001:00012e70       ?Release@?$CComContainedObject@VCAxHostWindow@ATL@@@ATL@@W7AGKXZ 7c643e70 f i stdafx.obj
 0001:00012e80       ?Release@?$CComContainedObject@VCAxHostWindow@ATL@@@ATL@@WCI@AGKXZ 7c643e80 f i stdafx.obj
 0001:00012e90       ?AddRef@?$CComContainedObject@VCAxHostWindow@ATL@@@ATL@@W7AGKXZ 7c643e90 f i stdafx.obj
 0001:00012ea0       ?AddRef@?$CComContainedObject@VCAxHostWindow@ATL@@@ATL@@WCI@AGKXZ 7c643ea0 f i stdafx.obj
 0001:00012eb0       ?QueryInterface@?$CComContainedObject@VCAxHostWindow@ATL@@@ATL@@WBE@AGJABU_GUID@@PAPAX@Z 7c643eb0 f i stdafx.obj
 0001:00012ec0       ?Release@?$CComContainedObject@VCAxHostWindow@ATL@@@ATL@@WM@AGKXZ 7c643ec0 f i stdafx.obj
 0001:00012ed0       ?AddRef@?$CComContainedObject@VCAxHostWindow@ATL@@@ATL@@WM@AGKXZ 7c643ed0 f i stdafx.obj
 0001:00012ee0       ?Release@?$CComContainedObject@VCAxHostWindow@ATL@@@ATL@@WBA@AGKXZ 7c643ee0 f i stdafx.obj
 0001:00012ef0       ?AddRef@?$CComContainedObject@VCAxHostWindow@ATL@@@ATL@@WBA@AGKXZ 7c643ef0 f i stdafx.obj
 0001:00012f00       ?QueryInterface@?$CComContainedObject@VCAxHostWindow@ATL@@@ATL@@WBM@AGJABU_GUID@@PAPAX@Z 7c643f00 f i stdafx.obj
 0001:00012f10       ?Release@?$CComContainedObject@VCAxHostWindow@ATL@@@ATL@@WBE@AGKXZ 7c643f10 f i stdafx.obj
 0001:00012f20       ?AddRef@?$CComContainedObject@VCAxHostWindow@ATL@@@ATL@@WBE@AGKXZ 7c643f20 f i stdafx.obj
 0001:00012f30       ??_E?$CComContainedObject@VCAxHostWindow@ATL@@@ATL@@WEM@AEPAXI@Z 7c643f30 f i stdafx.obj
 0001:00012f40       ?QueryInterface@?$CComContainedObject@VCAxHostWindow@ATL@@@ATL@@WCA@AGJABU_GUID@@PAPAX@Z 7c643f40 f i stdafx.obj
 0001:00012f50       ?QueryInterface@?$CComContainedObject@VCAxHostWindow@ATL@@@ATL@@W3AGJABU_GUID@@PAPAX@Z 7c643f50 f i stdafx.obj
 0001:00012f60       ?QueryInterface@?$CComContainedObject@VCAxHostWindow@ATL@@@ATL@@WCE@AGJABU_GUID@@PAPAX@Z 7c643f60 f i stdafx.obj
 0001:00012f70       ?Release@?$CComContainedObject@VCAxHostWindow@ATL@@@ATL@@WBM@AGKXZ 7c643f70 f i stdafx.obj
 0001:00012f80       ?AddRef@?$CComContainedObject@VCAxHostWindow@ATL@@@ATL@@WBM@AGKXZ 7c643f80 f i stdafx.obj
 0001:00012f90       ?QueryInterface@?$CComContainedObject@VCAxHostWindow@ATL@@@ATL@@W7AGJABU_GUID@@PAPAX@Z 7c643f90 f i stdafx.obj
 0001:00012fa0       ?QueryInterface@?$CComContainedObject@VCAxHostWindow@ATL@@@ATL@@WCI@AGJABU_GUID@@PAPAX@Z 7c643fa0 f i stdafx.obj
 0001:00012fb0       ?Release@?$CComContainedObject@VCAxHostWindow@ATL@@@ATL@@WCA@AGKXZ 7c643fb0 f i stdafx.obj
 0001:00012fc0       ?AddRef@?$CComContainedObject@VCAxHostWindow@ATL@@@ATL@@WCA@AGKXZ 7c643fc0 f i stdafx.obj
 0001:00012fd0       ??_E?$CComContainedObject@VCAxHostWindow@ATL@@@ATL@@WDI@AEPAXI@Z 7c643fd0 f i stdafx.obj
 0001:00012fe0       ?QueryInterface@?$CComContainedObject@VCAxHostWindow@ATL@@@ATL@@WM@AGJABU_GUID@@PAPAX@Z 7c643fe0 f i stdafx.obj
 0001:00012ff0       ?Release@?$CComContainedObject@VCAxHostWindow@ATL@@@ATL@@W3AGKXZ 7c643ff0 f i stdafx.obj
 0001:00013000       ?Release@?$CComContainedObject@VCAxHostWindow@ATL@@@ATL@@WCE@AGKXZ 7c644000 f i stdafx.obj
 0001:00013010       ?AddRef@?$CComContainedObject@VCAxHostWindow@ATL@@@ATL@@W3AGKXZ 7c644010 f i stdafx.obj
 0001:0001301a       _Downlevel_DelayLoadFailureHook@8 7c64401a f   atldload:downlevel_dload.obj
 0001:0001309b       _DelayLoadFailureHook@8    7c64409b f   atldload:dload.obj
 0001:000130a4       _AtlStrLower@4             7c6440a4 f   atldload:lookup.obj
 0001:000130cc       _FindDll@4                 7c6440cc f   atldload:lookup.obj
 0001:000131bb       _LookupHandlerByName@8     7c6441bb f   atldload:lookup.obj
 0001:00013231       _LookupHandlerByOrdinal@8  7c644231 f   atldload:lookup.obj
 0001:00013273       _LookupHandler@8           7c644273 f   atldload:lookup.obj
 0001:000135f5       __imp_load__CoTaskMemFree@4 7c6445f5     ole32:ole32.dll
 0001:000135ff       __tailMerge_ole32_dll      7c6445ff     ole32:ole32.dll
 0001:00013610       __imp_load__CoTaskMemAlloc@4 7c644610     ole32:ole32.dll
 0001:0001361a       __imp_load__CoTaskMemRealloc@8 7c64461a     ole32:ole32.dll
 0001:00013624       __imp_load__CoCreateInstance@20 7c644624     ole32:ole32.dll
 0001:0001362e       __imp_load__StringFromGUID2@12 7c64462e     ole32:ole32.dll
 0001:00013638       __imp_load__CoReleaseMarshalData@4 7c644638     ole32:ole32.dll
 0001:00013642       __imp_load__CoMarshalInterface@24 7c644642     ole32:ole32.dll
 0001:0001364c       __imp_load__CreateStreamOnHGlobal@12 7c64464c     ole32:ole32.dll
 0001:00013656       __imp_load__CoUnmarshalInterface@12 7c644656     ole32:ole32.dll
 0001:00013660       __imp_load__CoRegisterClassObject@20 7c644660     ole32:ole32.dll
 0001:0001366a       __imp_load__CoRevokeClassObject@4 7c64466a     ole32:ole32.dll
 0001:00013674       __imp_load__ProgIDFromCLSID@8 7c644674     ole32:ole32.dll
 0001:0001367e       __imp_load__OleLoadFromStream@12 7c64467e     ole32:ole32.dll
 0001:00013688       __imp_load__WriteClassStm@8 7c644688     ole32:ole32.dll
 0001:00013692       __imp_load__OleSaveToStream@8 7c644692     ole32:ole32.dll
 0001:0001369c       __imp_load__OleUninitialize@0 7c64469c     ole32:ole32.dll
 0001:000136a6       __imp_load__OleInitialize@4 7c6446a6     ole32:ole32.dll
 0001:000136b0       __imp_load__CoGetClassObject@20 7c6446b0     ole32:ole32.dll
 0001:000136ba       __imp_load__CLSIDFromProgID@8 7c6446ba     ole32:ole32.dll
 0001:000136c4       __imp_load__CLSIDFromString@8 7c6446c4     ole32:ole32.dll
 0001:000136ce       __imp_load__OleLockRunning@12 7c6446ce     ole32:ole32.dll
 0001:000136d8       __imp_load__VarUI4FromStr@16 7c6446d8     oleaut32:OLEAUT32.dll
 0001:000136e2       __tailMerge_OLEAUT32_dll   7c6446e2     oleaut32:OLEAUT32.dll
 0001:000136f3       __imp_load__SysAllocString@4 7c6446f3     oleaut32:OLEAUT32.dll
 0001:000136fd       __imp_load__LoadTypeLib@8  7c6446fd     oleaut32:OLEAUT32.dll
 0001:00013707       __imp_load__UnRegisterTypeLib@20 7c644707     oleaut32:OLEAUT32.dll
 0001:00013711       __imp_load__SysFreeString@4 7c644711     oleaut32:OLEAUT32.dll
 0001:0001371b       __imp_load__RegisterTypeLib@12 7c64471b     oleaut32:OLEAUT32.dll
 0001:00013725       __imp_load__SysStringLen@4 7c644725     oleaut32:OLEAUT32.dll
 0001:0001372f       __imp_load__SetErrorInfo@8 7c64472f     oleaut32:OLEAUT32.dll
 0001:00013739       __imp_load__CreateErrorInfo@4 7c644739     oleaut32:OLEAUT32.dll
 0001:00013743       __imp_load__SysAllocStringByteLen@8 7c644743     oleaut32:OLEAUT32.dll
 0001:0001374d       __imp_load__VariantInit@4  7c64474d     oleaut32:OLEAUT32.dll
 0001:00013757       __imp_load__VariantClear@4 7c644757     oleaut32:OLEAUT32.dll
 0001:00013761       __imp_load__VariantChangeType@16 7c644761     oleaut32:OLEAUT32.dll
 0001:0001376b       __imp_load__SysStringByteLen@4 7c64476b     oleaut32:OLEAUT32.dll
 0001:00013775       __imp_load__SysAllocStringLen@8 7c644775     oleaut32:OLEAUT32.dll
 0001:0001377f       __imp_load__OleCreateFontIndirect@12 7c64477f     oleaut32:OLEAUT32.dll
 0001:00013789       __imp_load__LoadRegTypeLib@20 7c644789     oleaut32:OLEAUT32.dll
 0001:00013793       __imp_load__RegDeleteKeyW@8 7c644793     advapi32:ADVAPI32.dll
 0001:0001379d       __tailMerge_ADVAPI32_dll   7c64479d     advapi32:ADVAPI32.dll
 0001:000137ae       __imp_load__RegDeleteValueW@8 7c6447ae     advapi32:ADVAPI32.dll
 0001:000137b8       __imp_load__RegCloseKey@4  7c6447b8     advapi32:ADVAPI32.dll
 0001:000137c2       __imp_load__RegCreateKeyExW@36 7c6447c2     advapi32:ADVAPI32.dll
 0001:000137cc       __imp_load__RegOpenKeyExW@20 7c6447cc     advapi32:ADVAPI32.dll
 0001:000137d6       __imp_load__RegEnumKeyExW@32 7c6447d6     advapi32:ADVAPI32.dll
 0001:000137e0       __imp_load__RegSetValueExW@24 7c6447e0     advapi32:ADVAPI32.dll
 0001:000137ea       __imp_load__RegQueryInfoKeyW@48 7c6447ea     advapi32:ADVAPI32.dll
 0001:000137f4       __imp_load__RegisterClassExW@4 7c6447f4     user32:USER32.dll
 0001:000137fe       __tailMerge_USER32_dll     7c6447fe     user32:USER32.dll
 0001:0001380f       __imp_load__GetClassInfoExW@12 7c64480f     user32:USER32.dll
 0001:00013819       __imp_load__LoadCursorW@8  7c644819     user32:USER32.dll
 0001:00013823       __imp_load__MessageBoxA@16 7c644823     user32:USER32.dll
 0001:0001382d       __imp_load__CharNextW@4    7c64482d     user32:USER32.dll
 0001:00013837       __imp_load__UnregisterClassW@8 7c644837     user32:USER32.dll
 0001:00013841       __imp_load__DispatchMessageA@4 7c644841     user32:USER32.dll
 0001:0001384b       __imp_load__DispatchMessageW@4 7c64484b     user32:USER32.dll
 0001:00013855       __imp_load__TranslateMessage@4 7c644855     user32:USER32.dll
 0001:0001385f       __imp_load__GetMessageA@16 7c64485f     user32:USER32.dll
 0001:00013869       __imp_load__GetMessageW@16 7c644869     user32:USER32.dll
 0001:00013873       __imp_load__IsWindowUnicode@4 7c644873     user32:USER32.dll
 0001:0001387d       __imp_load__PeekMessageW@20 7c64487d     user32:USER32.dll
 0001:00013887       __imp_load__MsgWaitForMultipleObjects@20 7c644887     user32:USER32.dll
 0001:00013891       __imp_load__LoadStringW@16 7c644891     user32:USER32.dll
 0001:0001389b       __imp_load__RegisterWindowMessageW@4 7c64489b     user32:USER32.dll
 0001:000138a5       __imp_load__DefWindowProcW@16 7c6448a5     user32:USER32.dll
 0001:000138af       __imp_load__SetWindowLongW@12 7c6448af     user32:USER32.dll
 0001:000138b9       __imp_load__GetWindowLongW@8 7c6448b9     user32:USER32.dll
 0001:000138c3       __imp_load__SetWindowTextW@8 7c6448c3     user32:USER32.dll
 0001:000138cd       __imp_load__GetWindowTextW@12 7c6448cd     user32:USER32.dll
 0001:000138d7       __imp_load__GetWindowTextLengthW@4 7c6448d7     user32:USER32.dll
 0001:000138e1       __imp_load__SendMessageW@16 7c6448e1     user32:USER32.dll
 0001:000138eb       __imp_load__RegisterClassExA@4 7c6448eb     user32:USER32.dll
 0001:000138f5       __imp_load__ReleaseDC@8    7c6448f5     user32:USER32.dll
 0001:000138ff       __imp_load__GetDC@4        7c6448ff     user32:USER32.dll
 0001:00013909       __imp_load__DestroyAcceleratorTable@4 7c644909     user32:USER32.dll
 0001:00013913       __imp_load__GetSysColor@4  7c644913     user32:USER32.dll
 0001:0001391d       __imp_load__GetWindow@8    7c64491d     user32:USER32.dll
 0001:00013927       __imp_load__GetFocus@0     7c644927     user32:USER32.dll
 0001:00013931       __imp_load__SetFocus@4     7c644931     user32:USER32.dll
 0001:0001393b       __imp_load__IsChild@8      7c64493b     user32:USER32.dll
 0001:00013945       __imp_load__EndPaint@8     7c644945     user32:USER32.dll
 0001:0001394f       __imp_load__FillRect@12    7c64494f     user32:USER32.dll
 0001:00013959       __imp_load__BeginPaint@8   7c644959     user32:USER32.dll
 0001:00013963       __imp_load__GetClientRect@8 7c644963     user32:USER32.dll
 0001:0001396d       __imp_load__IsWindow@4     7c64496d     user32:USER32.dll
 0001:00013977       __imp_load__RedrawWindow@16 7c644977     user32:USER32.dll
 0001:00013981       __imp_load__SetWindowPos@28 7c644981     user32:USER32.dll
 0001:0001398b       __imp_load__GetClassNameW@12 7c64498b     user32:USER32.dll
 0001:00013995       __imp_load__GetParent@4    7c644995     user32:USER32.dll
 0001:0001399f       __imp_load__GetDesktopWindow@0 7c64499f     user32:USER32.dll
 0001:000139a9       __imp_load__CreateAcceleratorTableW@8 7c6449a9     user32:USER32.dll
 0001:000139b3       __imp_load__MoveWindow@24  7c6449b3     user32:USER32.dll
 0001:000139bd       __imp_load__ClientToScreen@8 7c6449bd     user32:USER32.dll
 0001:000139c7       __imp_load__ScreenToClient@8 7c6449c7     user32:USER32.dll
 0001:000139d1       __imp_load__ReleaseCapture@0 7c6449d1     user32:USER32.dll
 0001:000139db       __imp_load__SetCapture@4   7c6449db     user32:USER32.dll
 0001:000139e5       __imp_load__InvalidateRect@12 7c6449e5     user32:USER32.dll
 0001:000139ef       __imp_load__InvalidateRgn@12 7c6449ef     user32:USER32.dll
 0001:000139f9       __imp_load__GetDlgItem@8   7c6449f9     user32:USER32.dll
 0001:00013a03       __imp_load__DestroyWindow@4 7c644a03     user32:USER32.dll
 0001:00013a0d       __imp_load__CallWindowProcW@20 7c644a0d     user32:USER32.dll
 0001:00013a17       __imp_load__CreateWindowExW@48 7c644a17     user32:USER32.dll
 0001:00013a21       __imp_load__DialogBoxIndirectParamW@20 7c644a21     user32:USER32.dll
 0001:00013a2b       __imp_load__DialogBoxIndirectParamA@20 7c644a2b     user32:USER32.dll
 0001:00013a35       __imp_load__CreateDialogIndirectParamW@20 7c644a35     user32:USER32.dll
 0001:00013a3f       __imp_load__CreateDialogIndirectParamA@20 7c644a3f     user32:USER32.dll
 0001:00013a49       __imp_load__GetClassInfoExA@12 7c644a49     user32:USER32.dll
 0001:00013a53       __imp_load__LoadCursorA@8  7c644a53     user32:USER32.dll
 0001:00013a5d       __imp_load__GetDeviceCaps@8 7c644a5d     gdi32:GDI32.dll
 0001:00013a67       __tailMerge_GDI32_dll      7c644a67     gdi32:GDI32.dll
 0001:00013a78       __imp_load__CreateDCW@16   7c644a78     gdi32:GDI32.dll
 0001:00013a82       __imp_load__DeleteDC@4     7c644a82     gdi32:GDI32.dll
 0001:00013a8c       __imp_load__BitBlt@36      7c644a8c     gdi32:GDI32.dll
 0001:00013a96       __imp_load__SelectObject@8 7c644a96     gdi32:GDI32.dll
 0001:00013aa0       __imp_load__CreateCompatibleDC@4 7c644aa0     gdi32:GDI32.dll
 0001:00013aaa       __imp_load__CreateCompatibleBitmap@12 7c644aaa     gdi32:GDI32.dll
 0001:00013ab4       __imp_load__DeleteObject@4 7c644ab4     gdi32:GDI32.dll
 0001:00013abe       __imp_load__CreateSolidBrush@4 7c644abe     gdi32:GDI32.dll
 0001:00013ac8       __imp_load__GetObjectW@12  7c644ac8     gdi32:GDI32.dll
 0001:00013ad2       __imp_load__GetStockObject@4 7c644ad2     gdi32:GDI32.dll
 0001:00013adc       _SetLastError@4            7c644adc f   kernel32:KERNEL32.dll
 0001:00013ae2       _lstrcmpA@8                7c644ae2 f   kernel32:KERNEL32.dll
 0001:00013ae8       _GetModuleHandleA@4        7c644ae8 f   kernel32:KERNEL32.dll
 0001:00013aee       _GetTickCount@0            7c644aee f   kernel32:KERNEL32.dll
 0001:00013af4       ?_AtlGetThreadACPFake@ATL@@YGIXZ 7c644af4 f i atls:atltrace.obj
 0001:00013b59       ?_AtlGetThreadACPReal@ATL@@YGIXZ 7c644b59 f i atls:atltrace.obj
 0001:00013b5d       ?_AtlGetThreadACPThunk@ATL@@YGIXZ 7c644b5d f i atls:atltrace.obj
 0001:00013bc1       ?RemoveAll@?$CSimpleArray@PAUHINSTANCE__@@V?$CSimpleArrayEqualHelper@PAUHINSTANCE__@@@ATL@@@ATL@@QAEXXZ 7c644bc1 f i atls:atlbase.obj
 0001:00013bde       ?AtlWinModuleInit@ATL@@YGJPAU_ATL_WIN_MODULE70@1@@Z 7c644bde f i atls:atlbase.obj
 0001:00013c01       ??0_ATL_WIN_MODULE70@ATL@@QAE@XZ 7c644c01 f i atls:atlbase.obj
 0001:00013c1b       ?AtlWinModuleTerm@ATL@@YGJPAU_ATL_WIN_MODULE70@1@PAUHINSTANCE__@@@Z 7c644c1b f i atls:atlbase.obj
 0001:00013c7b       ??0_ATL_BASE_MODULE70@ATL@@QAE@XZ 7c644c7b f i atls:atlbase.obj
 0001:00013c95       ??1CAtlBaseModule@ATL@@QAE@XZ 7c644c95 f   atls:atlbase.obj
 0001:00013cab       ??0CAtlWinModule@ATL@@QAE@XZ 7c644cab f i atls:atlbase.obj
 0001:00013cd1       ??0CAtlBaseModule@ATL@@QAE@XZ 7c644cd1 f   atls:atlbase.obj
 0001:00013d80       ??1CAtlWinModule@ATL@@QAE@XZ 7c644d80 f i atls:atlbase.obj
 0001:00013d98       ?Term@CAtlComModule@ATL@@QAEXXZ 7c644d98 f i atls:atlcommodule.obj
 0001:00013dda       ??0CAtlComModule@ATL@@QAE@XZ 7c644dda f i atls:atlcommodule.obj
 0001:00013e1f       ?__FreeStdCallThunk_cmn@@YAXPAX@Z 7c644e1f f   atls:atlthunk.obj
 0001:00013efa       ?__FreeStdCallThunk@ATL@@YGXPAX@Z 7c644efa f   atls:atlthunk.obj
 0001:00013f07       ?__AllocStdCallThunk_cmn@@YAPAXXZ 7c644f07 f   atls:atlthunk.obj
 0001:00013fa7       ?__AllocStdCallThunk@ATL@@YGPAXXZ 7c644fa7 f   atls:atlthunk.obj
 0001:00013fac       _DoInitialization          7c644fac f   atlmincrt:atlinit.obj
 0001:0001405c       _malloc                    7c64505c f   atlmincrt:atlinit.obj
 0001:0001406f       _calloc                    7c64506f f   atlmincrt:atlinit.obj
 0001:000140ad       __msize                    7c6450ad f   atlmincrt:atlinit.obj
 0001:000140c0       _free                      7c6450c0 f   atlmincrt:atlinit.obj
 0001:000140da       ??_U@YAPAXI@Z              7c6450da f   atlmincrt:atlinit.obj
 0001:000140da       ??2@YAPAXI@Z               7c6450da f   atlmincrt:atlinit.obj
 0001:000140df       ??_V@YAXPAX@Z              7c6450df f   atlmincrt:atlinit.obj
 0001:000140df       ??3@YAXPAX@Z               7c6450df f   atlmincrt:atlinit.obj
 0001:000140e4       __purecall                 7c6450e4 f   atlmincrt:atlinit.obj
 0001:000140ed       __errno                    7c6450ed f   atlmincrt:atlinit.obj
 0001:000140f3       _memcpy_s                  7c6450f3 f   atlmincrt:atlinit.obj
 0001:00014148       __decode_pointer           7c645148 f   atlmincrt:atlinit.obj
 0001:00014176       ??$strcpy_s@D@?A0xcb21b391@@YAHPADIPBD@Z 7c645176 f i atlmincrt:atlinit.obj
 0001:000141bb       ??$strcpy_s@_W@?A0xcb21b391@@YAHPA_WIPB_W@Z 7c6451bb f i atlmincrt:atlinit.obj
 0001:00014206       ??$strcat_s@_W@?A0xcb21b391@@YAHPA_WIPB_W@Z 7c645206 f i atlmincrt:atlinit.obj
 0001:00014261       ??$_tcsncpy_s@_W@?A0xcb21b391@@YAHPA_WIPB_WI@Z 7c645261 f i atlmincrt:atlinit.obj
 0001:00014303       _DoCleanup                 7c645303 f   atlmincrt:atlinit.obj
 0001:000143bb       _realloc                   7c6453bb f   atlmincrt:atlinit.obj
 0001:000143f7       __recalloc                 7c6453f7 f   atlmincrt:atlinit.obj
 0001:00014421       _atexit                    7c645421 f   atlmincrt:atlinit.obj
 0001:000144df       _strcpy_s                  7c6454df f   atlmincrt:atlinit.obj
 0001:000144e4       _wcscpy_s                  7c6454e4 f   atlmincrt:atlinit.obj
 0001:000144e9       _wcscat_s                  7c6454e9 f   atlmincrt:atlinit.obj
 0001:000144ee       _wcsncpy_s                 7c6454ee f   atlmincrt:atlinit.obj
 0001:000144f3       ___DllMainCRTStartup       7c6454f3 f   atlmincrt:atlinitdll.obj
 0001:00014561       __DllMainCRTStartup@12     7c645561 f   atlmincrt:atlinitdll.obj
 0001:00014584       _wcslen                    7c645584 f   libcmt:wcslen.obj
 0001:00014698       __ui64tow_s                7c645698 f   libcmt:xtows.obj
 0001:000146b5       @__security_check_cookie@4 7c6456b5 f   libcmt:secchk.obj
 0001:000146d0       __except_handler4          7c6456d0 f   libcmt:chandler4.obj
 0001:00014870       __alloca_probe             7c645870     libcmt:chkstk.obj
 0001:00014870       __chkstk                   7c645870 f   libcmt:chkstk.obj
 0001:000148a0       _memset                    7c6458a0 f   libcmt:memset.obj
 0001:0001491a       _memcmp                    7c64591a f   libcmt:memcmp.obj
 0001:00015fa0       __alloca_probe_16          7c646fa0 f   libcmt:alloca16.obj
 0001:00015fb6       __alloca_probe_8           7c646fb6     libcmt:alloca16.obj
 0001:00015fd0       _strlen                    7c646fd0 f   libcmt:strlen.obj
 0001:00016151       __ui64toa_s                7c647151 f   libcmt:xtoas.obj
 0001:00016170       __SEH_prolog4              7c647170 f   libcmt:sehprolg4.obj
 0001:000161b5       __SEH_epilog4              7c6471b5 f   libcmt:sehprolg4.obj
 0001:000161d0       _memcpy                    7c6471d0 f   libcmt:memcpy.obj
 0001:00016540       _memmove                   7c647540 f   libcmt:memmove.obj
 0001:000168a5       ___security_init_cookie    7c6478a5 f   libcmt:gs_support.obj
 0001:00016939       __invoke_watson            7c647939 f   libcmt:invarg.obj
 0001:00016a35       __invalid_parameter        7c647a35 f   libcmt:invarg.obj
 0001:00016a60       __aulldvrm                 7c647a60 f   libcmt:ulldvrm.obj
 0001:00016af5       ___report_gsfailure        7c647af5 f   libcmt:gs_report.obj
 0001:00016bfc       __local_unwind4            7c647bfc f   libcmt:exsup4.obj
 0001:00016cd2       __seh_longjmp_unwind4@4    7c647cd2 f   libcmt:exsup4.obj
 0001:00016cee       @_EH4_CallFilterFunc@8     7c647cee f   libcmt:exsup4.obj
 0001:00016d05       @_EH4_TransferToHandler@8  7c647d05 f   libcmt:exsup4.obj
 0001:00016d1e       @_EH4_GlobalUnwind@4       7c647d1e f   libcmt:exsup4.obj
 0001:00016d38       @_EH4_LocalUnwind@16       7c647d38 f   libcmt:exsup4.obj
 0001:00016d50       __ValidateImageBase        7c647d50 f   libcmt:pesect.obj
 0001:00016d80       __FindPESection            7c647d80 f   libcmt:pesect.obj
 0001:00016dd0       __IsNonwritableInCurrentImage 7c647dd0 f   libcmt:pesect.obj
 0001:00016ee2       __VEC_memzero              7c647ee2 f   libcmt:p4_memset.obj
 0001:00016f71       __sse2_mathfcns_init       7c647f71 f   libcmt:mathfcns.obj
 0001:0001700c       __VEC_memcpy               7c64800c f   libcmt:p4_memcpy.obj
 0001:000170ef       __crt_debugger_hook        7c6480ef f   libcmt:dbghook.obj
 0001:000170f8       __global_unwind2           7c6480f8 f   libcmt:exsup.obj
 0001:0001715d       __local_unwind2            7c64815d f   libcmt:exsup.obj
 0001:000171e1       __abnormal_termination     7c6481e1 f   libcmt:exsup.obj
 0001:00017204       __NLG_Notify1              7c648204 f   libcmt:exsup.obj
 0001:0001720d       __NLG_Notify               7c64820d f   libcmt:exsup.obj
 0001:00017224       __NLG_Dispatch2            7c648224     libcmt:exsup.obj
 0001:00017224       __NLG_Dispatch             7c648224     libcmt:exsup.obj
 0001:0001722c       __NLG_Call                 7c64822c f   libcmt:exsup.obj
 0001:0001722e       __NLG_Return2              7c64822e     libcmt:exsup.obj
 0001:0001727f       __get_sse2_info            7c64827f f   libcmt:cpu_disp.obj
 0001:000172df       ___sse2_available_init     7c6482df f   libcmt:cpu_disp.obj
 0001:000172ec       ___delayLoadHelper2@8      7c6482ec f   delayimp:delayhlp.obj
 0001:00017529       __imp_load__UnregisterClassA@8 7c648529     user32:USER32.dll
 0001:00017534       _RtlUnwind@16              7c648534 f   kernel32:KERNEL32.dll
 0002:00000000       __imp__GetCurrentThreadId@0 7c649000     kernel32:KERNEL32.dll
 0002:00000004       __imp__RaiseException@16   7c649004     kernel32:KERNEL32.dll
 0002:00000008       __imp__LeaveCriticalSection@4 7c649008     kernel32:KERNEL32.dll
 0002:0000000c       __imp__EnterCriticalSection@4 7c64900c     kernel32:KERNEL32.dll
 0002:00000010       __imp__DisableThreadLibraryCalls@4 7c649010     kernel32:KERNEL32.dll
 0002:00000014       __imp__GetVersionExA@4     7c649014     kernel32:KERNEL32.dll
 0002:00000018       __imp__GetModuleHandleW@4  7c649018     kernel32:KERNEL32.dll
 0002:0000001c       __imp__GetModuleFileNameW@12 7c64901c     kernel32:KERNEL32.dll
 0002:00000020       __imp__lstrlenW@4          7c649020     kernel32:KERNEL32.dll
 0002:00000024       __imp__InitializeCriticalSection@4 7c649024     kernel32:KERNEL32.dll
 0002:00000028       __imp__GetLastError@0      7c649028     kernel32:KERNEL32.dll
 0002:0000002c       __imp__DeleteCriticalSection@4 7c64902c     kernel32:KERNEL32.dll
 0002:00000030       __imp__FreeLibrary@4       7c649030     kernel32:KERNEL32.dll
 0002:00000034       __imp__MultiByteToWideChar@24 7c649034     kernel32:KERNEL32.dll
 0002:00000038       __imp__SizeofResource@8    7c649038     kernel32:KERNEL32.dll
 0002:0000003c       __imp__LoadResource@8      7c64903c     kernel32:KERNEL32.dll
 0002:00000040       __imp__FindResourceW@12    7c649040     kernel32:KERNEL32.dll
 0002:00000044       __imp__LoadLibraryExW@12   7c649044     kernel32:KERNEL32.dll
 0002:00000048       __imp__CloseHandle@4       7c649048     kernel32:KERNEL32.dll
 0002:0000004c       __imp__ReadFile@20         7c64904c     kernel32:KERNEL32.dll
 0002:00000050       __imp__GetFileSize@8       7c649050     kernel32:KERNEL32.dll
 0002:00000054       __imp__CreateFileW@28      7c649054     kernel32:KERNEL32.dll
 0002:00000058       __imp__lstrcmpiW@8         7c649058     kernel32:KERNEL32.dll
 0002:0000005c       __imp__InterlockedIncrement@4 7c64905c     kernel32:KERNEL32.dll
 0002:00000060       __imp__InterlockedDecrement@4 7c649060     kernel32:KERNEL32.dll
 0002:00000064       __imp__WideCharToMultiByte@32 7c649064     kernel32:KERNEL32.dll
 0002:00000068       __imp__WaitForSingleObject@8 7c649068     kernel32:KERNEL32.dll
 0002:0000006c       __imp__GlobalUnlock@4      7c64906c     kernel32:KERNEL32.dll
 0002:00000070       __imp__GlobalLock@4        7c649070     kernel32:KERNEL32.dll
 0002:00000074       __imp__GlobalAlloc@8       7c649074     kernel32:KERNEL32.dll
 0002:00000078       __imp__MulDiv@12           7c649078     kernel32:KERNEL32.dll
 0002:0000007c       __imp__lstrcmpW@8          7c64907c     kernel32:KERNEL32.dll
 0002:00000080       __imp__FlushInstructionCache@12 7c649080     kernel32:KERNEL32.dll
 0002:00000084       __imp__GetCurrentProcess@0 7c649084     kernel32:KERNEL32.dll
 0002:00000088       __imp__SetLastError@4      7c649088     kernel32:KERNEL32.dll
 0002:0000008c       __imp__GlobalFree@4        7c64908c     kernel32:KERNEL32.dll
 0002:00000090       __imp__GlobalHandle@4      7c649090     kernel32:KERNEL32.dll
 0002:00000094       __imp__LockResource@4      7c649094     kernel32:KERNEL32.dll
 0002:00000098       __imp__FindResourceA@12    7c649098     kernel32:KERNEL32.dll
 0002:0000009c       __imp__lstrcmpA@8          7c64909c     kernel32:KERNEL32.dll
 0002:000000a0       __imp__GetModuleHandleA@4  7c6490a0     kernel32:KERNEL32.dll
 0002:000000a4       __imp__GetTickCount@0      7c6490a4     kernel32:KERNEL32.dll
 0002:000000a8       __imp__InterlockedExchange@8 7c6490a8     kernel32:KERNEL32.dll
 0002:000000ac       __imp__GetACP@0            7c6490ac     kernel32:KERNEL32.dll
 0002:000000b0       __imp__GetLocaleInfoA@16   7c6490b0     kernel32:KERNEL32.dll
 0002:000000b4       __imp__GetThreadLocale@0   7c6490b4     kernel32:KERNEL32.dll
 0002:000000b8       __imp__InterlockedCompareExchange@12 7c6490b8     kernel32:KERNEL32.dll
 0002:000000bc       __imp__HeapFree@12         7c6490bc     kernel32:KERNEL32.dll
 0002:000000c0       __imp__GetProcessHeap@0    7c6490c0     kernel32:KERNEL32.dll
 0002:000000c4       __imp__HeapAlloc@12        7c6490c4     kernel32:KERNEL32.dll
 0002:000000c8       __imp__GetProcAddress@8    7c6490c8     kernel32:KERNEL32.dll
 0002:000000cc       __imp__LoadLibraryA@4      7c6490cc     kernel32:KERNEL32.dll
 0002:000000d0       __imp__IsProcessorFeaturePresent@4 7c6490d0     kernel32:KERNEL32.dll
 0002:000000d4       __imp__VirtualFree@12      7c6490d4     kernel32:KERNEL32.dll
 0002:000000d8       __imp__VirtualAlloc@16     7c6490d8     kernel32:KERNEL32.dll
 0002:000000dc       __imp__HeapSize@12         7c6490dc     kernel32:KERNEL32.dll
 0002:000000e0       __imp__DebugBreak@0        7c6490e0     kernel32:KERNEL32.dll
 0002:000000e4       __imp__HeapReAlloc@16      7c6490e4     kernel32:KERNEL32.dll
 0002:000000e8       __imp__QueryPerformanceCounter@4 7c6490e8     kernel32:KERNEL32.dll
 0002:000000ec       __imp__GetCurrentProcessId@0 7c6490ec     kernel32:KERNEL32.dll
 0002:000000f0       __imp__GetSystemTimeAsFileTime@4 7c6490f0     kernel32:KERNEL32.dll
 0002:000000f4       __imp__TerminateProcess@8  7c6490f4     kernel32:KERNEL32.dll
 0002:000000f8       __imp__UnhandledExceptionFilter@4 7c6490f8     kernel32:KERNEL32.dll
 0002:000000fc       __imp__SetUnhandledExceptionFilter@4 7c6490fc     kernel32:KERNEL32.dll
 0002:00000100       __imp__IsDebuggerPresent@0 7c649100     kernel32:KERNEL32.dll
 0002:00000104       __imp__RtlUnwind@16        7c649104     kernel32:KERNEL32.dll
 0002:00000108       __imp__LocalAlloc@8        7c649108     kernel32:KERNEL32.dll
 0002:0000010c       \177KERNEL32_NULL_THUNK_DATA 7c64910c     kernel32:KERNEL32.dll
 0002:00000110       ___xc_a                    7c649110     libcmt:crt0init.obj
 0002:00000124       ___xc_z                    7c649124     libcmt:crt0init.obj
 0002:00000128       ___xi_a                    7c649128     libcmt:crt0init.obj
 0002:00000134       ___xi_z                    7c649134     libcmt:crt0init.obj
 0002:00000138       ___xp_a                    7c649138     libcmt:crt0init.obj
 0002:0000013c       ___xp_z                    7c64913c     libcmt:crt0init.obj
 0002:00000140       ___xt_a                    7c649140     libcmt:crt0init.obj
 0002:00000144       ___xt_z                    7c649144     libcmt:crt0init.obj
 0002:000002bc       _IID_IRegistrar            7c6492bc     RegObj.obj
 0002:000002cc       ?rgszNeverDelete@CRegParser@ATL@@1QBQB_WB 7c6492cc     RegObj.obj
 0002:000002fc       ??_C@_19FLGNNEPJ@?$AAA?$AAT?$AAL?$AA?3?$AA?$AA@ 7c6492fc     RegObj.obj
 0002:000005b4       _CLSID_Registrar           7c6495b4     atl.obj
 0002:000005c4       _LIBID_ATLLib              7c6495c4     atl.obj
 0002:000005d4       ??_C@_1BC@KAILKFFG@?$AAR?$AAE?$AAG?$AAI?$AAS?$AAT?$AAR?$AAY?$AA?$AA@ 7c6495d4     atl.obj
 0002:000005e8       ??_C@_1BG@JBACFMF@?$AAM?$AAo?$AAd?$AAu?$AAl?$AAe?$AA_?$AAR?$AAa?$AAw?$AA?$AA@ 7c6495e8     atl.obj
 0002:00000600       ??_C@_1O@MNLDABAF@?$AAM?$AAo?$AAd?$AAu?$AAl?$AAe?$AA?$AA@ 7c649600     atl.obj
 0002:00000610       ??_7?$CComObjectCached@VCComClassFactory@ATL@@@ATL@@6B@ 7c649610     atl.obj
 0002:00000624       ??_7CComClassFactory@ATL@@6B@ 7c649624     atl.obj
 0002:00000638       ??_7?$CComObject@VCDLLRegObject@@@ATL@@6B@ 7c649638     atl.obj
 0002:00000670       ?_entries@?1??_GetEntries@CDLLRegObject@@SGPBU_ATL_INTMAP_ENTRY@ATL@@XZ@4QBU34@B 7c649670     atl.obj
 0002:00000688       __GUID_44ec053b_400f_11d0_9dcd_00a0c90391d3 7c649688     atl.obj
 0002:00000698       ?_entries@?1??_GetEntries@CComClassFactory@ATL@@SGPBU_ATL_INTMAP_ENTRY@3@XZ@4QBU43@B 7c649698     atl.obj
 0002:000006b0       __GUID_00000001_0000_0000_c000_000000000046 7c6496b0     atl.obj
 0002:000006c0       ?map@?2??HKeyFromString@CRegParser@ATL@@KAPAUHKEY__@@PA_W@Z@4QBUkeymap@?1??123@KAPAU4@0@Z@B 7c6496c0     atl.obj
 0002:00000730       ??_C@_19NCHLBIN@?$AAH?$AAK?$AAC?$AAR?$AA?$AA@ 7c649730     atl.obj
 0002:0000073c       ??_C@_19JAPAIJDE@?$AAH?$AAK?$AAC?$AAU?$AA?$AA@ 7c64973c     atl.obj
 0002:00000748       ??_C@_19PEALEEJB@?$AAH?$AAK?$AAL?$AAM?$AA?$AA@ 7c649748     atl.obj
 0002:00000754       ??_C@_17PJOJPMPB@?$AAH?$AAK?$AAU?$AA?$AA@ 7c649754     atl.obj
 0002:0000075c       ??_C@_19PNBHMJPL@?$AAH?$AAK?$AAP?$AAD?$AA?$AA@ 7c64975c     atl.obj
 0002:00000768       ??_C@_19GFFAIJHG@?$AAH?$AAK?$AAD?$AAD?$AA?$AA@ 7c649768     atl.obj
 0002:00000774       ??_C@_19OFICIBHH@?$AAH?$AAK?$AAC?$AAC?$AA?$AA@ 7c649774     atl.obj
 0002:00000780       ??_C@_1CE@PACHPJFI@?$AAH?$AAK?$AAE?$AAY?$AA_?$AAC?$AAL?$AAA?$AAS?$AAS?$AAE?$AAS?$AA_?$AAR?$AAO?$AAO?$AAT?$AA?$AA@ 7c649780     atl.obj
 0002:000007a4       ??_C@_1CE@HLHNCBPM@?$AAH?$AAK?$AAE?$AAY?$AA_?$AAC?$AAU?$AAR?$AAR?$AAE?$AAN?$AAT?$AA_?$AAU?$AAS?$AAE?$AAR?$AA?$AA@ 7c6497a4     atl.obj
 0002:000007c8       ??_C@_1CG@GFBEANJL@?$AAH?$AAK?$AAE?$AAY?$AA_?$AAL?$AAO?$AAC?$AAA?$AAL?$AA_?$AAM?$AAA?$AAC?$AAH?$AAI?$AAN?$AAE?$AA?$AA@ 7c6497c8     atl.obj
 0002:000007f0       ??_C@_1BG@BGODANIO@?$AAH?$AAK?$AAE?$AAY?$AA_?$AAU?$AAS?$AAE?$AAR?$AAS?$AA?$AA@ 7c6497f0     atl.obj
 0002:00000808       ??_C@_1CM@KHNNAOIC@?$AAH?$AAK?$AAE?$AAY?$AA_?$AAP?$AAE?$AAR?$AAF?$AAO?$AAR?$AAM?$AAA?$AAN?$AAC?$AAE?$AA_?$AAD?$AAA?$AAT?$AAA?$AA?$AA@ 7c649808     atl.obj
 0002:00000834       ??_C@_1BM@HAGMMHIA@?$AAH?$AAK?$AAE?$AAY?$AA_?$AAD?$AAY?$AAN?$AA_?$AAD?$AAA?$AAT?$AAA?$AA?$AA@ 7c649834     atl.obj
 0002:00000850       ??_C@_1CI@BBJOACGG@?$AAH?$AAK?$AAE?$AAY?$AA_?$AAC?$AAU?$AAR?$AAR?$AAE?$AAN?$AAT?$AA_?$AAC?$AAO?$AAN?$AAF?$AAI?$AAG?$AA?$AA@ 7c649850     atl.obj
 0002:00000878       ??_C@_1BG@BBPPJBOK@?$AAA?$AAt?$AAl?$AAA?$AAx?$AAW?$AAi?$AAn?$AA8?$AA0?$AA?$AA@ 7c649878     atl.obj
 0002:00000890       ??_C@_1BM@LMHDDEMC@?$AAA?$AAt?$AAl?$AAA?$AAx?$AAW?$AAi?$AAn?$AAL?$AAi?$AAc?$AA8?$AA0?$AA?$AA@ 7c649890     atl.obj
 0002:000008ac       ??_7CComModule@ATL@@6B@    7c6498ac     atl.obj
 0002:000008d4       __GUID_00000146_0000_0000_c000_000000000046 7c6498d4     atl.obj
 0002:000008e4       ??_C@_1M@PPPPCDEP@?$AAA?$AAP?$AAP?$AAI?$AAD?$AA?$AA@ 7c6498e4     atl.obj
 0002:000008f0       ??_C@_11LOCGONAA@?$AA?$AA@ 7c6498f0     atl.obj
 0002:00000a50       ??_C@_19ILOCMLCJ@?$AA?4?$AAt?$AAl?$AAb?$AA?$AA@ 7c649a50     stdafx.obj
 0002:00000a5c       ??_C@_1DA@BIHALFED@?$AA?2?$AAI?$AAm?$AAp?$AAl?$AAe?$AAm?$AAe?$AAn?$AAt?$AAe?$AAd?$AA?5?$AAC?$AAa?$AAt?$AAe?$AAg?$AAo?$AAr?$AAi?$AAe?$AAs?$AA?$AA@ 7c649a5c     stdafx.obj
 0002:00000a8c       ??_C@_1CK@IFBKBFAA@?$AA?2?$AAR?$AAe?$AAq?$AAu?$AAi?$AAr?$AAe?$AAd?$AA?5?$AAC?$AAa?$AAt?$AAe?$AAg?$AAo?$AAr?$AAi?$AAe?$AAs?$AA?$AA@ 7c649a8c     stdafx.obj
 0002:00000ab8       ??_C@_1O@FHBGLCIO@?$AAC?$AAL?$AAS?$AAI?$AAD?$AA?2?$AA?$AA@ 7c649ab8     stdafx.obj
 0002:00000ac8       __GUID_0002e012_0000_0000_c000_000000000046 7c649ac8     stdafx.obj
 0002:00000ad8       __GUID_b196b284_bab4_101a_b69c_00aa00341d07 7c649ad8     stdafx.obj
 0002:00000ae8       __GUID_00000000_0000_0000_c000_000000000046 7c649ae8     stdafx.obj
 0002:00000af8       __GUID_1cf2b120_547d_101b_8e65_08002b2bd119 7c649af8     stdafx.obj
 0002:00000b08       ??_C@_1BM@NHKIKHHJ@?$AAU?$AAn?$AAk?$AAn?$AAo?$AAw?$AAn?$AA?5?$AAE?$AAr?$AAr?$AAo?$AAr?$AA?$AA@ 7c649b08     stdafx.obj
 0002:00000b24       __GUID_00020400_0000_0000_c000_000000000046 7c649b24     stdafx.obj
 0002:00000b34       __GUID_7fd52380_4e07_101b_ae2d_08002b2ec713 7c649b34     stdafx.obj
 0002:00000b44       __GUID_00000109_0000_0000_c000_000000000046 7c649b44     stdafx.obj
 0002:00000b54       __GUID_0000010c_0000_0000_c000_000000000046 7c649b54     stdafx.obj
 0002:00000b64       __GUID_a6bc3ac0_dbaa_11ce_9de3_00aa004bb851 7c649b64     stdafx.obj
 0002:00000b74       __GUID_b6ea2050_048a_11d1_82b9_00c04fb9942e 7c649b74     stdafx.obj
 0002:00000b84       ??_C@_1CC@NLKMIAFC@?$AAW?$AAM?$AA_?$AAA?$AAT?$AAL?$AAG?$AAE?$AAT?$AAC?$AAO?$AAN?$AAT?$AAR?$AAO?$AAL?$AA?$AA@ 7c649b84     stdafx.obj
 0002:00000ba8       ??_C@_1BM@JBPKDEJM@?$AAW?$AAM?$AA_?$AAA?$AAT?$AAL?$AAG?$AAE?$AAT?$AAH?$AAO?$AAS?$AAT?$AA?$AA@ 7c649ba8     stdafx.obj
 0002:00000bc4       __GUID_3935bda8_4ed9_495c_8650_e01fc1e38a4b 7c649bc4     stdafx.obj
 0002:00000bd4       ??_C@_1BA@PICGEGJB@?$AAD?$AAI?$AAS?$AAP?$AAL?$AAA?$AAY?$AA?$AA@ 7c649bd4     stdafx.obj
 0002:00000be4       ??_7?$CComPolyObject@VCAxHostWindow@ATL@@@ATL@@6B@ 7c649be4     stdafx.obj
 0002:00000bf8       ?_entries@?1??_GetEntries@CAxHostWindow@ATL@@SGPBU_ATL_INTMAP_ENTRY@3@XZ@4QBU43@B 7c649bf8     stdafx.obj
 0002:00000cc4       __GUID_00000118_0000_0000_c000_000000000046 7c649cc4     stdafx.obj
 0002:00000cd4       __GUID_922eada0_3424_11cf_b670_00aa004cd6d8 7c649cd4     stdafx.obj
 0002:00000ce4       __GUID_9c2cad80_3424_11cf_b670_00aa004cd6d8 7c649ce4     stdafx.obj
 0002:00000cf4       __GUID_00000119_0000_0000_c000_000000000046 7c649cf4     stdafx.obj
 0002:00000d04       __GUID_00000114_0000_0000_c000_000000000046 7c649d04     stdafx.obj
 0002:00000d14       __GUID_b196b289_bab4_101a_b69c_00aa00341d07 7c649d14     stdafx.obj
 0002:00000d24       __GUID_0000011b_0000_0000_c000_000000000046 7c649d24     stdafx.obj
 0002:00000d34       __GUID_fc4801a3_2ba9_11cf_a229_00aa003d7352 7c649d34     stdafx.obj
 0002:00000d44       __GUID_6d5140c1_7436_11ce_8034_00aa006009fa 7c649d44     stdafx.obj
 0002:00000d54       __GUID_b2d0778b_ac99_4c58_a5c8_e7724e5316b5 7c649d54     stdafx.obj
 0002:00000d64       __GUID_b6ea2051_048a_11d1_82b9_00c04fb9942e 7c649d64     stdafx.obj
 0002:00000d74       __GUID_bd3f23c0_d43e_11cf_893b_00aa00bdce1a 7c649d74     stdafx.obj
 0002:00000d84       __GUID_0000010f_0000_0000_c000_000000000046 7c649d84     stdafx.obj
 0002:00000d98       ??_7?$CComContainedObject@VCAxHostWindow@ATL@@@ATL@@6B?$IDispatchImpl@UIAxWinAmbientDispatchEx@@$1?_GUID_b2d0778b_ac99_4c58_a5c8_e7724e5316b5@@3U__s_GUID@@B$1?m_libid@CAtlModule@ATL@@2U_GUID@@A$0PPPP@$0PPPP@VCComTypeInfoHolder@ATL@@@1@@ 7c649d98     stdafx.obj
 0002:00000e30       ??_7?$CComContainedObject@VCAxHostWindow@ATL@@@ATL@@6BIDocHostUIHandler@@@ 7c649e30     stdafx.obj
 0002:00000e78       ??_7?$CComContainedObject@VCAxHostWindow@ATL@@@ATL@@6BIAdviseSink@@@ 7c649e78     stdafx.obj
 0002:00000e98       ??_7?$CComContainedObject@VCAxHostWindow@ATL@@@ATL@@6BIServiceProvider@@@ 7c649e98     stdafx.obj
 0002:00000ea8       ??_7?$CComContainedObject@VCAxHostWindow@ATL@@@ATL@@6B?$IObjectWithSiteImpl@VCAxHostWindow@ATL@@@1@@ 7c649ea8     stdafx.obj
 0002:00000ec0       ??_7?$CComContainedObject@VCAxHostWindow@ATL@@@ATL@@6BIOleContainer@@@ 7c649ec0     stdafx.obj
 0002:00000ed8       ??_7?$CComContainedObject@VCAxHostWindow@ATL@@@ATL@@6BIOleControlSite@@@ 7c649ed8     stdafx.obj
 0002:00000f00       ??_7?$CComContainedObject@VCAxHostWindow@ATL@@@ATL@@6BIOleInPlaceSiteWindowless@@@ 7c649f00     stdafx.obj
 0002:00000f78       ??_7?$CComContainedObject@VCAxHostWindow@ATL@@@ATL@@6BIOleClientSite@@@ 7c649f78     stdafx.obj
 0002:00000f9c       ??_7?$CComContainedObject@VCAxHostWindow@ATL@@@ATL@@6BIAxWinHostWindowLic@@@ 7c649f9c     stdafx.obj
 0002:00000fc8       ??_7?$CComContainedObject@VCAxHostWindow@ATL@@@ATL@@6B?$CWindowImpl@VCAxHostWindow@ATL@@VCWindow@2@V?$CWinTraits@$0FGAAAAAA@$0A@@2@@1@@ 7c649fc8     stdafx.obj
 0002:00000fdc       __GUID_d30c1661_cdaf_11d0_8a3e_00c04fc9e26e 7c649fdc     stdafx.obj
 0002:00000fec       ??_C@_1O@PGKMPIBK@?$AA?$CD?$AA3?$AA2?$AA7?$AA7?$AA0?$AA?$AA@ 7c649fec     stdafx.obj
 0002:00000ffc       __GUID_b196b28f_bab4_101a_b69c_00aa00341d07 7c649ffc     stdafx.obj
 0002:0000100c       __GUID_8856f961_340a_11d0_a96b_00c04fd705a2 7c64a00c     stdafx.obj
 0002:0000101c       __GUID_25336920_03f9_11cf_8fd0_00aa00686f13 7c64a01c     stdafx.obj
 0002:0000102c       __GUID_00000122_0000_0000_c000_000000000046 7c64a02c     stdafx.obj
 0002:0000103c       __GUID_0000010e_0000_0000_c000_000000000046 7c64a03c     stdafx.obj
 0002:0000104c       __GUID_bef6e003_a874_101a_8bba_00aa00300cab 7c64a04c     stdafx.obj
 0002:0000105c       __GUID_00000113_0000_0000_c000_000000000046 7c64a05c     stdafx.obj
 0002:0000106c       __GUID_00000115_0000_0000_c000_000000000046 7c64a06c     stdafx.obj
 0002:0000107c       __GUID_00000116_0000_0000_c000_000000000046 7c64a07c     stdafx.obj
 0002:0000108c       __GUID_1c2056cc_5ef4_101b_8bc8_00aa003e3b29 7c64a08c     stdafx.obj
 0002:0000109c       __GUID_00000100_0000_0000_c000_000000000046 7c64a09c     stdafx.obj
 0002:000010ac       ??_C@_1M@IJFAIKMG@?$AAA?$AAX?$AAW?$AAI?$AAN?$AA?$AA@ 7c64a0ac     stdafx.obj
 0002:000010b8       __GUID_0000010d_0000_0000_c000_000000000046 7c64a0b8     stdafx.obj
 0002:000010c8       __GUID_00000127_0000_0000_c000_000000000046 7c64a0c8     stdafx.obj
 0002:000010d8       __GUID_3af24292_0c96_11ce_a0cf_00aa00600ab8 7c64a0d8     stdafx.obj
 0002:000010e8       __GUID_00000112_0000_0000_c000_000000000046 7c64a0e8     stdafx.obj
 0002:000010f8       __GUID_00000117_0000_0000_c000_000000000046 7c64a0f8     stdafx.obj
 0002:00001108       __GUID_b196b288_bab4_101a_b69c_00aa00341d07 7c64a108     stdafx.obj
 0002:00001118       ??_7?$CComObject@V?$CComEnum@UIEnumUnknown@@$1?_GUID_00000100_0000_0000_c000_000000000046@@3U__s_GUID@@BPAUIUnknown@@V?$_CopyInterface@UIUnknown@@@ATL@@VCComMultiThreadModel@6@@ATL@@@ATL@@6B@ 7c64a118     stdafx.obj
 0002:00001138       ?_entries@?1??_GetEntries@?$CComEnum@UIEnumUnknown@@$1?_GUID_00000100_0000_0000_c000_000000000046@@3U__s_GUID@@BPAUIUnknown@@V?$_CopyInterface@UIUnknown@@@ATL@@VCComMultiThreadModel@6@@ATL@@SGPBU_ATL_INTMAP_ENTRY@3@XZ@4QBU43@B 7c64a138     stdafx.obj
 0002:00001150       __GUID_00020412_0000_0000_c000_000000000046 7c64a150     stdafx.obj
 0002:00001160       __GUID_00020401_0000_0000_c000_000000000046 7c64a160     stdafx.obj
 0002:00001170       ??_7?$CComObject@VCAxFrameWindow@ATL@@@ATL@@6BIOleInPlaceFrame@@@ 7c64a170     stdafx.obj
 0002:000011ac       ??_7?$CComObject@VCAxFrameWindow@ATL@@@ATL@@6B?$CWindowImpl@VCAxFrameWindow@ATL@@VCWindow@2@V?$CWinTraits@$0FGAAAAAA@$0A@@2@@1@@ 7c64a1ac     stdafx.obj
 0002:000011bc       ??_C@_1CG@HJNEDPEL@?$AAA?$AAX?$AAW?$AAI?$AAN?$AA?5?$AAF?$AAr?$AAa?$AAm?$AAe?$AA?5?$AAW?$AAi?$AAn?$AAd?$AAo?$AAw?$AA?$AA@ 7c64a1bc     stdafx.obj
 0002:000011e4       ?_entries@?1??_GetEntries@CAxFrameWindow@ATL@@SGPBU_ATL_INTMAP_ENTRY@3@XZ@4QBU43@B 7c64a1e4     stdafx.obj
 0002:00001214       ??_7?$CComObject@VCAxUIWindow@ATL@@@ATL@@6BIOleInPlaceUIWindow@@@ 7c64a214     stdafx.obj
 0002:00001238       ??_7?$CComObject@VCAxUIWindow@ATL@@@ATL@@6B?$CWindowImpl@VCAxUIWindow@ATL@@VCWindow@2@V?$CWinTraits@$0FGAAAAAA@$0A@@2@@1@@ 7c64a238     stdafx.obj
 0002:00001248       ??_C@_1CA@DCFIAPHF@?$AAA?$AAX?$AAW?$AAI?$AAN?$AA?5?$AAU?$AAI?$AA?5?$AAW?$AAi?$AAn?$AAd?$AAo?$AAw?$AA?$AA@ 7c64a248     stdafx.obj
 0002:00001268       ?_entries@?1??_GetEntries@CAxUIWindow@ATL@@SGPBU_ATL_INTMAP_ENTRY@3@XZ@4QBU43@B 7c64a268     stdafx.obj
 0002:0000128c       ??_C@_04EEAIELDD@ATL?3?$AA@ 7c64a28c     stdafx.obj
 0002:00001294       ??_C@_0CE@EFPFDKPN@ThisProcedureMustNotExistInKerne@ 7c64a294     atldload:downlevel_dload.obj
 0002:000012b8       ??_C@_0N@MDJJJHMB@kernel32?4dll?$AA@ 7c64a2b8     atldload:downlevel_dload.obj
 0002:000012c8       ??_C@_0L@GMPLCCII@user32?4dll?$AA@ 7c64a2c8     atldload:atldload.obj
 0002:000012d4       ??_C@_0N@OLNBCFOM@oleaut32?4dll?$AA@ 7c64a2d4     atldload:atldload.obj
 0002:000012e4       ??_C@_09IMMMOKKM@ole32?4dll?$AA@ 7c64a2e4     atldload:atldload.obj
 0002:000012f0       ??_C@_09HDGMBNAP@gdi32?4dll?$AA@ 7c64a2f0     atldload:atldload.obj
 0002:000012fc       ??_C@_0N@INAGJMNN@advapi32?4dll?$AA@ 7c64a2fc     atldload:atldload.obj
 0002:0000130c       _g_DllEntries              7c64a30c     atldload:atldload.obj
 0002:00001348       _g_DllMap                  7c64a348     atldload:atldload.obj
 0002:00001350       ??_C@_09ECGNHKJO@wsprintfW?$AA@ 7c64a350     atldload:user32.obj
 0002:0000135c       ??_C@_09FOPFMPEJ@wsprintfA?$AA@ 7c64a35c     atldload:user32.obj
 0002:00001368       ??_C@_0M@EOGKGGKK@mouse_event?$AA@ 7c64a368     atldload:user32.obj
 0002:00001374       ??_C@_0N@NBLAALBE@WindowFromDC?$AA@ 7c64a374     atldload:user32.obj
 0002:00001384       ??_C@_0N@IPBGBCLO@ValidateRect?$AA@ 7c64a384     atldload:user32.obj
 0002:00001394       ??_C@_0BB@OFBGMKEL@UnregisterClassW?$AA@ 7c64a394     atldload:user32.obj
 0002:000013a8       ??_C@_0BB@PJIOHPJM@UnregisterClassA?$AA@ 7c64a3a8     atldload:user32.obj
 0002:000013bc       ??_C@_0BB@DHHKBNMB@TranslateMessage?$AA@ 7c64a3bc     atldload:user32.obj
 0002:000013d0       ??_C@_0BG@MBJCIDC@SystemParametersInfoW?$AA@ 7c64a3d0     atldload:user32.obj
 0002:000013e8       ??_C@_0L@OKGBCELB@ShowWindow?$AA@ 7c64a3e8     atldload:user32.obj
 0002:000013f4       ??_C@_0L@BIENLPGM@ShowCursor?$AA@ 7c64a3f4     atldload:user32.obj
 0002:00001400       ??_C@_0P@IGGABHFC@SetWindowTextW?$AA@ 7c64a400     atldload:user32.obj
 0002:00001410       ??_C@_0N@JFJFIAMA@SetWindowPos?$AA@ 7c64a410     atldload:user32.obj
 0002:00001420       ??_C@_0P@EIEHJKGP@SetWindowLongW?$AA@ 7c64a420     atldload:user32.obj
 0002:00001430       ??_C@_0P@FENPCPLI@SetWindowLongA?$AA@ 7c64a430     atldload:user32.obj
 0002:00001440       ??_C@_0BB@MDEOMFBF@SetThreadDesktop?$AA@ 7c64a440     atldload:user32.obj
 0002:00001454       ??_C@_0BA@DCGCFHGD@SetSystemCursor?$AA@ 7c64a454     atldload:user32.obj
 0002:00001464       ??_C@_07EHKAKKDH@SetRect?$AA@ 7c64a464     atldload:user32.obj
 0002:0000146c       ??_C@_0BI@CDMMLKPG@SetProcessWindowStation?$AA@ 7c64a46c     atldload:user32.obj
 0002:00001484       ??_C@_0BE@CGIBJMLM@SetForegroundWindow?$AA@ 7c64a484     atldload:user32.obj
 0002:00001498       ??_C@_08GPNNBNIL@SetFocus?$AA@ 7c64a498     atldload:user32.obj
 0002:000014a4       ??_C@_0L@HBBIBCDI@SetCapture?$AA@ 7c64a4a4     atldload:user32.obj
 0002:000014b0       ??_C@_0N@HADBEMKH@SendMessageW?$AA@ 7c64a4b0     atldload:user32.obj
 0002:000014c0       ??_C@_09DEEPKLKK@ReleaseDC?$AA@ 7c64a4c0     atldload:user32.obj
 0002:000014cc       ??_C@_0P@CGJIDJCJ@ReleaseCapture?$AA@ 7c64a4cc     atldload:user32.obj
 0002:000014dc       ??_C@_0BH@BHMECBNF@RegisterWindowMessageW?$AA@ 7c64a4dc     atldload:user32.obj
 0002:000014f4       ??_C@_0BB@JOFGLPHA@RegisterClassExW?$AA@ 7c64a4f4     atldload:user32.obj
 0002:00001508       ??_C@_0BB@ICMOAKKH@RegisterClassExA?$AA@ 7c64a508     atldload:user32.obj
 0002:0000151c       ??_C@_0P@MIANNIHB@RegisterClassA?$AA@ 7c64a51c     atldload:user32.obj
 0002:0000152c       ??_C@_0N@KOKKNONB@RedrawWindow?$AA@ 7c64a52c     atldload:user32.obj
 0002:0000153c       ??_C@_0N@HJJIHFPL@PostMessageA?$AA@ 7c64a53c     atldload:user32.obj
 0002:0000154c       ??_C@_0N@BPNBPMKA@PeekMessageW?$AA@ 7c64a54c     atldload:user32.obj
 0002:0000155c       ??_C@_0N@DEJEJHH@PeekMessageA?$AA@ 7c64a55c     atldload:user32.obj
 0002:0000156c       ??_C@_0BD@MBJAHOAP@OpenWindowStationA?$AA@ 7c64a56c     atldload:user32.obj
 0002:00001580       ??_C@_0N@NGNDAMBL@OpenDesktopA?$AA@ 7c64a580     atldload:user32.obj
 0002:00001590       ??_C@_0P@DGPIEHPI@OemToCharBuffA?$AA@ 7c64a590     atldload:user32.obj
 0002:000015a0       ??_C@_0BK@LPJAAOIP@MsgWaitForMultipleObjects?$AA@ 7c64a5a0     atldload:user32.obj
 0002:000015bc       ??_C@_0M@CHKKJDAI@MessageBoxA?$AA@ 7c64a5bc     atldload:user32.obj
 0002:000015c8       ??_C@_0M@DPBIDBBE@LoadStringW?$AA@ 7c64a5c8     atldload:user32.obj
 0002:000015d4       ??_C@_0M@CDIAIEMD@LoadStringA?$AA@ 7c64a5d4     atldload:user32.obj
 0002:000015e0       ??_C@_0M@GNNFICFG@LoadCursorW?$AA@ 7c64a5e0     atldload:user32.obj
 0002:000015ec       ??_C@_0M@HBENDHIB@LoadCursorA?$AA@ 7c64a5ec     atldload:user32.obj
 0002:000015f8       ??_C@_0BA@PFBLONPH@IsWindowVisible?$AA@ 7c64a5f8     atldload:user32.obj
 0002:00001608       ??_C@_0BA@KKLHGEKD@IsWindowUnicode?$AA@ 7c64a608     atldload:user32.obj
 0002:00001618       ??_C@_08DBCCILIB@IsWindow?$AA@ 7c64a618     atldload:user32.obj
 0002:00001624       ??_C@_07FHHDFDMG@IsChild?$AA@ 7c64a624     atldload:user32.obj
 0002:0000162c       ??_C@_0N@ILMNBIMG@IsCharAlphaA?$AA@ 7c64a62c     atldload:user32.obj
 0002:0000163c       ??_C@_0O@DLGLOENF@InvalidateRgn?$AA@ 7c64a63c     atldload:user32.obj
 0002:0000164c       ??_C@_0P@BPAAKKJF@InvalidateRect?$AA@ 7c64a64c     atldload:user32.obj
 0002:0000165c       ??_C@_0O@PFOMJHEC@IntersectRect?$AA@ 7c64a65c     atldload:user32.obj
 0002:0000166c       ??_C@_0P@EIHOONHO@GetWindowTextW?$AA@ 7c64a66c     atldload:user32.obj
 0002:0000167c       ??_C@_0BF@KCNFIJIA@GetWindowTextLengthW?$AA@ 7c64a67c     atldload:user32.obj
 0002:00001694       ??_C@_0P@FEOGFIKJ@GetWindowTextA?$AA@ 7c64a694     atldload:user32.obj
 0002:000016a4       ??_C@_0O@KGOHEIMB@GetWindowRect?$AA@ 7c64a6a4     atldload:user32.obj
 0002:000016b4       ??_C@_0P@IGFJGAED@GetWindowLongW?$AA@ 7c64a6b4     atldload:user32.obj
 0002:000016c4       ??_C@_0P@JKMBNFJE@GetWindowLongA?$AA@ 7c64a6c4     atldload:user32.obj
 0002:000016d4       ??_C@_09CGMHJDCO@GetWindow?$AA@ 7c64a6d4     atldload:user32.obj
 0002:000016e0       ??_C@_0O@NDDJLEHM@GetUpdateRect?$AA@ 7c64a6e0     atldload:user32.obj
 0002:000016f0       ??_C@_0BB@KHBHHLKH@GetThreadDesktop?$AA@ 7c64a6f0     atldload:user32.obj
 0002:00001704       ??_C@_0BB@BFCABEPI@GetSystemMetrics?$AA@ 7c64a704     atldload:user32.obj
 0002:00001718       ??_C@_0M@IGGMACEF@GetSysColor?$AA@ 7c64a718     atldload:user32.obj
 0002:00001724       ??_C@_0BI@DFKBFLJE@GetProcessWindowStation?$AA@ 7c64a724     atldload:user32.obj
 0002:0000173c       ??_C@_09DIHAALNP@GetParent?$AA@ 7c64a73c     atldload:user32.obj
 0002:00001748       ??_C@_0M@EAFFNEDO@GetMessageW?$AA@ 7c64a748     atldload:user32.obj
 0002:00001754       ??_C@_0M@FMMNGBOJ@GetMessageA?$AA@ 7c64a754     atldload:user32.obj
 0002:00001760       ??_C@_0BE@IIKKNMMA@GetForegroundWindow?$AA@ 7c64a760     atldload:user32.obj
 0002:00001774       ??_C@_08JOPBAOPG@GetFocus?$AA@ 7c64a774     atldload:user32.obj
 0002:00001780       ??_C@_0L@CKELNLCE@GetDlgItem?$AA@ 7c64a780     atldload:user32.obj
 0002:0000178c       ??_C@_0BB@EHAGBCIE@GetDesktopWindow?$AA@ 7c64a78c     atldload:user32.obj
 0002:000017a0       ??_C@_05EFCIJCKE@GetDC?$AA@ 7c64a7a0     atldload:user32.obj
 0002:000017a8       ??_C@_0O@NGMJCAIB@GetClientRect?$AA@ 7c64a7a8     atldload:user32.obj
 0002:000017b8       ??_C@_0O@ONDMICJK@GetClassNameW?$AA@ 7c64a7b8     atldload:user32.obj
 0002:000017c8       ??_C@_0BA@BOKJBFN@GetClassInfoExW?$AA@ 7c64a7c8     atldload:user32.obj
 0002:000017d8       ??_C@_0BA@BNHCCEIK@GetClassInfoExA?$AA@ 7c64a7d8     atldload:user32.obj
 0002:000017e8       ??_C@_0O@LEGHJCPD@GetClassInfoA?$AA@ 7c64a7e8     atldload:user32.obj
 0002:000017f8       ??_C@_0BA@HNOPNCHB@GetActiveWindow?$AA@ 7c64a7f8     atldload:user32.obj
 0002:00001808       ??_C@_0M@HKFEMMNM@FindWindowA?$AA@ 7c64a808     atldload:user32.obj
 0002:00001814       ??_C@_08HBDJBON@FillRect?$AA@ 7c64a814     atldload:user32.obj
 0002:00001820       ??_C@_09HKJAMJGO@EqualRect?$AA@ 7c64a820     atldload:user32.obj
 0002:0000182c       ??_C@_0BF@EOKFFKMH@EnumDisplaySettingsW?$AA@ 7c64a82c     atldload:user32.obj
 0002:00001844       ??_C@_0BF@FCDNOPBA@EnumDisplaySettingsA?$AA@ 7c64a844     atldload:user32.obj
 0002:0000185c       ??_C@_0BD@KJFJAFEO@EnumDesktopWindows?$AA@ 7c64a85c     atldload:user32.obj
 0002:00001870       ??_C@_08NAIDMDDN@EndPaint?$AA@ 7c64a870     atldload:user32.obj
 0002:0000187c       ??_C@_0BB@KAKAGNBE@DispatchMessageW?$AA@ 7c64a87c     atldload:user32.obj
 0002:00001890       ??_C@_0BB@LMDINIMD@DispatchMessageA?$AA@ 7c64a890     atldload:user32.obj
 0002:000018a4       ??_C@_0BI@FDLCEMOM@DialogBoxIndirectParamW?$AA@ 7c64a8a4     atldload:user32.obj
 0002:000018bc       ??_C@_0BI@EPCKPJDL@DialogBoxIndirectParamA?$AA@ 7c64a8bc     atldload:user32.obj
 0002:000018d4       ??_C@_0O@MCOBDHHO@DestroyWindow?$AA@ 7c64a8d4     atldload:user32.obj
 0002:000018e4       ??_C@_0O@DAMNKMKD@DestroyCursor?$AA@ 7c64a8e4     atldload:user32.obj
 0002:000018f4       ??_C@_0BI@HCCLEIGB@DestroyAcceleratorTable?$AA@ 7c64a8f4     atldload:user32.obj
 0002:0000190c       ??_C@_0P@BAKOEHMB@DefWindowProcW?$AA@ 7c64a90c     atldload:user32.obj
 0002:0000191c       ??_C@_0P@MDGPCBG@DefWindowProcA?$AA@ 7c64a91c     atldload:user32.obj
 0002:0000192c       ??_C@_0BA@MHOOFEGE@CreateWindowExW?$AA@ 7c64a92c     atldload:user32.obj
 0002:0000193c       ??_C@_0BA@NLHGOBLD@CreateWindowExA?$AA@ 7c64a93c     atldload:user32.obj
 0002:0000194c       ??_C@_0BL@NMPMLKG@CreateDialogIndirectParamW?$AA@ 7c64a94c     atldload:user32.obj
 0002:00001968       ??_C@_0BL@BBFHHOHB@CreateDialogIndirectParamA?$AA@ 7c64a968     atldload:user32.obj
 0002:00001984       ??_C@_0BI@LPCBEHPI@CreateAcceleratorTableW?$AA@ 7c64a984     atldload:user32.obj
 0002:0000199c       ??_C@_08PDOCECEH@CopyIcon?$AA@ 7c64a99c     atldload:user32.obj
 0002:000019a8       ??_C@_0BD@KOKEIHOF@CloseWindowStation?$AA@ 7c64a9a8     atldload:user32.obj
 0002:000019bc       ??_C@_0N@IKNGKJFJ@CloseDesktop?$AA@ 7c64a9bc     atldload:user32.obj
 0002:000019cc       ??_C@_0P@ECHHLBF@CharToOemBuffA?$AA@ 7c64a9cc     atldload:user32.obj
 0002:000019dc       ??_C@_09IFPMHJPM@CharNextW?$AA@ 7c64a9dc     atldload:user32.obj
 0002:000019e8       ??_C@_09JJGEMMCL@CharNextA?$AA@ 7c64a9e8     atldload:user32.obj
 0002:000019f4       ??_C@_0BJ@HFOHINJB@ChangeDisplaySettingsExW?$AA@ 7c64a9f4     atldload:user32.obj
 0002:00001a10       ??_C@_0BH@BMLCALEC@ChangeDisplaySettingsA?$AA@ 7c64aa10     atldload:user32.obj
 0002:00001a28       ??_C@_0BA@DDLFEAI@CallWindowProcW?$AA@ 7c64aa28     atldload:user32.obj
 0002:00001a38       ??_C@_0BA@BPKDOBNP@CallWindowProcA?$AA@ 7c64aa38     atldload:user32.obj
 0002:00001a48       ??_C@_0P@GDEMGIMP@CallNextHookEx?$AA@ 7c64aa48     atldload:user32.obj
 0002:00001a58       ??_C@_0L@OGFFPFBH@BeginPaint?$AA@ 7c64aa58     atldload:user32.obj
 0002:00001a68       _c_PmapEntries_user32      7c64aa68     atldload:user32.obj
 0002:00001dd0       _c_Pmap_user32             7c64add0     atldload:user32.obj
 0002:00001dd8       _c_OmapEntries_oleaut32    7c64add8     atldload:oleaut32.obj
 0002:00001fc0       _c_Omap_oleaut32           7c64afc0     atldload:oleaut32.obj
 0002:00001fc8       ??_C@_0BE@FCDOHMHL@WriteFmtUserTypeStg?$AA@ 7c64afc8     atldload:ole32.obj
 0002:00001fdc       ??_C@_0O@FOKJMLEL@WriteClassStm?$AA@ 7c64afdc     atldload:ole32.obj
 0002:00001fec       ??_C@_0O@KEEGCDMB@WriteClassStg?$AA@ 7c64afec     atldload:ole32.obj
 0002:00001ffc       ??_C@_0BA@HEBEPDDD@StringFromGUID2?$AA@ 7c64affc     atldload:ole32.obj
 0002:0000200c       ??_C@_0BA@MMGMLOAO@StringFromCLSID?$AA@ 7c64b00c     atldload:ole32.obj
 0002:0000201c       ??_C@_0BL@OMAAGLKL@StgOpenStorageOnILockBytes?$AA@ 7c64b01c     atldload:ole32.obj
 0002:00002038       ??_C@_0BB@BKNKJFEM@StgOpenStorageEx?$AA@ 7c64b038     atldload:ole32.obj
 0002:0000204c       ??_C@_0P@EHIHKBGH@StgOpenStorage?$AA@ 7c64b04c     atldload:ole32.obj
 0002:0000205c       ??_C@_0BB@CMDAONJB@StgIsStorageFile?$AA@ 7c64b05c     atldload:ole32.obj
 0002:00002070       ??_C@_0BN@HEAMIKNE@StgCreateDocfileOnILockBytes?$AA@ 7c64b070     atldload:ole32.obj
 0002:00002090       ??_C@_0BB@IFCKKOAJ@StgCreateDocfile?$AA@ 7c64b090     atldload:ole32.obj
 0002:000020a4       ??_C@_0O@ODKMENKN@SetConvertStg?$AA@ 7c64b0a4     atldload:ole32.obj
 0002:000020b4       ??_C@_0P@FHGLBJLH@RevokeDragDrop?$AA@ 7c64b0b4     atldload:ole32.obj
 0002:000020c4       ??_C@_0BB@LFPGAPEO@ReleaseStgMedium?$AA@ 7c64b0c4     atldload:ole32.obj
 0002:000020d8       ??_C@_0BB@LGBABCDD@RegisterDragDrop?$AA@ 7c64b0d8     atldload:ole32.obj
 0002:000020ec       ??_C@_0BD@MEHDGIEH@ReadFmtUserTypeStg?$AA@ 7c64b0ec     atldload:ole32.obj
 0002:00002100       ??_C@_0N@EELHJAJA@ReadClassStm?$AA@ 7c64b100     atldload:ole32.obj
 0002:00002110       ??_C@_0N@LOFIHIBK@ReadClassStg?$AA@ 7c64b110     atldload:ole32.obj
 0002:00002120       ??_C@_0BA@NEHLDDIP@PropVariantCopy?$AA@ 7c64b120     atldload:ole32.obj
 0002:00002130       ??_C@_0BB@FCIINBED@PropVariantClear?$AA@ 7c64b130     atldload:ole32.obj
 0002:00002144       ??_C@_0BA@JPCHEFCI@ProgIDFromCLSID?$AA@ 7c64b144     atldload:ole32.obj
 0002:00002154       ??_C@_0BA@NDEIKCNO@OleUninitialize?$AA@ 7c64b154     atldload:ole32.obj
 0002:00002164       ??_C@_0BI@IHPDDHGI@OleTranslateAccelerator?$AA@ 7c64b164     atldload:ole32.obj
 0002:0000217c       ??_C@_0BF@PKOMHNAO@OleSetMenuDescriptor?$AA@ 7c64b17c     atldload:ole32.obj
 0002:00002194       ??_C@_0BG@OIOGPFBH@OleSetContainedObject?$AA@ 7c64b194     atldload:ole32.obj
 0002:000021ac       ??_C@_0BA@JBBJCAGB@OleSetClipboard?$AA@ 7c64b1ac     atldload:ole32.obj
 0002:000021bc       ??_C@_0BA@CINMBKIG@OleSaveToStream?$AA@ 7c64b1bc     atldload:ole32.obj
 0002:000021cc       ??_C@_07MKJAOGNC@OleSave?$AA@ 7c64b1cc     atldload:ole32.obj
 0002:000021d4       ??_C@_06DGHEDJLG@OleRun?$AA@ 7c64b1d4     atldload:ole32.obj
 0002:000021dc       ??_C@_0BC@KEGJIOBP@OleRegGetUserType?$AA@ 7c64b1dc     atldload:ole32.obj
 0002:000021f0       ??_C@_0BE@BGBMBJCH@OleRegGetMiscStatus?$AA@ 7c64b1f0     atldload:ole32.obj
 0002:00002204       ??_C@_0BA@PLDMFIAI@OleRegEnumVerbs?$AA@ 7c64b204     atldload:ole32.obj
 0002:00002214       ??_C@_0BF@NPFBOJAJ@OleQueryLinkFromData?$AA@ 7c64b214     atldload:ole32.obj
 0002:0000222c       ??_C@_0BH@HCBCFNNI@OleQueryCreateFromData?$AA@ 7c64b22c     atldload:ole32.obj
 0002:00002244       ??_C@_0P@ICHMAEMG@OleLockRunning?$AA@ 7c64b244     atldload:ole32.obj
 0002:00002254       ??_C@_0BC@EMNCPHBG@OleLoadFromStream?$AA@ 7c64b254     atldload:ole32.obj
 0002:00002268       ??_C@_07MIINBFAG@OleLoad?$AA@ 7c64b268     atldload:ole32.obj
 0002:00002270       ??_C@_0N@FOFIDKJI@OleIsRunning?$AA@ 7c64b270     atldload:ole32.obj
 0002:00002280       ??_C@_0BG@FEEBNKLP@OleIsCurrentClipboard?$AA@ 7c64b280     atldload:ole32.obj
 0002:00002298       ??_C@_0O@CBKGIDNG@OleInitialize?$AA@ 7c64b298     atldload:ole32.obj
 0002:000022a8       ??_C@_0BC@JOGBFHJM@OleGetIconOfClass?$AA@ 7c64b2a8     atldload:ole32.obj
 0002:000022bc       ??_C@_0BA@OFKHOMCN@OleGetClipboard?$AA@ 7c64b2bc     atldload:ole32.obj
 0002:000022cc       ??_C@_0BC@EGPELIIP@OleFlushClipboard?$AA@ 7c64b2cc     atldload:ole32.obj
 0002:000022e0       ??_C@_0BB@NGPAGDJI@OleDuplicateData?$AA@ 7c64b2e0     atldload:ole32.obj
 0002:000022f4       ??_C@_07DLGBJABH@OleDraw?$AA@ 7c64b2f4     atldload:ole32.obj
 0002:000022fc       ??_C@_0BJ@OFMKNELO@OleDestroyMenuDescriptor?$AA@ 7c64b2fc     atldload:ole32.obj
 0002:00002318       ??_C@_0BI@BGHEGDCA@OleCreateStaticFromData?$AA@ 7c64b318     atldload:ole32.obj
 0002:00002330       ??_C@_0BI@LDMOKNBF@OleCreateMenuDescriptor?$AA@ 7c64b330     atldload:ole32.obj
 0002:00002348       ??_C@_0BE@MDJGCNDK@OleCreateLinkToFile?$AA@ 7c64b348     atldload:ole32.obj
 0002:0000235c       ??_C@_0BG@JFIHFIDG@OleCreateLinkFromData?$AA@ 7c64b35c     atldload:ole32.obj
 0002:00002374       ??_C@_0BC@DKNJDONJ@OleCreateFromFile?$AA@ 7c64b374     atldload:ole32.obj
 0002:00002388       ??_C@_0BC@PDPEHCJK@OleCreateFromData?$AA@ 7c64b388     atldload:ole32.obj
 0002:0000239c       ??_C@_09PLKLODNA@OleCreate?$AA@ 7c64b39c     atldload:ole32.obj
 0002:000023a8       ??_C@_0BD@PMKLEDMH@MkParseDisplayName?$AA@ 7c64b3a8     atldload:ole32.obj
 0002:000023bc       ??_C@_0O@IOOMGKNO@IsAccelerator?$AA@ 7c64b3bc     atldload:ole32.obj
 0002:000023cc       ??_C@_0BG@JMJICKGG@GetRunningObjectTable?$AA@ 7c64b3cc     atldload:ole32.obj
 0002:000023e4       ??_C@_0BF@ONNBMKLH@GetHGlobalFromStream?$AA@ 7c64b3e4     atldload:ole32.obj
 0002:000023fc       ??_C@_0BJ@POIDIDCK@GetHGlobalFromILockBytes?$AA@ 7c64b3fc     atldload:ole32.obj
 0002:00002418       ??_C@_0N@IFAIHHMO@GetClassFile?$AA@ 7c64b418     atldload:ole32.obj
 0002:00002428       ??_C@_0BF@DHKGAAMC@FreePropVariantArray?$AA@ 7c64b428     atldload:ole32.obj
 0002:00002440       ??_C@_0L@IHMPKEKD@DoDragDrop?$AA@ 7c64b440     atldload:ole32.obj
 0002:0000244c       ??_C@_0BG@DNLLFOBD@CreateStreamOnHGlobal?$AA@ 7c64b44c     atldload:ole32.obj
 0002:00002464       ??_C@_0BG@COHJHCKD@CreateOleAdviseHolder?$AA@ 7c64b464     atldload:ole32.obj
 0002:0000247c       ??_C@_0BC@IPPOKPMB@CreateItemMoniker?$AA@ 7c64b47c     atldload:ole32.obj
 0002:00002490       ??_C@_0BK@BMBKFBIL@CreateILockBytesOnHGlobal?$AA@ 7c64b490     atldload:ole32.obj
 0002:000024ac       ??_C@_0BH@CJDPCFDE@CreateGenericComposite?$AA@ 7c64b4ac     atldload:ole32.obj
 0002:000024c4       ??_C@_0BC@NPMFDAKO@CreateFileMoniker?$AA@ 7c64b4c4     atldload:ole32.obj
 0002:000024d8       ??_C@_0BA@OECNGOFP@CreateDataCache?$AA@ 7c64b4d8     atldload:ole32.obj
 0002:000024e8       ??_C@_0BH@DNLHPAFA@CreateDataAdviseHolder?$AA@ 7c64b4e8     atldload:ole32.obj
 0002:00002500       ??_C@_0BD@CNLEPMMB@CreateClassMoniker?$AA@ 7c64b500     atldload:ole32.obj
 0002:00002514       ??_C@_0O@BHKMJJJE@CreateBindCtx?$AA@ 7c64b514     atldload:ole32.obj
 0002:00002524       ??_C@_0BJ@EHKGDANL@CoWaitForMultipleHandles?$AA@ 7c64b524     atldload:ole32.obj
 0002:00002540       ??_C@_0BF@JFFBDLH@CoUnmarshalInterface?$AA@ 7c64b540     atldload:ole32.obj
 0002:00002558       ??_C@_0P@EGMOFMDE@CoUninitialize?$AA@ 7c64b558     atldload:ole32.obj
 0002:00002568       ??_C@_0P@KGMONFLD@CoTreatAsClass?$AA@ 7c64b568     atldload:ole32.obj
 0002:00002578       ??_C@_0BB@GONMDNGK@CoTaskMemRealloc?$AA@ 7c64b578     atldload:ole32.obj
 0002:0000258c       ??_C@_0O@MIBPKJDN@CoTaskMemFree?$AA@ 7c64b58c     atldload:ole32.obj
 0002:0000259c       ??_C@_0P@KEDKLINL@CoTaskMemAlloc?$AA@ 7c64b59c     atldload:ole32.obj
 0002:000025ac       ??_C@_0BE@OKJCLAJD@CoSwitchCallContext?$AA@ 7c64b5ac     atldload:ole32.obj
 0002:000025c0       ??_C@_0BG@ILDEHIMB@CoSuspendClassObjects?$AA@ 7c64b5c0     atldload:ole32.obj
 0002:000025d8       ??_C@_0BC@IOEGILCE@CoSetProxyBlanket?$AA@ 7c64b5d8     atldload:ole32.obj
 0002:000025ec       ??_C@_0BE@PPIBJFGK@CoRevokeClassObject?$AA@ 7c64b5ec     atldload:ole32.obj
 0002:00002600       ??_C@_0P@IMLFADI@CoRevertToSelf?$AA@ 7c64b600     atldload:ole32.obj
 0002:00002610       ??_C@_0BF@GNEKJPCK@CoResumeClassObjects?$AA@ 7c64b610     atldload:ole32.obj
 0002:00002628       ??_C@_0BF@MEKIJBIA@CoReleaseMarshalData?$AA@ 7c64b628     atldload:ole32.obj
 0002:00002640       ??_C@_0BI@POCCCIDJ@CoRegisterMessageFilter?$AA@ 7c64b640     atldload:ole32.obj
 0002:00002658       ??_C@_0BG@JMOEKBKL@CoRegisterClassObject?$AA@ 7c64b658     atldload:ole32.obj
 0002:00002670       ??_C@_0CG@DNMFLAOH@CoMarshalInterThreadInterfaceInS@ 7c64b670     atldload:ole32.obj
 0002:00002698       ??_C@_0BD@BFCOEHP@CoMarshalInterface?$AA@ 7c64b698     atldload:ole32.obj
 0002:000026ac       ??_C@_0BF@KPBONONN@CoLockObjectExternal?$AA@ 7c64b6ac     atldload:ole32.obj
 0002:000026c4       ??_C@_0BF@GDAFCOOE@CoInitializeSecurity?$AA@ 7c64b6c4     atldload:ole32.obj
 0002:000026dc       ??_C@_0P@KHOCNDJK@CoInitializeEx?$AA@ 7c64b6dc     atldload:ole32.obj
 0002:000026ec       ??_C@_0N@JGHNIJDF@CoInitialize?$AA@ 7c64b6ec     atldload:ole32.obj
 0002:000026fc       ??_C@_0BE@LENMDAB@CoImpersonateClient?$AA@ 7c64b6fc     atldload:ole32.obj
 0002:00002710       ??_C@_0M@IEGONHPO@CoGetMalloc?$AA@ 7c64b710     atldload:ole32.obj
 0002:0000271c       ??_C@_0BP@JHBANKGB@CoGetInterfaceAndReleaseStream?$AA@ 7c64b71c     atldload:ole32.obj
 0002:0000273c       ??_C@_0BB@ENIODEPL@CoGetClassObject?$AA@ 7c64b73c     atldload:ole32.obj
 0002:00002750       ??_C@_0BG@EHKBJGLI@CoFreeUnusedLibraries?$AA@ 7c64b750     atldload:ole32.obj
 0002:00002768       ??_C@_0O@GBDDJNFA@CoFileTimeNow?$AA@ 7c64b768     atldload:ole32.obj
 0002:00002778       ??_C@_0BJ@HKHHLCAM@CoEnableCallCancellation?$AA@ 7c64b778     atldload:ole32.obj
 0002:00002794       ??_C@_0BD@EOELABIH@CoDisconnectObject?$AA@ 7c64b794     atldload:ole32.obj
 0002:000027a8       ??_C@_0BK@EALJABLK@CoDisableCallCancellation?$AA@ 7c64b7a8     atldload:ole32.obj
 0002:000027c4       ??_C@_0BB@FBCNKNOO@CoCreateInstance?$AA@ 7c64b7c4     atldload:ole32.obj
 0002:000027d8       ??_C@_0N@KNBCBJMO@CoCreateGuid?$AA@ 7c64b7d8     atldload:ole32.obj
 0002:000027e8       ??_C@_0BO@CPHBJCPF@CoCreateFreeThreadedMarshaler?$AA@ 7c64b7e8     atldload:ole32.obj
 0002:00002808       ??_C@_0N@KDLEFCNM@CoCancelCall?$AA@ 7c64b808     atldload:ole32.obj
 0002:00002818       ??_C@_0BL@EBPAFNEB@CoAllowSetForegroundWindow?$AA@ 7c64b818     atldload:ole32.obj
 0002:00002834       ??_C@_0BA@OCNJAMDG@CLSIDFromString?$AA@ 7c64b834     atldload:ole32.obj
 0002:00002844       ??_C@_0BA@POGMPGLC@CLSIDFromProgID?$AA@ 7c64b844     atldload:ole32.obj
 0002:00002858       _c_PmapEntries_ole32       7c64b858     atldload:ole32.obj
 0002:00002bc0       _c_Pmap_ole32              7c64bbc0     atldload:ole32.obj
 0002:00002bc8       ??_C@_0P@KLPJJNCN@SetWindowExtEx?$AA@ 7c64bbc8     atldload:gdi32.obj
 0002:00002bd8       ??_C@_0BB@BIHJJLKF@SetViewportOrgEx?$AA@ 7c64bbd8     atldload:gdi32.obj
 0002:00002bec       ??_C@_0BB@LBPOFIBD@SetViewportExtEx?$AA@ 7c64bbec     atldload:gdi32.obj
 0002:00002c00       ??_C@_0BE@EIEHHPAF@SetSystemPaletteUse?$AA@ 7c64bc00     atldload:gdi32.obj
 0002:00002c14       ??_C@_0L@OPKMLCME@SetMapMode?$AA@ 7c64bc14     atldload:gdi32.obj
 0002:00002c20       ??_C@_0O@EJKNMEE@SelectPalette?$AA@ 7c64bc20     atldload:gdi32.obj
 0002:00002c30       ??_C@_0N@PNAJBKIN@SelectObject?$AA@ 7c64bc30     atldload:gdi32.obj
 0002:00002c40       ??_C@_0P@NNFKPIIE@RealizePalette?$AA@ 7c64bc40     atldload:gdi32.obj
 0002:00002c50       ??_C@_0BI@IECLBLJO@GetSystemPaletteEntries?$AA@ 7c64bc50     atldload:gdi32.obj
 0002:00002c68       ??_C@_0P@OPLPICEC@GetStockObject?$AA@ 7c64bc68     atldload:gdi32.obj
 0002:00002c78       ??_C@_0L@GKDCBFOM@GetObjectW?$AA@ 7c64bc78     atldload:gdi32.obj
 0002:00002c84       ??_C@_0O@ECHGPMEO@GetObjectType?$AA@ 7c64bc84     atldload:gdi32.obj
 0002:00002c94       ??_C@_0O@NKPJEFC@GetDeviceCaps?$AA@ 7c64bc94     atldload:gdi32.obj
 0002:00002ca4       ??_C@_0N@EMMNKEAC@DeleteObject?$AA@ 7c64bca4     atldload:gdi32.obj
 0002:00002cb4       ??_C@_08LKMBNHBJ@DeleteDC?$AA@ 7c64bcb4     atldload:gdi32.obj
 0002:00002cc0       ??_C@_0BB@GHJHAELL@CreateSolidBrush?$AA@ 7c64bcc0     atldload:gdi32.obj
 0002:00002cd4       ??_C@_0O@PIOFMFBK@CreatePalette?$AA@ 7c64bcd4     atldload:gdi32.obj
 0002:00002ce4       ??_C@_0BB@EAEJINNC@CreateDIBSection?$AA@ 7c64bce4     atldload:gdi32.obj
 0002:00002cf8       ??_C@_09FAFGKJHN@CreateDCW?$AA@ 7c64bcf8     atldload:gdi32.obj
 0002:00002d04       ??_C@_0BD@GAEMADDD@CreateCompatibleDC?$AA@ 7c64bd04     atldload:gdi32.obj
 0002:00002d18       ??_C@_0BH@JHHFCKBN@CreateCompatibleBitmap?$AA@ 7c64bd18     atldload:gdi32.obj
 0002:00002d30       ??_C@_06KJCNECEM@BitBlt?$AA@ 7c64bd30     atldload:gdi32.obj
 0002:00002d38       _c_PmapEntries_gdi32       7c64bd38     atldload:gdi32.obj
 0002:00002de8       _c_Pmap_gdi32              7c64bde8     atldload:gdi32.obj
 0002:00002df0       ??_C@_0P@ECFJFPAL@SetThreadToken?$AA@ 7c64bdf0     atldload:advapi.obj
 0002:00002e00       ??_C@_0BB@OAMPIGBG@SetFileSecurityW?$AA@ 7c64be00     atldload:advapi.obj
 0002:00002e14       ??_C@_0BB@PMFHDDMB@SetFileSecurityA?$AA@ 7c64be14     atldload:advapi.obj
 0002:00002e28       ??_C@_0N@NBKDDPIG@RevertToSelf?$AA@ 7c64be28     atldload:advapi.obj
 0002:00002e38       ??_C@_0N@OGEMJOHI@ReportEventW?$AA@ 7c64be38     atldload:advapi.obj
 0002:00002e48       ??_C@_0BF@FNOHIELI@RegisterEventSourceW?$AA@ 7c64be48     atldload:advapi.obj
 0002:00002e60       ??_C@_0N@EOGMNOG@RegSetValueW?$AA@ 7c64be60     atldload:advapi.obj
 0002:00002e70       ??_C@_0P@LIPJIDOO@RegSetValueExW?$AA@ 7c64be70     atldload:advapi.obj
 0002:00002e80       ??_C@_0P@KEGBDGDJ@RegSetValueExA?$AA@ 7c64be80     atldload:advapi.obj
 0002:00002e90       ??_C@_0N@BIHOHIDB@RegSetValueA?$AA@ 7c64be90     atldload:advapi.obj
 0002:00002ea0       ??_C@_0P@DPIKNKDP@RegQueryValueW?$AA@ 7c64bea0     atldload:advapi.obj
 0002:00002eb0       ??_C@_0BB@GLNAEDBD@RegQueryValueExW?$AA@ 7c64beb0     atldload:advapi.obj
 0002:00002ec4       ??_C@_0BB@HHEIPGME@RegQueryValueExA?$AA@ 7c64bec4     atldload:advapi.obj
 0002:00002ed8       ??_C@_0P@CDBCGPOI@RegQueryValueA?$AA@ 7c64bed8     atldload:advapi.obj
 0002:00002ee8       ??_C@_0BB@BILFPGMA@RegQueryInfoKeyW?$AA@ 7c64bee8     atldload:advapi.obj
 0002:00002efc       ??_C@_0M@INNIHOHL@RegOpenKeyW?$AA@ 7c64befc     atldload:advapi.obj
 0002:00002f08       ??_C@_0O@COHOBMLB@RegOpenKeyExW?$AA@ 7c64bf08     atldload:advapi.obj
 0002:00002f18       ??_C@_0O@DCOGKJGG@RegOpenKeyExA?$AA@ 7c64bf18     atldload:advapi.obj
 0002:00002f28       ??_C@_0M@JBEAMLKM@RegOpenKeyA?$AA@ 7c64bf28     atldload:advapi.obj
 0002:00002f34       ??_C@_0BI@ILHBFDHH@RegNotifyChangeKeyValue?$AA@ 7c64bf34     atldload:advapi.obj
 0002:00002f4c       ??_C@_0O@GLENPJE@RegEnumValueW?$AA@ 7c64bf4c     atldload:advapi.obj
 0002:00002f5c       ??_C@_0M@JAINDJJM@RegEnumKeyW?$AA@ 7c64bf5c     atldload:advapi.obj
 0002:00002f68       ??_C@_0O@NHPJLAPM@RegEnumKeyExW?$AA@ 7c64bf68     atldload:advapi.obj
 0002:00002f78       ??_C@_0M@IMBFIMEL@RegEnumKeyA?$AA@ 7c64bf78     atldload:advapi.obj
 0002:00002f84       ??_C@_0BA@GJPNJIAM@RegDeleteValueW?$AA@ 7c64bf84     atldload:advapi.obj
 0002:00002f94       ??_C@_0BA@HFGFCNNL@RegDeleteValueA?$AA@ 7c64bf94     atldload:advapi.obj
 0002:00002fa4       ??_C@_0O@BJCLIAAA@RegDeleteKeyW?$AA@ 7c64bfa4     atldload:advapi.obj
 0002:00002fb4       ??_C@_0O@FLDDFNH@RegDeleteKeyA?$AA@ 7c64bfb4     atldload:advapi.obj
 0002:00002fc4       ??_C@_0O@NNILLHLD@RegCreateKeyW?$AA@ 7c64bfc4     atldload:advapi.obj
 0002:00002fd4       ??_C@_0BA@MPOFGLLA@RegCreateKeyExW?$AA@ 7c64bfd4     atldload:advapi.obj
 0002:00002fe4       ??_C@_0BA@NDHNNOGH@RegCreateKeyExA?$AA@ 7c64bfe4     atldload:advapi.obj
 0002:00002ff4       ??_C@_0O@MBBDACGE@RegCreateKeyA?$AA@ 7c64bff4     atldload:advapi.obj
 0002:00003004       ??_C@_0M@HLOHPNFA@RegCloseKey?$AA@ 7c64c004     atldload:advapi.obj
 0002:00003010       ??_C@_0BD@PMIABNOP@QueryServiceStatus?$AA@ 7c64c010     atldload:advapi.obj
 0002:00003024       ??_C@_0BA@MOEFBCGC@OpenThreadToken?$AA@ 7c64c024     atldload:advapi.obj
 0002:00003034       ??_C@_0BB@EANJDCJP@OpenProcessToken?$AA@ 7c64c034     atldload:advapi.obj
 0002:00003048       ??_C@_0BG@JCADCCGO@LookupPrivilegeValueW?$AA@ 7c64c048     atldload:advapi.obj
 0002:00003060       ??_C@_0BG@IOJLJHLJ@LookupPrivilegeValueA?$AA@ 7c64c060     atldload:advapi.obj
 0002:00003078       ??_C@_0O@JDINBACB@IsTextUnicode?$AA@ 7c64c078     atldload:advapi.obj
 0002:00003088       ??_C@_0N@FIDKBBEB@GetUserNameW?$AA@ 7c64c088     atldload:advapi.obj
 0002:00003098       ??_C@_0BE@JIDLIKOL@GetTokenInformation?$AA@ 7c64c098     atldload:advapi.obj
 0002:000030ac       ??_C@_0BB@IEJGDIKE@GetFileSecurityW?$AA@ 7c64c0ac     atldload:advapi.obj
 0002:000030c0       ??_C@_0BB@JIAOINHD@GetFileSecurityA?$AA@ 7c64c0c0     atldload:advapi.obj
 0002:000030d4       ??_C@_07JIBMLCGK@FreeSid?$AA@ 7c64c0d4     atldload:advapi.obj
 0002:000030dc       ??_C@_0BG@LPHFFLAA@DeregisterEventSource?$AA@ 7c64c0dc     atldload:advapi.obj
 0002:000030f4       ??_C@_0BE@FBIJLPPP@CryptReleaseContext?$AA@ 7c64c0f4     atldload:advapi.obj
 0002:00003108       ??_C@_0O@DAIMODJH@CryptHashData?$AA@ 7c64c108     atldload:advapi.obj
 0002:00003118       ??_C@_0BC@BNEOPJAJ@CryptGetHashParam?$AA@ 7c64c118     atldload:advapi.obj
 0002:0000312c       ??_C@_0P@PLHBLCCF@CryptExportKey?$AA@ 7c64c12c     atldload:advapi.obj
 0002:0000313c       ??_C@_0BA@FJKBDIMN@CryptDestroyKey?$AA@ 7c64c13c     atldload:advapi.obj
 0002:0000314c       ??_C@_0BB@INPNJGML@CryptDestroyHash?$AA@ 7c64c14c     atldload:advapi.obj
 0002:00003160       ??_C@_0BA@IEJOIHIJ@CryptCreateHash?$AA@ 7c64c160     atldload:advapi.obj
 0002:00003170       ??_C@_0BF@JHHBLAOM@CryptAcquireContextW?$AA@ 7c64c170     atldload:advapi.obj
 0002:00003188       ??_C@_0BF@KEDGKLKA@CheckTokenMembership?$AA@ 7c64c188     atldload:advapi.obj
 0002:000031a0       ??_C@_0BJ@ECIKFEOL@AllocateAndInitializeSid?$AA@ 7c64c1a0     atldload:advapi.obj
 0002:000031bc       ??_C@_0BG@CGCLCMLG@AdjustTokenPrivileges?$AA@ 7c64c1bc     atldload:advapi.obj
 0002:000031d8       _c_PmapEntries_advapi32    7c64c1d8     atldload:advapi.obj
 0002:00003398       _c_Pmap_advapi32           7c64c398     atldload:advapi.obj
 0002:000033a0       __sz_ole32_dll             7c64c3a0     ole32:ole32.dll
 0002:000033b0       __sz_OLEAUT32_dll          7c64c3b0     oleaut32:OLEAUT32.dll
 0002:000033c0       __sz_ADVAPI32_dll          7c64c3c0     advapi32:ADVAPI32.dll
 0002:000033d0       __sz_USER32_dll            7c64c3d0     user32:USER32.dll
 0002:000033e0       __sz_GDI32_dll             7c64c3e0     gdi32:GDI32.dll
 0002:000033ec       _GUID_ATLVer30             7c64c3ec     atls:atlbase.obj
 0002:000033fc       _GUID_ATLVer70             7c64c3fc     atls:atlbase.obj
 0002:0000340c       ??_C@_0BJ@PNEEKDOK@InterlockedPopEntrySList?$AA@ 7c64c40c     atls:atlthunk.obj
 0002:00003428       ??_C@_0BK@JFGGAIOA@InterlockedPushEntrySList?$AA@ 7c64c428     atls:atlthunk.obj
 0002:00003444       __fltused                  7c64c444     atlmincrt:atlinit.obj
 0002:00003448       ??_C@_0N@HAOHNMDE@Kernel32?4dll?$AA@ 7c64c448     atlmincrt:atlinit.obj
 0002:00003458       ??_C@_0O@KBPMFGHI@DecodePointer?$AA@ 7c64c458     atlmincrt:atlinit.obj
 0002:00003468       __pDefaultRawDllMain       7c64c468     atlmincrt:atlinitdll.obj
 0002:00003468       __pRawDllMain              7c64c468     atlmincrt:atlinitdll.obj
 0002:00003474       _CLSID_StdGlobalInterfaceTable 7c64c474     uuid:cguid_i.obj
 0002:00003484       _GUID_NULL                 7c64c484     uuid:cguid_i.obj
 0002:00003494       _CLSID_StdComponentCategoriesMgr 7c64c494     uuid:ieguids.obj
 0002:000034a8       __load_config_used         7c64c4a8     atlmincrt:atlloadcfg.obj
 0002:00003540       ___safe_se_handler_table   7c64c540     <linker-defined>
 0002:0000360c       ___pobjMapEntryFirst       7c64c60c     stdafx.obj
 0002:00003610       ___pobjMapEntryLast        7c64c610     stdafx.obj
 0002:00003614       __DELAY_IMPORT_DESCRIPTOR_ole32_dll 7c64c614     ole32:ole32.dll
 0002:00003634       __DELAY_IMPORT_DESCRIPTOR_OLEAUT32_dll 7c64c634     oleaut32:OLEAUT32.dll
 0002:00003654       __DELAY_IMPORT_DESCRIPTOR_ADVAPI32_dll 7c64c654     advapi32:ADVAPI32.dll
 0002:00003674       __DELAY_IMPORT_DESCRIPTOR_USER32_dll 7c64c674     user32:USER32.dll
 0002:00003694       __DELAY_IMPORT_DESCRIPTOR_GDI32_dll 7c64c694     gdi32:GDI32.dll
 0002:000036b4       __NULL_DELAY_IMPORT_DESCRIPTOR 7c64c6b4     ole32:ole32.dll
 0002:000036f4       \177ADVAPI32_NULL_THUNK_DATA_DLN 7c64c6f4     advapi32:ADVAPI32.dll
 0002:00003724       \177GDI32_NULL_THUNK_DATA_DLN 7c64c724     gdi32:GDI32.dll
 0002:0000376c       \177OLEAUT32_NULL_THUNK_DATA_DLN 7c64c76c     oleaut32:OLEAUT32.dll
 0002:00003864       \177USER32_NULL_THUNK_DATA_DLN 7c64c864     user32:USER32.dll
 0002:000038bc       \177ole32_NULL_THUNK_DATA_DLN 7c64c8bc     ole32:ole32.dll
 0002:00003fc4       \177ole32_NULL_THUNK_DATA_DLB 7c64cfc4     ole32:ole32.dll
 0002:0000401c       \177OLEAUT32_NULL_THUNK_DATA_DLB 7c64d01c     oleaut32:OLEAUT32.dll
 0002:00004064       \177ADVAPI32_NULL_THUNK_DATA_DLB 7c64d064     advapi32:ADVAPI32.dll
 0002:00004088       \177USER32_NULL_THUNK_DATA_DLB 7c64d088     user32:USER32.dll
 0002:0000417c       \177GDI32_NULL_THUNK_DATA_DLB 7c64d17c     gdi32:GDI32.dll
 0002:000041ac       __IMPORT_DESCRIPTOR_KERNEL32 7c64d1ac     kernel32:KERNEL32.dll
 0002:000041c0       __NULL_IMPORT_DESCRIPTOR   7c64d1c0     kernel32:KERNEL32.dll
 0003:00000000       ?rcDefault@CWindow@ATL@@2UtagRECT@@A 7c64e000     RegObj.obj
 0003:0000007c       ___pfnDliFailureHook2      7c64e07c     atl.obj
 0003:00000080       ?wc@?1??GetWndClassInfo@?$CWindowImpl@VCAxFrameWindow@ATL@@VCWindow@2@V?$CWinTraits@$0FGAAAAAA@$0A@@2@@ATL@@SAAAU_ATL_WNDCLASSINFOW@3@XZ@4U43@A 7c64e080     stdafx.obj
 0003:00000110       ?wc@?1??GetWndClassInfo@?$CWindowImpl@VCAxUIWindow@ATL@@VCWindow@2@V?$CWinTraits@$0FGAAAAAA@$0A@@2@@ATL@@SAAAU_ATL_WNDCLASSINFOW@3@XZ@4U43@A 7c64e110     stdafx.obj
 0003:0000019c       ?g_pfnGetThreadACP@ATL@@3P6GIXZA 7c64e19c     atls:atltrace.obj
 0003:000001a0       ___security_cookie         7c64e1a0     libcmt:gs_cookie.obj
 0003:000001a4       ___security_cookie_complement 7c64e1a4     libcmt:gs_cookie.obj
 0003:000001b0       __NLG_Destination          7c64e1b0     libcmt:exsup.obj
 0003:000001c0       __imp__RegQueryInfoKeyW@48 7c64e1c0     advapi32:ADVAPI32.dll
 0003:000001c4       __imp__RegDeleteValueW@8   7c64e1c4     advapi32:ADVAPI32.dll
 0003:000001c8       __imp__RegCloseKey@4       7c64e1c8     advapi32:ADVAPI32.dll
 0003:000001cc       __imp__RegCreateKeyExW@36  7c64e1cc     advapi32:ADVAPI32.dll
 0003:000001d0       __imp__RegOpenKeyExW@20    7c64e1d0     advapi32:ADVAPI32.dll
 0003:000001d4       __imp__RegEnumKeyExW@32    7c64e1d4     advapi32:ADVAPI32.dll
 0003:000001d8       __imp__RegSetValueExW@24   7c64e1d8     advapi32:ADVAPI32.dll
 0003:000001dc       __imp__RegDeleteKeyW@8     7c64e1dc     advapi32:ADVAPI32.dll
 0003:000001e0       \177ADVAPI32_NULL_THUNK_DATA_DLA 7c64e1e0     advapi32:ADVAPI32.dll
 0003:000001e4       __imp__DeleteDC@4          7c64e1e4     gdi32:GDI32.dll
 0003:000001e8       __imp__BitBlt@36           7c64e1e8     gdi32:GDI32.dll
 0003:000001ec       __imp__GetDeviceCaps@8     7c64e1ec     gdi32:GDI32.dll
 0003:000001f0       __imp__SelectObject@8      7c64e1f0     gdi32:GDI32.dll
 0003:000001f4       __imp__CreateCompatibleDC@4 7c64e1f4     gdi32:GDI32.dll
 0003:000001f8       __imp__CreateCompatibleBitmap@12 7c64e1f8     gdi32:GDI32.dll
 0003:000001fc       __imp__DeleteObject@4      7c64e1fc     gdi32:GDI32.dll
 0003:00000200       __imp__CreateSolidBrush@4  7c64e200     gdi32:GDI32.dll
 0003:00000204       __imp__GetObjectW@12       7c64e204     gdi32:GDI32.dll
 0003:00000208       __imp__GetStockObject@4    7c64e208     gdi32:GDI32.dll
 0003:0000020c       __imp__CreateDCW@16        7c64e20c     gdi32:GDI32.dll
 0003:00000210       \177GDI32_NULL_THUNK_DATA_DLA 7c64e210     gdi32:GDI32.dll
 0003:00000214       __imp__LoadRegTypeLib@20   7c64e214     oleaut32:OLEAUT32.dll
 0003:00000218       __imp__VarUI4FromStr@16    7c64e218     oleaut32:OLEAUT32.dll
 0003:0000021c       __imp__SysAllocString@4    7c64e21c     oleaut32:OLEAUT32.dll
 0003:00000220       __imp__LoadTypeLib@8       7c64e220     oleaut32:OLEAUT32.dll
 0003:00000224       __imp__UnRegisterTypeLib@20 7c64e224     oleaut32:OLEAUT32.dll
 0003:00000228       __imp__SysFreeString@4     7c64e228     oleaut32:OLEAUT32.dll
 0003:0000022c       __imp__RegisterTypeLib@12  7c64e22c     oleaut32:OLEAUT32.dll
 0003:00000230       __imp__SysStringLen@4      7c64e230     oleaut32:OLEAUT32.dll
 0003:00000234       __imp__SetErrorInfo@8      7c64e234     oleaut32:OLEAUT32.dll
 0003:00000238       __imp__CreateErrorInfo@4   7c64e238     oleaut32:OLEAUT32.dll
 0003:0000023c       __imp__SysAllocStringByteLen@8 7c64e23c     oleaut32:OLEAUT32.dll
 0003:00000240       __imp__VariantInit@4       7c64e240     oleaut32:OLEAUT32.dll
 0003:00000244       __imp__VariantClear@4      7c64e244     oleaut32:OLEAUT32.dll
 0003:00000248       __imp__VariantChangeType@16 7c64e248     oleaut32:OLEAUT32.dll
 0003:0000024c       __imp__SysStringByteLen@4  7c64e24c     oleaut32:OLEAUT32.dll
 0003:00000250       __imp__SysAllocStringLen@8 7c64e250     oleaut32:OLEAUT32.dll
 0003:00000254       __imp__OleCreateFontIndirect@12 7c64e254     oleaut32:OLEAUT32.dll
 0003:00000258       \177OLEAUT32_NULL_THUNK_DATA_DLA 7c64e258     oleaut32:OLEAUT32.dll
 0003:0000025c       __imp__DestroyWindow@4     7c64e25c     user32:USER32.dll
 0003:00000260       __imp__CallWindowProcW@20  7c64e260     user32:USER32.dll
 0003:00000264       __imp__CreateWindowExW@48  7c64e264     user32:USER32.dll
 0003:00000268       __imp__DialogBoxIndirectParamW@20 7c64e268     user32:USER32.dll
 0003:0000026c       __imp__DialogBoxIndirectParamA@20 7c64e26c     user32:USER32.dll
 0003:00000270       __imp__CreateDialogIndirectParamW@20 7c64e270     user32:USER32.dll
 0003:00000274       __imp__CreateDialogIndirectParamA@20 7c64e274     user32:USER32.dll
 0003:00000278       __imp__GetClassInfoExA@12  7c64e278     user32:USER32.dll
 0003:0000027c       __imp__LoadCursorA@8       7c64e27c     user32:USER32.dll
 0003:00000280       __imp__IsWindowUnicode@4   7c64e280     user32:USER32.dll
 0003:00000284       __imp__RegisterClassExW@4  7c64e284     user32:USER32.dll
 0003:00000288       __imp__GetClassInfoExW@12  7c64e288     user32:USER32.dll
 0003:0000028c       __imp__LoadCursorW@8       7c64e28c     user32:USER32.dll
 0003:00000290       __imp__MessageBoxA@16      7c64e290     user32:USER32.dll
 0003:00000294       __imp__CharNextW@4         7c64e294     user32:USER32.dll
 0003:00000298       __imp__UnregisterClassW@8  7c64e298     user32:USER32.dll
 0003:0000029c       __imp__DispatchMessageA@4  7c64e29c     user32:USER32.dll
 0003:000002a0       __imp__DispatchMessageW@4  7c64e2a0     user32:USER32.dll
 0003:000002a4       __imp__TranslateMessage@4  7c64e2a4     user32:USER32.dll
 0003:000002a8       __imp__GetMessageA@16      7c64e2a8     user32:USER32.dll
 0003:000002ac       __imp__GetMessageW@16      7c64e2ac     user32:USER32.dll
 0003:000002b0       __imp__UnregisterClassA@8  7c64e2b0     user32:USER32.dll
 0003:000002b4       __imp__PeekMessageW@20     7c64e2b4     user32:USER32.dll
 0003:000002b8       __imp__MsgWaitForMultipleObjects@20 7c64e2b8     user32:USER32.dll
 0003:000002bc       __imp__LoadStringW@16      7c64e2bc     user32:USER32.dll
 0003:000002c0       __imp__RegisterWindowMessageW@4 7c64e2c0     user32:USER32.dll
 0003:000002c4       __imp__DefWindowProcW@16   7c64e2c4     user32:USER32.dll
 0003:000002c8       __imp__SetWindowLongW@12   7c64e2c8     user32:USER32.dll
 0003:000002cc       __imp__GetWindowLongW@8    7c64e2cc     user32:USER32.dll
 0003:000002d0       __imp__SetWindowTextW@8    7c64e2d0     user32:USER32.dll
 0003:000002d4       __imp__GetWindowTextW@12   7c64e2d4     user32:USER32.dll
 0003:000002d8       __imp__GetWindowTextLengthW@4 7c64e2d8     user32:USER32.dll
 0003:000002dc       __imp__SendMessageW@16     7c64e2dc     user32:USER32.dll
 0003:000002e0       __imp__RegisterClassExA@4  7c64e2e0     user32:USER32.dll
 0003:000002e4       __imp__ReleaseDC@8         7c64e2e4     user32:USER32.dll
 0003:000002e8       __imp__GetDC@4             7c64e2e8     user32:USER32.dll
 0003:000002ec       __imp__DestroyAcceleratorTable@4 7c64e2ec     user32:USER32.dll
 0003:000002f0       __imp__GetSysColor@4       7c64e2f0     user32:USER32.dll
 0003:000002f4       __imp__GetWindow@8         7c64e2f4     user32:USER32.dll
 0003:000002f8       __imp__GetFocus@0          7c64e2f8     user32:USER32.dll
 0003:000002fc       __imp__SetFocus@4          7c64e2fc     user32:USER32.dll
 0003:00000300       __imp__IsChild@8           7c64e300     user32:USER32.dll
 0003:00000304       __imp__EndPaint@8          7c64e304     user32:USER32.dll
 0003:00000308       __imp__FillRect@12         7c64e308     user32:USER32.dll
 0003:0000030c       __imp__BeginPaint@8        7c64e30c     user32:USER32.dll
 0003:00000310       __imp__GetClientRect@8     7c64e310     user32:USER32.dll
 0003:00000314       __imp__IsWindow@4          7c64e314     user32:USER32.dll
 0003:00000318       __imp__RedrawWindow@16     7c64e318     user32:USER32.dll
 0003:0000031c       __imp__SetWindowPos@28     7c64e31c     user32:USER32.dll
 0003:00000320       __imp__GetClassNameW@12    7c64e320     user32:USER32.dll
 0003:00000324       __imp__GetParent@4         7c64e324     user32:USER32.dll
 0003:00000328       __imp__GetDesktopWindow@0  7c64e328     user32:USER32.dll
 0003:0000032c       __imp__CreateAcceleratorTableW@8 7c64e32c     user32:USER32.dll
 0003:00000330       __imp__MoveWindow@24       7c64e330     user32:USER32.dll
 0003:00000334       __imp__ClientToScreen@8    7c64e334     user32:USER32.dll
 0003:00000338       __imp__ScreenToClient@8    7c64e338     user32:USER32.dll
 0003:0000033c       __imp__ReleaseCapture@0    7c64e33c     user32:USER32.dll
 0003:00000340       __imp__SetCapture@4        7c64e340     user32:USER32.dll
 0003:00000344       __imp__InvalidateRect@12   7c64e344     user32:USER32.dll
 0003:00000348       __imp__InvalidateRgn@12    7c64e348     user32:USER32.dll
 0003:0000034c       __imp__GetDlgItem@8        7c64e34c     user32:USER32.dll
 0003:00000350       \177USER32_NULL_THUNK_DATA_DLA 7c64e350     user32:USER32.dll
 0003:00000354       __imp__OleLockRunning@12   7c64e354     ole32:ole32.dll
 0003:00000358       __imp__CLSIDFromString@8   7c64e358     ole32:ole32.dll
 0003:0000035c       __imp__CLSIDFromProgID@8   7c64e35c     ole32:ole32.dll
 0003:00000360       __imp__CoGetClassObject@20 7c64e360     ole32:ole32.dll
 0003:00000364       __imp__OleInitialize@4     7c64e364     ole32:ole32.dll
 0003:00000368       __imp__OleUninitialize@0   7c64e368     ole32:ole32.dll
 0003:0000036c       __imp__OleSaveToStream@8   7c64e36c     ole32:ole32.dll
 0003:00000370       __imp__WriteClassStm@8     7c64e370     ole32:ole32.dll
 0003:00000374       __imp__OleLoadFromStream@12 7c64e374     ole32:ole32.dll
 0003:00000378       __imp__ProgIDFromCLSID@8   7c64e378     ole32:ole32.dll
 0003:0000037c       __imp__CoRevokeClassObject@4 7c64e37c     ole32:ole32.dll
 0003:00000380       __imp__CoRegisterClassObject@20 7c64e380     ole32:ole32.dll
 0003:00000384       __imp__CoUnmarshalInterface@12 7c64e384     ole32:ole32.dll
 0003:00000388       __imp__CreateStreamOnHGlobal@12 7c64e388     ole32:ole32.dll
 0003:0000038c       __imp__CoMarshalInterface@24 7c64e38c     ole32:ole32.dll
 0003:00000390       __imp__CoReleaseMarshalData@4 7c64e390     ole32:ole32.dll
 0003:00000394       __imp__StringFromGUID2@12  7c64e394     ole32:ole32.dll
 0003:00000398       __imp__CoCreateInstance@20 7c64e398     ole32:ole32.dll
 0003:0000039c       __imp__CoTaskMemRealloc@8  7c64e39c     ole32:ole32.dll
 0003:000003a0       __imp__CoTaskMemAlloc@4    7c64e3a0     ole32:ole32.dll
 0003:000003a4       __imp__CoTaskMemFree@4     7c64e3a4     ole32:ole32.dll
 0003:000003a8       \177ole32_NULL_THUNK_DATA_DLA 7c64e3a8     ole32:ole32.dll
 0003:000003b0       ?_pAtlModule@ATL@@3PAVCAtlModule@1@A 7c64e3b0     RegObj.obj
 0003:000003b4       ?bAtlAxWinInitialized@ATL@@3_NA 7c64e3b4     atl.obj
 0003:000003b5       ?m_bInitFailed@CAtlBaseModule@ATL@@2_NA 7c64e3b5     atl.obj
 0003:000003b8       ?m_libid@CAtlModule@ATL@@2U_GUID@@A 7c64e3b8     atl.obj
 0003:000003c8       ?_pModule@ATL@@3PAVCComModule@1@A 7c64e3c8     atl.obj
 0003:000003cc       ?map@?2??VTFromRegType@CRegParser@ATL@@KAHPB_WAAG@Z@4QBUtypemap@?1??123@KAH01@Z@B 7c64e3cc     atl.obj
 0003:000003ec       ??_B?2??VTFromRegType@CRegParser@ATL@@KAHPB_WAAG@Z@52 7c64e3ec     atl.obj
 0003:000003f0       ?_Module@@3VCComModule@ATL@@A 7c64e3f0     atl.obj
 0003:00000420       ?WM_ATLGETHOST@ATL@@3IA    7c64e420     stdafx.obj
 0003:00000424       ?WM_ATLGETCONTROL@ATL@@3IA 7c64e424     stdafx.obj
 0003:00000428       __hmod__ole32_dll          7c64e428     ole32:ole32.dll
 0003:0000042c       __hmod__OLEAUT32_dll       7c64e42c     oleaut32:OLEAUT32.dll
 0003:00000430       __hmod__ADVAPI32_dll       7c64e430     advapi32:ADVAPI32.dll
 0003:00000434       __hmod__USER32_dll         7c64e434     user32:USER32.dll
 0003:00000438       __hmod__GDI32_dll          7c64e438     gdi32:GDI32.dll
 0003:0000043c       ?_AtlBaseModule@ATL@@3VCAtlBaseModule@1@A 7c64e43c     atls:atlbase.obj
 0003:00000478       ?_AtlWinModule@ATL@@3VCAtlWinModule@1@A 7c64e478     atls:atlbase.obj
 0003:000004a4       ?_AtlComModule@ATL@@3VCAtlComModule@1@A 7c64e4a4     atls:atlcommodule.obj
 0003:000004cc       ?__AtlThunkPool@@3PAT_SLIST_HEADER@@A 7c64e4cc     atls:atlthunk.obj
 0003:000004d0       ?__AtlInterlockedPushEntrySList@@3P6GPAU_SINGLE_LIST_ENTRY@@PAT_SLIST_HEADER@@PAU1@@ZA 7c64e4d0     atls:atlthunk.obj
 0003:000004d4       ?__AtlInterlockedPopEntrySList@@3P6GPAU_SINGLE_LIST_ENTRY@@PAT_SLIST_HEADER@@@ZA 7c64e4d4     atls:atlthunk.obj
 0003:000004d8       ?errno@@3HA                7c64e4d8     atlmincrt:atlinit.obj
 0003:000004dc       __osplatform               7c64e4dc     atlmincrt:atlinit.obj
 0003:00000590       ___onexitbegin             7c64e590     atlmincrt:atlinit.obj
 0003:00000594       ___onexitend               7c64e594     atlmincrt:atlinit.obj
 0003:00000598       ___pInvalidArgHandler      7c64e598     libcmt:invarg.obj
 0003:000008c4       ___puiHead                 7c64e8c4     delayimp:delayhlp.obj
 0003:000008c8       ___pfnDliNotifyHook2       7c64e8c8     delayimp:delayhk2.obj
 0003:000008cc       __debugger_hook_dummy      7c64e8cc     <common>
 0003:000008d0       ___use_sse2_mathfcns       7c64e8d0     <common>
 0003:000008d4       ___sse2_available          7c64e8d4     <common>
 0003:000008d8       __pDestructExceptionObject 7c64e8d8     <common>

 entry point at        0001:00014561

 Static symbols

 0001:00005b10       ?AtlFindExtension@ATL@@YAPA_WPB_W@Z 7c636b10 f   stdafx.obj
 0001:00005b90       ?AtlGetDirLen@ATL@@YGIPB_W@Z 7c636b90 f   stdafx.obj
 0001:00005c10       ?AtlAxWindowProc@ATL@@YGJPAUHWND__@@IIJ@Z 7c636c10 f   stdafx.obj
 0001:00005f70       ?AtlAxWindowProc2@ATL@@YGJPAUHWND__@@IIJ@Z 7c636f70 f   stdafx.obj
 0001:00006340       ?CreateNormalizedObject@ATL@@YAJPB_WABU_GUID@@PAPAXAA_NPA_W@Z 7c637340 f   stdafx.obj
 0001:000132b9       _ReleaseCapture@0          7c6442b9 f   atldload:user32.obj
 0001:000132b9       _GetForegroundWindow@0     7c6442b9 f   atldload:user32.obj
 0001:000132b9       _GetDesktopWindow@0        7c6442b9 f   atldload:user32.obj
 0001:000132b9       _RevertToSelf@0            7c6442b9 f   atldload:user32.obj
 0001:000132b9       _GetFocus@0                7c6442b9 f   atldload:user32.obj
 0001:000132b9       _GetActiveWindow@0         7c6442b9 f   atldload:user32.obj
 0001:000132b9       _GetProcessWindowStation@0 7c6442b9 f   atldload:user32.obj
 0001:000132c3       _RealizePalette@4          7c6442c3 f   atldload:user32.obj
 0001:000132c3       _CreateCompatibleDC@4      7c6442c3 f   atldload:user32.obj
 0001:000132c3       _GetThreadDesktop@4        7c6442c3 f   atldload:user32.obj
 0001:000132c3       _CopyIcon@4                7c6442c3 f   atldload:user32.obj
 0001:000132c3       _DeleteObject@4            7c6442c3 f   atldload:user32.obj
 0001:000132c3       _DeleteDC@4                7c6442c3 f   atldload:user32.obj
 0001:000132c3       _DestroyCursor@4           7c6442c3 f   atldload:user32.obj
 0001:000132c3       _CreatePalette@4           7c6442c3 f   atldload:user32.obj
 0001:000132c3       _GetDC@4                   7c6442c3 f   atldload:user32.obj
 0001:000132c3       _WindowFromDC@4            7c6442c3 f   atldload:user32.obj
 0001:000132c3       _GetStockObject@4          7c6442c3 f   atldload:user32.obj
 0001:000132c3       _CloseDesktop@4            7c6442c3 f   atldload:user32.obj
 0001:000132c3       _CloseWindowStation@4      7c6442c3 f   atldload:user32.obj
 0001:000132c3       _DestroyWindow@4           7c6442c3 f   atldload:user32.obj
 0001:000132c3       _GetObjectType@4           7c6442c3 f   atldload:user32.obj
 0001:000132c3       _DestroyAcceleratorTable@4 7c6442c3 f   atldload:user32.obj
 0001:000132c3       _IsWindowUnicode@4         7c6442c3 f   atldload:user32.obj
 0001:000132c3       _DispatchMessageW@4        7c6442c3 f   atldload:user32.obj
 0001:000132c3       _GetParent@4               7c6442c3 f   atldload:user32.obj
 0001:000132c3       _ShowCursor@4              7c6442c3 f   atldload:user32.obj
 0001:000132c3       _CreateSolidBrush@4        7c6442c3 f   atldload:user32.obj
 0001:000132c3       _DeregisterEventSource@4   7c6442c3 f   atldload:user32.obj
 0001:000132c3       _SetCapture@4              7c6442c3 f   atldload:user32.obj
 0001:000132c3       _SetProcessWindowStation@4 7c6442c3 f   atldload:user32.obj
 0001:000132c3       _GetWindowTextLengthW@4    7c6442c3 f   atldload:user32.obj
 0001:000132c3       _SetThreadDesktop@4        7c6442c3 f   atldload:user32.obj
 0001:000132c3       _TranslateMessage@4        7c6442c3 f   atldload:user32.obj
 0001:000132c3       _FreeSid@4                 7c6442c3 f   atldload:user32.obj
 0001:000132c3       _IsCharAlphaA@4            7c6442c3 f   atldload:user32.obj
 0001:000132c3       _GetSysColor@4             7c6442c3 f   atldload:user32.obj
 0001:000132c3       _GetSystemMetrics@4        7c6442c3 f   atldload:user32.obj
 0001:000132c3       _SetFocus@4                7c6442c3 f   atldload:user32.obj
 0001:000132c3       _SetForegroundWindow@4     7c6442c3 f   atldload:user32.obj
 0001:000132c3       _IsWindowVisible@4         7c6442c3 f   atldload:user32.obj
 0001:000132c3       _RegisterWindowMessageW@4  7c6442c3 f   atldload:user32.obj
 0001:000132cf       _wsprintfA                 7c6442cf f   atldload:user32.obj
 0001:000132cf       _wsprintfW                 7c6442cf f   atldload:user32.obj
 0001:000132d3       _CharNextW@4               7c6442d3 f   atldload:user32.obj
 0001:000132d3       _CharNextA@4               7c6442d3 f   atldload:user32.obj
 0001:000132e4       _mouse_event@20            7c6442e4 f   atldload:user32.obj
 0001:000132ee       _MessageBoxA@16            7c6442ee f   atldload:user32.obj
 0001:000132ee       _SystemParametersInfoW@16  7c6442ee f   atldload:user32.obj
 0001:000132ee       _GetSystemPaletteEntries@16 7c6442ee f   atldload:user32.obj
 0001:000132ee       _CreateDCW@16              7c6442ee f   atldload:user32.obj
 0001:000132ee       _OpenThreadToken@16        7c6442ee f   atldload:user32.obj
 0001:000132ee       _PostMessageA@16           7c6442ee f   atldload:user32.obj
 0001:000132ee       _GetMessageA@16            7c6442ee f   atldload:user32.obj
 0001:000132ee       _LoadStringA@16            7c6442ee f   atldload:user32.obj
 0001:000132ee       _GetMessageW@16            7c6442ee f   atldload:user32.obj
 0001:000132ee       _SetViewportOrgEx@16       7c6442ee f   atldload:user32.obj
 0001:000132ee       _SendMessageW@16           7c6442ee f   atldload:user32.obj
 0001:000132ee       _RedrawWindow@16           7c6442ee f   atldload:user32.obj
 0001:000132ee       _SetViewportExtEx@16       7c6442ee f   atldload:user32.obj
 0001:000132ee       _DefWindowProcW@16         7c6442ee f   atldload:user32.obj
 0001:000132ee       _SetWindowExtEx@16         7c6442ee f   atldload:user32.obj
 0001:000132ee       _CallNextHookEx@16         7c6442ee f   atldload:user32.obj
 0001:000132ee       _OpenDesktopA@16           7c6442ee f   atldload:user32.obj
 0001:000132ee       _LoadStringW@16            7c6442ee f   atldload:user32.obj
 0001:000132ee       _DefWindowProcA@16         7c6442ee f   atldload:user32.obj
 0001:000132fa       _CreateDialogIndirectParamA@20 7c6442fa f   atldload:user32.obj
 0001:000132fa       _PeekMessageA@20           7c6442fa f   atldload:user32.obj
 0001:000132fa       _SetRect@20                7c6442fa f   atldload:user32.obj
 0001:000132fa       _ChangeDisplaySettingsExW@20 7c6442fa f   atldload:user32.obj
 0001:000132fa       _GetFileSecurityA@20       7c6442fa f   atldload:user32.obj
 0001:000132fa       _PeekMessageW@20           7c6442fa f   atldload:user32.obj
 0001:000132fa       _GetTokenInformation@20    7c6442fa f   atldload:user32.obj
 0001:000132fa       _CreateDialogIndirectParamW@20 7c6442fa f   atldload:user32.obj
 0001:000132fa       _CallWindowProcA@20        7c6442fa f   atldload:user32.obj
 0001:000132fa       _CallWindowProcW@20        7c6442fa f   atldload:user32.obj
 0001:00013306       _IsChild@8                 7c644306 f   atldload:user32.obj
 0001:00013306       _FindWindowA@8             7c644306 f   atldload:user32.obj
 0001:00013306       _GetDlgItem@8              7c644306 f   atldload:user32.obj
 0001:00013306       _SetSystemPaletteUse@8     7c644306 f   atldload:user32.obj
 0001:00013306       _SetWindowTextW@8          7c644306 f   atldload:user32.obj
 0001:00013306       _ChangeDisplaySettingsA@8  7c644306 f   atldload:user32.obj
 0001:00013306       _ValidateRect@8            7c644306 f   atldload:user32.obj
 0001:00013306       _BeginPaint@8              7c644306 f   atldload:user32.obj
 0001:00013306       _EndPaint@8                7c644306 f   atldload:user32.obj
 0001:00013306       _GetWindowRect@8           7c644306 f   atldload:user32.obj
 0001:00013306       _RegisterEventSourceW@8    7c644306 f   atldload:user32.obj
 0001:00013306       _CreateAcceleratorTableW@8 7c644306 f   atldload:user32.obj
 0001:00013306       _ShowWindow@8              7c644306 f   atldload:user32.obj
 0001:00013306       _SetThreadToken@8          7c644306 f   atldload:user32.obj
 0001:00013306       _UnregisterClassA@8        7c644306 f   atldload:user32.obj
 0001:00013306       _GetWindowLongA@8          7c644306 f   atldload:user32.obj
 0001:00013306       _GetWindowLongW@8          7c644306 f   atldload:user32.obj
 0001:00013306       _GetClientRect@8           7c644306 f   atldload:user32.obj
 0001:00013306       _SelectObject@8            7c644306 f   atldload:user32.obj
 0001:00013306       _SetMapMode@8              7c644306 f   atldload:user32.obj
 0001:00013306       _ReleaseDC@8               7c644306 f   atldload:user32.obj
 0001:00013306       _EqualRect@8               7c644306 f   atldload:user32.obj
 0001:00013306       _SetSystemCursor@8         7c644306 f   atldload:user32.obj
 0001:00013306       _LoadCursorW@8             7c644306 f   atldload:user32.obj
 0001:00013306       _LoadCursorA@8             7c644306 f   atldload:user32.obj
 0001:00013306       _GetUserNameW@8            7c644306 f   atldload:user32.obj
 0001:00013306       _QueryServiceStatus@8      7c644306 f   atldload:user32.obj
 0001:00013306       _UnregisterClassW@8        7c644306 f   atldload:user32.obj
 0001:00013306       _GetDeviceCaps@8           7c644306 f   atldload:user32.obj
 0001:00013306       _GetWindow@8               7c644306 f   atldload:user32.obj
 0001:00013312       _IntersectRect@12          7c644312 f   atldload:user32.obj
 0001:00013312       _CreateCompatibleBitmap@12 7c644312 f   atldload:user32.obj
 0001:00013312       _GetClassInfoA@12          7c644312 f   atldload:user32.obj
 0001:00013312       _GetClassInfoExA@12        7c644312 f   atldload:user32.obj
 0001:00013312       _GetClassInfoExW@12        7c644312 f   atldload:user32.obj
 0001:00013312       _InvalidateRect@12         7c644312 f   atldload:user32.obj
 0001:00013312       _InvalidateRgn@12          7c644312 f   atldload:user32.obj
 0001:00013312       _FillRect@12               7c644312 f   atldload:user32.obj
 0001:00013312       _GetUpdateRect@12          7c644312 f   atldload:user32.obj
 0001:00013312       _SetFileSecurityA@12       7c644312 f   atldload:user32.obj
 0001:00013312       _EnumDesktopWindows@12     7c644312 f   atldload:user32.obj
 0001:00013312       _SetWindowLongW@12         7c644312 f   atldload:user32.obj
 0001:00013312       _SelectPalette@12          7c644312 f   atldload:user32.obj
 0001:00013312       _GetObjectW@12             7c644312 f   atldload:user32.obj
 0001:00013312       _GetWindowTextW@12         7c644312 f   atldload:user32.obj
 0001:00013312       _GetWindowTextA@12         7c644312 f   atldload:user32.obj
 0001:00013312       _GetClassNameW@12          7c644312 f   atldload:user32.obj
 0001:00013312       _OpenWindowStationA@12     7c644312 f   atldload:user32.obj
 0001:00013312       _LookupPrivilegeValueA@12  7c644312 f   atldload:user32.obj
 0001:00013312       _EnumDisplaySettingsW@12   7c644312 f   atldload:user32.obj
 0001:00013312       _EnumDisplaySettingsA@12   7c644312 f   atldload:user32.obj
 0001:00013312       _LookupPrivilegeValueW@12  7c644312 f   atldload:user32.obj
 0001:00013312       _CheckTokenMembership@12   7c644312 f   atldload:user32.obj
 0001:00013312       _SetWindowLongA@12         7c644312 f   atldload:user32.obj
 0001:00013312       _OpenProcessToken@12       7c644312 f   atldload:user32.obj
 0001:0001331e       _CreateWindowExA@48        7c64431e f   atldload:user32.obj
 0001:0001331e       _CreateWindowExW@48        7c64431e f   atldload:user32.obj
 0001:0001332a       _DialogBoxIndirectParamW@20 7c64432a f   atldload:user32.obj
 0001:0001332a       _DialogBoxIndirectParamA@20 7c64432a f   atldload:user32.obj
 0001:0001332a       _MsgWaitForMultipleObjects@20 7c64432a f   atldload:user32.obj
 0001:00013337       _RegisterClassExW@4        7c644337 f   atldload:user32.obj
 0001:00013337       _RegisterClassExA@4        7c644337 f   atldload:user32.obj
 0001:00013337       _RegisterClassA@4          7c644337 f   atldload:user32.obj
 0001:00013344       _SetWindowPos@28           7c644344 f   atldload:user32.obj
 0001:00013350       _SysFreeString@4           7c644350 f   atldload:oleaut32.obj
 0001:00013350       _CoTaskMemFree@4           7c644350 f   atldload:oleaut32.obj
 0001:00013350       _ReleaseStgMedium@4        7c644350 f   atldload:oleaut32.obj
 0001:00013353       _VariantInit@4             7c644353 f   atldload:oleaut32.obj
 0001:00013361       _VariantClear@4            7c644361 f   atldload:oleaut32.obj
 0001:00013374       _SysAllocStringByteLen@8   7c644374 f   atldload:oleaut32.obj
 0001:00013374       _CoTaskMemRealloc@8        7c644374 f   atldload:oleaut32.obj
 0001:00013374       _CryptReleaseContext@8     7c644374 f   atldload:oleaut32.obj
 0001:00013374       _SystemTimeToVariantTime@8 7c644374 f   atldload:oleaut32.obj
 0001:00013374       _SysAllocStringLen@8       7c644374 f   atldload:oleaut32.obj
 0001:00013379       _SafeArrayGetElemsize@4    7c644379 f   atldload:oleaut32.obj
 0001:00013379       _DispatchMessageA@4        7c644379 f   atldload:oleaut32.obj
 0001:00013379       _CoTaskMemAlloc@4          7c644379 f   atldload:oleaut32.obj
 0001:00013379       _SysStringLen@4            7c644379 f   atldload:oleaut32.obj
 0001:00013379       _CryptDestroyHash@4        7c644379 f   atldload:oleaut32.obj
 0001:00013379       _SysStringByteLen@4        7c644379 f   atldload:oleaut32.obj
 0001:00013379       _SafeArrayGetDim@4         7c644379 f   atldload:oleaut32.obj
 0001:00013379       _CryptDestroyKey@4         7c644379 f   atldload:oleaut32.obj
 0001:00013379       _IsWindow@4                7c644379 f   atldload:oleaut32.obj
 0001:00013379       _SysAllocString@4          7c644379 f   atldload:oleaut32.obj
 0001:0001337e       _OleCreatePropertyFrame@44 7c64437e f   atldload:oleaut32.obj
 0001:00013386       _LoadRegTypeLib@20         7c644386 f   atldload:oleaut32.obj
 0001:0001338e       _SafeArrayAccessData@8     7c64438e f   atldload:oleaut32.obj
 0001:0001338e       _SafeArrayCopy@8           7c64438e f   atldload:oleaut32.obj
 0001:0001338e       _LoadTypeLib@8             7c64438e f   atldload:oleaut32.obj
 0001:0001338e       _SetErrorInfo@8            7c64438e f   atldload:oleaut32.obj
 0001:00013396       _OemToCharBuffA@12         7c644396 f   atldload:oleaut32.obj
 0001:00013396       _SafeArrayCreateVector@12  7c644396 f   atldload:oleaut32.obj
 0001:00013396       _CharToOemBuffA@12         7c644396 f   atldload:oleaut32.obj
 0001:00013396       _SafeArrayCreate@12        7c644396 f   atldload:oleaut32.obj
 0001:00013396       _StringFromGUID2@12        7c644396 f   atldload:oleaut32.obj
 0001:00013396       _VariantTimeToSystemTime@12 7c644396 f   atldload:oleaut32.obj
 0001:00013396       _DosDateTimeToVariantTime@12 7c644396 f   atldload:oleaut32.obj
 0001:0001339b       _VariantTimeToDosDateTime@16 7c64439b f   atldload:oleaut32.obj
 0001:0001339b       _CryptHashData@16          7c64439b f   atldload:oleaut32.obj
 0001:000133a0       _VarCmp@16                 7c6443a0 f   atldload:oleaut32.obj
 0001:000133a6       _SafeArrayPutElement@12    7c6443a6 f   atldload:oleaut32.obj
 0001:000133a6       _SafeArrayGetUBound@12     7c6443a6 f   atldload:oleaut32.obj
 0001:000133a6       _SafeArrayGetLBound@12     7c6443a6 f   atldload:oleaut32.obj
 0001:000133a6       _RegisterTypeLib@12        7c6443a6 f   atldload:oleaut32.obj
 0001:000133ae       _DispInvoke@32             7c6443ae f   atldload:oleaut32.obj
 0001:000133b6       _SafeArrayGetElement@12    7c6443b6 f   atldload:oleaut32.obj
 0001:000133be       _VariantChangeType@16      7c6443be f   atldload:oleaut32.obj
 0001:000133be       _VarUI4FromStr@16          7c6443be f   atldload:oleaut32.obj
 0001:000133c6       _CreateErrorInfo@4         7c6443c6 f   atldload:oleaut32.obj
 0001:000133c6       _SafeArrayDestroy@4        7c6443c6 f   atldload:oleaut32.obj
 0001:000133c6       _SafeArrayUnaccessData@4   7c6443c6 f   atldload:oleaut32.obj
 0001:000133c6       _OleCreatePropertyFrameIndirect@4 7c6443c6 f   atldload:oleaut32.obj
 0001:000133ce       _OleCreatePictureIndirect@16 7c6443ce f   atldload:oleaut32.obj
 0001:000133ce       _VarBstrFromDec@16         7c6443ce f   atldload:oleaut32.obj
 0001:000133ce       _VarDateFromStr@16         7c6443ce f   atldload:oleaut32.obj
 0001:000133ce       _CreateDataCache@16        7c6443ce f   atldload:oleaut32.obj
 0001:000133ce       _VarDecFromStr@16          7c6443ce f   atldload:oleaut32.obj
 0001:000133ce       _OleLoad@16                7c6443ce f   atldload:oleaut32.obj
 0001:000133ce       _VarCyFromStr@16           7c6443ce f   atldload:oleaut32.obj
 0001:000133ce       _VarBstrCmp@16             7c6443ce f   atldload:oleaut32.obj
 0001:000133d6       _VarBstrFromDate@20        7c6443d6 f   atldload:oleaut32.obj
 0001:000133d6       _VarParseNumFromStr@20     7c6443d6 f   atldload:oleaut32.obj
 0001:000133d6       _OleLoadPicture@20         7c6443d6 f   atldload:oleaut32.obj
 0001:000133d6       _UnRegisterTypeLib@20      7c6443d6 f   atldload:oleaut32.obj
 0001:000133d6       _VarBstrFromCy@20          7c6443d6 f   atldload:oleaut32.obj
 0001:000133de       _RegisterDragDrop@8        7c6443de f   atldload:ole32.obj
 0001:000133de       _OleRegEnumVerbs@8         7c6443de f   atldload:ole32.obj
 0001:000133de       _GetClassFile@8            7c6443de f   atldload:ole32.obj
 0001:000133de       _CreateFileMoniker@8       7c6443de f   atldload:ole32.obj
 0001:000133de       _WriteClassStm@8           7c6443de f   atldload:ole32.obj
 0001:000133de       _CoGetMalloc@8             7c6443de f   atldload:ole32.obj
 0001:000133de       _FreePropVariantArray@8    7c6443de f   atldload:ole32.obj
 0001:000133de       _CreateBindCtx@8           7c6443de f   atldload:ole32.obj
 0001:000133de       _StringFromCLSID@8         7c6443de f   atldload:ole32.obj
 0001:000133de       _ProgIDFromCLSID@8         7c6443de f   atldload:ole32.obj
 0001:000133de       _CoInitializeEx@8          7c6443de f   atldload:ole32.obj
 0001:000133de       _CoRegisterMessageFilter@8 7c6443de f   atldload:ole32.obj
 0001:000133de       _OleSaveToStream@8         7c6443de f   atldload:ole32.obj
 0001:000133de       _CoCancelCall@8            7c6443de f   atldload:ole32.obj
 0001:000133de       _CLSIDFromString@8         7c6443de f   atldload:ole32.obj
 0001:000133de       _CLSIDFromProgID@8         7c6443de f   atldload:ole32.obj
 0001:000133de       _PropVariantCopy@8         7c6443de f   atldload:ole32.obj
 0001:000133de       _CoSwitchCallContext@8     7c6443de f   atldload:ole32.obj
 0001:000133de       _CoAllowSetForegroundWindow@8 7c6443de f   atldload:ole32.obj
 0001:000133e6       _CoCreateGuid@4            7c6443e6 f   atldload:ole32.obj
 0001:000133ec       _CoCreateInstance@20       7c6443ec f   atldload:ole32.obj
 0001:000133ec       _CoGetClassObject@20       7c6443ec f   atldload:ole32.obj
 0001:000133fe       _CoInitializeSecurity@36   7c6443fe f   atldload:ole32.obj
 0001:00013406       _CoMarshalInterface@24     7c644406 f   atldload:ole32.obj
 0001:00013406       _StgOpenStorage@24         7c644406 f   atldload:ole32.obj
 0001:0001340e       _CoRegisterClassObject@20  7c64440e f   atldload:ole32.obj
 0001:0001340e       _CoWaitForMultipleHandles@20 7c64440e f   atldload:ole32.obj
 0001:0001340e       _OleSetMenuDescriptor@20   7c64440e f   atldload:ole32.obj
 0001:00013416       _CoRevertToSelf@0          7c644416 f   atldload:ole32.obj
 0001:00013416       _CoResumeClassObjects@0    7c644416 f   atldload:ole32.obj
 0001:00013416       _OleFlushClipboard@0       7c644416 f   atldload:ole32.obj
 0001:00013416       _CoImpersonateClient@0     7c644416 f   atldload:ole32.obj
 0001:00013416       _CoSuspendClassObjects@0   7c644416 f   atldload:ole32.obj
 0001:0001341c       _OleUninitialize@0         7c64441c f   atldload:ole32.obj
 0001:0001341c       _CoUninitialize@0          7c64441c f   atldload:ole32.obj
 0001:0001341c       _CoFreeUnusedLibraries@0   7c64441c f   atldload:ole32.obj
 0001:0001341d       _CreateClassMoniker@8      7c64441d f   atldload:ole32.obj
 0001:0001341d       _GetRunningObjectTable@8   7c64441d f   atldload:ole32.obj
 0001:0001341d       _CoCreateFreeThreadedMarshaler@8 7c64441d f   atldload:ole32.obj
 0001:0001342f       _CreateItemMoniker@12      7c64442f f   atldload:ole32.obj
 0001:00013441       _MkParseDisplayName@16     7c644441 f   atldload:ole32.obj
 0001:00013453       _OleInitialize@4           7c644453 f   atldload:ole32.obj
 0001:00013453       _CoReleaseMarshalData@4    7c644453 f   atldload:ole32.obj
 0001:00013453       _CoDisableCallCancellation@4 7c644453 f   atldload:ole32.obj
 0001:00013453       _CreateDataAdviseHolder@4  7c644453 f   atldload:ole32.obj
 0001:00013453       _OleQueryCreateFromData@4  7c644453 f   atldload:ole32.obj
 0001:00013453       _OleQueryLinkFromData@4    7c644453 f   atldload:ole32.obj
 0001:00013453       _CoEnableCallCancellation@4 7c644453 f   atldload:ole32.obj
 0001:00013453       _CoRevokeClassObject@4     7c644453 f   atldload:ole32.obj
 0001:00013453       _OleGetClipboard@4         7c644453 f   atldload:ole32.obj
 0001:00013453       _PropVariantClear@4        7c644453 f   atldload:ole32.obj
 0001:00013453       _OleSetClipboard@4         7c644453 f   atldload:ole32.obj
 0001:00013453       _RevokeDragDrop@4          7c644453 f   atldload:ole32.obj
 0001:00013453       _CoInitialize@4            7c644453 f   atldload:ole32.obj
 0001:00013453       _CreateOleAdviseHolder@4   7c644453 f   atldload:ole32.obj
 0001:00013453       _OleRun@4                  7c644453 f   atldload:ole32.obj
 0001:0001345b       _StgCreateDocfileOnILockBytes@16 7c64445b f   atldload:ole32.obj
 0001:0001345b       _StgCreateDocfile@16       7c64445b f   atldload:ole32.obj
 0001:0001345b       _DoDragDrop@16             7c64445b f   atldload:ole32.obj
 0001:00013463       _CoUnmarshalInterface@12   7c644463 f   atldload:ole32.obj
 0001:00013463       _OleLockRunning@12         7c644463 f   atldload:ole32.obj
 0001:00013463       _CreateILockBytesOnHGlobal@12 7c644463 f   atldload:ole32.obj
 0001:00013463       _OleRegGetMiscStatus@12    7c644463 f   atldload:ole32.obj
 0001:00013463       _OleRegGetUserType@12      7c644463 f   atldload:ole32.obj
 0001:00013463       _OleSave@12                7c644463 f   atldload:ole32.obj
 0001:00013463       _OleLoadFromStream@12      7c644463 f   atldload:ole32.obj
 0001:00013463       _CoMarshalInterThreadInterfaceInStream@12 7c644463 f   atldload:ole32.obj
 0001:00013463       _CoGetInterfaceAndReleaseStream@12 7c644463 f   atldload:ole32.obj
 0001:00013463       _CreateStreamOnHGlobal@12  7c644463 f   atldload:ole32.obj
 0001:0001346b       _CoSetProxyBlanket@32      7c64446b f   atldload:ole32.obj
 0001:0001346b       _StgOpenStorageEx@32       7c64446b f   atldload:ole32.obj
 0001:00013473       _OleDraw@16                7c644473 f   atldload:ole32.obj
 0001:00013473       _DispGetIDsOfNames@16      7c644473 f   atldload:ole32.obj
 0001:0001347b       _OleCreateFromData@28      7c64447b f   atldload:ole32.obj
 0001:0001348d       _CoFileTimeNow@4           7c64448d f   atldload:ole32.obj
 0001:000134a6       _VariantCopyInd@8          7c6444a6 f   atldload:ole32.obj
 0001:000134a6       _VariantCopy@8             7c6444a6 f   atldload:ole32.obj
 0001:000134a6       _GetHGlobalFromStream@8    7c6444a6 f   atldload:ole32.obj
 0001:000134ae       _SafeArrayLock@4           7c6444ae f   atldload:ole32.obj
 0001:000134ae       _SafeArrayAllocData@4      7c6444ae f   atldload:ole32.obj
 0001:000134ae       _OleIsCurrentClipboard@4   7c6444ae f   atldload:ole32.obj
 0001:000134ae       _SafeArrayUnlock@4         7c6444ae f   atldload:ole32.obj
 0001:000134ae       _StgIsStorageFile@4        7c6444ae f   atldload:ole32.obj
 0001:000134ae       _SafeArrayDestroyDescriptor@4 7c6444ae f   atldload:ole32.obj
 0001:000134ae       _OleDestroyMenuDescriptor@4 7c6444ae f   atldload:ole32.obj
 0001:000134ae       _SafeArrayDestroyData@4    7c6444ae f   atldload:ole32.obj
 0001:000134b6       _OleCreateMenuDescriptor@8 7c6444b6 f   atldload:ole32.obj
 0001:000134c2       _OleCreateFontIndirect@12  7c6444c2 f   atldload:ole32.obj
 0001:000134c2       _WriteFmtUserTypeStg@12    7c6444c2 f   atldload:ole32.obj
 0001:000134c2       _CreateGenericComposite@12 7c6444c2 f   atldload:ole32.obj
 0001:000134c2       _ReadFmtUserTypeStg@12     7c6444c2 f   atldload:ole32.obj
 0001:000134c2       _SafeArrayPtrOfIndex@12    7c6444c2 f   atldload:ole32.obj
 0001:000134c2       _SysReAllocStringLen@12    7c6444c2 f   atldload:ole32.obj
 0001:000134c2       _OleTranslateAccelerator@12 7c6444c2 f   atldload:ole32.obj
 0001:000134c2       _OleTranslateColor@12      7c6444c2 f   atldload:ole32.obj
 0001:000134c2       _CoLockObjectExternal@12   7c6444c2 f   atldload:ole32.obj
 0001:000134ca       _OleCreateLinkFromData@28  7c6444ca f   atldload:ole32.obj
 0001:000134ca       _OleCreateStaticFromData@28 7c6444ca f   atldload:ole32.obj
 0001:000134ca       _OleCreate@28              7c6444ca f   atldload:ole32.obj
 0001:000134ca       _OleCreateLinkToFile@28    7c6444ca f   atldload:ole32.obj
 0001:000134d2       _OleCreateFromFile@32      7c6444d2 f   atldload:ole32.obj
 0001:000134d2       _DispCallFunc@32           7c6444d2 f   atldload:ole32.obj
 0001:000134da       _OleIsRunning@4            7c6444da f   atldload:ole32.obj
 0001:000134e6       _ReadClassStg@8            7c6444e6 f   atldload:ole32.obj
 0001:000134e6       _WriteClassStg@8           7c6444e6 f   atldload:ole32.obj
 0001:000134e6       _SetConvertStg@8           7c6444e6 f   atldload:ole32.obj
 0001:000134e6       _SafeArrayRedim@8          7c6444e6 f   atldload:ole32.obj
 0001:000134e6       _SafeArrayAllocDescriptor@8 7c6444e6 f   atldload:ole32.obj
 0001:000134e6       _CoTreatAsClass@8          7c6444e6 f   atldload:ole32.obj
 0001:000134e6       _ReadClassStm@8            7c6444e6 f   atldload:ole32.obj
 0001:000134e6       _CoDisconnectObject@8      7c6444e6 f   atldload:ole32.obj
 0001:000134e6       _OleSetContainedObject@8   7c6444e6 f   atldload:ole32.obj
 0001:000134e6       _GetHGlobalFromILockBytes@8 7c6444e6 f   atldload:ole32.obj
 0001:000134ee       _StgOpenStorageOnILockBytes@24 7c6444ee f   atldload:ole32.obj
 0001:000134f6       _RegOpenKeyA@12            7c6444f6 f   atldload:advapi.obj
 0001:000134f6       _RegOpenKeyW@12            7c6444f6 f   atldload:advapi.obj
 0001:000134f6       _RegCreateKeyA@12          7c6444f6 f   atldload:advapi.obj
 0001:000134f6       _RegCreateKeyW@12          7c6444f6 f   atldload:advapi.obj
 0001:000134fc       _RegCreateKeyExA@36        7c6444fc f   atldload:advapi.obj
 0001:00013502       _RegCreateKeyExW@36        7c644502 f   atldload:advapi.obj
 0001:00013520       _RegOpenKeyExW@20          7c644520 f   atldload:advapi.obj
 0001:00013534       _RegQueryValueExA@24       7c644534 f   atldload:advapi.obj
 0001:00013534       _RegSetValueExA@24         7c644534 f   atldload:advapi.obj
 0001:00013534       _RegSetValueExW@24         7c644534 f   atldload:advapi.obj
 0001:0001353a       _RegQueryValueExW@24       7c64453a f   atldload:advapi.obj
 0001:00013558       _RegCloseKey@4             7c644558 f   atldload:advapi.obj
 0001:0001355e       _RegDeleteKeyA@8           7c64455e f   atldload:advapi.obj
 0001:0001355e       _RegDeleteKeyW@8           7c64455e f   atldload:advapi.obj
 0001:0001355e       _RegDeleteValueA@8         7c64455e f   atldload:advapi.obj
 0001:0001355e       _RegDeleteValueW@8         7c64455e f   atldload:advapi.obj
 0001:00013564       _RegSetValueA@20           7c644564 f   atldload:advapi.obj
 0001:00013564       _RegOpenKeyExA@20          7c644564 f   atldload:advapi.obj
 0001:00013564       _RegNotifyChangeKeyValue@20 7c644564 f   atldload:advapi.obj
 0001:0001356a       _RegEnumKeyA@16            7c64456a f   atldload:advapi.obj
 0001:0001356a       _RegEnumKeyW@16            7c64456a f   atldload:advapi.obj
 0001:0001356a       _RegQueryValueA@16         7c64456a f   atldload:advapi.obj
 0001:00013570       _RegEnumKeyExW@32          7c644570 f   atldload:advapi.obj
 0001:00013584       _RegQueryInfoKeyW@48       7c644584 f   atldload:advapi.obj
 0001:0001358a       _BitBlt@36                 7c64458a f   atldload:advapi.obj
 0001:0001358a       _ReportEventW@36           7c64458a f   atldload:advapi.obj
 0001:00013596       _AdjustTokenPrivileges@24  7c644596 f   atldload:advapi.obj
 0001:00013596       _CreateDIBSection@24       7c644596 f   atldload:advapi.obj
 0001:000135a2       _AllocateAndInitializeSid@44 7c6445a2 f   atldload:advapi.obj
 0001:000135ae       _RegEnumValueW@32          7c6445ae f   atldload:advapi.obj
 0001:000135b4       _CryptExportKey@24         7c6445b4 f   atldload:advapi.obj
 0001:000135b9       _CryptGetHashParam@20      7c6445b9 f   atldload:advapi.obj
 0001:000135cc       _CryptCreateHash@20        7c6445cc f   atldload:advapi.obj
 0001:000135cc       _CryptAcquireContextW@20   7c6445cc f   atldload:advapi.obj
 0001:000135d1       _IsAccelerator@16          7c6445d1 f   atldload:advapi.obj
 0001:000135d1       _RegQueryValueW@16         7c6445d1 f   atldload:advapi.obj
 0001:000135dd       _GetFileSecurityW@20       7c6445dd f   atldload:advapi.obj
 0001:000135dd       _RegSetValueW@20           7c6445dd f   atldload:advapi.obj
 0001:000135e9       _OleDuplicateData@12       7c6445e9 f   atldload:advapi.obj
 0001:000135e9       _OleGetIconOfClass@12      7c6445e9 f   atldload:advapi.obj
 0001:000135e9       _IsTextUnicode@12          7c6445e9 f   atldload:advapi.obj
 0001:000135e9       _SetFileSecurityW@12       7c6445e9 f   atldload:advapi.obj
 0001:00013e45       ?__InitializeThunkPool@@YAHXZ 7c644e45 f   atls:atlthunk.obj
 0001:0001459a       @x64tow_s@24               7c64559a f   libcmt:xtows.obj
 0001:0001605b       @x64toa_s@24               7c64705b f   libcmt:xtoas.obj
 0001:00016c8c       __unwind_handler4          7c647c8c f   libcmt:exsup4.obj
 0001:00016e8b       _fastzero_I                7c647e8b f   libcmt:p4_memset.obj
 0001:00016f85       _fastcopy_I                7c647f85 f   libcmt:p4_memcpy.obj
 0001:00017118       __unwind_handler           7c648118 f   libcmt:exsup.obj
 0001:0001722f       _has_osfxsr_set            7c64822f f   libcmt:cpu_disp.obj
 0001:00017540       ??__E_Module@@YAXXZ        7c648540 f   atl.obj
 0001:0001755c       ??__E_AtlBaseModule@ATL@@YAXXZ 7c64855c f   atls:atlbase.obj
 0001:00017572       ??__E_AtlWinModule@ATL@@YAXXZ 7c648572 f   atls:atlbase.obj
 0001:00017588       ??__E_AtlComModule@ATL@@YAXXZ 7c648588 f   atls:atlcommodule.obj
 0001:000175a0       ??__F_Module@@YAXXZ        7c6485a0 f   atl.obj
 0001:000175af       ??__F_AtlBaseModule@ATL@@YAXXZ 7c6485af f   atls:atlbase.obj
 0001:000175b9       ??__F_AtlWinModule@ATL@@YAXXZ 7c6485b9 f   atls:atlbase.obj
 0001:000175c3       ??__F_AtlComModule@ATL@@YAXXZ 7c6485c3 f   atls:atlcommodule.obj
