 atl80

 Timestamp is 62c3529a (Mon Jul 04 16:50:34 2022)

 Preferred load address is 7c630000

 Start         Length     Name                   Class
 0001:00000000 0006754cH .text                   CODE
 0001:00067550 00000103H .text$x                 CODE
 0001:00067660 0000045cH .text$yc                CODE
 0001:00067ac0 0000006fH .text$yd                CODE
 0002:00000000 00000208H .idata$5                DATA
 0002:00000208 00000004H .CRT$XCA                DATA
 0002:0000020c 0000000cH .CRT$XCC                DATA
 0002:00000218 00000074H .CRT$XCL                DATA
 0002:0000028c 00000010H .CRT$XCU                DATA
 0002:0000029c 00000004H .CRT$XCZ                DATA
 0002:000002a0 00000004H .CRT$XIA                DATA
 0002:000002a4 00000014H .CRT$XIC                DATA
 0002:000002b8 00000004H .CRT$XIZ                DATA
 0002:000002bc 00000004H .CRT$XPA                DATA
 0002:000002c0 00000008H .CRT$XPX                DATA
 0002:000002c8 00000004H .CRT$XPXA               DATA
 0002:000002cc 00000004H .CRT$XPZ                DATA
 0002:000002d0 00000004H .CRT$XTA                DATA
 0002:000002d4 00000004H .CRT$XTZ                DATA
 0002:000002e0 00019240H .rdata                  DATA
 0002:00019520 0000004cH .rdata$debug            DATA
 0002:0001956c 00000388H .rdata$r                DATA
 0002:00019900 0000002cH .rdata$sxdata           DATA
 0002:0001992c 00000004H .rtc$IAA                DATA
 0002:00019930 00000004H .rtc$IZZ                DATA
 0002:00019934 00000004H .rtc$TAA                DATA
 0002:00019938 00000004H .rtc$TZZ                DATA
 0002:00019940 00000d4cH .xdata$x                DATA
 0002:0001a68c 00000004H ATL$__a                 DATA
 0002:0001a690 00000004H ATL$__z                 DATA
 0002:0001a694 000000a0H .didat$2                DATA
 0002:0001a734 00000020H .didat$3                DATA
 0002:0001a754 000001f4H .didat$4                DATA
 0002:0001a948 00000720H .didat$6                DATA
 0002:0001b068 000001f4H .didat$7                DATA
 0002:0001b25c 00000014H .idata$2                DATA
 0002:0001b270 00000014H .idata$3                DATA
 0002:0001b284 00000208H .idata$4                DATA
 0002:0001b48c 00000920H .idata$6                DATA
 0002:0001bdb0 000006ddH .edata                  DATA
 0003:00000000 000012e0H .data                   DATA
 0003:000012e0 000001f4H .didat$5                DATA
 0003:000014e0 00001f1cH .bss                    DATA
 0004:00000000 00000128H .rsrc$01                DATA
 0004:00000130 00002210H .rsrc$02                DATA

  Address         Publics by Value              Rva+Base       Lib:Object

 0000:00000000       __except_list              00000000     <absolute>
 0000:0000000b       ___safe_se_handler_count   0000000b     <absolute>
 0000:00000000       ___ImageBase               7c630000     <linker-defined>
 0001:00000000       _AtlComPtrAssign@8         7c631000 f i RegObj.obj
 0001:00000050       _AtlInternalQueryInterface@16 7c631050 f i RegObj.obj
 0001:00000220       _InlineIsEqualGUID         7c631220 f i RegObj.obj
 0001:00000280       ?InlineIsEqualUnknown@ATL@@YGHABU_GUID@@@Z 7c631280 f i RegObj.obj
 0001:000002d0       _AtlWinModuleAddCreateWndData@12 7c6312d0 f i RegObj.obj
 0001:000003e0       ??0CTraceFileAndLineInfo@ATL@@QAE@PBDH@Z 7c6313e0 f i RegObj.obj
 0001:00000410       ??RCTraceFileAndLineInfo@ATL@@QBAXKIPBDZZ 7c631410 f i RegObj.obj
 0001:00000450       ?TraceV@CTrace@ATL@@QBAXPBDHKI0PAD@Z 7c631450 f i RegObj.obj
 0001:00000480       ??BCTraceCategory@ATL@@QBEKXZ 7c631480 f i RegObj.obj
 0001:00000490       ?_AtlRaiseException@ATL@@YAXKK@Z 7c631490 f i RegObj.obj
 0001:000004b0       _AtlWinModuleExtractCreateWndData@4 7c6314b0 f i RegObj.obj
 0001:000005d0       _AtlWinModuleRegisterClassExA@8 7c6315d0 f i RegObj.obj
 0001:00000640       _AtlWinModuleRegisterWndClassInfoA@16 7c631640 f i RegObj.obj
 0001:00000670       ?Add@?$CSimpleArray@GV?$CSimpleArrayEqualHelper@G@ATL@@@ATL@@QAEHABG@Z 7c631670 f i RegObj.obj
 0001:00000790       ?AtlThrowImpl@ATL@@YGXJ@Z  7c631790 f i RegObj.obj
 0001:00000820       ?InternalSetAtIndex@?$CSimpleArray@GV?$CSimpleArrayEqualHelper@G@ATL@@@ATL@@QAEXHABG@Z 7c631820 f i RegObj.obj
 0001:00000870       ??0Wrapper@?$CSimpleArray@GV?$CSimpleArrayEqualHelper@G@ATL@@@ATL@@QAE@ABG@Z 7c631870 f i RegObj.obj
 0001:00000890       ??0?$CComCritSecLock@VCComCriticalSection@ATL@@@ATL@@QAE@AAVCComCriticalSection@1@_N@Z 7c631890 f i RegObj.obj
 0001:000008e0       ??1?$CComCritSecLock@VCComCriticalSection@ATL@@@ATL@@QAE@XZ 7c6318e0 f i RegObj.obj
 0001:00000900       ?Unlock@?$CComCritSecLock@VCComCriticalSection@ATL@@@ATL@@QAEXXZ 7c631900 f i RegObj.obj
 0001:00000950       ?Unlock@CComCriticalSection@ATL@@QAEJXZ 7c631950 f i RegObj.obj
 0001:00000970       ?Lock@?$CComCritSecLock@VCComCriticalSection@ATL@@@ATL@@QAEJXZ 7c631970 f i RegObj.obj
 0001:000009d0       ?Lock@CComCriticalSection@ATL@@QAEJXZ 7c6319d0 f i RegObj.obj
 0001:000009f0       ??$AtlModuleRegisterWndClassInfoT@VAtlModuleRegisterWndClassInfoParamA@ATL@@@ATL@@YAGPAU_ATL_BASE_MODULE70@0@PAU_ATL_WIN_MODULE70@0@PAU_ATL_WNDCLASSINFOA@0@PAP6GJPAUHWND__@@IIJ@ZVAtlModuleRegisterWndClassInfoParamA@0@@Z 7c6319f0 f i RegObj.obj
 0001:00000d70       ?GetClassInfoExA@AtlModuleRegisterWndClassInfoParamA@ATL@@SAHPAUHINSTANCE__@@PBDPAUtagWNDCLASSEXA@@@Z 7c631d70 f i RegObj.obj
 0001:00000d90       ?FormatWindowClassName@AtlModuleRegisterWndClassInfoParamA@ATL@@SAXPADKPAX@Z 7c631d90 f i RegObj.obj
 0001:00000db0       ?LoadCursorA@AtlModuleRegisterWndClassInfoParamA@ATL@@SAPAUHICON__@@PAUHINSTANCE__@@PBD@Z 7c631db0 f i RegObj.obj
 0001:00000dd0       ?RegisterClassExA@AtlModuleRegisterWndClassInfoParamA@ATL@@SAGPAU_ATL_WIN_MODULE70@2@PBUtagWNDCLASSEXA@@@Z 7c631dd0 f i RegObj.obj
 0001:00000df0       ??$?2G@Wrapper@?$CSimpleArray@GV?$CSimpleArrayEqualHelper@G@ATL@@@ATL@@SAPAXIPAG@Z 7c631df0 f i RegObj.obj
 0001:00000e00       ?UpdateRegistry@CDLLRegObject@@SGJH@Z 7c631e00 f i atl.obj
 0001:00000ed0       _DllMain@12                7c631ed0 f   atl.obj
 0001:00000fc0       _AtlCreateRegistrar@4      7c631fc0 f   atl.obj
 0001:00000ff0       _AtlUpdateRegistryFromResourceD@20 7c631ff0 f i atl.obj
 0001:00001570       ??4?$CComPtr@UIRegistrar@@@ATL@@QAEPAUIRegistrar@@PAU2@@Z 7c632570 f i atl.obj
 0001:000015b0       ?GetObjectDescription@?$CComCoClass@VCDLLRegObject@@$1?CLSID_Registrar@@3U_GUID@@B@ATL@@SGPBDXZ 7c6325b0 f i atl.obj
 0001:000015c0       ?CreateInstance@?$CComCreator@V?$CComObjectCached@VCComClassFactory@ATL@@@ATL@@@ATL@@SGJPAXABU_GUID@@PAPAX@Z 7c6325c0 f i atl.obj
 0001:00001700       ?_AtlInitialConstruct@?$CComObjectRootEx@VCComMultiThreadModel@ATL@@@ATL@@QAEJXZ 7c632700 f i atl.obj
 0001:00001720       ?CreateInstance@?$CComCreator2@V?$CComCreator@V?$CComObject@VCDLLRegObject@@@ATL@@@ATL@@V?$CComFailCreator@$0?HPPLPOPA@@2@@ATL@@SGJPAXABU_GUID@@PAPAX@Z 7c632720 f i atl.obj
 0001:00001790       ??_G?$CComObjectCached@VCComClassFactory@ATL@@@ATL@@QAEPAXI@Z 7c632790 f i atl.obj
 0001:000017c0       ??9?$CComPtrBase@UIRegistrar@@@ATL@@QBE_NPAUIRegistrar@@@Z 7c6327c0 f i atl.obj
 0001:000017f0       ??0?$CComObjectCached@VCComClassFactory@ATL@@@ATL@@QAE@PAX@Z 7c6327f0 f i atl.obj
 0001:00001820       ??1?$CComObjectCached@VCComClassFactory@ATL@@@ATL@@QAE@XZ 7c632820 f i atl.obj
 0001:00001860       ?AddRef@?$CComObjectCached@VCComClassFactory@ATL@@@ATL@@UAGKXZ 7c632860 f i atl.obj
 0001:000018a0       ?Release@?$CComObjectCached@VCComClassFactory@ATL@@@ATL@@UAGKXZ 7c6328a0 f i atl.obj
 0001:00001910       ?QueryInterface@?$CComObjectCached@VCComClassFactory@ATL@@@ATL@@UAGJABU_GUID@@PAPAX@Z 7c632910 f i atl.obj
 0001:00001930       ?CreateInstance@?$CComCreator@V?$CComObject@VCDLLRegObject@@@ATL@@@ATL@@SGJPAXABU_GUID@@PAPAX@Z 7c632930 f i atl.obj
 0001:00001a80       ?FinalConstruct@CDLLRegObject@@QAEJXZ 7c632a80 f i atl.obj
 0001:00001ab0       ?CreateInstance@?$CComFailCreator@$0?HPPLPOPA@@ATL@@SGJPAXABU_GUID@@PAPAX@Z 7c632ab0 f i atl.obj
 0001:00001ae0       ??0CComClassFactory@ATL@@QAE@XZ 7c632ae0 f i atl.obj
 0001:00001b10       ??0IClassFactory@@QAE@XZ   7c632b10 f i atl.obj
 0001:00001b30       ??8?$CComPtrBase@UIRegistrar@@@ATL@@QBE_NPAUIRegistrar@@@Z 7c632b30 f i atl.obj
 0001:00001b50       ??0?$CComObject@VCDLLRegObject@@@ATL@@QAE@PAX@Z 7c632b50 f i atl.obj
 0001:00001b90       ??0CDLLRegObject@@QAE@XZ   7c632b90 f i atl.obj
 0001:00001bc0       ??0CRegObject@ATL@@QAE@XZ  7c632bc0 f i atl.obj
 0001:00001bf0       ??0IRegistrar@@QAE@XZ      7c632bf0 f i atl.obj
 0001:00001c10       ??0CExpansionVector@ATL@@QAE@XZ 7c632c10 f i atl.obj
 0001:00001c30       ??0IRegistrarBase@@QAE@XZ  7c632c30 f i atl.obj
 0001:00001c50       ??0?$CSimpleMap@PADPA_WVCExpansionVectorEqualHelper@ATL@@@ATL@@QAE@XZ 7c632c50 f i atl.obj
 0001:00001c80       ?AddRef@?$CComObject@VCDLLRegObject@@@ATL@@UAGKXZ 7c632c80 f i atl.obj
 0001:00001ca0       ?Release@?$CComObject@VCDLLRegObject@@@ATL@@UAGKXZ 7c632ca0 f i atl.obj
 0001:00001cf0       ?QueryInterface@?$CComObject@VCDLLRegObject@@@ATL@@UAGJABU_GUID@@PAPAX@Z 7c632cf0 f i atl.obj
 0001:00001d10       ?_InternalQueryInterface@CDLLRegObject@@QAEJABU_GUID@@PAPAX@Z 7c632d10 f i atl.obj
 0001:00001d40       ?_GetEntries@CDLLRegObject@@SGPBU_ATL_INTMAP_ENTRY@ATL@@XZ 7c632d40 f i atl.obj
 0001:00001d50       ??_E?$CComObject@VCDLLRegObject@@@ATL@@UAEPAXI@Z 7c632d50 f i atl.obj
 0001:00001d50       ??_G?$CComObject@VCDLLRegObject@@@ATL@@UAEPAXI@Z 7c632d50 f i atl.obj
 0001:00001d80       ??1?$CComObject@VCDLLRegObject@@@ATL@@UAE@XZ 7c632d80 f i atl.obj
 0001:00001dd0       ??1CDLLRegObject@@UAE@XZ   7c632dd0 f i atl.obj
 0001:00001e10       ?FinalRelease@CDLLRegObject@@QAEXXZ 7c632e10 f i atl.obj
 0001:00001e30       ?CreateInstance@?$CComObject@VCDLLRegObject@@@ATL@@SGJPAPAV12@@Z 7c632e30 f i atl.obj
 0001:00001f60       ??$AtlMultiply@H@ATL@@YAJPAHHH@Z 7c632f60 f i atl.obj
 0001:00001fc0       ?_AtlVerifyStackAvailable@_ATL_SAFE_ALLOCA_IMPL@ATL@@YA_NK@Z 7c632fc0 f i atl.obj
 0001:000020c0       ?_AtlGetConversionACP@ATL@@YGIXZ 7c6330c0 f i atl.obj
 0001:000020d0       ?AtlA2WHelper@@YGPA_WPA_WPBDHI@Z 7c6330d0 f i atl.obj
 0001:00002190       ?ocslen@@YAHPB_W@Z         7c633190 f i atl.obj
 0001:000021a0       ?ocscpy_s@@YA_NPA_WIPB_W@Z 7c6331a0 f i atl.obj
 0001:000021e0       ?Init@CComSafeDeleteCriticalSection@ATL@@QAEJXZ 7c6331e0 f i atl.obj
 0001:00002240       ?Init@CComCriticalSection@ATL@@QAEJXZ 7c633240 f i atl.obj
 0001:000022e0       ?AtlHresultFromLastError@ATL@@YAJXZ 7c6332e0 f i atl.obj
 0001:00002320       ?AtlHresultFromWin32@ATL@@YAJK@Z 7c633320 f i atl.obj
 0001:00002360       ?EscapeSingleQuote@CAtlModule@ATL@@SAXPA_WIPB_W@Z 7c633360 f i atl.obj
 0001:00002400       ??1?$CComPtr@UIRegistrar@@@ATL@@QAE@XZ 7c633400 f i atl.obj
 0001:00002420       _AtlWinModuleTerm@8        7c633420 f i atl.obj
 0001:000024c0       ?Term@CComCriticalSection@ATL@@QAEJXZ 7c6334c0 f i atl.obj
 0001:000024e0       ?AtlModuleUpdateRegistryFromResourceD@ATL@@YAJPAU_ATL_MODULE70@1@PB_WHPAU_ATL_REGMAP_ENTRY@1@PAUIRegistrar@@@Z 7c6334e0 f i atl.obj
 0001:00002510       ?GetModuleInstance@CAtlBaseModule@ATL@@QAEPAUHINSTANCE__@@XZ 7c633510 f i atl.obj
 0001:00002530       ?Init@CComModule@ATL@@QAEJPAU_ATL_OBJMAP_ENTRY30@2@PAUHINSTANCE__@@PBU_GUID@@@Z 7c633530 f i atl.obj
 0001:000025e0       ?Term@CComModule@ATL@@QAEXXZ 7c6335e0 f i atl.obj
 0001:00002690       ?Term@CAtlWinModule@ATL@@QAEXXZ 7c633690 f i atl.obj
 0001:000026b0       ?Term@CAtlModule@ATL@@QAEXXZ 7c6336b0 f i atl.obj
 0001:00002730       _AtlCallTermFunc@4         7c633730 f i atl.obj
 0001:000027a0       ?FinalConstruct@CComObjectRootBase@ATL@@QAEJXZ 7c6337a0 f i atl.obj
 0001:000027b0       ?_AtlFinalConstruct@CComObjectRootBase@ATL@@QAEJXZ 7c6337b0 f i atl.obj
 0001:000027c0       ?FinalRelease@CComObjectRootBase@ATL@@QAEXXZ 7c6337c0 f i atl.obj
 0001:000027d0       ?GetCategoryMap@CComObjectRootBase@ATL@@SAPBU_ATL_CATMAP_ENTRY@2@XZ 7c6337d0 f i atl.obj
 0001:000027e0       ?InternalQueryInterface@CComObjectRootBase@ATL@@SGJPAXPBU_ATL_INTMAP_ENTRY@2@ABU_GUID@@PAPAX@Z 7c6337e0 f i atl.obj
 0001:00002880       ?SetVoid@CComObjectRootBase@ATL@@QAEXPAX@Z 7c633880 f i atl.obj
 0001:00002890       ?InternalFinalConstructAddRef@CComObjectRootBase@ATL@@QAEXXZ 7c633890 f i atl.obj
 0001:000028a0       ?InternalFinalConstructRelease@CComObjectRootBase@ATL@@QAEXXZ 7c6338a0 f i atl.obj
 0001:000028e0       ?ObjectMain@CComObjectRootBase@ATL@@SGX_N@Z 7c6338e0 f i atl.obj
 0001:000028f0       ?_InternalQueryInterface@CComClassFactory@ATL@@QAEJABU_GUID@@PAPAX@Z 7c6338f0 f i atl.obj
 0001:00002920       ?_GetEntries@CComClassFactory@ATL@@SGPBU_ATL_INTMAP_ENTRY@2@XZ 7c633920 f i atl.obj
 0001:00002930       ??1CComClassFactory@ATL@@QAE@XZ 7c633930 f i atl.obj
 0001:00002970       ?CreateInstance@CComClassFactory@ATL@@UAGJPAUIUnknown@@ABU_GUID@@PAPAX@Z 7c633970 f i atl.obj
 0001:00002a30       ?LockServer@CComClassFactory@ATL@@UAGJH@Z 7c633a30 f i atl.obj
 0001:00002a70       ?SetVoid@CComClassFactory@ATL@@QAEXPAX@Z 7c633a70 f i atl.obj
 0001:00002a90       ??1CRegObject@ATL@@UAE@XZ  7c633a90 f i atl.obj
 0001:00002ac0       ??1CExpansionVector@ATL@@QAE@XZ 7c633ac0 f i atl.obj
 0001:00002ae0       ?ClearReplacements@CExpansionVector@ATL@@QAEJXZ 7c633ae0 f i atl.obj
 0001:00002b60       ?FinalConstruct@CRegObject@ATL@@QAEJXZ 7c633b60 f i atl.obj
 0001:00002b80       ?FileRegister@CRegObject@ATL@@UAGJPB_W@Z 7c633b80 f i atl.obj
 0001:00002ba0       ?FileUnregister@CRegObject@ATL@@UAGJPB_W@Z 7c633ba0 f i atl.obj
 0001:00002bc0       ?StringRegister@CRegObject@ATL@@UAGJPB_W@Z 7c633bc0 f i atl.obj
 0001:00002be0       ?StringUnregister@CRegObject@ATL@@UAGJPB_W@Z 7c633be0 f i atl.obj
 0001:00002c00       ??1CComAutoDeleteCriticalSection@ATL@@QAE@XZ 7c633c00 f i atl.obj
 0001:00002c20       ??1CComSafeDeleteCriticalSection@ATL@@QAE@XZ 7c633c20 f i atl.obj
 0001:00002c50       ??1CComCriticalSection@ATL@@QAE@XZ 7c633c50 f i atl.obj
 0001:00002c60       ?AddReplacement@CRegObject@ATL@@UAGJPB_W0@Z 7c633c60 f i atl.obj
 0001:00002dd0       ?AtlW2AHelper@@YGPADPADPB_WHI@Z 7c633dd0 f i atl.obj
 0001:00002ea0       ?Lock@CComSafeDeleteCriticalSection@ATL@@QAEJXZ 7c633ea0 f i atl.obj
 0001:00002ef0       ?Add@CExpansionVector@ATL@@QAEHPBDPB_W@Z 7c633ef0 f i atl.obj
 0001:00003070       ?memcpy_s@Checked@ATL@@YAXPAXIPBXI@Z 7c634070 f i atl.obj
 0001:000030a0       ?AtlCrtErrorCheck@ATL@@YAHH@Z 7c6340a0 f i atl.obj
 0001:00003150       ?ResourceRegister@CRegObject@ATL@@UAGJPB_WI0@Z 7c634150 f i atl.obj
 0001:00003280       ?RegisterFromResource@CRegObject@ATL@@IAEJPB_WPBD1H@Z 7c634280 f i atl.obj
 0001:00003640       ?ResourceRegisterSz@CRegObject@ATL@@UAGJPB_W00@Z 7c634640 f i atl.obj
 0001:00003850       ?ResourceUnregister@CRegObject@ATL@@UAGJPB_WI0@Z 7c634850 f i atl.obj
 0001:00003980       ?ResourceUnregisterSz@CRegObject@ATL@@UAGJPB_W00@Z 7c634980 f i atl.obj
 0001:00003b90       ?RegisterWithString@CRegObject@ATL@@IAEJPB_WH@Z 7c634b90 f i atl.obj
 0001:00003cd0       ?ClearReplacements@CRegObject@ATL@@UAGJXZ 7c634cd0 f i atl.obj
 0001:00003d10       ?CommonFileRegister@CRegObject@ATL@@IAEJPB_WH@Z 7c634d10 f i atl.obj
 0001:00004010       ??0CRegParser@ATL@@QAE@PAVCRegObject@1@@Z 7c635010 f i atl.obj
 0001:00004040       ?RegisterBuffer@CRegParser@ATL@@QAEJPADH@Z 7c635040 f i atl.obj
 0001:000042e0       ?GenerateError@CRegParser@ATL@@IAEJI@Z 7c6352e0 f i atl.obj
 0001:00004300       ?HKeyFromString@CRegParser@ATL@@KAPAUHKEY__@@PAD@Z 7c635300 f i atl.obj
 0001:00004350       ?SkipWhiteSpace@CRegParser@ATL@@IAEXXZ 7c635350 f i atl.obj
 0001:00004390       ?IsSpace@CRegParser@ATL@@IAEHD@Z 7c635390 f i atl.obj
 0001:000043f0       ?NextToken@CRegParser@ATL@@IAEJPAD@Z 7c6353f0 f i atl.obj
 0001:00004640       ?EndOfVar@CRegParser@ATL@@IAEHXZ 7c635640 f i atl.obj
 0001:00004690       ?PreProcessBuffer@CRegParser@ATL@@QAEJPADPAPAD@Z 7c635690 f i atl.obj
 0001:00004920       ?tcsncpy_s@Checked@ATL@@YAHPADIPBDI@Z 7c635920 f i atl.obj
 0001:00004950       __tcsncpy_s                7c635950 f i atl.obj
 0001:00004970       ??0CParseBuffer@CRegParser@ATL@@QAE@H@Z 7c635970 f i atl.obj
 0001:000049d0       ?AtlCoTaskMemCAlloc@ATL@@YAPAXKK@Z 7c6359d0 f i atl.obj
 0001:00004a10       ??$AtlMultiply@K@ATL@@YAJPAKKK@Z 7c635a10 f i atl.obj
 0001:00004a50       ??1CParseBuffer@CRegParser@ATL@@QAE@XZ 7c635a50 f i atl.obj
 0001:00004a70       ?AddChar@CParseBuffer@CRegParser@ATL@@QAEHPBD@Z 7c635a70 f i atl.obj
 0001:00004aa0       ?Append@CParseBuffer@CRegParser@ATL@@QAEHPBDH@Z 7c635aa0 f i atl.obj
 0001:00004be0       ?AtlCoTaskMemRecalloc@ATL@@YAPAXPAXKK@Z 7c635be0 f i atl.obj
 0001:00004c20       ?AddString@CParseBuffer@CRegParser@ATL@@QAEHPB_W@Z 7c635c20 f i atl.obj
 0001:00004d60       ?Detach@CParseBuffer@CRegParser@ATL@@QAEPADXZ 7c635d60 f i atl.obj
 0001:00004da0       ?StrFromMap@CRegObject@ATL@@QAEPB_WPAD@Z 7c635da0 f i atl.obj
 0001:00004e10       ?StrChrA@CRegParser@ATL@@KAPADPADD@Z 7c635e10 f i atl.obj
 0001:00004e60       ?RegisterSubkeys@CRegParser@ATL@@IAEJPADPAUHKEY__@@HH@Z 7c635e60 f i atl.obj
 0001:00005810       ??0CRegKey@ATL@@QAE@XZ     7c636810 f i atl.obj
 0001:00005830       ??1CRegKey@ATL@@QAE@XZ     7c636830 f i atl.obj
 0001:00005850       ??BCRegKey@ATL@@QBEPAUHKEY__@@XZ 7c636850 f i atl.obj
 0001:00005860       ?Detach@CRegKey@ATL@@QAEPAUHKEY__@@XZ 7c636860 f i atl.obj
 0001:00005890       ?Attach@CRegKey@ATL@@QAEXPAUHKEY__@@@Z 7c636890 f i atl.obj
 0001:000058e0       ?DeleteSubKey@CRegKey@ATL@@QAEJPBD@Z 7c6368e0 f i atl.obj
 0001:00005930       ?DeleteValue@CRegKey@ATL@@QAEJPBD@Z 7c636930 f i atl.obj
 0001:00005980       ?Close@CRegKey@ATL@@QAEJXZ 7c636980 f i atl.obj
 0001:000059c0       ?Create@CRegKey@ATL@@QAEJPAUHKEY__@@PBDPADKKPAU_SECURITY_ATTRIBUTES@@PAK@Z 7c6369c0 f i atl.obj
 0001:00005a60       ?Open@CRegKey@ATL@@QAEJPAUHKEY__@@PBDK@Z 7c636a60 f i atl.obj
 0001:00005b00       ?RecurseDeleteKey@CRegKey@ATL@@QAEJPBD@Z 7c636b00 f i atl.obj
 0001:00005c50       ?AddValue@CRegParser@ATL@@IAEJAAVCRegKey@2@PBDPAD@Z 7c636c50 f i atl.obj
 0001:000063f0       ?SetDWORDValue@CRegKey@ATL@@QAEJPBDK@Z 7c6373f0 f i atl.obj
 0001:00006450       ?SetStringValue@CRegKey@ATL@@QAEJPBD0K@Z 7c637450 f i atl.obj
 0001:00006530       ?SetMultiStringValue@CRegKey@ATL@@QAEJPBD0@Z 7c637530 f i atl.obj
 0001:00006610       ?VTFromRegType@CRegParser@ATL@@KAHPBDAAG@Z 7c637610 f i atl.obj
 0001:000066d0       ?ChToByte@CRegParser@ATL@@KAED@Z 7c6376d0 f i atl.obj
 0001:000067c0       ?CanForceRemoveKey@CRegParser@ATL@@IAEHPBD@Z 7c6377c0 f i atl.obj
 0001:00006810       ?HasSubKeys@CRegParser@ATL@@IAEHPAUHKEY__@@@Z 7c637810 f i atl.obj
 0001:000068b0       ?SkipAssignment@CRegParser@ATL@@IAEJPAD@Z 7c6378b0 f i atl.obj
 0001:00006950       ?AtlAxWinTerm@ATL@@YAHXZ   7c637950 f i atl.obj
 0001:00006990       ??0?$CComObjectRootEx@VCComMultiThreadModel@ATL@@@ATL@@QAE@XZ 7c637990 f i atl.obj
 0001:000069c0       ??0CComObjectRootBase@ATL@@QAE@XZ 7c6379c0 f i atl.obj
 0001:000069e0       ??0CComAutoDeleteCriticalSection@ATL@@QAE@XZ 7c6379e0 f i atl.obj
 0001:00006a00       ??0CComSafeDeleteCriticalSection@ATL@@QAE@XZ 7c637a00 f i atl.obj
 0001:00006a20       ??0CComCriticalSection@ATL@@QAE@XZ 7c637a20 f i atl.obj
 0001:00006a40       ??0IUnknown@@QAE@XZ        7c637a40 f i atl.obj
 0001:00006a50       ?UpdateRegistry@CAxHostWindow@ATL@@SGJH@Z 7c637a50 f i atl.obj
 0001:00006a60       ??0?$CAtlSafeAllocBufferManager@VCCRTAllocator@ATL@@@_ATL_SAFE_ALLOCA_IMPL@ATL@@QAE@XZ 7c637a60 f i atl.obj
 0001:00006a80       ?Allocate@?$CAtlSafeAllocBufferManager@VCCRTAllocator@ATL@@@_ATL_SAFE_ALLOCA_IMPL@ATL@@QAEPAXK@Z 7c637a80 f i atl.obj
 0001:00006ad0       ?Allocate@CCRTAllocator@ATL@@SAPAXI@Z 7c637ad0 f i atl.obj
 0001:00006af0       ??1?$CAtlSafeAllocBufferManager@VCCRTAllocator@ATL@@@_ATL_SAFE_ALLOCA_IMPL@ATL@@QAE@XZ 7c637af0 f i atl.obj
 0001:00006b30       ?Free@CCRTAllocator@ATL@@SAXPAX@Z 7c637b30 f i atl.obj
 0001:00006b50       ?GetSize@?$CSimpleArray@GV?$CSimpleArrayEqualHelper@G@ATL@@@ATL@@QBEHXZ 7c637b50 f i atl.obj
 0001:00006b70       ?RemoveAll@?$CSimpleArray@GV?$CSimpleArrayEqualHelper@G@ATL@@@ATL@@QAEXXZ 7c637b70 f i atl.obj
 0001:00006bd0       ??A?$CSimpleArray@GV?$CSimpleArrayEqualHelper@G@ATL@@@ATL@@QAEAAGH@Z 7c637bd0 f i atl.obj
 0001:00006c40       ??0?$CComPtr@UIRegistrar@@@ATL@@QAE@XZ 7c637c40 f i atl.obj
 0001:00006c60       ??1?$CComPtrBase@UIRegistrar@@@ATL@@QAE@XZ 7c637c60 f i atl.obj
 0001:00006c90       ??B?$CComPtrBase@UIRegistrar@@@ATL@@QBEPAUIRegistrar@@XZ 7c637c90 f i atl.obj
 0001:00006ca0       ??I?$CComPtrBase@UIRegistrar@@@ATL@@QAEPAPAUIRegistrar@@XZ 7c637ca0 f i atl.obj
 0001:00006ce0       ??C?$CComPtrBase@UIRegistrar@@@ATL@@QBEPAV?$_NoAddRefReleaseOnCComPtr@UIRegistrar@@@1@XZ 7c637ce0 f i atl.obj
 0001:00006d20       ??1?$CComObjectRootEx@VCComMultiThreadModel@ATL@@@ATL@@QAE@XZ 7c637d20 f i atl.obj
 0001:00006d40       ??1CComObjectRootBase@ATL@@QAE@XZ 7c637d40 f i atl.obj
 0001:00006d50       ??1?$CSimpleMap@PADPA_WVCExpansionVectorEqualHelper@ATL@@@ATL@@QAE@XZ 7c637d50 f i atl.obj
 0001:00006d70       ?GetSize@?$CSimpleMap@PADPA_WVCExpansionVectorEqualHelper@ATL@@@ATL@@QBEHXZ 7c637d70 f i atl.obj
 0001:00006d90       ?Add@?$CSimpleMap@PADPA_WVCExpansionVectorEqualHelper@ATL@@@ATL@@QAEHABQADABQA_W@Z 7c637d90 f i atl.obj
 0001:00006e30       ?RemoveAll@?$CSimpleMap@PADPA_WVCExpansionVectorEqualHelper@ATL@@@ATL@@QAEXXZ 7c637e30 f i atl.obj
 0001:00006eb0       ?Lookup@?$CSimpleMap@PADPA_WVCExpansionVectorEqualHelper@ATL@@@ATL@@QBEPA_WABQAD@Z 7c637eb0 f i atl.obj
 0001:00006ef0       ?GetKeyAt@?$CSimpleMap@PADPA_WVCExpansionVectorEqualHelper@ATL@@@ATL@@QBEAAPADH@Z 7c637ef0 f i atl.obj
 0001:00006f60       ?GetValueAt@?$CSimpleMap@PADPA_WVCExpansionVectorEqualHelper@ATL@@@ATL@@QBEAAPA_WH@Z 7c637f60 f i atl.obj
 0001:00006fd0       ??0?$CAutoVectorPtr@D@ATL@@QAE@XZ 7c637fd0 f i atl.obj
 0001:00006ff0       ??1?$CAutoVectorPtr@D@ATL@@QAE@XZ 7c637ff0 f i atl.obj
 0001:00007010       ?Attach@?$CAutoVectorPtr@D@ATL@@QAEXPAD@Z 7c638010 f i atl.obj
 0001:00007060       ?Detach@?$CAutoVectorPtr@D@ATL@@QAEPADXZ 7c638060 f i atl.obj
 0001:00007090       ??0?$CAutoVectorPtr@_W@ATL@@QAE@XZ 7c638090 f i atl.obj
 0001:000070b0       ??1?$CAutoVectorPtr@_W@ATL@@QAE@XZ 7c6380b0 f i atl.obj
 0001:000070d0       ?Attach@?$CAutoVectorPtr@_W@ATL@@QAEXPA_W@Z 7c6380d0 f i atl.obj
 0001:00007120       ?Detach@?$CAutoVectorPtr@_W@ATL@@QAEPA_WXZ 7c638120 f i atl.obj
 0001:00007150       ??0?$CTempBuffer@D$0EAA@VCCRTAllocator@ATL@@@ATL@@QAE@XZ 7c638150 f i atl.obj
 0001:00007170       ??1?$CTempBuffer@D$0EAA@VCCRTAllocator@ATL@@@ATL@@QAE@XZ 7c638170 f i atl.obj
 0001:00007190       ??B?$CTempBuffer@D$0EAA@VCCRTAllocator@ATL@@@ATL@@QBEPADXZ 7c638190 f i atl.obj
 0001:000071a0       ?Allocate@?$CTempBuffer@D$0EAA@VCCRTAllocator@ATL@@@ATL@@QAEPADI@Z 7c6381a0 f i atl.obj
 0001:000071d0       ??0?$CTempBuffer@D$0BAA@VCCRTAllocator@ATL@@@ATL@@QAE@XZ 7c6381d0 f i atl.obj
 0001:000071f0       ??1?$CTempBuffer@D$0BAA@VCCRTAllocator@ATL@@@ATL@@QAE@XZ 7c6381f0 f i atl.obj
 0001:00007210       ??B?$CTempBuffer@D$0BAA@VCCRTAllocator@ATL@@@ATL@@QBEPADXZ 7c638210 f i atl.obj
 0001:00007220       ?Allocate@?$CTempBuffer@D$0BAA@VCCRTAllocator@ATL@@@ATL@@QAEPADI@Z 7c638220 f i atl.obj
 0001:00007250       ??0?$CTempBuffer@E$0BAA@VCCRTAllocator@ATL@@@ATL@@QAE@XZ 7c638250 f i atl.obj
 0001:00007270       ??1?$CTempBuffer@E$0BAA@VCCRTAllocator@ATL@@@ATL@@QAE@XZ 7c638270 f i atl.obj
 0001:00007290       ??B?$CTempBuffer@E$0BAA@VCCRTAllocator@ATL@@@ATL@@QBEPAEXZ 7c638290 f i atl.obj
 0001:000072a0       ?Allocate@?$CTempBuffer@E$0BAA@VCCRTAllocator@ATL@@@ATL@@QAEPAEI@Z 7c6382a0 f i atl.obj
 0001:000072d0       ?GetWndClassName@?$CAxWindowT@VCWindow@ATL@@@ATL@@SAPBDXZ 7c6382d0 f i atl.obj
 0001:000072e0       ?GetWndClassName@?$CAxWindow2T@VCWindow@ATL@@@ATL@@SAPBDXZ 7c6382e0 f i atl.obj
 0001:000072f0       ??0?$CComPtrBase@UIRegistrar@@@ATL@@IAE@XZ 7c6382f0 f i atl.obj
 0001:00007310       ?InternalAddRef@?$CComObjectRootEx@VCComMultiThreadModel@ATL@@@ATL@@QAEKXZ 7c638310 f i atl.obj
 0001:00007360       ?Increment@CComMultiThreadModel@ATL@@SGKPAJ@Z 7c638360 f i atl.obj
 0001:00007380       ?InternalRelease@?$CComObjectRootEx@VCComMultiThreadModel@ATL@@@ATL@@QAEKXZ 7c638380 f i atl.obj
 0001:000073d0       ?Decrement@CComMultiThreadModel@ATL@@SGKPAJ@Z 7c6383d0 f i atl.obj
 0001:000073f0       ?FindKey@?$CSimpleMap@PADPA_WVCExpansionVectorEqualHelper@ATL@@@ATL@@QBEHABQAD@Z 7c6383f0 f i atl.obj
 0001:00007450       ?IsEqualKey@CExpansionVectorEqualHelper@ATL@@SA_NQAD0@Z 7c638450 f i atl.obj
 0001:00007470       ?InternalSetAtIndex@?$CSimpleMap@PADPA_WVCExpansionVectorEqualHelper@ATL@@@ATL@@QAEXHABQADABQA_W@Z 7c638470 f i atl.obj
 0001:000074f0       ?Free@?$CAutoVectorPtr@D@ATL@@QAEXXZ 7c6384f0 f i atl.obj
 0001:00007520       ?Free@?$CAutoVectorPtr@_W@ATL@@QAEXXZ 7c638520 f i atl.obj
 0001:00007550       ?AllocateBytes@?$CTempBuffer@D$0EAA@VCCRTAllocator@ATL@@@ATL@@QAEPADI@Z 7c638550 f i atl.obj
 0001:000075b0       ?FreeHeap@?$CTempBuffer@D$0EAA@VCCRTAllocator@ATL@@@ATL@@AAEXXZ 7c6385b0 f i atl.obj
 0001:000075d0       ?AllocateBytes@?$CTempBuffer@D$0BAA@VCCRTAllocator@ATL@@@ATL@@QAEPADI@Z 7c6385d0 f i atl.obj
 0001:00007630       ?FreeHeap@?$CTempBuffer@D$0BAA@VCCRTAllocator@ATL@@@ATL@@AAEXXZ 7c638630 f i atl.obj
 0001:00007650       ?AllocateBytes@?$CTempBuffer@E$0BAA@VCCRTAllocator@ATL@@@ATL@@QAEPAEI@Z 7c638650 f i atl.obj
 0001:000076b0       ?FreeHeap@?$CTempBuffer@E$0BAA@VCCRTAllocator@ATL@@@ATL@@AAEXXZ 7c6386b0 f i atl.obj
 0001:000076d0       ?GetData@CAtlSafeAllocBufferNode@?$CAtlSafeAllocBufferManager@VCCRTAllocator@ATL@@@_ATL_SAFE_ALLOCA_IMPL@ATL@@QAEPAXXZ 7c6386d0 f i atl.obj
 0001:000076f0       ?AllocateHeap@?$CTempBuffer@D$0EAA@VCCRTAllocator@ATL@@@ATL@@AAEXI@Z 7c6386f0 f i atl.obj
 0001:00007730       ?AllocateHeap@?$CTempBuffer@D$0BAA@VCCRTAllocator@ATL@@@ATL@@AAEXI@Z 7c638730 f i atl.obj
 0001:00007770       ?AllocateHeap@?$CTempBuffer@E$0BAA@VCCRTAllocator@ATL@@@ATL@@AAEXI@Z 7c638770 f i atl.obj
 0001:000077b0       ??0?$Wrapper@PAD@?$CSimpleMap@PADPA_WVCExpansionVectorEqualHelper@ATL@@@ATL@@QAE@ABQAD@Z 7c6387b0 f i atl.obj
 0001:000077d0       ??0?$Wrapper@PA_W@?$CSimpleMap@PADPA_WVCExpansionVectorEqualHelper@ATL@@@ATL@@QAE@ABQA_W@Z 7c6387d0 f i atl.obj
 0001:000077f0       ??$AtlAdd@K@ATL@@YAJPAKKK@Z 7c6387f0 f i atl.obj
 0001:00007820       ??$AtlAddThrow@K@ATL@@YAKKK@Z 7c638820 f i atl.obj
 0001:00007860       ??$AtlMultiplyThrow@I@ATL@@YAIII@Z 7c638860 f i atl.obj
 0001:000078a0       ??$AtlMultiply@I@ATL@@YAJPAIII@Z 7c6388a0 f i atl.obj
 0001:000078e0       ??$?2PAD@?$Wrapper@PAD@?$CSimpleMap@PADPA_WVCExpansionVectorEqualHelper@ATL@@@ATL@@SAPAXIPAPAD@Z 7c6388e0 f i atl.obj
 0001:000078f0       ??$?2PA_W@?$Wrapper@PA_W@?$CSimpleMap@PADPA_WVCExpansionVectorEqualHelper@ATL@@@ATL@@SAPAXIPAPA_W@Z 7c6388f0 f i atl.obj
 0001:00007900       ??0CComModule@ATL@@QAE@XZ  7c638900 f i atl.obj
 0001:00007960       ?Lock@CAtlModule@ATL@@UAEJXZ 7c638960 f i atl.obj
 0001:00007980       ?Unlock@CAtlModule@ATL@@UAEJXZ 7c638980 f i atl.obj
 0001:000079a0       ?GetLockCount@CAtlModule@ATL@@UAEJXZ 7c6389a0 f i atl.obj
 0001:000079c0       ?GetGITPtr@CAtlModule@ATL@@UAEJPAPAUIGlobalInterfaceTable@@@Z 7c6389c0 f i atl.obj
 0001:00007a90       ?UpdateRegistryFromResourceD@CComModule@ATL@@UAGJPBDHPAU_ATL_REGMAP_ENTRY@2@@Z 7c638a90 f i atl.obj
 0001:00007ab0       ?UpdateRegistryFromResourceD@CAtlModule@ATL@@QAGJPBDHPAU_ATL_REGMAP_ENTRY@2@@Z 7c638ab0 f i atl.obj
 0001:00007be0       ?UpdateRegistryFromResourceDHelper@CAtlModule@ATL@@QAGJPB_WHPAU_ATL_REGMAP_ENTRY@2@@Z 7c638be0 f i atl.obj
 0001:00007cf0       ?UpdateRegistryFromResourceD@CComModule@ATL@@UAGJIHPAU_ATL_REGMAP_ENTRY@2@@Z 7c638cf0 f i atl.obj
 0001:00007d10       ?UpdateRegistryFromResourceD@CAtlModule@ATL@@QAGJIHPAU_ATL_REGMAP_ENTRY@2@@Z 7c638d10 f i atl.obj
 0001:00007d30       ?UpdateRegistryFromResourceS@CComModule@ATL@@UAGJPBDHPAU_ATL_REGMAP_ENTRY@2@@Z 7c638d30 f i atl.obj
 0001:00007d40       ?UpdateRegistryFromResourceS@CComModule@ATL@@UAGJIHPAU_ATL_REGMAP_ENTRY@2@@Z 7c638d40 f i atl.obj
 0001:00007d50       ??_GCComModule@ATL@@UAEPAXI@Z 7c638d50 f i atl.obj
 0001:00007d50       ??_ECComModule@ATL@@UAEPAXI@Z 7c638d50 f i atl.obj
 0001:00007d80       ??1CComModule@ATL@@UAE@XZ  7c638d80 f i atl.obj
 0001:00007da0       ??1?$CAtlModuleT@VCComModule@ATL@@@ATL@@UAE@XZ 7c638da0 f i atl.obj
 0001:00007dc0       ??1CAtlModule@ATL@@UAE@XZ  7c638dc0 f i atl.obj
 0001:00007e00       ??1_ATL_MODULE70@ATL@@QAE@XZ 7c638e00 f i atl.obj
 0001:00007e20       ??0?$CAtlModuleT@VCComModule@ATL@@@ATL@@QAE@XZ 7c638e20 f i atl.obj
 0001:00007e40       ??0CAtlModule@ATL@@QAE@XZ  7c638e40 f i atl.obj
 0001:00007f30       ??0_ATL_MODULE70@ATL@@QAE@XZ 7c638f30 f i atl.obj
 0001:00007f50       ?AddCommonRGSReplacements@?$CAtlModuleT@VCComModule@ATL@@@ATL@@UAEJPAUIRegistrarBase@@@Z 7c638f50 f i atl.obj
 0001:00007f80       ?InitLibId@?$CAtlModuleT@VCComModule@ATL@@@ATL@@SAXXZ 7c638f80 f i atl.obj
 0001:00007f90       ?GetAppId@?$CAtlModuleT@VCComModule@ATL@@@ATL@@SAPB_WXZ 7c638f90 f i atl.obj
 0001:00007fa0       ??0CAtlComModule@ATL@@QAE@XZ 7c638fa0 f i atl.obj
 0001:00008060       ??0_ATL_COM_MODULE70@ATL@@QAE@XZ 7c639060 f i atl.obj
 0001:00008080       ??1CAtlComModule@ATL@@QAE@XZ 7c639080 f i atl.obj
 0001:000080a0       ?Term@CAtlComModule@ATL@@QAEXXZ 7c6390a0 f i atl.obj
 0001:00008130       ??1_ATL_COM_MODULE70@ATL@@QAE@XZ 7c639130 f i atl.obj
 0001:00008150       _AtlDevModeW2A@8           7c639150 f i stdafx.obj
 0001:000082d0       _AtlComQIPtrAssign@12      7c6392d0 f i stdafx.obj
 0001:00008330       ??_I@YGXPAXIHP6EX0@Z@Z     7c639330 f i stdafx.obj
 0001:00008360       _AtlLoadTypeLib@16         7c639360 f i stdafx.obj
 0001:000089a0       ?strcpy_s@Checked@ATL@@YAXPADIPBD@Z 7c6399a0 f i stdafx.obj
 0001:00009730       _AtlUnRegisterTypeLib@8    7c63a730 f i stdafx.obj
 0001:00009800       ??0CComBSTR@ATL@@QAE@XZ    7c63a800 f i stdafx.obj
 0001:00009820       ??ICComBSTR@ATL@@QAEPAPA_WXZ 7c63a820 f i stdafx.obj
 0001:00009830       ??1CComBSTR@ATL@@QAE@XZ    7c63a830 f i stdafx.obj
 0001:00009850       ??1?$CComPtr@UITypeLib@@@ATL@@QAE@XZ 7c63a850 f i stdafx.obj
 0001:00009870       _AtlRegisterTypeLib@8      7c63a870 f i stdafx.obj
 0001:000099c0       ?wcsncpy_s@Checked@ATL@@YAHPA_WIPB_WI@Z 7c63a9c0 f i stdafx.obj
 0001:000099f0       ?Length@CComBSTR@ATL@@QBEIXZ 7c63a9f0 f i stdafx.obj
 0001:00009a10       ??BCComBSTR@ATL@@QBEPA_WXZ 7c63aa10 f i stdafx.obj
 0001:00009a20       ?CharNextO@@YAPA_WPB_W@Z   7c63aa20 f i stdafx.obj
 0001:00009a50       _AtlComModuleRegisterServer@12 7c63aa50 f i stdafx.obj
 0001:00009b70       _IsEqualGUID               7c63ab70 f i stdafx.obj
 0001:00009b90       _AtlComModuleUnregisterServer@12 7c63ab90 f i stdafx.obj
 0001:00009c80       _AtlRegisterClassCategoriesHelper@12 7c63ac80 f i stdafx.obj
 0001:0000a230       ?strcat_s@Checked@ATL@@YAXPADIPBD@Z 7c63b230 f i stdafx.obj
 0001:0000a260       ??0CRegKey@ATL@@QAE@PAUHKEY__@@@Z 7c63b260 f i stdafx.obj
 0001:0000a280       ??1?$CComPtr@UICatRegister@@@ATL@@QAE@XZ 7c63b280 f i stdafx.obj
 0001:0000a2a0       _AtlAdvise@16              7c63b2a0 f i stdafx.obj
 0001:0000a360       ??1?$CComPtr@UIConnectionPointContainer@@@ATL@@QAE@XZ 7c63b360 f i stdafx.obj
 0001:0000a380       ??1?$CComPtr@UIConnectionPoint@@@ATL@@QAE@XZ 7c63b380 f i stdafx.obj
 0001:0000a3a0       _AtlUnadvise@12            7c63b3a0 f i stdafx.obj
 0001:0000a460       _AtlFreeMarshalStream@4    7c63b460 f i stdafx.obj
 0001:0000a4c0       _AtlMarshalPtrInProc@12    7c63b4c0 f i stdafx.obj
 0001:0000a560       _AtlUnmarshalPtr@12        7c63b560 f i stdafx.obj
 0001:0000a600       _AtlComModuleGetClassObject@16 7c63b600 f i stdafx.obj
 0001:0000a7d0       _AtlComModuleRegisterClassObjects@12 7c63b7d0 f i stdafx.obj
 0001:0000a860       ?RegisterClassObject@_ATL_OBJMAP_ENTRY30@ATL@@QAGJKK@Z 7c63b860 f i stdafx.obj
 0001:0000a8e0       _AtlComModuleRevokeClassObjects@4 7c63b8e0 f i stdafx.obj
 0001:0000a970       ?RevokeClassObject@_ATL_OBJMAP_ENTRY30@ATL@@QAGJXZ 7c63b970 f i stdafx.obj
 0001:0000a9a0       _AtlWaitWithMessageLoop@4  7c63b9a0 f i stdafx.obj
 0001:0000aa90       _AtlGetVersion@4           7c63ba90 f i stdafx.obj
 0001:0000aaa0       _AtlWinModuleInit@4        7c63baa0 f i stdafx.obj
 0001:0000ab40       _AtlModuleAddTermFunc@12   7c63bb40 f i stdafx.obj
 0001:0000ac50       ??_Estringdispid@CComTypeInfoHolder@ATL@@QAEPAXI@Z 7c63bc50 f i stdafx.obj
 0001:0000acc0       ??1stringdispid@CComTypeInfoHolder@ATL@@QAE@XZ 7c63bcc0 f i stdafx.obj
 0001:0000ace0       _AtlSetErrorInfo@28        7c63bce0 f i stdafx.obj
 0001:0000b110       ?tcscpy_s@Checked@ATL@@YAXPADIPBD@Z 7c63c110 f i stdafx.obj
 0001:0000b140       ??1?$CComPtr@UICreateErrorInfo@@@ATL@@QAE@XZ 7c63c140 f i stdafx.obj
 0001:0000b160       ??1?$CComPtr@UIErrorInfo@@@ATL@@QAE@XZ 7c63c160 f i stdafx.obj
 0001:0000b180       _AtlIPersistStreamInit_Load@16 7c63c180 f i stdafx.obj
 0001:0000b4d0       ??0?$CComPtr@UIDispatch@@@ATL@@QAE@XZ 7c63c4d0 f i stdafx.obj
 0001:0000b4f0       ?PutProperty@?$CComPtr@UIDispatch@@@ATL@@QAEJJPAUtagVARIANT@@@Z 7c63c4f0 f i stdafx.obj
 0001:0000b520       ?PutProperty@?$CComPtr@UIDispatch@@@ATL@@SAJPAUIDispatch@@JPAUtagVARIANT@@@Z 7c63c520 f i stdafx.obj
 0001:0000b690       ?Detach@CComBSTR@ATL@@QAEPA_WXZ 7c63c690 f i stdafx.obj
 0001:0000b6c0       ?ReadFromStream@CComBSTR@ATL@@QAEJPAUIStream@@@Z 7c63c6c0 f i stdafx.obj
 0001:0000b9e0       ?Empty@CComBSTR@ATL@@QAEXXZ 7c63c9e0 f i stdafx.obj
 0001:0000ba00       ??7CComBSTR@ATL@@QBE_NXZ   7c63ca00 f i stdafx.obj
 0001:0000ba20       ??0CComVariant@ATL@@QAE@XZ 7c63ca20 f i stdafx.obj
 0001:0000ba40       ??1CComVariant@ATL@@QAE@XZ 7c63ca40 f i stdafx.obj
 0001:0000ba60       ?Clear@CComVariant@ATL@@QAEJXZ 7c63ca60 f i stdafx.obj
 0001:0000ba80       ?ReadFromStream@CComVariant@ATL@@QAEJPAUIStream@@G@Z 7c63ca80 f i stdafx.obj
 0001:0000bab0       ?ReadFromStream@CComVariant@ATL@@QAEJPAUIStream@@GTClassesAllowedInStream@2@K@Z 7c63cab0 f i stdafx.obj
 0001:0000bd50       ?ChangeType@CComVariant@ATL@@QAEJGPBUtagVARIANT@@@Z 7c63cd50 f i stdafx.obj
 0001:0000bd90       ??1?$CComPtr@UIDispatch@@@ATL@@QAE@XZ 7c63cd90 f i stdafx.obj
 0001:0000bdb0       _AtlIPersistStreamInit_Save@20 7c63cdb0 f i stdafx.obj
 0001:0000c0f0       ?GetProperty@?$CComPtr@UIDispatch@@@ATL@@QAEJJPAUtagVARIANT@@@Z 7c63d0f0 f i stdafx.obj
 0001:0000c120       ?GetProperty@?$CComPtr@UIDispatch@@@ATL@@SAJPAUIDispatch@@JPAUtagVARIANT@@@Z 7c63d120 f i stdafx.obj
 0001:0000c210       ?Attach@CComBSTR@ATL@@QAEXPA_W@Z 7c63d210 f i stdafx.obj
 0001:0000c240       ?WriteToStream@CComBSTR@ATL@@QAEJPAUIStream@@@Z 7c63d240 f i stdafx.obj
 0001:0000c2f0       ?GetStreamSize@CComBSTR@ATL@@SAKPA_W@Z 7c63d2f0 f i stdafx.obj
 0001:0000c320       ?WriteToStream@CComVariant@ATL@@QAEJPAUIStream@@G@Z 7c63d320 f i stdafx.obj
 0001:0000c3b0       ?WriteToStream@CComVariant@ATL@@QAEJPAUIStream@@@Z 7c63d3b0 f i stdafx.obj
 0001:0000c630       ??1?$CComPtr@UIPersistStream@@@ATL@@QAE@XZ 7c63d630 f i stdafx.obj
 0001:0000c650       _AtlIPersistPropertyBag_Load@20 7c63d650 f i stdafx.obj
 0001:0000cc20       ?ClearToZero@CComVariant@ATL@@QAEJXZ 7c63dc20 f i stdafx.obj
 0001:0000cc60       _AtlIPersistPropertyBag_Save@24 7c63dc60 f i stdafx.obj
 0001:0000d130       _AtlGetObjectSourceInterface@20 7c63e130 f i stdafx.obj
 0001:0000d5a0       ??1?$CComPtr@UITypeInfo@@@ATL@@QAE@XZ 7c63e5a0 f i stdafx.obj
 0001:0000d5c0       ??1?$CComPtr@UIProvideClassInfo2@@@ATL@@QAE@XZ 7c63e5c0 f i stdafx.obj
 0001:0000d5e0       ??1?$CComPtr@UIPersist@@@ATL@@QAE@XZ 7c63e5e0 f i stdafx.obj
 0001:0000d600       ??_H@YGXPAXIHP6EPAX0@Z@Z   7c63e600 f i stdafx.obj
 0001:0000d630       _AtlAxDialogBoxW@20        7c63e630 f i stdafx.obj
 0001:0000d660       _AtlAxDialogBoxA@20        7c63e660 f i stdafx.obj
 0001:0000d690       _AtlAxCreateDialogW@20     7c63e690 f i stdafx.obj
 0001:0000d6c0       _AtlAxCreateDialogA@20     7c63e6c0 f i stdafx.obj
 0001:0000d6f0       _AtlAxCreateControl@16     7c63e6f0 f i stdafx.obj
 0001:0000d720       _AtlAxCreateControlEx@28   7c63e720 f i stdafx.obj
 0001:0000d750       _AtlAxCreateControlLic@20  7c63e750 f i stdafx.obj
 0001:0000d780       _AtlAxCreateControlLicEx@32 7c63e780 f i stdafx.obj
 0001:0000d8c0       ??1?$CComPtr@UIUnknown@@@ATL@@QAE@XZ 7c63e8c0 f i stdafx.obj
 0001:0000d8e0       ??0CComBSTR@ATL@@QAE@PB_W@Z 7c63e8e0 f i stdafx.obj
 0001:0000d930       ??1?$CComPtr@UIAxWinHostWindowLic@@@ATL@@QAE@XZ 7c63e930 f i stdafx.obj
 0001:0000d950       _AtlAxAttachControl@12     7c63e950 f i stdafx.obj
 0001:0000da30       ??1?$CComPtr@UIAxWinHostWindow@@@ATL@@QAE@XZ 7c63ea30 f i stdafx.obj
 0001:0000da50       _AtlAxWinInit@0            7c63ea50 f i stdafx.obj
 0001:0000dcc0       __MarkAllocaS              7c63ecc0 f i stdafx.obj
 0001:0000dce0       ?SetWindowLongPtrA@@YAJPAUHWND__@@HJ@Z 7c63ece0 f i stdafx.obj
 0001:0000dd00       ?GetWindowLongPtrA@@YAJPAUHWND__@@H@Z 7c63ed00 f i stdafx.obj
 0001:0000dd20       ??1?$CComPtr@UIStream@@@ATL@@QAE@XZ 7c63ed20 f i stdafx.obj
 0001:0000dd40       ?ParseInitData@_DialogSplitHelper@ATL@@SAJPAUIStream@@PAPA_W@Z 7c63ed40 f i stdafx.obj
 0001:0000df70       ??0CComBSTR@ATL@@QAE@H@Z   7c63ef70 f i stdafx.obj
 0001:0000dfc0       _AtlAxGetControl@8         7c63efc0 f i stdafx.obj
 0001:0000e030       _AtlAxGetHost@8            7c63f030 f i stdafx.obj
 0001:0000e0a0       _AtlWinModuleRegisterClassExW@8 7c63f0a0 f i stdafx.obj
 0001:0000e110       _AtlWinModuleRegisterWndClassInfoW@16 7c63f110 f i stdafx.obj
 0001:0000e140       _AtlCreateTargetDC@8       7c63f140 f i stdafx.obj
 0001:0000e4d0       _AtlHiMetricToPixel@8      7c63f4d0 f i stdafx.obj
 0001:0000e600       _AtlPixelToHiMetric@8      7c63f600 f i stdafx.obj
 0001:0000e730       ??0?$CComPtrBase@UIDispatch@@@ATL@@IAE@XZ 7c63f730 f i stdafx.obj
 0001:0000e750       ??1?$CComPtrBase@UIDispatch@@@ATL@@QAE@XZ 7c63f750 f i stdafx.obj
 0001:0000e780       ??I?$CComPtrBase@UIDispatch@@@ATL@@QAEPAPAUIDispatch@@XZ 7c63f780 f i stdafx.obj
 0001:0000e7c0       ??C?$CComPtrBase@UIDispatch@@@ATL@@QBEPAV?$_NoAddRefReleaseOnCComPtr@UIDispatch@@@1@XZ 7c63f7c0 f i stdafx.obj
 0001:0000e800       ?Release@?$CComPtrBase@UIDispatch@@@ATL@@QAEXXZ 7c63f800 f i stdafx.obj
 0001:0000e840       ??0?$CComPtr@UIUnknown@@@ATL@@QAE@XZ 7c63f840 f i stdafx.obj
 0001:0000e860       ??1?$CComPtrBase@UIUnknown@@@ATL@@QAE@XZ 7c63f860 f i stdafx.obj
 0001:0000e890       ??I?$CComPtrBase@UIUnknown@@@ATL@@QAEPAPAUIUnknown@@XZ 7c63f890 f i stdafx.obj
 0001:0000e8d0       ??C?$CComPtrBase@UIUnknown@@@ATL@@QBEPAV?$_NoAddRefReleaseOnCComPtr@UIUnknown@@@1@XZ 7c63f8d0 f i stdafx.obj
 0001:0000e910       ?Detach@?$CComPtrBase@UIUnknown@@@ATL@@QAEPAUIUnknown@@XZ 7c63f910 f i stdafx.obj
 0001:0000e940       ??0?$CComPtr@UIPersistStream@@@ATL@@QAE@XZ 7c63f940 f i stdafx.obj
 0001:0000e960       ??1?$CComPtrBase@UIPersistStream@@@ATL@@QAE@XZ 7c63f960 f i stdafx.obj
 0001:0000e990       ??B?$CComPtrBase@UIPersistStream@@@ATL@@QBEPAUIPersistStream@@XZ 7c63f990 f i stdafx.obj
 0001:0000e9a0       ??I?$CComPtrBase@UIPersistStream@@@ATL@@QAEPAPAUIPersistStream@@XZ 7c63f9a0 f i stdafx.obj
 0001:0000e9e0       ??9?$CComPtrBase@UIPersistStream@@@ATL@@QBE_NPAUIPersistStream@@@Z 7c63f9e0 f i stdafx.obj
 0001:0000ea10       ??0?$CComPtr@UITypeLib@@@ATL@@QAE@XZ 7c63fa10 f i stdafx.obj
 0001:0000ea30       ??1?$CComPtrBase@UITypeLib@@@ATL@@QAE@XZ 7c63fa30 f i stdafx.obj
 0001:0000ea60       ??B?$CComPtrBase@UITypeLib@@@ATL@@QBEPAUITypeLib@@XZ 7c63fa60 f i stdafx.obj
 0001:0000ea70       ??I?$CComPtrBase@UITypeLib@@@ATL@@QAEPAPAUITypeLib@@XZ 7c63fa70 f i stdafx.obj
 0001:0000eab0       ??C?$CComPtrBase@UITypeLib@@@ATL@@QBEPAV?$_NoAddRefReleaseOnCComPtr@UITypeLib@@@1@XZ 7c63fab0 f i stdafx.obj
 0001:0000eaf0       ??0?$CComPtr@UICatRegister@@@ATL@@QAE@XZ 7c63faf0 f i stdafx.obj
 0001:0000eb10       ??1?$CComPtrBase@UICatRegister@@@ATL@@QAE@XZ 7c63fb10 f i stdafx.obj
 0001:0000eb40       ??I?$CComPtrBase@UICatRegister@@@ATL@@QAEPAPAUICatRegister@@XZ 7c63fb40 f i stdafx.obj
 0001:0000eb80       ??C?$CComPtrBase@UICatRegister@@@ATL@@QBEPAV?$_NoAddRefReleaseOnCComPtr@UICatRegister@@@1@XZ 7c63fb80 f i stdafx.obj
 0001:0000ebc0       ??0?$CComPtr@UIConnectionPointContainer@@@ATL@@QAE@XZ 7c63fbc0 f i stdafx.obj
 0001:0000ebe0       ??1?$CComPtrBase@UIConnectionPointContainer@@@ATL@@QAE@XZ 7c63fbe0 f i stdafx.obj
 0001:0000ec10       ??I?$CComPtrBase@UIConnectionPointContainer@@@ATL@@QAEPAPAUIConnectionPointContainer@@XZ 7c63fc10 f i stdafx.obj
 0001:0000ec50       ??C?$CComPtrBase@UIConnectionPointContainer@@@ATL@@QBEPAV?$_NoAddRefReleaseOnCComPtr@UIConnectionPointContainer@@@1@XZ 7c63fc50 f i stdafx.obj
 0001:0000ec90       ??0?$CComPtr@UIConnectionPoint@@@ATL@@QAE@XZ 7c63fc90 f i stdafx.obj
 0001:0000ecb0       ??1?$CComPtrBase@UIConnectionPoint@@@ATL@@QAE@XZ 7c63fcb0 f i stdafx.obj
 0001:0000ece0       ??I?$CComPtrBase@UIConnectionPoint@@@ATL@@QAEPAPAUIConnectionPoint@@XZ 7c63fce0 f i stdafx.obj
 0001:0000ed20       ??C?$CComPtrBase@UIConnectionPoint@@@ATL@@QBEPAV?$_NoAddRefReleaseOnCComPtr@UIConnectionPoint@@@1@XZ 7c63fd20 f i stdafx.obj
 0001:0000ed60       ??0?$CComPtr@UITypeInfo@@@ATL@@QAE@XZ 7c63fd60 f i stdafx.obj
 0001:0000ed80       ??1?$CComPtrBase@UITypeInfo@@@ATL@@QAE@XZ 7c63fd80 f i stdafx.obj
 0001:0000edb0       ??I?$CComPtrBase@UITypeInfo@@@ATL@@QAEPAPAUITypeInfo@@XZ 7c63fdb0 f i stdafx.obj
 0001:0000edf0       ??C?$CComPtrBase@UITypeInfo@@@ATL@@QBEPAV?$_NoAddRefReleaseOnCComPtr@UITypeInfo@@@1@XZ 7c63fdf0 f i stdafx.obj
 0001:0000ee30       ??0?$CComPtr@UICreateErrorInfo@@@ATL@@QAE@XZ 7c63fe30 f i stdafx.obj
 0001:0000ee50       ??1?$CComPtrBase@UICreateErrorInfo@@@ATL@@QAE@XZ 7c63fe50 f i stdafx.obj
 0001:0000ee80       ??I?$CComPtrBase@UICreateErrorInfo@@@ATL@@QAEPAPAUICreateErrorInfo@@XZ 7c63fe80 f i stdafx.obj
 0001:0000eec0       ??C?$CComPtrBase@UICreateErrorInfo@@@ATL@@QBEPAV?$_NoAddRefReleaseOnCComPtr@UICreateErrorInfo@@@1@XZ 7c63fec0 f i stdafx.obj
 0001:0000ef00       ??0?$CComPtr@UIErrorInfo@@@ATL@@QAE@XZ 7c63ff00 f i stdafx.obj
 0001:0000ef20       ??1?$CComPtrBase@UIErrorInfo@@@ATL@@QAE@XZ 7c63ff20 f i stdafx.obj
 0001:0000ef50       ??B?$CComPtrBase@UIErrorInfo@@@ATL@@QBEPAUIErrorInfo@@XZ 7c63ff50 f i stdafx.obj
 0001:0000ef60       ??I?$CComPtrBase@UIErrorInfo@@@ATL@@QAEPAPAUIErrorInfo@@XZ 7c63ff60 f i stdafx.obj
 0001:0000efa0       ??0?$CW2AEX@$0IA@@ATL@@QAE@PB_W@Z 7c63ffa0 f i stdafx.obj
 0001:0000efd0       ??1?$CW2AEX@$0IA@@ATL@@QAE@XZ 7c63ffd0 f i stdafx.obj
 0001:0000f000       ??B?$CW2AEX@$0IA@@ATL@@QBEPADXZ 7c640000 f i stdafx.obj
 0001:0000f010       ??0?$CComPtr@UIProvideClassInfo2@@@ATL@@QAE@XZ 7c640010 f i stdafx.obj
 0001:0000f030       ??1?$CComPtrBase@UIProvideClassInfo2@@@ATL@@QAE@XZ 7c640030 f i stdafx.obj
 0001:0000f060       ??I?$CComPtrBase@UIProvideClassInfo2@@@ATL@@QAEPAPAUIProvideClassInfo2@@XZ 7c640060 f i stdafx.obj
 0001:0000f0a0       ??C?$CComPtrBase@UIProvideClassInfo2@@@ATL@@QBEPAV?$_NoAddRefReleaseOnCComPtr@UIProvideClassInfo2@@@1@XZ 7c6400a0 f i stdafx.obj
 0001:0000f0e0       ??9?$CComPtrBase@UIProvideClassInfo2@@@ATL@@QBE_NPAUIProvideClassInfo2@@@Z 7c6400e0 f i stdafx.obj
 0001:0000f110       ??0?$CComPtr@UIPersist@@@ATL@@QAE@XZ 7c640110 f i stdafx.obj
 0001:0000f130       ??1?$CComPtrBase@UIPersist@@@ATL@@QAE@XZ 7c640130 f i stdafx.obj
 0001:0000f160       ??I?$CComPtrBase@UIPersist@@@ATL@@QAEPAPAUIPersist@@XZ 7c640160 f i stdafx.obj
 0001:0000f1a0       ??C?$CComPtrBase@UIPersist@@@ATL@@QBEPAV?$_NoAddRefReleaseOnCComPtr@UIPersist@@@1@XZ 7c6401a0 f i stdafx.obj
 0001:0000f1e0       ??0?$CComPtr@UIStream@@@ATL@@QAE@XZ 7c6401e0 f i stdafx.obj
 0001:0000f200       ??1?$CComPtrBase@UIStream@@@ATL@@QAE@XZ 7c640200 f i stdafx.obj
 0001:0000f230       ??B?$CComPtrBase@UIStream@@@ATL@@QBEPAUIStream@@XZ 7c640230 f i stdafx.obj
 0001:0000f240       ??I?$CComPtrBase@UIStream@@@ATL@@QAEPAPAUIStream@@XZ 7c640240 f i stdafx.obj
 0001:0000f280       ??0?$CAutoStackPtr@D@ATL@@QAE@PAD@Z 7c640280 f i stdafx.obj
 0001:0000f2a0       ??1?$CAutoStackPtr@D@ATL@@QAE@XZ 7c6402a0 f i stdafx.obj
 0001:0000f2c0       ??B?$CAutoStackPtr@D@ATL@@QBEPADXZ 7c6402c0 f i stdafx.obj
 0001:0000f2d0       ?CreateInstance@?$CComCreator@V?$CComPolyObject@VCAxHostWindow@ATL@@@ATL@@@ATL@@SGJPAXABU_GUID@@PAPAX@Z 7c6402d0 f i stdafx.obj
 0001:0000f420       ??0?$CComPtr@UIAxWinHostWindowLic@@@ATL@@QAE@XZ 7c640420 f i stdafx.obj
 0001:0000f440       ??1?$CComPtrBase@UIAxWinHostWindowLic@@@ATL@@QAE@XZ 7c640440 f i stdafx.obj
 0001:0000f470       ??I?$CComPtrBase@UIAxWinHostWindowLic@@@ATL@@QAEPAPAUIAxWinHostWindowLic@@XZ 7c640470 f i stdafx.obj
 0001:0000f4b0       ??C?$CComPtrBase@UIAxWinHostWindowLic@@@ATL@@QBEPAV?$_NoAddRefReleaseOnCComPtr@UIAxWinHostWindowLic@@@1@XZ 7c6404b0 f i stdafx.obj
 0001:0000f4f0       ??0?$CComPtr@UIAxWinHostWindow@@@ATL@@QAE@XZ 7c6404f0 f i stdafx.obj
 0001:0000f510       ??1?$CComPtrBase@UIAxWinHostWindow@@@ATL@@QAE@XZ 7c640510 f i stdafx.obj
 0001:0000f540       ??I?$CComPtrBase@UIAxWinHostWindow@@@ATL@@QAEPAPAUIAxWinHostWindow@@XZ 7c640540 f i stdafx.obj
 0001:0000f580       ??C?$CComPtrBase@UIAxWinHostWindow@@@ATL@@QBEPAV?$_NoAddRefReleaseOnCComPtr@UIAxWinHostWindow@@@1@XZ 7c640580 f i stdafx.obj
 0001:0000f5c0       ??0?$CComPtrBase@UIUnknown@@@ATL@@IAE@XZ 7c6405c0 f i stdafx.obj
 0001:0000f5e0       ??0?$CComPtrBase@UIPersistStream@@@ATL@@IAE@XZ 7c6405e0 f i stdafx.obj
 0001:0000f600       ??8?$CComPtrBase@UIPersistStream@@@ATL@@QBE_NPAUIPersistStream@@@Z 7c640600 f i stdafx.obj
 0001:0000f620       ??0?$CComPtrBase@UITypeLib@@@ATL@@IAE@XZ 7c640620 f i stdafx.obj
 0001:0000f640       ??0?$CComPtrBase@UICatRegister@@@ATL@@IAE@XZ 7c640640 f i stdafx.obj
 0001:0000f660       ??0?$CComPtrBase@UIConnectionPointContainer@@@ATL@@IAE@XZ 7c640660 f i stdafx.obj
 0001:0000f680       ??0?$CComPtrBase@UIConnectionPoint@@@ATL@@IAE@XZ 7c640680 f i stdafx.obj
 0001:0000f6a0       ??0?$CComPtrBase@UITypeInfo@@@ATL@@IAE@XZ 7c6406a0 f i stdafx.obj
 0001:0000f6c0       ??0?$CComPtrBase@UICreateErrorInfo@@@ATL@@IAE@XZ 7c6406c0 f i stdafx.obj
 0001:0000f6e0       ??0?$CComPtrBase@UIErrorInfo@@@ATL@@IAE@XZ 7c6406e0 f i stdafx.obj
 0001:0000f700       ?Init@?$CW2AEX@$0IA@@ATL@@AAEXPB_WI@Z 7c640700 f i stdafx.obj
 0001:0000f810       ?AtlThrowLastWin32@ATL@@YGXXZ 7c640810 f i stdafx.obj
 0001:0000f860       ??0?$CComPtrBase@UIProvideClassInfo2@@@ATL@@IAE@XZ 7c640860 f i stdafx.obj
 0001:0000f880       ??8?$CComPtrBase@UIProvideClassInfo2@@@ATL@@QBE_NPAUIProvideClassInfo2@@@Z 7c640880 f i stdafx.obj
 0001:0000f8a0       ??0?$CComPtrBase@UIPersist@@@ATL@@IAE@XZ 7c6408a0 f i stdafx.obj
 0001:0000f8c0       ??0?$CComPtrBase@UIStream@@@ATL@@IAE@XZ 7c6408c0 f i stdafx.obj
 0001:0000f8e0       ?Free@?$CAutoStackPtr@D@ATL@@QAEXXZ 7c6408e0 f i stdafx.obj
 0001:0000f910       __freea                    7c640910 f i stdafx.obj
 0001:0000f950       ??0?$CComPtrBase@UIAxWinHostWindowLic@@@ATL@@IAE@XZ 7c640950 f i stdafx.obj
 0001:0000f970       ??0?$CComPtrBase@UIAxWinHostWindow@@@ATL@@IAE@XZ 7c640970 f i stdafx.obj
 0001:0000f990       ??0?$CComPolyObject@VCAxHostWindow@ATL@@@ATL@@QAE@PAX@Z 7c640990 f i stdafx.obj
 0001:0000fa00       ??0?$CComObjectRootEx@VCComSingleThreadModel@ATL@@@ATL@@QAE@XZ 7c640a00 f i stdafx.obj
 0001:0000fa20       ?_AtlInitialConstruct@?$CComPolyObject@VCAxHostWindow@ATL@@@ATL@@QAEJXZ 7c640a20 f i stdafx.obj
 0001:0000fa60       ?_AtlInitialConstruct@?$CComObjectRootEx@VCComSingleThreadModel@ATL@@@ATL@@QAEJXZ 7c640a60 f i stdafx.obj
 0001:0000fa70       ?FinalConstruct@?$CComPolyObject@VCAxHostWindow@ATL@@@ATL@@QAEJXZ 7c640a70 f i stdafx.obj
 0001:0000fab0       ?InternalAddRef@?$CComObjectRootEx@VCComSingleThreadModel@ATL@@@ATL@@QAEKXZ 7c640ab0 f i stdafx.obj
 0001:0000fb00       ?Increment@CComSingleThreadModel@ATL@@SGKPAJ@Z 7c640b00 f i stdafx.obj
 0001:0000fb20       ?InternalRelease@?$CComObjectRootEx@VCComSingleThreadModel@ATL@@@ATL@@QAEKXZ 7c640b20 f i stdafx.obj
 0001:0000fb70       ?Decrement@CComSingleThreadModel@ATL@@SGKPAJ@Z 7c640b70 f i stdafx.obj
 0001:0000fb90       ?AddRef@?$CComPolyObject@VCAxHostWindow@ATL@@@ATL@@UAGKXZ 7c640b90 f i stdafx.obj
 0001:0000fbb0       ?Release@?$CComPolyObject@VCAxHostWindow@ATL@@@ATL@@UAGKXZ 7c640bb0 f i stdafx.obj
 0001:0000fc00       ?QueryInterface@?$CComPolyObject@VCAxHostWindow@ATL@@@ATL@@UAGJABU_GUID@@PAPAX@Z 7c640c00 f i stdafx.obj
 0001:0000fc90       ?_InternalQueryInterface@CAxHostWindow@ATL@@QAEJABU_GUID@@PAPAX@Z 7c640c90 f i stdafx.obj
 0001:0000fcc0       ?_GetEntries@CAxHostWindow@ATL@@SGPBU_ATL_INTMAP_ENTRY@2@XZ 7c640cc0 f i stdafx.obj
 0001:0000fcd0       ??_E?$CComPolyObject@VCAxHostWindow@ATL@@@ATL@@UAEPAXI@Z 7c640cd0 f i stdafx.obj
 0001:0000fcd0       ??_G?$CComPolyObject@VCAxHostWindow@ATL@@@ATL@@UAEPAXI@Z 7c640cd0 f i stdafx.obj
 0001:0000fd00       ??1?$CComPolyObject@VCAxHostWindow@ATL@@@ATL@@UAE@XZ 7c640d00 f i stdafx.obj
 0001:0000fd70       ??1?$CComObjectRootEx@VCComSingleThreadModel@ATL@@@ATL@@QAE@XZ 7c640d70 f i stdafx.obj
 0001:0000fd90       ??1?$CComContainedObject@VCAxHostWindow@ATL@@@ATL@@UAE@XZ 7c640d90 f i stdafx.obj
 0001:0000fdb0       ??1CAxHostWindow@ATL@@UAE@XZ 7c640db0 f i stdafx.obj
 0001:0000fed0       ??1?$CWindowImpl@VCAxHostWindow@ATL@@VCWindow@2@V?$CWinTraits@$0FGAAAAAA@$0A@@2@@ATL@@UAE@XZ 7c640ed0 f i stdafx.obj
 0001:0000fef0       ??1?$CWindowImplBaseT@VCWindow@ATL@@V?$CWinTraits@$0FGAAAAAA@$0A@@2@@ATL@@UAE@XZ 7c640ef0 f i stdafx.obj
 0001:0000ff10       ??1?$CComPtr@UIOleObject@@@ATL@@QAE@XZ 7c640f10 f i stdafx.obj
 0001:0000ff30       ??1?$CComPtr@UIOleInPlaceFrame@@@ATL@@QAE@XZ 7c640f30 f i stdafx.obj
 0001:0000ff50       ??1?$CComPtr@UIOleInPlaceUIWindow@@@ATL@@QAE@XZ 7c640f50 f i stdafx.obj
 0001:0000ff70       ??1?$CComPtr@UIViewObjectEx@@@ATL@@QAE@XZ 7c640f70 f i stdafx.obj
 0001:0000ff90       ??1?$CComPtr@UIOleInPlaceObjectWindowless@@@ATL@@QAE@XZ 7c640f90 f i stdafx.obj
 0001:0000ffb0       ??1?$CComPtr@UIDocHostUIHandlerDispatch@@@ATL@@QAE@XZ 7c640fb0 f i stdafx.obj
 0001:0000ffd0       ??1?$CComPtr@UIFontDisp@@@ATL@@QAE@XZ 7c640fd0 f i stdafx.obj
 0001:0000fff0       ??1?$CComPtr@UIServiceProvider@@@ATL@@QAE@XZ 7c640ff0 f i stdafx.obj
 0001:00010010       ??1?$CWindowImplRoot@VCWindow@ATL@@@ATL@@UAE@XZ 7c641010 f i stdafx.obj
 0001:00010090       ??1?$IObjectWithSiteImpl@VCAxHostWindow@ATL@@@ATL@@UAE@XZ 7c641090 f i stdafx.obj
 0001:000100b0       ??1?$IDispatchImpl@UIAxWinAmbientDispatchEx@@$1?_GUID_b2d0778b_ac99_4c58_a5c8_e7724e5316b5@@3U__s_GUID@@B$1?m_libid@CAtlModule@ATL@@2U_GUID@@A$0PPPP@$0PPPP@VCComTypeInfoHolder@ATL@@@ATL@@UAE@XZ 7c6410b0 f i stdafx.obj
 0001:000100d0       ??1CComTypeInfoHolder@ATL@@QAE@XZ 7c6410d0 f i stdafx.obj
 0001:00010140       ??1?$CComPtrBase@UIOleObject@@@ATL@@QAE@XZ 7c641140 f i stdafx.obj
 0001:00010170       ??1?$CComPtrBase@UIOleInPlaceFrame@@@ATL@@QAE@XZ 7c641170 f i stdafx.obj
 0001:000101a0       ??1?$CComPtrBase@UIOleInPlaceUIWindow@@@ATL@@QAE@XZ 7c6411a0 f i stdafx.obj
 0001:000101d0       ??1?$CComPtrBase@UIViewObjectEx@@@ATL@@QAE@XZ 7c6411d0 f i stdafx.obj
 0001:00010200       ??1?$CComPtrBase@UIOleInPlaceObjectWindowless@@@ATL@@QAE@XZ 7c641200 f i stdafx.obj
 0001:00010230       ??1?$CComPtrBase@UIDocHostUIHandlerDispatch@@@ATL@@QAE@XZ 7c641230 f i stdafx.obj
 0001:00010260       ??1?$CComPtrBase@UIFontDisp@@@ATL@@QAE@XZ 7c641260 f i stdafx.obj
 0001:00010290       ??1?$CComPtrBase@UIServiceProvider@@@ATL@@QAE@XZ 7c641290 f i stdafx.obj
 0001:000102c0       ??1CWndProcThunk@ATL@@QAE@XZ 7c6412c0 f i stdafx.obj
 0001:000102e0       ??1CDynamicStdCallThunk@ATL@@QAE@XZ 7c6412e0 f i stdafx.obj
 0001:00010310       ??3_stdcallthunk@ATL@@SAXPAX@Z 7c641310 f i stdafx.obj
 0001:00010320       ?FinalRelease@?$CComPolyObject@VCAxHostWindow@ATL@@@ATL@@QAEXXZ 7c641320 f i stdafx.obj
 0001:00010350       ?FinalRelease@CAxHostWindow@ATL@@QAEXXZ 7c641350 f i stdafx.obj
 0001:00010370       ?ReleaseAll@CAxHostWindow@ATL@@QAEXXZ 7c641370 f i stdafx.obj
 0001:00010620       ??1?$CComPtr@UIObjectWithSite@@@ATL@@QAE@XZ 7c641620 f i stdafx.obj
 0001:00010640       ??B?$CComPtrBase@UIUnknown@@@ATL@@QBEPAUIUnknown@@XZ 7c641640 f i stdafx.obj
 0001:00010650       ??9?$CComPtrBase@UIUnknown@@@ATL@@QBE_NPAUIUnknown@@@Z 7c641650 f i stdafx.obj
 0001:00010680       ??8?$CComPtrBase@UIUnknown@@@ATL@@QBE_NPAUIUnknown@@@Z 7c641680 f i stdafx.obj
 0001:000106a0       ?Release@?$CComPtrBase@UIUnknown@@@ATL@@QAEXXZ 7c6416a0 f i stdafx.obj
 0001:000106e0       ??B?$CComPtrBase@UIOleObject@@@ATL@@QBEPAUIOleObject@@XZ 7c6416e0 f i stdafx.obj
 0001:000106f0       ??C?$CComPtrBase@UIOleObject@@@ATL@@QBEPAV?$_NoAddRefReleaseOnCComPtr@UIOleObject@@@1@XZ 7c6416f0 f i stdafx.obj
 0001:00010730       ?Release@?$CComPtrBase@UIOleObject@@@ATL@@QAEXXZ 7c641730 f i stdafx.obj
 0001:00010770       ?Release@?$CComPtrBase@UIOleInPlaceFrame@@@ATL@@QAEXXZ 7c641770 f i stdafx.obj
 0001:000107b0       ?Release@?$CComPtrBase@UIOleInPlaceUIWindow@@@ATL@@QAEXXZ 7c6417b0 f i stdafx.obj
 0001:000107f0       ??C?$CComPtrBase@UIViewObjectEx@@@ATL@@QBEPAV?$_NoAddRefReleaseOnCComPtr@UIViewObjectEx@@@1@XZ 7c6417f0 f i stdafx.obj
 0001:00010830       ??9?$CComPtrBase@UIViewObjectEx@@@ATL@@QBE_NPAUIViewObjectEx@@@Z 7c641830 f i stdafx.obj
 0001:00010860       ??8?$CComPtrBase@UIViewObjectEx@@@ATL@@QBE_NPAUIViewObjectEx@@@Z 7c641860 f i stdafx.obj
 0001:00010880       ?Release@?$CComPtrBase@UIViewObjectEx@@@ATL@@QAEXXZ 7c641880 f i stdafx.obj
 0001:000108c0       ?Release@?$CComPtrBase@UIOleInPlaceObjectWindowless@@@ATL@@QAEXXZ 7c6418c0 f i stdafx.obj
 0001:00010900       ??0?$CComPtr@UIObjectWithSite@@@ATL@@QAE@XZ 7c641900 f i stdafx.obj
 0001:00010920       ??1?$CComPtrBase@UIObjectWithSite@@@ATL@@QAE@XZ 7c641920 f i stdafx.obj
 0001:00010950       ??I?$CComPtrBase@UIObjectWithSite@@@ATL@@QAEPAPAUIObjectWithSite@@XZ 7c641950 f i stdafx.obj
 0001:00010990       ??C?$CComPtrBase@UIObjectWithSite@@@ATL@@QBEPAV?$_NoAddRefReleaseOnCComPtr@UIObjectWithSite@@@1@XZ 7c641990 f i stdafx.obj
 0001:000109d0       ??9?$CComPtrBase@UIObjectWithSite@@@ATL@@QBE_NPAUIObjectWithSite@@@Z 7c6419d0 f i stdafx.obj
 0001:00010a00       ??0?$CComPtrBase@UIObjectWithSite@@@ATL@@IAE@XZ 7c641a00 f i stdafx.obj
 0001:00010a20       ??8?$CComPtrBase@UIObjectWithSite@@@ATL@@QBE_NPAUIObjectWithSite@@@Z 7c641a20 f i stdafx.obj
 0001:00010a40       ??0?$CComContainedObject@VCAxHostWindow@ATL@@@ATL@@QAE@PAX@Z 7c641a40 f i stdafx.obj
 0001:00010ad0       ??0CAxHostWindow@ATL@@QAE@XZ 7c641ad0 f i stdafx.obj
 0001:00010da0       ?OnFinalMessage@CAxHostWindow@ATL@@UAEXPAUHWND__@@@Z 7c641da0 f i stdafx.obj
 0001:00010dd0       ?ProcessWindowMessage@CAxHostWindow@ATL@@UAEHPAUHWND__@@IIJAAJK@Z 7c641dd0 f i stdafx.obj
 0001:00011710       ?OnForwardMsg@CAxHostWindow@ATL@@QAEJIIJAAH@Z 7c642710 f i stdafx.obj
 0001:000117c0       ?OnGetUnknown@CAxHostWindow@ATL@@QAEJIIJAAH@Z 7c6427c0 f i stdafx.obj
 0001:000117f0       ?OnGetControl@CAxHostWindow@ATL@@QAEJIIJAAH@Z 7c6427f0 f i stdafx.obj
 0001:00011830       ?OnEraseBackground@CAxHostWindow@ATL@@QAEJIIJAAH@Z 7c642830 f i stdafx.obj
 0001:00011870       ?OnMouseActivate@CAxHostWindow@ATL@@QAEJIIJAAH@Z 7c642870 f i stdafx.obj
 0001:00011970       ?OnSetFocus@CAxHostWindow@ATL@@QAEJIIJAAH@Z 7c642970 f i stdafx.obj
 0001:00011ac0       ?IsChild@CWindow@ATL@@QBEHPAUHWND__@@@Z 7c642ac0 f i stdafx.obj
 0001:00011b10       ?OnKillFocus@CAxHostWindow@ATL@@QAEJIIJAAH@Z 7c642b10 f i stdafx.obj
 0001:00011b40       ?OnSize@CAxHostWindow@ATL@@QAEJIIJAAH@Z 7c642b40 f i stdafx.obj
 0001:00011ca0       ?OnDestroy@CAxHostWindow@ATL@@QAEJIIJAAH@Z 7c642ca0 f i stdafx.obj
 0001:00011d00       ?OnWindowMessage@CAxHostWindow@ATL@@QAEJIIJAAH@Z 7c642d00 f i stdafx.obj
 0001:00011da0       ?OnWindowlessMouseMessage@CAxHostWindow@ATL@@QAEJIIJAAH@Z 7c642da0 f i stdafx.obj
 0001:00011e30       ?OnPaint@CAxHostWindow@ATL@@QAEJIIJAAH@Z 7c642e30 f i stdafx.obj
 0001:00012130       ?GetClientRect@CWindow@ATL@@QBEHPAUtagRECT@@@Z 7c643130 f i stdafx.obj
 0001:00012180       ?CreateControl@CAxHostWindow@ATL@@UAGJPB_WPAUHWND__@@PAUIStream@@@Z 7c643180 f i stdafx.obj
 0001:000121d0       ?CreateControlEx@CAxHostWindow@ATL@@UAGJPB_WPAUHWND__@@PAUIStream@@PAPAUIUnknown@@ABU_GUID@@PAU5@@Z 7c6431d0 f i stdafx.obj
 0001:00012200       ?AttachControl@CAxHostWindow@ATL@@UAGJPAUIUnknown@@PAUHWND__@@@Z 7c643200 f i stdafx.obj
 0001:000122e0       ?RedrawWindow@CWindow@ATL@@QAEHPBUtagRECT@@PAUHRGN__@@I@Z 7c6432e0 f i stdafx.obj
 0001:00012340       ?QueryControl@CAxHostWindow@ATL@@UAGJABU_GUID@@PAPAX@Z 7c643340 f i stdafx.obj
 0001:000123b0       ?SetExternalDispatch@CAxHostWindow@ATL@@UAGJPAUIDispatch@@@Z 7c6433b0 f i stdafx.obj
 0001:000123d0       ??4?$CComPtr@UIDispatch@@@ATL@@QAEPAUIDispatch@@PAU2@@Z 7c6433d0 f i stdafx.obj
 0001:00012410       ?SetExternalUIHandler@CAxHostWindow@ATL@@UAGJPAUIDocHostUIHandlerDispatch@@@Z 7c643410 f i stdafx.obj
 0001:00012430       ?CreateControlLic@CAxHostWindow@ATL@@UAGJPB_WPAUHWND__@@PAUIStream@@PA_W@Z 7c643430 f i stdafx.obj
 0001:00012480       ?CreateControlLicEx@CAxHostWindow@ATL@@UAGJPB_WPAUHWND__@@PAUIStream@@PAPAUIUnknown@@ABU_GUID@@PAU5@PA_W@Z 7c643480 f i stdafx.obj
 0001:00012980       ??0CComVariant@ATL@@QAE@PB_W@Z 7c643980 f i stdafx.obj
 0001:000129b0       ??4CComVariant@ATL@@QAEAAV01@PB_W@Z 7c6439b0 f i stdafx.obj
 0001:00012a50       ?GetStyle@CWindow@ATL@@QBEKXZ 7c643a50 f i stdafx.obj
 0001:00012aa0       ?SetWindowLongA@CWindow@ATL@@QAEJHJ@Z 7c643aa0 f i stdafx.obj
 0001:00012b00       ?SetWindowPos@CWindow@ATL@@QAEHPAUHWND__@@HHHHI@Z 7c643b00 f i stdafx.obj
 0001:00012b70       ?IsParentDialog@CWindow@ATL@@QAEHXZ 7c643b70 f i stdafx.obj
 0001:00012c00       ??BCWindow@ATL@@QBEPAUHWND__@@XZ 7c643c00 f i stdafx.obj
 0001:00012c10       ?GetParent@CWindow@ATL@@QBE?AV12@XZ 7c643c10 f i stdafx.obj
 0001:00012c70       ??0CWindow@ATL@@QAE@PAUHWND__@@@Z 7c643c70 f i stdafx.obj
 0001:00012c90       ?FindOneOf@CAtlModule@ATL@@SAPBDPBD0@Z 7c643c90 f i stdafx.obj
 0001:00012d00       ??1?$CComPtr@UIClassFactory2@@@ATL@@QAE@XZ 7c643d00 f i stdafx.obj
 0001:00012d20       ?ShowContextMenu@CAxHostWindow@ATL@@UAGJKPAUtagPOINT@@PAUIUnknown@@PAUIDispatch@@@Z 7c643d20 f i stdafx.obj
 0001:00012da0       ?GetHostInfo@CAxHostWindow@ATL@@UAGJPAU_DOCHOSTUIINFO@@@Z 7c643da0 f i stdafx.obj
 0001:00012e20       ?ShowUI@CAxHostWindow@ATL@@UAGJKPAUIOleInPlaceActiveObject@@PAUIOleCommandTarget@@PAUIOleInPlaceFrame@@PAUIOleInPlaceUIWindow@@@Z 7c643e20 f i stdafx.obj
 0001:00012e90       ?HideUI@CAxHostWindow@ATL@@UAGJXZ 7c643e90 f i stdafx.obj
 0001:00012ee0       ?UpdateUI@CAxHostWindow@ATL@@UAGJXZ 7c643ee0 f i stdafx.obj
 0001:00012f30       ?EnableModeless@CAxHostWindow@ATL@@UAGJH@Z 7c643f30 f i stdafx.obj
 0001:00012f90       ?OnDocWindowActivate@CAxHostWindow@ATL@@UAGJH@Z 7c643f90 f i stdafx.obj
 0001:00012ff0       ?OnFrameWindowActivate@CAxHostWindow@ATL@@UAGJH@Z 7c643ff0 f i stdafx.obj
 0001:00013050       ?ResizeBorder@CAxHostWindow@ATL@@UAGJPBUtagRECT@@PAUIOleInPlaceUIWindow@@H@Z 7c644050 f i stdafx.obj
 0001:000130c0       ?TranslateAcceleratorA@CAxHostWindow@ATL@@UAGJPAUtagMSG@@PBU_GUID@@K@Z 7c6440c0 f i stdafx.obj
 0001:00013150       ??0CComBSTR@ATL@@QAE@ABU_GUID@@@Z 7c644150 f i stdafx.obj
 0001:000131d0       ?GetOptionKeyPath@CAxHostWindow@ATL@@UAGJPAPA_WK@Z 7c6441d0 f i stdafx.obj
 0001:000132d0       ?ByteLength@CComBSTR@ATL@@QBEIXZ 7c6442d0 f i stdafx.obj
 0001:000132f0       ?GetDropTarget@CAxHostWindow@ATL@@UAGJPAUIDropTarget@@PAPAU3@@Z 7c6442f0 f i stdafx.obj
 0001:000133f0       ?GetExternal@CAxHostWindow@ATL@@UAGJPAPAUIDispatch@@@Z 7c6443f0 f i stdafx.obj
 0001:000134c0       ?TranslateUrl@CAxHostWindow@ATL@@UAGJKPA_WPAPA_W@Z 7c6444c0 f i stdafx.obj
 0001:00013600       ?FilterDataObject@CAxHostWindow@ATL@@UAGJPAUIDataObject@@PAPAU3@@Z 7c644600 f i stdafx.obj
 0001:000136f0       ?Invoke@CAxHostWindow@ATL@@UAGJJABU_GUID@@KGPAUtagDISPPARAMS@@PAUtagVARIANT@@PAUtagEXCEPINFO@@PAI@Z 7c6446f0 f i stdafx.obj
 0001:000137c0       ?FireAmbientPropertyChange@CAxHostWindow@ATL@@QAEJJ@Z 7c6447c0 f i stdafx.obj
 0001:00013830       ?put_AllowWindowlessActivation@CAxHostWindow@ATL@@UAGJF@Z 7c644830 f i stdafx.obj
 0001:00013860       ?get_AllowWindowlessActivation@CAxHostWindow@ATL@@UAGJPAF@Z 7c644860 f i stdafx.obj
 0001:000138c0       ?put_BackColor@CAxHostWindow@ATL@@UAGJK@Z 7c6448c0 f i stdafx.obj
 0001:00013900       ?get_BackColor@CAxHostWindow@ATL@@UAGJPAK@Z 7c644900 f i stdafx.obj
 0001:00013950       ?put_ForeColor@CAxHostWindow@ATL@@UAGJK@Z 7c644950 f i stdafx.obj
 0001:00013980       ?get_ForeColor@CAxHostWindow@ATL@@UAGJPAK@Z 7c644980 f i stdafx.obj
 0001:000139d0       ?put_LocaleID@CAxHostWindow@ATL@@UAGJK@Z 7c6449d0 f i stdafx.obj
 0001:00013a00       ?get_LocaleID@CAxHostWindow@ATL@@UAGJPAK@Z 7c644a00 f i stdafx.obj
 0001:00013a50       ?put_UserMode@CAxHostWindow@ATL@@UAGJF@Z 7c644a50 f i stdafx.obj
 0001:00013a90       ?get_UserMode@CAxHostWindow@ATL@@UAGJPAF@Z 7c644a90 f i stdafx.obj
 0001:00013af0       ?put_DisplayAsDefault@CAxHostWindow@ATL@@UAGJF@Z 7c644af0 f i stdafx.obj
 0001:00013b30       ?get_DisplayAsDefault@CAxHostWindow@ATL@@UAGJPAF@Z 7c644b30 f i stdafx.obj
 0001:00013b90       ?put_Font@CAxHostWindow@ATL@@UAGJPAUIFontDisp@@@Z 7c644b90 f i stdafx.obj
 0001:00013bc0       ?get_Font@CAxHostWindow@ATL@@UAGJPAPAUIFontDisp@@@Z 7c644bc0 f i stdafx.obj
 0001:00013ed0       ?put_MessageReflect@CAxHostWindow@ATL@@UAGJF@Z 7c644ed0 f i stdafx.obj
 0001:00013f10       ?get_MessageReflect@CAxHostWindow@ATL@@UAGJPAF@Z 7c644f10 f i stdafx.obj
 0001:00013f70       ?get_ShowGrabHandles@CAxHostWindow@ATL@@UAGJPAF@Z 7c644f70 f i stdafx.obj
 0001:00013f90       ?get_ShowHatching@CAxHostWindow@ATL@@UAGJPAF@Z 7c644f90 f i stdafx.obj
 0001:00013fe0       ?put_DocHostFlags@CAxHostWindow@ATL@@UAGJK@Z 7c644fe0 f i stdafx.obj
 0001:00014010       ?get_DocHostFlags@CAxHostWindow@ATL@@UAGJPAK@Z 7c645010 f i stdafx.obj
 0001:00014060       ?put_DocHostDoubleClickFlags@CAxHostWindow@ATL@@UAGJK@Z 7c645060 f i stdafx.obj
 0001:00014080       ?get_DocHostDoubleClickFlags@CAxHostWindow@ATL@@UAGJPAK@Z 7c645080 f i stdafx.obj
 0001:000140d0       ?put_AllowContextMenu@CAxHostWindow@ATL@@UAGJF@Z 7c6450d0 f i stdafx.obj
 0001:00014100       ?get_AllowContextMenu@CAxHostWindow@ATL@@UAGJPAF@Z 7c645100 f i stdafx.obj
 0001:00014160       ?put_AllowShowUI@CAxHostWindow@ATL@@UAGJF@Z 7c645160 f i stdafx.obj
 0001:00014190       ?get_AllowShowUI@CAxHostWindow@ATL@@UAGJPAF@Z 7c645190 f i stdafx.obj
 0001:000141f0       ?put_OptionKeyPath@CAxHostWindow@ATL@@UAGJPA_W@Z 7c6451f0 f i stdafx.obj
 0001:00014210       ??4CComBSTR@ATL@@QAEAAV01@PB_W@Z 7c645210 f i stdafx.obj
 0001:00014270       ?get_OptionKeyPath@CAxHostWindow@ATL@@UAGJPAPA_W@Z 7c645270 f i stdafx.obj
 0001:000142c0       ?SetAmbientDispatch@CAxHostWindow@ATL@@UAGJPAUIDispatch@@@Z 7c6452c0 f i stdafx.obj
 0001:000142e0       ?SetSite@CAxHostWindow@ATL@@UAGJPAUIUnknown@@@Z 7c6452e0 f i stdafx.obj
 0001:00014390       ?SaveObject@CAxHostWindow@ATL@@UAGJXZ 7c645390 f i stdafx.obj
 0001:000143e0       ?GetMoniker@CAxHostWindow@ATL@@UAGJKKPAPAUIMoniker@@@Z 7c6453e0 f i stdafx.obj
 0001:00014430       ?GetContainer@CAxHostWindow@ATL@@UAGJPAPAUIOleContainer@@@Z 7c645430 f i stdafx.obj
 0001:00014510       ?ShowObject@CAxHostWindow@ATL@@UAGJXZ 7c645510 f i stdafx.obj
 0001:000145d0       ?GetDC@CWindow@ATL@@QAEPAUHDC__@@XZ 7c6455d0 f i stdafx.obj
 0001:00014620       ?ReleaseDC@CWindow@ATL@@QAEHPAUHDC__@@@Z 7c645620 f i stdafx.obj
 0001:00014670       ?OnShowWindow@CAxHostWindow@ATL@@UAGJH@Z 7c645670 f i stdafx.obj
 0001:000146c0       ?RequestNewObjectLayout@CAxHostWindow@ATL@@UAGJXZ 7c6456c0 f i stdafx.obj
 0001:00014710       ?GetWindow@CAxHostWindow@ATL@@UAGJPAPAUHWND__@@@Z 7c645710 f i stdafx.obj
 0001:00014770       ?ContextSensitiveHelp@CAxHostWindow@ATL@@UAGJH@Z 7c645770 f i stdafx.obj
 0001:000147c0       ?CanInPlaceActivate@CAxHostWindow@ATL@@UAGJXZ 7c6457c0 f i stdafx.obj
 0001:000147d0       ?OnInPlaceActivate@CAxHostWindow@ATL@@UAGJXZ 7c6457d0 f i stdafx.obj
 0001:000148c0       ?OnUIActivate@CAxHostWindow@ATL@@UAGJXZ 7c6458c0 f i stdafx.obj
 0001:00014910       ?GetWindowContext@CAxHostWindow@ATL@@UAGJPAPAUIOleInPlaceFrame@@PAPAUIOleInPlaceUIWindow@@PAUtagRECT@@2PAUtagOIFI@@@Z 7c645910 f i stdafx.obj
 0001:00014b60       ?Scroll@CAxHostWindow@ATL@@UAGJUtagSIZE@@@Z 7c645b60 f i stdafx.obj
 0001:00014bb0       ?OnUIDeactivate@CAxHostWindow@ATL@@UAGJH@Z 7c645bb0 f i stdafx.obj
 0001:00014c00       ?OnInPlaceDeactivate@CAxHostWindow@ATL@@UAGJXZ 7c645c00 f i stdafx.obj
 0001:00014c30       ?DiscardUndoState@CAxHostWindow@ATL@@UAGJXZ 7c645c30 f i stdafx.obj
 0001:00014c80       ?DeactivateAndUndo@CAxHostWindow@ATL@@UAGJXZ 7c645c80 f i stdafx.obj
 0001:00014cd0       ?OnPosRectChange@CAxHostWindow@ATL@@UAGJPBUtagRECT@@@Z 7c645cd0 f i stdafx.obj
 0001:00014da0       ?Detach@CWindow@ATL@@QAEPAUHWND__@@XZ 7c645da0 f i stdafx.obj
 0001:00014dd0       ?MoveWindow@CWindow@ATL@@QAEHPBUtagRECT@@H@Z 7c645dd0 f i stdafx.obj
 0001:00014e50       ?ClientToScreen@CWindow@ATL@@QBEHPAUtagRECT@@@Z 7c645e50 f i stdafx.obj
 0001:00014ec0       ?ScreenToClient@CWindow@ATL@@QBEHPAUtagRECT@@@Z 7c645ec0 f i stdafx.obj
 0001:00014f30       ?OnInPlaceActivateEx@CAxHostWindow@ATL@@UAGJPAHK@Z 7c645f30 f i stdafx.obj
 0001:000150c0       ?OnInPlaceDeactivateEx@CAxHostWindow@ATL@@UAGJH@Z 7c6460c0 f i stdafx.obj
 0001:000150f0       ?RequestUIActivate@CAxHostWindow@ATL@@UAGJXZ 7c6460f0 f i stdafx.obj
 0001:00015100       ?CanWindowlessActivate@CAxHostWindow@ATL@@UAGJXZ 7c646100 f i stdafx.obj
 0001:00015120       ?GetCapture@CAxHostWindow@ATL@@UAGJXZ 7c646120 f i stdafx.obj
 0001:00015140       ?SetCapture@CAxHostWindow@ATL@@UAGJH@Z 7c646140 f i stdafx.obj
 0001:00015190       ?SetCapture@CWindow@ATL@@QAEPAUHWND__@@XZ 7c646190 f i stdafx.obj
 0001:000151e0       ?GetFocus@CAxHostWindow@ATL@@UAGJXZ 7c6461e0 f i stdafx.obj
 0001:00015200       ?SetFocus@CAxHostWindow@ATL@@UAGJH@Z 7c646200 f i stdafx.obj
 0001:00015230       ?GetDC@CAxHostWindow@ATL@@UAGJPBUtagRECT@@KPAPAUHDC__@@@Z 7c646230 f i stdafx.obj
 0001:00015360       ?ReleaseDC@CAxHostWindow@ATL@@UAGJPAUHDC__@@@Z 7c646360 f i stdafx.obj
 0001:000153e0       ?InvalidateRect@CAxHostWindow@ATL@@UAGJPBUtagRECT@@H@Z 7c6463e0 f i stdafx.obj
 0001:00015400       ?InvalidateRect@CWindow@ATL@@QAEHPBUtagRECT@@H@Z 7c646400 f i stdafx.obj
 0001:00015460       ?InvalidateRgn@CAxHostWindow@ATL@@UAGJPAUHRGN__@@H@Z 7c646460 f i stdafx.obj
 0001:00015480       ?InvalidateRgn@CWindow@ATL@@QAEXPAUHRGN__@@H@Z 7c646480 f i stdafx.obj
 0001:000154e0       ?ScrollRect@CAxHostWindow@ATL@@UAGJHHPBUtagRECT@@0@Z 7c6464e0 f i stdafx.obj
 0001:000154f0       ?AdjustRect@CAxHostWindow@ATL@@UAGJPAUtagRECT@@@Z 7c6464f0 f i stdafx.obj
 0001:00015500       ?OnDefWindowMessage@CAxHostWindow@ATL@@UAGJIIJPAJ@Z 7c646500 f i stdafx.obj
 0001:00015530       ?OnControlInfoChanged@CAxHostWindow@ATL@@UAGJXZ 7c646530 f i stdafx.obj
 0001:00015540       ?LockInPlaceActive@CAxHostWindow@ATL@@UAGJH@Z 7c646540 f i stdafx.obj
 0001:00015550       ?GetExtendedControl@CAxHostWindow@ATL@@UAGJPAPAUIDispatch@@@Z 7c646550 f i stdafx.obj
 0001:00015580       ?TransformCoords@CAxHostWindow@ATL@@UAGJPAU_POINTL@@PAUtagPOINTF@@K@Z 7c646580 f i stdafx.obj
 0001:000155d0       ?TranslateAcceleratorA@CAxHostWindow@ATL@@UAGJPAUtagMSG@@K@Z 7c6465d0 f i stdafx.obj
 0001:000155e0       ?OnFocus@CAxHostWindow@ATL@@UAGJH@Z 7c6465e0 f i stdafx.obj
 0001:00015610       ?ShowPropertyFrame@CAxHostWindow@ATL@@UAGJXZ 7c646610 f i stdafx.obj
 0001:00015660       ?OnDataChange@CAxHostWindow@ATL@@UAGXPAUtagFORMATETC@@PAUtagSTGMEDIUM@@@Z 7c646660 f i stdafx.obj
 0001:00015670       ?OnViewChange@CAxHostWindow@ATL@@UAGXKJ@Z 7c646670 f i stdafx.obj
 0001:00015680       ?OnRename@CAxHostWindow@ATL@@UAGXPAUIMoniker@@@Z 7c646680 f i stdafx.obj
 0001:00015690       ?OnSave@CAxHostWindow@ATL@@UAGXXZ 7c646690 f i stdafx.obj
 0001:000156a0       ?OnClose@CAxHostWindow@ATL@@UAGXXZ 7c6466a0 f i stdafx.obj
 0001:000156b0       ?ParseDisplayName@CAxHostWindow@ATL@@UAGJPAUIBindCtx@@PA_WPAKPAPAUIMoniker@@@Z 7c6466b0 f i stdafx.obj
 0001:00015700       ?EnumObjects@CAxHostWindow@ATL@@UAGJKPAPAUIEnumUnknown@@@Z 7c646700 f i stdafx.obj
 0001:00015800       ?LockContainer@CAxHostWindow@ATL@@UAGJH@Z 7c646800 f i stdafx.obj
 0001:00015830       ?ActivateAx@CAxHostWindow@ATL@@QAEJPAUIUnknown@@_NPAUIStream@@@Z 7c646830 f i stdafx.obj
 0001:00015e50       ?SubclassWindow@CAxHostWindow@ATL@@QAEXPAUHWND__@@@Z 7c646e50 f i stdafx.obj
 0001:00015e90       ?ReleaseWindow@CAxHostWindow@ATL@@QAEXXZ 7c646e90 f i stdafx.obj
 0001:00015ee0       ?ReflectNotifications@CAxHostWindow@ATL@@QAEJIIJAAH@Z 7c646ee0 f i stdafx.obj
 0001:00016160       ?GetDlgItem@CWindow@ATL@@QBE?AV12@H@Z 7c647160 f i stdafx.obj
 0001:000161c0       ?QueryService@CAxHostWindow@ATL@@UAGJABU_GUID@@0PAPAX@Z 7c6471c0 f i stdafx.obj
 0001:00016260       ??0?$CWindowImpl@VCAxHostWindow@ATL@@VCWindow@2@V?$CWinTraits@$0FGAAAAAA@$0A@@2@@ATL@@QAE@XZ 7c647260 f i stdafx.obj
 0001:00016280       ??0IAxWinHostWindowLic@@QAE@XZ 7c647280 f i stdafx.obj
 0001:000162a0       ??0IOleClientSite@@QAE@XZ  7c6472a0 f i stdafx.obj
 0001:000162c0       ??0IOleInPlaceSiteWindowless@@QAE@XZ 7c6472c0 f i stdafx.obj
 0001:000162e0       ??0IOleControlSite@@QAE@XZ 7c6472e0 f i stdafx.obj
 0001:00016300       ??0IOleContainer@@QAE@XZ   7c647300 f i stdafx.obj
 0001:00016320       ??0?$IObjectWithSiteImpl@VCAxHostWindow@ATL@@@ATL@@QAE@XZ 7c647320 f i stdafx.obj
 0001:00016350       ??0IServiceProvider@@QAE@XZ 7c647350 f i stdafx.obj
 0001:00016370       ??0IAdviseSink@@QAE@XZ     7c647370 f i stdafx.obj
 0001:00016390       ??0IDocHostUIHandler@@QAE@XZ 7c647390 f i stdafx.obj
 0001:000163b0       ??1?$CComQIPtr@UIOleInPlaceActiveObject@@$1?_GUID_00000117_0000_0000_c000_000000000046@@3U__s_GUID@@B@ATL@@QAE@XZ 7c6473b0 f i stdafx.obj
 0001:000163d0       ??1?$CComPtr@UIOleInPlaceActiveObject@@@ATL@@QAE@XZ 7c6473d0 f i stdafx.obj
 0001:000163f0       ??1?$CComPtr@UIOleClientSite@@@ATL@@QAE@XZ 7c6473f0 f i stdafx.obj
 0001:00016410       ??1?$CComPtr@UIPersistStreamInit@@@ATL@@QAE@XZ 7c647410 f i stdafx.obj
 0001:00016430       ??1?$CComPtr@UIWebBrowser2@@@ATL@@QAE@XZ 7c647430 f i stdafx.obj
 0001:00016450       ??1?$CComQIPtr@UIOleControl@@$1?_GUID_b196b288_bab4_101a_b69c_00aa00341d07@@3U__s_GUID@@B@ATL@@QAE@XZ 7c647450 f i stdafx.obj
 0001:00016470       ??1?$CComQIPtr@UIOleClientSite@@$1?_GUID_00000118_0000_0000_c000_000000000046@@3U__s_GUID@@B@ATL@@QAE@XZ 7c647470 f i stdafx.obj
 0001:00016490       ??1?$CComQIPtr@UIPersistStreamInit@@$1?_GUID_7fd52380_4e07_101b_ae2d_08002b2ec713@@3U__s_GUID@@B@ATL@@QAE@XZ 7c647490 f i stdafx.obj
 0001:000164b0       ??1?$CComQIPtr@UIPersistStream@@$1?_GUID_00000109_0000_0000_c000_000000000046@@3U__s_GUID@@B@ATL@@QAE@XZ 7c6474b0 f i stdafx.obj
 0001:000164d0       ??1?$CComQIPtr@UIAdviseSink@@$1?_GUID_0000010f_0000_0000_c000_000000000046@@3U__s_GUID@@B@ATL@@QAE@XZ 7c6474d0 f i stdafx.obj
 0001:000164f0       ??0IAxWinHostWindow@@QAE@XZ 7c6474f0 f i stdafx.obj
 0001:00016510       ??0IOleInPlaceSiteEx@@QAE@XZ 7c647510 f i stdafx.obj
 0001:00016530       ??0IParseDisplayName@@QAE@XZ 7c647530 f i stdafx.obj
 0001:00016550       ??0IObjectWithSite@@QAE@XZ 7c647550 f i stdafx.obj
 0001:00016570       ??1?$CComPtr@UIOleControl@@@ATL@@QAE@XZ 7c647570 f i stdafx.obj
 0001:00016590       ??1?$CComPtr@UIAdviseSink@@@ATL@@QAE@XZ 7c647590 f i stdafx.obj
 0001:000165b0       ??0IOleInPlaceSite@@QAE@XZ 7c6475b0 f i stdafx.obj
 0001:000165d0       ??0IOleWindow@@QAE@XZ      7c6475d0 f i stdafx.obj
 0001:000165f0       ??B?$CComPtrBase@UIDispatch@@@ATL@@QBEPAUIDispatch@@XZ 7c6475f0 f i stdafx.obj
 0001:00016600       ??9?$CComPtrBase@UIDispatch@@@ATL@@QBE_NPAUIDispatch@@@Z 7c647600 f i stdafx.obj
 0001:00016630       ?CopyTo@?$CComPtrBase@UIDispatch@@@ATL@@QAEJPAPAUIDispatch@@@Z 7c647630 f i stdafx.obj
 0001:000166a0       ??0?$CComPtr@UIUnknown@@@ATL@@QAE@PAUIUnknown@@@Z 7c6476a0 f i stdafx.obj
 0001:000166c0       ??4?$CComPtr@UIUnknown@@@ATL@@QAEPAUIUnknown@@PAU2@@Z 7c6476c0 f i stdafx.obj
 0001:00016700       ??C?$CComPtrBase@UIPersistStream@@@ATL@@QBEPAV?$_NoAddRefReleaseOnCComPtr@UIPersistStream@@@1@XZ 7c647700 f i stdafx.obj
 0001:00016740       ??0?$CComPtr@UIClassFactory2@@@ATL@@QAE@XZ 7c647740 f i stdafx.obj
 0001:00016760       ??1?$CComPtrBase@UIClassFactory2@@@ATL@@QAE@XZ 7c647760 f i stdafx.obj
 0001:00016790       ??I?$CComPtrBase@UIClassFactory2@@@ATL@@QAEPAPAUIClassFactory2@@XZ 7c647790 f i stdafx.obj
 0001:000167d0       ??C?$CComPtrBase@UIClassFactory2@@@ATL@@QBEPAV?$_NoAddRefReleaseOnCComPtr@UIClassFactory2@@@1@XZ 7c6477d0 f i stdafx.obj
 0001:00016810       ??0?$CWindowImplBaseT@VCWindow@ATL@@V?$CWinTraits@$0FGAAAAAA@$0A@@2@@ATL@@QAE@XZ 7c647810 f i stdafx.obj
 0001:00016840       ?GetWindowProc@?$CWindowImplBaseT@VCWindow@ATL@@V?$CWinTraits@$0FGAAAAAA@$0A@@2@@ATL@@UAEP6GJPAUHWND__@@IIJ@ZXZ 7c647840 f i stdafx.obj
 0001:00016850       ?DestroyWindow@?$CWindowImplBaseT@VCWindow@ATL@@V?$CWinTraits@$0FGAAAAAA@$0A@@2@@ATL@@QAEHXZ 7c647850 f i stdafx.obj
 0001:000168a0       ?DefWindowProcA@?$CWindowImplBaseT@VCWindow@ATL@@V?$CWinTraits@$0FGAAAAAA@$0A@@2@@ATL@@QAEJXZ 7c6478a0 f i stdafx.obj
 0001:000168f0       ?DefWindowProcA@?$CWindowImplBaseT@VCWindow@ATL@@V?$CWinTraits@$0FGAAAAAA@$0A@@2@@ATL@@QAEJIIJ@Z 7c6478f0 f i stdafx.obj
 0001:00016920       ??1?$CComPtrBase@UIOleInPlaceActiveObject@@@ATL@@QAE@XZ 7c647920 f i stdafx.obj
 0001:00016950       ??B?$CComPtrBase@UIOleInPlaceActiveObject@@@ATL@@QBEPAUIOleInPlaceActiveObject@@XZ 7c647950 f i stdafx.obj
 0001:00016960       ??C?$CComPtrBase@UIOleInPlaceActiveObject@@@ATL@@QBEPAV?$_NoAddRefReleaseOnCComPtr@UIOleInPlaceActiveObject@@@1@XZ 7c647960 f i stdafx.obj
 0001:000169a0       ?SetSite@?$IObjectWithSiteImpl@VCAxHostWindow@ATL@@@ATL@@UAGJPAUIUnknown@@@Z 7c6479a0 f i stdafx.obj
 0001:00016a10       ?GetSite@?$IObjectWithSiteImpl@VCAxHostWindow@ATL@@@ATL@@UAGJABU_GUID@@PAPAX@Z 7c647a10 f i stdafx.obj
 0001:00016af0       ?GetTypeInfoCount@?$IDispatchImpl@UIAxWinAmbientDispatchEx@@$1?_GUID_b2d0778b_ac99_4c58_a5c8_e7724e5316b5@@3U__s_GUID@@B$1?m_libid@CAtlModule@ATL@@2U_GUID@@A$0PPPP@$0PPPP@VCComTypeInfoHolder@ATL@@@ATL@@UAGJPAI@Z 7c647af0 f i stdafx.obj
 0001:00016b10       ?GetTypeInfo@?$IDispatchImpl@UIAxWinAmbientDispatchEx@@$1?_GUID_b2d0778b_ac99_4c58_a5c8_e7724e5316b5@@3U__s_GUID@@B$1?m_libid@CAtlModule@ATL@@2U_GUID@@A$0PPPP@$0PPPP@VCComTypeInfoHolder@ATL@@@ATL@@UAGJIKPAPAUITypeInfo@@@Z 7c647b10 f i stdafx.obj
 0001:00016b30       ?GetTypeInfo@CComTypeInfoHolder@ATL@@QAEJIKPAPAUITypeInfo@@@Z 7c647b30 f i stdafx.obj
 0001:00016b50       ?GetTI@CComTypeInfoHolder@ATL@@QAEJKPAPAUITypeInfo@@@Z 7c647b50 f i stdafx.obj
 0001:00016bf0       ?GetTI@CComTypeInfoHolder@ATL@@QAEJK@Z 7c647bf0 f i stdafx.obj
 0001:00017490       ?LoadNameCache@CComTypeInfoHolder@ATL@@QAEJPAUITypeInfo@@@Z 7c648490 f i stdafx.obj
 0001:00017680       ??0stringdispid@CComTypeInfoHolder@ATL@@QAE@XZ 7c648680 f i stdafx.obj
 0001:000176b0       ??1?$CComPtr@UITypeInfo2@@@ATL@@QAE@XZ 7c6486b0 f i stdafx.obj
 0001:000176d0       ??0?$CComPtr@UITypeInfo@@@ATL@@QAE@ABV01@@Z 7c6486d0 f i stdafx.obj
 0001:000176f0       ?Detach@?$CComPtrBase@UITypeInfo@@@ATL@@QAEPAUITypeInfo@@XZ 7c6486f0 f i stdafx.obj
 0001:00017720       ??0?$CComPtr@UITypeInfo2@@@ATL@@QAE@XZ 7c648720 f i stdafx.obj
 0001:00017740       ??1?$CComPtrBase@UITypeInfo2@@@ATL@@QAE@XZ 7c648740 f i stdafx.obj
 0001:00017770       ??I?$CComPtrBase@UITypeInfo2@@@ATL@@QAEPAPAUITypeInfo2@@XZ 7c648770 f i stdafx.obj
 0001:000177b0       ?GetIDsOfNames@?$IDispatchImpl@UIAxWinAmbientDispatchEx@@$1?_GUID_b2d0778b_ac99_4c58_a5c8_e7724e5316b5@@3U__s_GUID@@B$1?m_libid@CAtlModule@ATL@@2U_GUID@@A$0PPPP@$0PPPP@VCComTypeInfoHolder@ATL@@@ATL@@UAGJABU_GUID@@PAPA_WIKPAJ@Z 7c6487b0 f i stdafx.obj
 0001:000177e0       ?GetIDsOfNames@CComTypeInfoHolder@ATL@@QAEJABU_GUID@@PAPA_WIKPAJ@Z 7c6487e0 f i stdafx.obj
 0001:000178f0       ?EnsureTI@CComTypeInfoHolder@ATL@@QAEJK@Z 7c6488f0 f i stdafx.obj
 0001:00017930       ?Invoke@?$IDispatchImpl@UIAxWinAmbientDispatchEx@@$1?_GUID_b2d0778b_ac99_4c58_a5c8_e7724e5316b5@@3U__s_GUID@@B$1?m_libid@CAtlModule@ATL@@2U_GUID@@A$0PPPP@$0PPPP@VCComTypeInfoHolder@ATL@@@ATL@@UAGJJABU_GUID@@KGPAUtagDISPPARAMS@@PAUtagVARIANT@@PAUtagEXCEPINFO@@PAI@Z 7c648930 f i stdafx.obj
 0001:00017970       ?Invoke@CComTypeInfoHolder@ATL@@QAEJPAUIDispatch@@JABU_GUID@@KGPAUtagDISPPARAMS@@PAUtagVARIANT@@PAUtagEXCEPINFO@@PAI@Z 7c648970 f i stdafx.obj
 0001:000179d0       ??0?$IDispatchImpl@UIAxWinAmbientDispatchEx@@$1?_GUID_b2d0778b_ac99_4c58_a5c8_e7724e5316b5@@3U__s_GUID@@B$1?m_libid@CAtlModule@ATL@@2U_GUID@@A$0PPPP@$0PPPP@VCComTypeInfoHolder@ATL@@@ATL@@QAE@XZ 7c6489d0 f i stdafx.obj
 0001:00017a10       ??0CComTypeInfoHolder@ATL@@QAE@PBU_GUID@@0GG@Z 7c648a10 f i stdafx.obj
 0001:00017a70       ??0?$CComPtr@UIOleObject@@@ATL@@QAE@XZ 7c648a70 f i stdafx.obj
 0001:00017a90       ??I?$CComPtrBase@UIOleObject@@@ATL@@QAEPAPAUIOleObject@@XZ 7c648a90 f i stdafx.obj
 0001:00017ad0       ??9?$CComPtrBase@UIOleObject@@@ATL@@QBE_NPAUIOleObject@@@Z 7c648ad0 f i stdafx.obj
 0001:00017b00       ??8?$CComPtrBase@UIOleObject@@@ATL@@QBE_NPAUIOleObject@@@Z 7c648b00 f i stdafx.obj
 0001:00017b20       ??0?$CComPtr@UIOleInPlaceFrame@@@ATL@@QAE@XZ 7c648b20 f i stdafx.obj
 0001:00017b40       ??I?$CComPtrBase@UIOleInPlaceFrame@@@ATL@@QAEPAPAUIOleInPlaceFrame@@XZ 7c648b40 f i stdafx.obj
 0001:00017b80       ??7?$CComPtrBase@UIOleInPlaceFrame@@@ATL@@QBE_NXZ 7c648b80 f i stdafx.obj
 0001:00017ba0       ?CopyTo@?$CComPtrBase@UIOleInPlaceFrame@@@ATL@@QAEJPAPAUIOleInPlaceFrame@@@Z 7c648ba0 f i stdafx.obj
 0001:00017c10       ??0?$CComPtr@UIOleInPlaceUIWindow@@@ATL@@QAE@XZ 7c648c10 f i stdafx.obj
 0001:00017c30       ??I?$CComPtrBase@UIOleInPlaceUIWindow@@@ATL@@QAEPAPAUIOleInPlaceUIWindow@@XZ 7c648c30 f i stdafx.obj
 0001:00017c70       ??7?$CComPtrBase@UIOleInPlaceUIWindow@@@ATL@@QBE_NXZ 7c648c70 f i stdafx.obj
 0001:00017c90       ?CopyTo@?$CComPtrBase@UIOleInPlaceUIWindow@@@ATL@@QAEJPAPAUIOleInPlaceUIWindow@@@Z 7c648c90 f i stdafx.obj
 0001:00017d00       ??0?$CComPtr@UIViewObjectEx@@@ATL@@QAE@XZ 7c648d00 f i stdafx.obj
 0001:00017d20       ??B?$CComPtrBase@UIViewObjectEx@@@ATL@@QBEPAUIViewObjectEx@@XZ 7c648d20 f i stdafx.obj
 0001:00017d30       ??I?$CComPtrBase@UIViewObjectEx@@@ATL@@QAEPAPAUIViewObjectEx@@XZ 7c648d30 f i stdafx.obj
 0001:00017d70       ??0?$CComPtr@UIOleInPlaceObjectWindowless@@@ATL@@QAE@XZ 7c648d70 f i stdafx.obj
 0001:00017d90       ??B?$CComPtrBase@UIOleInPlaceObjectWindowless@@@ATL@@QBEPAUIOleInPlaceObjectWindowless@@XZ 7c648d90 f i stdafx.obj
 0001:00017da0       ??I?$CComPtrBase@UIOleInPlaceObjectWindowless@@@ATL@@QAEPAPAUIOleInPlaceObjectWindowless@@XZ 7c648da0 f i stdafx.obj
 0001:00017de0       ??C?$CComPtrBase@UIOleInPlaceObjectWindowless@@@ATL@@QBEPAV?$_NoAddRefReleaseOnCComPtr@UIOleInPlaceObjectWindowless@@@1@XZ 7c648de0 f i stdafx.obj
 0001:00017e20       ??8?$CComPtrBase@UIOleInPlaceObjectWindowless@@@ATL@@QBE_NPAUIOleInPlaceObjectWindowless@@@Z 7c648e20 f i stdafx.obj
 0001:00017e40       ??0?$CComPtr@UIDocHostUIHandlerDispatch@@@ATL@@QAE@XZ 7c648e40 f i stdafx.obj
 0001:00017e60       ??4?$CComPtr@UIDocHostUIHandlerDispatch@@@ATL@@QAEPAUIDocHostUIHandlerDispatch@@PAU2@@Z 7c648e60 f i stdafx.obj
 0001:00017ea0       ??C?$CComPtrBase@UIDocHostUIHandlerDispatch@@@ATL@@QBEPAV?$_NoAddRefReleaseOnCComPtr@UIDocHostUIHandlerDispatch@@@1@XZ 7c648ea0 f i stdafx.obj
 0001:00017ee0       ??9?$CComPtrBase@UIDocHostUIHandlerDispatch@@@ATL@@QBE_NPAUIDocHostUIHandlerDispatch@@@Z 7c648ee0 f i stdafx.obj
 0001:00017f10       ??0?$CComPtr@UIFontDisp@@@ATL@@QAE@XZ 7c648f10 f i stdafx.obj
 0001:00017f30       ??4?$CComPtr@UIFontDisp@@@ATL@@QAEPAUIFontDisp@@PAU2@@Z 7c648f30 f i stdafx.obj
 0001:00017f70       ??I?$CComPtrBase@UIFontDisp@@@ATL@@QAEPAPAUIFontDisp@@XZ 7c648f70 f i stdafx.obj
 0001:00017fb0       ??8?$CComPtrBase@UIFontDisp@@@ATL@@QBE_NPAUIFontDisp@@@Z 7c648fb0 f i stdafx.obj
 0001:00017fd0       ?CopyTo@?$CComPtrBase@UIFontDisp@@@ATL@@QAEJPAPAUIFontDisp@@@Z 7c648fd0 f i stdafx.obj
 0001:00018040       ??0?$CComPtr@UIServiceProvider@@@ATL@@QAE@XZ 7c649040 f i stdafx.obj
 0001:00018060       ??B?$CComPtrBase@UIServiceProvider@@@ATL@@QBEPAUIServiceProvider@@XZ 7c649060 f i stdafx.obj
 0001:00018070       ??I?$CComPtrBase@UIServiceProvider@@@ATL@@QAEPAPAUIServiceProvider@@XZ 7c649070 f i stdafx.obj
 0001:000180b0       ??C?$CComPtrBase@UIServiceProvider@@@ATL@@QBEPAV?$_NoAddRefReleaseOnCComPtr@UIServiceProvider@@@1@XZ 7c6490b0 f i stdafx.obj
 0001:000180f0       ?Release@?$CComPtrBase@UIServiceProvider@@@ATL@@QAEXXZ 7c6490f0 f i stdafx.obj
 0001:00018130       ??0?$CComQIPtr@UIOleInPlaceActiveObject@@$1?_GUID_00000117_0000_0000_c000_000000000046@@3U__s_GUID@@B@ATL@@QAE@PAUIUnknown@@@Z 7c649130 f i stdafx.obj
 0001:00018170       ??0?$CComPtr@UIOleInPlaceActiveObject@@@ATL@@QAE@XZ 7c649170 f i stdafx.obj
 0001:00018190       ??0?$CComPtr@UIOleClientSite@@@ATL@@QAE@XZ 7c649190 f i stdafx.obj
 0001:000181b0       ??1?$CComPtrBase@UIOleClientSite@@@ATL@@QAE@XZ 7c6491b0 f i stdafx.obj
 0001:000181e0       ??B?$CComPtrBase@UIOleClientSite@@@ATL@@QBEPAUIOleClientSite@@XZ 7c6491e0 f i stdafx.obj
 0001:000181f0       ??I?$CComPtrBase@UIOleClientSite@@@ATL@@QAEPAPAUIOleClientSite@@XZ 7c6491f0 f i stdafx.obj
 0001:00018230       ??9?$CComPtrBase@UIOleClientSite@@@ATL@@QBE_NPAUIOleClientSite@@@Z 7c649230 f i stdafx.obj
 0001:00018260       ??8?$CComPtrBase@UIOleClientSite@@@ATL@@QBE_NPAUIOleClientSite@@@Z 7c649260 f i stdafx.obj
 0001:00018280       ??0?$CComPtr@UIPersistStreamInit@@@ATL@@QAE@XZ 7c649280 f i stdafx.obj
 0001:000182a0       ??1?$CComPtrBase@UIPersistStreamInit@@@ATL@@QAE@XZ 7c6492a0 f i stdafx.obj
 0001:000182d0       ??B?$CComPtrBase@UIPersistStreamInit@@@ATL@@QBEPAUIPersistStreamInit@@XZ 7c6492d0 f i stdafx.obj
 0001:000182e0       ??I?$CComPtrBase@UIPersistStreamInit@@@ATL@@QAEPAPAUIPersistStreamInit@@XZ 7c6492e0 f i stdafx.obj
 0001:00018320       ??C?$CComPtrBase@UIPersistStreamInit@@@ATL@@QBEPAV?$_NoAddRefReleaseOnCComPtr@UIPersistStreamInit@@@1@XZ 7c649320 f i stdafx.obj
 0001:00018360       ??0?$CComPtr@UIWebBrowser2@@@ATL@@QAE@XZ 7c649360 f i stdafx.obj
 0001:00018380       ??1?$CComPtrBase@UIWebBrowser2@@@ATL@@QAE@XZ 7c649380 f i stdafx.obj
 0001:000183b0       ??B?$CComPtrBase@UIWebBrowser2@@@ATL@@QBEPAUIWebBrowser2@@XZ 7c6493b0 f i stdafx.obj
 0001:000183c0       ??I?$CComPtrBase@UIWebBrowser2@@@ATL@@QAEPAPAUIWebBrowser2@@XZ 7c6493c0 f i stdafx.obj
 0001:00018400       ??C?$CComPtrBase@UIWebBrowser2@@@ATL@@QBEPAV?$_NoAddRefReleaseOnCComPtr@UIWebBrowser2@@@1@XZ 7c649400 f i stdafx.obj
 0001:00018440       ??0?$CComQIPtr@UIOleControl@@$1?_GUID_b196b288_bab4_101a_b69c_00aa00341d07@@3U__s_GUID@@B@ATL@@QAE@PAUIUnknown@@@Z 7c649440 f i stdafx.obj
 0001:00018480       ??1?$CComPtrBase@UIOleControl@@@ATL@@QAE@XZ 7c649480 f i stdafx.obj
 0001:000184b0       ??C?$CComPtrBase@UIOleControl@@@ATL@@QBEPAV?$_NoAddRefReleaseOnCComPtr@UIOleControl@@@1@XZ 7c6494b0 f i stdafx.obj
 0001:000184f0       ??9?$CComPtrBase@UIOleControl@@@ATL@@QBE_NPAUIOleControl@@@Z 7c6494f0 f i stdafx.obj
 0001:00018520       ??0?$CComObject@V?$CComEnum@UIEnumUnknown@@$1?_GUID_00000100_0000_0000_c000_000000000046@@3U__s_GUID@@BPAUIUnknown@@V?$_CopyInterface@UIUnknown@@@ATL@@VCComMultiThreadModel@6@@ATL@@@ATL@@QAE@PAX@Z 7c649520 f i stdafx.obj
 0001:00018560       ?AddRef@?$CComObject@V?$CComEnum@UIEnumUnknown@@$1?_GUID_00000100_0000_0000_c000_000000000046@@3U__s_GUID@@BPAUIUnknown@@V?$_CopyInterface@UIUnknown@@@ATL@@VCComMultiThreadModel@6@@ATL@@@ATL@@UAGKXZ 7c649560 f i stdafx.obj
 0001:00018580       ?Release@?$CComObject@V?$CComEnum@UIEnumUnknown@@$1?_GUID_00000100_0000_0000_c000_000000000046@@3U__s_GUID@@BPAUIUnknown@@V?$_CopyInterface@UIUnknown@@@ATL@@VCComMultiThreadModel@6@@ATL@@@ATL@@UAGKXZ 7c649580 f i stdafx.obj
 0001:000185d0       ?QueryInterface@?$CComObject@V?$CComEnum@UIEnumUnknown@@$1?_GUID_00000100_0000_0000_c000_000000000046@@3U__s_GUID@@BPAUIUnknown@@V?$_CopyInterface@UIUnknown@@@ATL@@VCComMultiThreadModel@6@@ATL@@@ATL@@UAGJABU_GUID@@PAPAX@Z 7c6495d0 f i stdafx.obj
 0001:000185f0       ?Reset@?$CComEnumImpl@UIEnumUnknown@@$1?_GUID_00000100_0000_0000_c000_000000000046@@3U__s_GUID@@BPAUIUnknown@@V?$_CopyInterface@UIUnknown@@@ATL@@@ATL@@UAGJXZ 7c6495f0 f i stdafx.obj
 0001:00018610       ??0?$CComQIPtr@UIOleClientSite@@$1?_GUID_00000118_0000_0000_c000_000000000046@@3U__s_GUID@@B@ATL@@QAE@PAUIUnknown@@@Z 7c649610 f i stdafx.obj
 0001:00018650       ??0?$CComQIPtr@UIPersistStreamInit@@$1?_GUID_7fd52380_4e07_101b_ae2d_08002b2ec713@@3U__s_GUID@@B@ATL@@QAE@PAUIUnknown@@@Z 7c649650 f i stdafx.obj
 0001:00018690       ??0?$CComQIPtr@UIPersistStream@@$1?_GUID_00000109_0000_0000_c000_000000000046@@3U__s_GUID@@B@ATL@@QAE@PAUIUnknown@@@Z 7c649690 f i stdafx.obj
 0001:000186d0       ??0?$CComQIPtr@UIAdviseSink@@$1?_GUID_0000010f_0000_0000_c000_000000000046@@3U__s_GUID@@B@ATL@@QAE@PAUIUnknown@@@Z 7c6496d0 f i stdafx.obj
 0001:00018710       ??0?$CComPtr@UIAdviseSink@@@ATL@@QAE@XZ 7c649710 f i stdafx.obj
 0001:00018730       ??1?$CComPtrBase@UIAdviseSink@@@ATL@@QAE@XZ 7c649730 f i stdafx.obj
 0001:00018760       ??B?$CComPtrBase@UIAdviseSink@@@ATL@@QBEPAUIAdviseSink@@XZ 7c649760 f i stdafx.obj
 0001:00018770       ??0IAxWinAmbientDispatchEx@@QAE@XZ 7c649770 f i stdafx.obj
 0001:00018790       ??_G?$CComObject@V?$CComEnum@UIEnumUnknown@@$1?_GUID_00000100_0000_0000_c000_000000000046@@3U__s_GUID@@BPAUIUnknown@@V?$_CopyInterface@UIUnknown@@@ATL@@VCComMultiThreadModel@6@@ATL@@@ATL@@UAEPAXI@Z 7c649790 f i stdafx.obj
 0001:00018790       ??_E?$CComObject@V?$CComEnum@UIEnumUnknown@@$1?_GUID_00000100_0000_0000_c000_000000000046@@3U__s_GUID@@BPAUIUnknown@@V?$_CopyInterface@UIUnknown@@@ATL@@VCComMultiThreadModel@6@@ATL@@@ATL@@UAEPAXI@Z 7c649790 f i stdafx.obj
 0001:000187c0       ??1?$CComObject@V?$CComEnum@UIEnumUnknown@@$1?_GUID_00000100_0000_0000_c000_000000000046@@3U__s_GUID@@BPAUIUnknown@@V?$_CopyInterface@UIUnknown@@@ATL@@VCComMultiThreadModel@6@@ATL@@@ATL@@UAE@XZ 7c6497c0 f i stdafx.obj
 0001:00018810       ??0?$CComEnum@UIEnumUnknown@@$1?_GUID_00000100_0000_0000_c000_000000000046@@3U__s_GUID@@BPAUIUnknown@@V?$_CopyInterface@UIUnknown@@@ATL@@VCComMultiThreadModel@6@@ATL@@QAE@XZ 7c649810 f i stdafx.obj
 0001:00018840       ??1?$CComEnum@UIEnumUnknown@@$1?_GUID_00000100_0000_0000_c000_000000000046@@3U__s_GUID@@BPAUIUnknown@@V?$_CopyInterface@UIUnknown@@@ATL@@VCComMultiThreadModel@6@@ATL@@UAE@XZ 7c649840 f i stdafx.obj
 0001:00018880       ??0IAxWinAmbientDispatch@@QAE@XZ 7c649880 f i stdafx.obj
 0001:000188a0       ??0IDispatch@@QAE@XZ       7c6498a0 f i stdafx.obj
 0001:000188c0       ??8?$CComPtrBase@UIDispatch@@@ATL@@QBE_NPAUIDispatch@@@Z 7c6498c0 f i stdafx.obj
 0001:000188e0       ??0?$CComPtrBase@UIUnknown@@@ATL@@IAE@PAUIUnknown@@@Z 7c6498e0 f i stdafx.obj
 0001:00018920       ??0?$CComPtrBase@UITypeInfo@@@ATL@@IAE@PAUITypeInfo@@@Z 7c649920 f i stdafx.obj
 0001:00018960       ??0?$CComPtrBase@UITypeInfo2@@@ATL@@IAE@XZ 7c649960 f i stdafx.obj
 0001:00018980       ??0?$CWindowImplRoot@VCWindow@ATL@@@ATL@@QAE@XZ 7c649980 f i stdafx.obj
 0001:000189d0       ??0?$CComPtrBase@UIClassFactory2@@@ATL@@IAE@XZ 7c6499d0 f i stdafx.obj
 0001:000189f0       ??0?$CComPtrBase@UIOleInPlaceActiveObject@@@ATL@@IAE@XZ 7c6499f0 f i stdafx.obj
 0001:00018a10       ??0?$CComPtrBase@UIOleObject@@@ATL@@IAE@XZ 7c649a10 f i stdafx.obj
 0001:00018a30       ??0?$CComPtrBase@UIOleInPlaceFrame@@@ATL@@IAE@XZ 7c649a30 f i stdafx.obj
 0001:00018a50       ??0?$CComPtrBase@UIOleInPlaceUIWindow@@@ATL@@IAE@XZ 7c649a50 f i stdafx.obj
 0001:00018a70       ??0?$CComPtrBase@UIViewObjectEx@@@ATL@@IAE@XZ 7c649a70 f i stdafx.obj
 0001:00018a90       ??0?$CComPtrBase@UIOleInPlaceObjectWindowless@@@ATL@@IAE@XZ 7c649a90 f i stdafx.obj
 0001:00018ab0       ??0?$CComPtrBase@UIDocHostUIHandlerDispatch@@@ATL@@IAE@XZ 7c649ab0 f i stdafx.obj
 0001:00018ad0       ??B?$CComPtrBase@UIDocHostUIHandlerDispatch@@@ATL@@QBEPAUIDocHostUIHandlerDispatch@@XZ 7c649ad0 f i stdafx.obj
 0001:00018ae0       ??8?$CComPtrBase@UIDocHostUIHandlerDispatch@@@ATL@@QBE_NPAUIDocHostUIHandlerDispatch@@@Z 7c649ae0 f i stdafx.obj
 0001:00018b00       ??0?$CComPtrBase@UIFontDisp@@@ATL@@IAE@XZ 7c649b00 f i stdafx.obj
 0001:00018b20       ??B?$CComPtrBase@UIFontDisp@@@ATL@@QBEPAUIFontDisp@@XZ 7c649b20 f i stdafx.obj
 0001:00018b30       ??9?$CComPtrBase@UIFontDisp@@@ATL@@QBE_NPAUIFontDisp@@@Z 7c649b30 f i stdafx.obj
 0001:00018b60       ??0?$CComPtrBase@UIServiceProvider@@@ATL@@IAE@XZ 7c649b60 f i stdafx.obj
 0001:00018b80       ??0?$CComPtrBase@UIOleClientSite@@@ATL@@IAE@XZ 7c649b80 f i stdafx.obj
 0001:00018ba0       ??0?$CComPtrBase@UIPersistStreamInit@@@ATL@@IAE@XZ 7c649ba0 f i stdafx.obj
 0001:00018bc0       ??0?$CComPtrBase@UIWebBrowser2@@@ATL@@IAE@XZ 7c649bc0 f i stdafx.obj
 0001:00018be0       ??0?$CComPtr@UIOleControl@@@ATL@@QAE@XZ 7c649be0 f i stdafx.obj
 0001:00018c00       ??8?$CComPtrBase@UIOleControl@@@ATL@@QBE_NPAUIOleControl@@@Z 7c649c00 f i stdafx.obj
 0001:00018c20       ?_InternalQueryInterface@?$CComEnum@UIEnumUnknown@@$1?_GUID_00000100_0000_0000_c000_000000000046@@3U__s_GUID@@BPAUIUnknown@@V?$_CopyInterface@UIUnknown@@@ATL@@VCComMultiThreadModel@6@@ATL@@QAEJABU_GUID@@PAPAX@Z 7c649c20 f i stdafx.obj
 0001:00018c50       ??0?$CComEnumImpl@UIEnumUnknown@@$1?_GUID_00000100_0000_0000_c000_000000000046@@3U__s_GUID@@BPAUIUnknown@@V?$_CopyInterface@UIUnknown@@@ATL@@@ATL@@QAE@XZ 7c649c50 f i stdafx.obj
 0001:00018ca0       ??0?$CComPtrBase@UIAdviseSink@@@ATL@@IAE@XZ 7c649ca0 f i stdafx.obj
 0001:00018cc0       ?AddRef@?$CComContainedObject@VCAxHostWindow@ATL@@@ATL@@UAGKXZ 7c649cc0 f i stdafx.obj
 0001:00018ce0       ?OuterAddRef@CComObjectRootBase@ATL@@QAEKXZ 7c649ce0 f i stdafx.obj
 0001:00018d00       ?Release@?$CComContainedObject@VCAxHostWindow@ATL@@@ATL@@UAGKXZ 7c649d00 f i stdafx.obj
 0001:00018d20       ?OuterRelease@CComObjectRootBase@ATL@@QAEKXZ 7c649d20 f i stdafx.obj
 0001:00018d40       ?QueryInterface@?$CComContainedObject@VCAxHostWindow@ATL@@@ATL@@UAGJABU_GUID@@PAPAX@Z 7c649d40 f i stdafx.obj
 0001:00018d60       ?OuterQueryInterface@CComObjectRootBase@ATL@@QAEJABU_GUID@@PAPAX@Z 7c649d60 f i stdafx.obj
 0001:00018d90       ?GetControllingUnknown@?$CComContainedObject@VCAxHostWindow@ATL@@@ATL@@UAEPAUIUnknown@@XZ 7c649d90 f i stdafx.obj
 0001:00018db0       ??0CMessageMap@ATL@@QAE@XZ 7c649db0 f i stdafx.obj
 0001:00018dc0       ??0CWndProcThunk@ATL@@QAE@XZ 7c649dc0 f i stdafx.obj
 0001:00018de0       ??0CDynamicStdCallThunk@ATL@@QAE@XZ 7c649de0 f i stdafx.obj
 0001:00018e00       ??0IEnumUnknown@@QAE@XZ    7c649e00 f i stdafx.obj
 0001:00018e20       ??0?$CComPtrBase@UIOleControl@@@ATL@@IAE@XZ 7c649e20 f i stdafx.obj
 0001:00018e40       ?_GetEntries@?$CComEnum@UIEnumUnknown@@$1?_GUID_00000100_0000_0000_c000_000000000046@@3U__s_GUID@@BPAUIUnknown@@V?$_CopyInterface@UIUnknown@@@ATL@@VCComMultiThreadModel@6@@ATL@@SGPBU_ATL_INTMAP_ENTRY@2@XZ 7c649e40 f i stdafx.obj
 0001:00018e50       ??_E?$CComContainedObject@VCAxHostWindow@ATL@@@ATL@@UAEPAXI@Z 7c649e50 f i stdafx.obj
 0001:00018e50       ??_G?$CComContainedObject@VCAxHostWindow@ATL@@@ATL@@UAEPAXI@Z 7c649e50 f i stdafx.obj
 0001:00018e80       ??$QueryInterface@UITypeInfo2@@@IUnknown@@QAGJPAPAUITypeInfo2@@@Z 7c649e80 f i stdafx.obj
 0001:00018ea0       ??$?4UITypeInfo2@@@?$CComPtr@UITypeInfo@@@ATL@@QAEPAUITypeInfo@@ABV?$CComPtr@UITypeInfo2@@@1@@Z 7c649ea0 f i stdafx.obj
 0001:00018ef0       ?IsEqualObject@?$CComPtrBase@UITypeInfo@@@ATL@@QAE_NPAUIUnknown@@@Z 7c649ef0 f i stdafx.obj
 0001:00018fa0       ??B?$CComPtrBase@UITypeInfo2@@@ATL@@QBEPAUITypeInfo2@@XZ 7c649fa0 f i stdafx.obj
 0001:00018fb0       ??B?$CComPtrBase@UITypeInfo@@@ATL@@QBEPAUITypeInfo@@XZ 7c649fb0 f i stdafx.obj
 0001:00018fc0       ?WindowProc@?$CWindowImplBaseT@VCWindow@ATL@@V?$CWinTraits@$0FGAAAAAA@$0A@@2@@ATL@@SGJPAUHWND__@@IIJ@Z 7c649fc0 f i stdafx.obj
 0001:00019160       ??0_ATL_MSG@ATL@@QAE@PAUHWND__@@IIJH@Z 7c64a160 f i stdafx.obj
 0001:000191d0       ?SubclassWindow@?$CWindowImplBaseT@VCWindow@ATL@@V?$CWinTraits@$0FGAAAAAA@$0A@@2@@ATL@@QAEHPAUHWND__@@@Z 7c64a1d0 f i stdafx.obj
 0001:000192b0       ?Init@CWndProcThunk@ATL@@QAEHP6GJPAUHWND__@@IIJ@ZPAX@Z 7c64a2b0 f i stdafx.obj
 0001:000192d0       ?Init@CDynamicStdCallThunk@ATL@@QAEHKPAX@Z 7c64a2d0 f i stdafx.obj
 0001:00019320       ?Init@_stdcallthunk@ATL@@QAEHKPAX@Z 7c64a320 f i stdafx.obj
 0001:00019370       ??2_stdcallthunk@ATL@@SAPAXI@Z 7c64a370 f i stdafx.obj
 0001:00019380       ?GetWNDPROC@CWndProcThunk@ATL@@QAEP6GJPAUHWND__@@IIJ@ZXZ 7c64a380 f i stdafx.obj
 0001:000193a0       ?GetCodeAddress@CDynamicStdCallThunk@ATL@@QAEPAXXZ 7c64a3a0 f i stdafx.obj
 0001:000193c0       ?GetCodeAddress@_stdcallthunk@ATL@@QAEPAXXZ 7c64a3c0 f i stdafx.obj
 0001:000193d0       ?UnsubclassWindow@?$CWindowImplBaseT@VCWindow@ATL@@V?$CWinTraits@$0FGAAAAAA@$0A@@2@@ATL@@QAEPAUHWND__@@H@Z 7c64a3d0 f i stdafx.obj
 0001:00019490       ?CreateInstance@?$CComObject@VCAxFrameWindow@ATL@@@ATL@@SGJPAPAV12@@Z 7c64a490 f i stdafx.obj
 0001:000195d0       ??0?$CComObject@VCAxFrameWindow@ATL@@@ATL@@QAE@PAX@Z 7c64a5d0 f i stdafx.obj
 0001:00019610       ??0CAxFrameWindow@ATL@@QAE@XZ 7c64a610 f i stdafx.obj
 0001:00019650       ?ProcessWindowMessage@CAxFrameWindow@ATL@@UAEHPAUHWND__@@IIJAAJK@Z 7c64a650 f i stdafx.obj
 0001:00019660       ?GetWindow@CAxFrameWindow@ATL@@UAGJPAPAUHWND__@@@Z 7c64a660 f i stdafx.obj
 0001:000196f0       ??0_U_RECT@ATL@@QAE@PAUtagRECT@@@Z 7c64a6f0 f i stdafx.obj
 0001:00019710       ??0_U_MENUorID@ATL@@QAE@I@Z 7c64a710 f i stdafx.obj
 0001:00019730       ?ContextSensitiveHelp@CAxFrameWindow@ATL@@UAGJH@Z 7c64a730 f i stdafx.obj
 0001:00019740       ?GetBorder@CAxFrameWindow@ATL@@UAGJPAUtagRECT@@@Z 7c64a740 f i stdafx.obj
 0001:00019750       ?RequestBorderSpace@CAxFrameWindow@ATL@@UAGJPBUtagRECT@@@Z 7c64a750 f i stdafx.obj
 0001:00019760       ?SetBorderSpace@CAxFrameWindow@ATL@@UAGJPBUtagRECT@@@Z 7c64a760 f i stdafx.obj
 0001:00019770       ?SetActiveObject@CAxFrameWindow@ATL@@UAGJPAUIOleInPlaceActiveObject@@PB_W@Z 7c64a770 f i stdafx.obj
 0001:00019790       ?InsertMenus@CAxFrameWindow@ATL@@UAGJPAUHMENU__@@PAUtagOleMenuGroupWidths@@@Z 7c64a790 f i stdafx.obj
 0001:000197a0       ?SetMenu@CAxFrameWindow@ATL@@UAGJPAUHMENU__@@PAXPAUHWND__@@@Z 7c64a7a0 f i stdafx.obj
 0001:000197b0       ?RemoveMenus@CAxFrameWindow@ATL@@UAGJPAUHMENU__@@@Z 7c64a7b0 f i stdafx.obj
 0001:000197c0       ?SetStatusText@CAxFrameWindow@ATL@@UAGJPB_W@Z 7c64a7c0 f i stdafx.obj
 0001:000197d0       ?EnableModeless@CAxFrameWindow@ATL@@UAGJH@Z 7c64a7d0 f i stdafx.obj
 0001:000197e0       ?TranslateAcceleratorA@CAxFrameWindow@ATL@@UAGJPAUtagMSG@@G@Z 7c64a7e0 f i stdafx.obj
 0001:000197f0       ??0?$CWindowImpl@VCAxFrameWindow@ATL@@VCWindow@2@V?$CWinTraits@$0FGAAAAAA@$0A@@2@@ATL@@QAE@XZ 7c64a7f0 f i stdafx.obj
 0001:00019810       ??0IOleInPlaceFrame@@QAE@XZ 7c64a810 f i stdafx.obj
 0001:00019830       ??0IOleInPlaceUIWindow@@QAE@XZ 7c64a830 f i stdafx.obj
 0001:00019850       ?Create@?$CWindowImpl@VCAxFrameWindow@ATL@@VCWindow@2@V?$CWinTraits@$0FGAAAAAA@$0A@@2@@ATL@@QAEPAUHWND__@@PAU3@V_U_RECT@2@PBDKKV_U_MENUorID@2@PAX@Z 7c64a850 f i stdafx.obj
 0001:000198f0       ?Register@_ATL_WNDCLASSINFOA@ATL@@QAEGPAP6GJPAUHWND__@@IIJ@Z@Z 7c64a8f0 f i stdafx.obj
 0001:00019920       ?GetWndClassName@CWindow@ATL@@SAPBDXZ 7c64a920 f i stdafx.obj
 0001:00019930       ?OnFinalMessage@?$CWindowImplBaseT@VCWindow@ATL@@V?$CWinTraits@$0FGAAAAAA@$0A@@2@@ATL@@UAEXPAUHWND__@@@Z 7c64a930 f i stdafx.obj
 0001:00019940       ??4?$CComPtr@UIOleInPlaceActiveObject@@@ATL@@QAEPAUIOleInPlaceActiveObject@@PAU2@@Z 7c64a940 f i stdafx.obj
 0001:00019980       ?AddRef@?$CComObject@VCAxFrameWindow@ATL@@@ATL@@UAGKXZ 7c64a980 f i stdafx.obj
 0001:000199a0       ?Release@?$CComObject@VCAxFrameWindow@ATL@@@ATL@@UAGKXZ 7c64a9a0 f i stdafx.obj
 0001:00019a00       ?QueryInterface@?$CComObject@VCAxFrameWindow@ATL@@@ATL@@UAGJABU_GUID@@PAPAX@Z 7c64aa00 f i stdafx.obj
 0001:00019a20       ?_InternalQueryInterface@CAxFrameWindow@ATL@@QAEJABU_GUID@@PAPAX@Z 7c64aa20 f i stdafx.obj
 0001:00019a50       ?_GetEntries@CAxFrameWindow@ATL@@SGPBU_ATL_INTMAP_ENTRY@2@XZ 7c64aa50 f i stdafx.obj
 0001:00019a60       ??_G?$CComObject@VCAxFrameWindow@ATL@@@ATL@@UAEPAXI@Z 7c64aa60 f i stdafx.obj
 0001:00019a60       ??_E?$CComObject@VCAxFrameWindow@ATL@@@ATL@@UAEPAXI@Z 7c64aa60 f i stdafx.obj
 0001:00019a90       ??1?$CComObject@VCAxFrameWindow@ATL@@@ATL@@UAE@XZ 7c64aa90 f i stdafx.obj
 0001:00019ae0       ?FinalRelease@CAxFrameWindow@ATL@@QAEXXZ 7c64aae0 f i stdafx.obj
 0001:00019b10       ??1CAxFrameWindow@ATL@@UAE@XZ 7c64ab10 f i stdafx.obj
 0001:00019b50       ??1?$CWindowImpl@VCAxFrameWindow@ATL@@VCWindow@2@V?$CWinTraits@$0FGAAAAAA@$0A@@2@@ATL@@UAE@XZ 7c64ab50 f i stdafx.obj
 0001:00019b70       ?Release@?$CComPtrBase@UIOleInPlaceActiveObject@@@ATL@@QAEXXZ 7c64ab70 f i stdafx.obj
 0001:00019bb0       ?GetWndClassInfo@?$CWindowImpl@VCAxFrameWindow@ATL@@VCWindow@2@V?$CWinTraits@$0FGAAAAAA@$0A@@2@@ATL@@SAAAU_ATL_WNDCLASSINFOA@2@XZ 7c64abb0 f i stdafx.obj
 0001:00019bc0       ?GetWndCaption@?$CWindowImpl@VCAxFrameWindow@ATL@@VCWindow@2@V?$CWinTraits@$0FGAAAAAA@$0A@@2@@ATL@@SAPBDXZ 7c64abc0 f i stdafx.obj
 0001:00019bd0       ?GetWndStyle@?$CWindowImplBaseT@VCWindow@ATL@@V?$CWinTraits@$0FGAAAAAA@$0A@@2@@ATL@@SAKK@Z 7c64abd0 f i stdafx.obj
 0001:00019bf0       ?GetWndExStyle@?$CWindowImplBaseT@VCWindow@ATL@@V?$CWinTraits@$0FGAAAAAA@$0A@@2@@ATL@@SAKK@Z 7c64abf0 f i stdafx.obj
 0001:00019c10       ??9?$CComPtrBase@UIOleInPlaceActiveObject@@@ATL@@QBE_NPAUIOleInPlaceActiveObject@@@Z 7c64ac10 f i stdafx.obj
 0001:00019c40       ??8?$CComPtrBase@UIOleInPlaceActiveObject@@@ATL@@QBE_NPAUIOleInPlaceActiveObject@@@Z 7c64ac40 f i stdafx.obj
 0001:00019c60       ?GetWndStyle@?$CWinTraits@$0FGAAAAAA@$0A@@ATL@@SAKK@Z 7c64ac60 f i stdafx.obj
 0001:00019c80       ?GetWndExStyle@?$CWinTraits@$0FGAAAAAA@$0A@@ATL@@SAKK@Z 7c64ac80 f i stdafx.obj
 0001:00019c90       ?StartWindowProc@?$CWindowImplBaseT@VCWindow@ATL@@V?$CWinTraits@$0FGAAAAAA@$0A@@2@@ATL@@SGJPAUHWND__@@IIJ@Z 7c64ac90 f i stdafx.obj
 0001:00019d70       ?ExtractCreateWndData@CAtlWinModule@ATL@@QAEPAXXZ 7c64ad70 f i stdafx.obj
 0001:00019d90       ?Create@?$CWindowImplBaseT@VCWindow@ATL@@V?$CWinTraits@$0FGAAAAAA@$0A@@2@@ATL@@QAEPAUHWND__@@PAU3@V_U_RECT@2@PBDKKV_U_MENUorID@2@GPAX@Z 7c64ad90 f i stdafx.obj
 0001:00019ed0       ?AddCreateWndData@CAtlWinModule@ATL@@QAEXPAU_AtlCreateWndData@2@PAX@Z 7c64aed0 f i stdafx.obj
 0001:00019ef0       ?CreateInstance@?$CComObject@VCAxUIWindow@ATL@@@ATL@@SGJPAPAV12@@Z 7c64aef0 f i stdafx.obj
 0001:0001a030       ??0?$CComObject@VCAxUIWindow@ATL@@@ATL@@QAE@PAX@Z 7c64b030 f i stdafx.obj
 0001:0001a070       ??0CAxUIWindow@ATL@@QAE@XZ 7c64b070 f i stdafx.obj
 0001:0001a0b0       ?ProcessWindowMessage@CAxUIWindow@ATL@@UAEHPAUHWND__@@IIJAAJK@Z 7c64b0b0 f i stdafx.obj
 0001:0001a0c0       ?GetWindow@CAxUIWindow@ATL@@UAGJPAPAUHWND__@@@Z 7c64b0c0 f i stdafx.obj
 0001:0001a160       ?ContextSensitiveHelp@CAxUIWindow@ATL@@UAGJH@Z 7c64b160 f i stdafx.obj
 0001:0001a170       ?GetBorder@CAxUIWindow@ATL@@UAGJPAUtagRECT@@@Z 7c64b170 f i stdafx.obj
 0001:0001a180       ?RequestBorderSpace@CAxUIWindow@ATL@@UAGJPBUtagRECT@@@Z 7c64b180 f i stdafx.obj
 0001:0001a190       ?SetBorderSpace@CAxUIWindow@ATL@@UAGJPBUtagRECT@@@Z 7c64b190 f i stdafx.obj
 0001:0001a1a0       ?SetActiveObject@CAxUIWindow@ATL@@UAGJPAUIOleInPlaceActiveObject@@PB_W@Z 7c64b1a0 f i stdafx.obj
 0001:0001a1c0       ??0?$CWindowImpl@VCAxUIWindow@ATL@@VCWindow@2@V?$CWinTraits@$0FGAAAAAA@$0A@@2@@ATL@@QAE@XZ 7c64b1c0 f i stdafx.obj
 0001:0001a1e0       ?Create@?$CWindowImpl@VCAxUIWindow@ATL@@VCWindow@2@V?$CWinTraits@$0FGAAAAAA@$0A@@2@@ATL@@QAEPAUHWND__@@PAU3@V_U_RECT@2@PBDKKV_U_MENUorID@2@PAX@Z 7c64b1e0 f i stdafx.obj
 0001:0001a280       ?AddRef@?$CComObject@VCAxUIWindow@ATL@@@ATL@@UAGKXZ 7c64b280 f i stdafx.obj
 0001:0001a2a0       ?Release@?$CComObject@VCAxUIWindow@ATL@@@ATL@@UAGKXZ 7c64b2a0 f i stdafx.obj
 0001:0001a300       ?QueryInterface@?$CComObject@VCAxUIWindow@ATL@@@ATL@@UAGJABU_GUID@@PAPAX@Z 7c64b300 f i stdafx.obj
 0001:0001a320       ?_InternalQueryInterface@CAxUIWindow@ATL@@QAEJABU_GUID@@PAPAX@Z 7c64b320 f i stdafx.obj
 0001:0001a350       ?_GetEntries@CAxUIWindow@ATL@@SGPBU_ATL_INTMAP_ENTRY@2@XZ 7c64b350 f i stdafx.obj
 0001:0001a360       ??_E?$CComObject@VCAxUIWindow@ATL@@@ATL@@UAEPAXI@Z 7c64b360 f i stdafx.obj
 0001:0001a360       ??_G?$CComObject@VCAxUIWindow@ATL@@@ATL@@UAEPAXI@Z 7c64b360 f i stdafx.obj
 0001:0001a390       ??1?$CComObject@VCAxUIWindow@ATL@@@ATL@@UAE@XZ 7c64b390 f i stdafx.obj
 0001:0001a3e0       ?FinalRelease@CAxUIWindow@ATL@@QAEXXZ 7c64b3e0 f i stdafx.obj
 0001:0001a410       ??1CAxUIWindow@ATL@@UAE@XZ 7c64b410 f i stdafx.obj
 0001:0001a450       ??1?$CWindowImpl@VCAxUIWindow@ATL@@VCWindow@2@V?$CWinTraits@$0FGAAAAAA@$0A@@2@@ATL@@UAE@XZ 7c64b450 f i stdafx.obj
 0001:0001a470       ?GetWndClassInfo@?$CWindowImpl@VCAxUIWindow@ATL@@VCWindow@2@V?$CWinTraits@$0FGAAAAAA@$0A@@2@@ATL@@SAAAU_ATL_WNDCLASSINFOA@2@XZ 7c64b470 f i stdafx.obj
 0001:0001a480       ?GetWndCaption@?$CWindowImpl@VCAxUIWindow@ATL@@VCWindow@2@V?$CWinTraits@$0FGAAAAAA@$0A@@2@@ATL@@SAPBDXZ 7c64b480 f i stdafx.obj
 0001:0001a490       ??$QueryInterface@UIDispatch@@@?$CComPtrBase@UIOleObject@@@ATL@@QBEJPAPAUIDispatch@@@Z 7c64b490 f i stdafx.obj
 0001:0001a4e0       ??1?$CComEnumImpl@UIEnumUnknown@@$1?_GUID_00000100_0000_0000_c000_000000000046@@3U__s_GUID@@BPAUIUnknown@@V?$_CopyInterface@UIUnknown@@@ATL@@@ATL@@UAE@XZ 7c64b4e0 f i stdafx.obj
 0001:0001a550       ?destroy@?$_CopyInterface@UIUnknown@@@ATL@@SAXPAPAUIUnknown@@@Z 7c64b550 f i stdafx.obj
 0001:0001a570       ?Next@?$CComEnumImpl@UIEnumUnknown@@$1?_GUID_00000100_0000_0000_c000_000000000046@@3U__s_GUID@@BPAUIUnknown@@V?$_CopyInterface@UIUnknown@@@ATL@@@ATL@@UAGJKPAPAUIUnknown@@PAK@Z 7c64b570 f i stdafx.obj
 0001:0001a6c0       ?copy@?$_CopyInterface@UIUnknown@@@ATL@@SAJPAPAUIUnknown@@PBQAU3@@Z 7c64b6c0 f i stdafx.obj
 0001:0001a750       ?Skip@?$CComEnumImpl@UIEnumUnknown@@$1?_GUID_00000100_0000_0000_c000_000000000046@@3U__s_GUID@@BPAUIUnknown@@V?$_CopyInterface@UIUnknown@@@ATL@@@ATL@@UAGJK@Z 7c64b750 f i stdafx.obj
 0001:0001a7c0       ?Clone@?$CComEnumImpl@UIEnumUnknown@@$1?_GUID_00000100_0000_0000_c000_000000000046@@3U__s_GUID@@BPAUIUnknown@@V?$_CopyInterface@UIUnknown@@@ATL@@@ATL@@UAGJPAPAUIEnumUnknown@@@Z 7c64b7c0 f i stdafx.obj
 0001:0001a8d0       ?CreateInstance@?$CComObject@V?$CComEnum@UIEnumUnknown@@$1?_GUID_00000100_0000_0000_c000_000000000046@@3U__s_GUID@@BPAUIUnknown@@V?$_CopyInterface@UIUnknown@@@ATL@@VCComMultiThreadModel@6@@ATL@@@ATL@@SGJPAPAV12@@Z 7c64b8d0 f i stdafx.obj
 0001:0001aa10       ?Init@?$CComEnumImpl@UIEnumUnknown@@$1?_GUID_00000100_0000_0000_c000_000000000046@@3U__s_GUID@@BPAUIUnknown@@V?$_CopyInterface@UIUnknown@@@ATL@@@ATL@@QAEJPAPAUIUnknown@@0PAU3@W4CComEnumFlags@2@@Z 7c64ba10 f i stdafx.obj
 0001:0001abc0       ?init@?$_CopyInterface@UIUnknown@@@ATL@@SAXPAPAUIUnknown@@@Z 7c64bbc0 f i stdafx.obj
 0001:0001abd0       ??$AtlAxDialogCreateT@PB_WV_AtlDialogBoxIndirectParamHelper@ATL@@$1?DialogBoxIndirectParamW@@YGHPAUHINSTANCE__@@PBUDLGTEMPLATE@@PAUHWND__@@P6GH2IIJ@ZJ@Z@ATL@@YAHPAUHINSTANCE__@@PB_WPAUHWND__@@P6GH2IIJ@ZJ@Z 7c64bbd0 f i stdafx.obj
 0001:0001ad20       ?SplitDialogTemplate@_DialogSplitHelper@ATL@@SAPAUDLGTEMPLATE@@PAU3@PAE@Z 7c64bd20 f i stdafx.obj
 0001:0001aff0       ?IsDialogEx@_DialogSplitHelper@ATL@@SAHPBUDLGTEMPLATE@@@Z 7c64bff0 f i stdafx.obj
 0001:0001b010       ?DlgTemplateItemCount@_DialogSplitHelper@ATL@@SAAAGPAUDLGTEMPLATE@@@Z 7c64c010 f i stdafx.obj
 0001:0001b040       ?FindFirstDlgItem@_DialogSplitHelper@ATL@@SAPAUDLGITEMTEMPLATE@@PBUDLGTEMPLATE@@@Z 7c64c040 f i stdafx.obj
 0001:0001b140       ?FindNextDlgItem@_DialogSplitHelper@ATL@@SAPAUDLGITEMTEMPLATE@@PAU3@H@Z 7c64c140 f i stdafx.obj
 0001:0001b200       ?AtlFindResource@ATL@@YAPAUHRSRC__@@PAUHINSTANCE__@@PB_W1@Z 7c64c200 f i stdafx.obj
 0001:0001b220       ?GetInvalidValue@_AtlDialogBoxIndirectParamHelper@ATL@@SAHXZ 7c64c220 f i stdafx.obj
 0001:0001b230       ?IsValidReturnVal@_AtlDialogBoxIndirectParamHelper@ATL@@SA_NH@Z 7c64c230 f i stdafx.obj
 0001:0001b260       ??$AtlAxDialogCreateT@PBDV_AtlDialogBoxIndirectParamHelper@ATL@@$1?DialogBoxIndirectParamA@@YGHPAUHINSTANCE__@@PBUDLGTEMPLATE@@PAUHWND__@@P6GH2IIJ@ZJ@Z@ATL@@YAHPAUHINSTANCE__@@PBDPAUHWND__@@P6GH2IIJ@ZJ@Z 7c64c260 f i stdafx.obj
 0001:0001b3b0       ?AtlFindResource@ATL@@YAPAUHRSRC__@@PAUHINSTANCE__@@PBD1@Z 7c64c3b0 f i stdafx.obj
 0001:0001b3d0       ??$AtlAxDialogCreateT@PB_WV_AtlCreateDialogIndirectParamHelper@ATL@@$1?CreateDialogIndirectParamW@@YGPAUHWND__@@PAUHINSTANCE__@@PBUDLGTEMPLATE@@PAU4@P6GH2IIJ@ZJ@Z@ATL@@YAPAUHWND__@@PAUHINSTANCE__@@PB_WPAU1@P6GH2IIJ@ZJ@Z 7c64c3d0 f i stdafx.obj
 0001:0001b520       ?GetInvalidValue@_AtlCreateDialogIndirectParamHelper@ATL@@SAPAUHWND__@@XZ 7c64c520 f i stdafx.obj
 0001:0001b530       ?IsValidReturnVal@_AtlCreateDialogIndirectParamHelper@ATL@@SA_NPAUHWND__@@@Z 7c64c530 f i stdafx.obj
 0001:0001b540       ??$AtlAxDialogCreateT@PBDV_AtlCreateDialogIndirectParamHelper@ATL@@$1?CreateDialogIndirectParamA@@YGPAUHWND__@@PAUHINSTANCE__@@PBUDLGTEMPLATE@@PAU4@P6GH2IIJ@ZJ@Z@ATL@@YAPAUHWND__@@PAUHINSTANCE__@@PBDPAU1@P6GH2IIJ@ZJ@Z 7c64c540 f i stdafx.obj
 0001:0001b690       ??$QueryInterface@UIAxWinHostWindow@@@IUnknown@@QAGJPAPAUIAxWinHostWindow@@@Z 7c64c690 f i stdafx.obj
 0001:0001b6b0       ??$AtlModuleRegisterWndClassInfoT@VAtlModuleRegisterWndClassInfoParamW@ATL@@@ATL@@YAGPAU_ATL_BASE_MODULE70@0@PAU_ATL_WIN_MODULE70@0@PAU_ATL_WNDCLASSINFOW@0@PAP6GJPAUHWND__@@IIJ@ZVAtlModuleRegisterWndClassInfoParamW@0@@Z 7c64c6b0 f i stdafx.obj
 0001:0001ba30       ?GetClassInfoExA@AtlModuleRegisterWndClassInfoParamW@ATL@@SAHPAUHINSTANCE__@@PB_WPAUtagWNDCLASSEXW@@@Z 7c64ca30 f i stdafx.obj
 0001:0001ba50       ?FormatWindowClassName@AtlModuleRegisterWndClassInfoParamW@ATL@@SAXPA_WKPAX@Z 7c64ca50 f i stdafx.obj
 0001:0001ba70       ?LoadCursorA@AtlModuleRegisterWndClassInfoParamW@ATL@@SAPAUHICON__@@PAUHINSTANCE__@@PB_W@Z 7c64ca70 f i stdafx.obj
 0001:0001ba90       ?RegisterClassExA@AtlModuleRegisterWndClassInfoParamW@ATL@@SAGPAU_ATL_WIN_MODULE70@2@PBUtagWNDCLASSEXW@@@Z 7c64ca90 f i stdafx.obj
 0001:0001bab0       ??$AtlConvFreeMemory@D@ATL@@YAXPAD0H@Z 7c64cab0 f i stdafx.obj
 0001:0001bae0       ??$AtlConvAllocMemory@D@ATL@@YAXPAPADHPADH@Z 7c64cae0 f i stdafx.obj
 0001:0001bc60       ?AddRef@?$CComContainedObject@VCAxHostWindow@ATL@@@ATL@@WBM@AGKXZ 7c64cc60 f i stdafx.obj
 0001:0001bc70       ??_E?$CComContainedObject@VCAxHostWindow@ATL@@@ATL@@WDI@AEPAXI@Z 7c64cc70 f i stdafx.obj
 0001:0001bc80       ?QueryInterface@?$CComContainedObject@VCAxHostWindow@ATL@@@ATL@@W7AGJABU_GUID@@PAPAX@Z 7c64cc80 f i stdafx.obj
 0001:0001bc90       ?QueryInterface@?$CComContainedObject@VCAxHostWindow@ATL@@@ATL@@WCI@AGJABU_GUID@@PAPAX@Z 7c64cc90 f i stdafx.obj
 0001:0001bca0       ?Release@?$CComContainedObject@VCAxHostWindow@ATL@@@ATL@@WCA@AGKXZ 7c64cca0 f i stdafx.obj
 0001:0001bcb0       ?AddRef@?$CComContainedObject@VCAxHostWindow@ATL@@@ATL@@WCA@AGKXZ 7c64ccb0 f i stdafx.obj
 0001:0001bcc0       ?QueryInterface@?$CComContainedObject@VCAxHostWindow@ATL@@@ATL@@WM@AGJABU_GUID@@PAPAX@Z 7c64ccc0 f i stdafx.obj
 0001:0001bcd0       ?Release@?$CComContainedObject@VCAxHostWindow@ATL@@@ATL@@W3AGKXZ 7c64ccd0 f i stdafx.obj
 0001:0001bce0       ?Release@?$CComContainedObject@VCAxHostWindow@ATL@@@ATL@@WCE@AGKXZ 7c64cce0 f i stdafx.obj
 0001:0001bcf0       ?AddRef@?$CComContainedObject@VCAxHostWindow@ATL@@@ATL@@W3AGKXZ 7c64ccf0 f i stdafx.obj
 0001:0001bd00       ?AddRef@?$CComContainedObject@VCAxHostWindow@ATL@@@ATL@@WCE@AGKXZ 7c64cd00 f i stdafx.obj
 0001:0001bd10       ?QueryInterface@?$CComContainedObject@VCAxHostWindow@ATL@@@ATL@@WBA@AGJABU_GUID@@PAPAX@Z 7c64cd10 f i stdafx.obj
 0001:0001bd20       ?Release@?$CComContainedObject@VCAxHostWindow@ATL@@@ATL@@W7AGKXZ 7c64cd20 f i stdafx.obj
 0001:0001bd30       ?Release@?$CComContainedObject@VCAxHostWindow@ATL@@@ATL@@WCI@AGKXZ 7c64cd30 f i stdafx.obj
 0001:0001bd40       ?AddRef@?$CComContainedObject@VCAxHostWindow@ATL@@@ATL@@W7AGKXZ 7c64cd40 f i stdafx.obj
 0001:0001bd50       ?AddRef@?$CComContainedObject@VCAxHostWindow@ATL@@@ATL@@WCI@AGKXZ 7c64cd50 f i stdafx.obj
 0001:0001bd60       ?QueryInterface@?$CComContainedObject@VCAxHostWindow@ATL@@@ATL@@WBE@AGJABU_GUID@@PAPAX@Z 7c64cd60 f i stdafx.obj
 0001:0001bd70       ?Release@?$CComContainedObject@VCAxHostWindow@ATL@@@ATL@@WM@AGKXZ 7c64cd70 f i stdafx.obj
 0001:0001bd80       ?AddRef@?$CComContainedObject@VCAxHostWindow@ATL@@@ATL@@WM@AGKXZ 7c64cd80 f i stdafx.obj
 0001:0001bd90       ?Release@?$CComContainedObject@VCAxHostWindow@ATL@@@ATL@@WBA@AGKXZ 7c64cd90 f i stdafx.obj
 0001:0001bda0       ?AddRef@?$CComContainedObject@VCAxHostWindow@ATL@@@ATL@@WBA@AGKXZ 7c64cda0 f i stdafx.obj
 0001:0001bdb0       ??_E?$CComContainedObject@VCAxHostWindow@ATL@@@ATL@@WEM@AEPAXI@Z 7c64cdb0 f i stdafx.obj
 0001:0001bdc0       ?QueryInterface@?$CComContainedObject@VCAxHostWindow@ATL@@@ATL@@WBM@AGJABU_GUID@@PAPAX@Z 7c64cdc0 f i stdafx.obj
 0001:0001bdd0       ?Release@?$CComContainedObject@VCAxHostWindow@ATL@@@ATL@@WBE@AGKXZ 7c64cdd0 f i stdafx.obj
 0001:0001bde0       ?AddRef@?$CComContainedObject@VCAxHostWindow@ATL@@@ATL@@WBE@AGKXZ 7c64cde0 f i stdafx.obj
 0001:0001bdf0       ?QueryInterface@?$CComContainedObject@VCAxHostWindow@ATL@@@ATL@@WCA@AGJABU_GUID@@PAPAX@Z 7c64cdf0 f i stdafx.obj
 0001:0001be00       ?QueryInterface@?$CComContainedObject@VCAxHostWindow@ATL@@@ATL@@W3AGJABU_GUID@@PAPAX@Z 7c64ce00 f i stdafx.obj
 0001:0001be10       ?QueryInterface@?$CComContainedObject@VCAxHostWindow@ATL@@@ATL@@WCE@AGJABU_GUID@@PAPAX@Z 7c64ce10 f i stdafx.obj
 0001:0001be20       ?Release@?$CComContainedObject@VCAxHostWindow@ATL@@@ATL@@WBM@AGKXZ 7c64ce20 f i stdafx.obj
 0001:0001be30       ??0Thank_you@Define_the_symbol__ATL_MIXED@@QAE@XZ 7c64ce30 f i stdafx.obj
 0001:0001be50       ?one@Thank_you@Define_the_symbol__ATL_MIXED@@UAEXXZ 7c64ce50 f i stdafx.obj
 0001:0001be5b       _Downlevel_DelayLoadFailureHook@8 7c64ce5b f   atldload:downlevel_dload.obj
 0001:0001bedc       _DelayLoadFailureHook@8    7c64cedc f   atldload:dload.obj
 0001:0001bee5       _AtlStrLower@4             7c64cee5 f   atldload:lookup.obj
 0001:0001bf0d       _AssertDelayLoadFailureMapsAreSorted@0 7c64cf0d f   atldload:lookup.obj
 0001:0001bf0e       _FindDll@4                 7c64cf0e f   atldload:lookup.obj
 0001:0001bffd       _LookupHandlerByName@8     7c64cffd f   atldload:lookup.obj
 0001:0001c073       _LookupHandlerByOrdinal@8  7c64d073 f   atldload:lookup.obj
 0001:0001c0b5       _LookupHandler@8           7c64d0b5 f   atldload:lookup.obj
 0001:0001ce93       __imp_load__CoTaskMemFree@4 7c64de93     ole32:ole32.dll
 0001:0001ce9d       __tailMerge_ole32_dll      7c64de9d     ole32:ole32.dll
 0001:0001ceae       _CoTaskMemFree@4           7c64deae f   ole32:ole32.dll
 0001:0001ceb4       __imp_load__CoTaskMemAlloc@4 7c64deb4     ole32:ole32.dll
 0001:0001cebe       _CoTaskMemAlloc@4          7c64debe f   ole32:ole32.dll
 0001:0001cec4       __imp_load__CoTaskMemRealloc@8 7c64dec4     ole32:ole32.dll
 0001:0001cece       _CoTaskMemRealloc@8        7c64dece f   ole32:ole32.dll
 0001:0001ced4       __imp_load__CoCreateInstance@20 7c64ded4     ole32:ole32.dll
 0001:0001cede       _CoCreateInstance@20       7c64dede f   ole32:ole32.dll
 0001:0001cee4       __imp_load__StringFromGUID2@12 7c64dee4     ole32:ole32.dll
 0001:0001ceee       _StringFromGUID2@12        7c64deee f   ole32:ole32.dll
 0001:0001cef4       __imp_load__CoReleaseMarshalData@4 7c64def4     ole32:ole32.dll
 0001:0001cefe       _CoReleaseMarshalData@4    7c64defe f   ole32:ole32.dll
 0001:0001cf04       __imp_load__CoMarshalInterface@24 7c64df04     ole32:ole32.dll
 0001:0001cf0e       _CoMarshalInterface@24     7c64df0e f   ole32:ole32.dll
 0001:0001cf14       __imp_load__CreateStreamOnHGlobal@12 7c64df14     ole32:ole32.dll
 0001:0001cf1e       _CreateStreamOnHGlobal@12  7c64df1e f   ole32:ole32.dll
 0001:0001cf24       __imp_load__CoUnmarshalInterface@12 7c64df24     ole32:ole32.dll
 0001:0001cf2e       _CoUnmarshalInterface@12   7c64df2e f   ole32:ole32.dll
 0001:0001cf34       __imp_load__CoRegisterClassObject@20 7c64df34     ole32:ole32.dll
 0001:0001cf3e       _CoRegisterClassObject@20  7c64df3e f   ole32:ole32.dll
 0001:0001cf44       __imp_load__CoRevokeClassObject@4 7c64df44     ole32:ole32.dll
 0001:0001cf4e       _CoRevokeClassObject@4     7c64df4e f   ole32:ole32.dll
 0001:0001cf54       __imp_load__ProgIDFromCLSID@8 7c64df54     ole32:ole32.dll
 0001:0001cf5e       _ProgIDFromCLSID@8         7c64df5e f   ole32:ole32.dll
 0001:0001cf64       __imp_load__OleLoadFromStream@12 7c64df64     ole32:ole32.dll
 0001:0001cf6e       _OleLoadFromStream@12      7c64df6e f   ole32:ole32.dll
 0001:0001cf74       __imp_load__WriteClassStm@8 7c64df74     ole32:ole32.dll
 0001:0001cf7e       _WriteClassStm@8           7c64df7e f   ole32:ole32.dll
 0001:0001cf84       __imp_load__OleSaveToStream@8 7c64df84     ole32:ole32.dll
 0001:0001cf8e       _OleSaveToStream@8         7c64df8e f   ole32:ole32.dll
 0001:0001cf94       __imp_load__OleUninitialize@0 7c64df94     ole32:ole32.dll
 0001:0001cf9e       _OleUninitialize@0         7c64df9e f   ole32:ole32.dll
 0001:0001cfa4       __imp_load__OleInitialize@4 7c64dfa4     ole32:ole32.dll
 0001:0001cfae       _OleInitialize@4           7c64dfae f   ole32:ole32.dll
 0001:0001cfb4       __imp_load__CoGetClassObject@20 7c64dfb4     ole32:ole32.dll
 0001:0001cfbe       _CoGetClassObject@20       7c64dfbe f   ole32:ole32.dll
 0001:0001cfc4       __imp_load__CLSIDFromProgID@8 7c64dfc4     ole32:ole32.dll
 0001:0001cfce       _CLSIDFromProgID@8         7c64dfce f   ole32:ole32.dll
 0001:0001cfd4       __imp_load__CLSIDFromString@8 7c64dfd4     ole32:ole32.dll
 0001:0001cfde       _CLSIDFromString@8         7c64dfde f   ole32:ole32.dll
 0001:0001cfe4       __imp_load__OleLockRunning@12 7c64dfe4     ole32:ole32.dll
 0001:0001cfee       _OleLockRunning@12         7c64dfee f   ole32:ole32.dll
 0001:0001cff4       __imp_load__VarUI4FromStr@16 7c64dff4     oleaut32:OLEAUT32.dll
 0001:0001cffe       __tailMerge_OLEAUT32_dll   7c64dffe     oleaut32:OLEAUT32.dll
 0001:0001d00f       _VarUI4FromStr@16          7c64e00f f   oleaut32:OLEAUT32.dll
 0001:0001d015       __imp_load__SysAllocString@4 7c64e015     oleaut32:OLEAUT32.dll
 0001:0001d01f       _SysAllocString@4          7c64e01f f   oleaut32:OLEAUT32.dll
 0001:0001d025       __imp_load__LoadTypeLib@8  7c64e025     oleaut32:OLEAUT32.dll
 0001:0001d02f       _LoadTypeLib@8             7c64e02f f   oleaut32:OLEAUT32.dll
 0001:0001d035       __imp_load__UnRegisterTypeLib@20 7c64e035     oleaut32:OLEAUT32.dll
 0001:0001d03f       _UnRegisterTypeLib@20      7c64e03f f   oleaut32:OLEAUT32.dll
 0001:0001d045       __imp_load__SysFreeString@4 7c64e045     oleaut32:OLEAUT32.dll
 0001:0001d04f       _SysFreeString@4           7c64e04f f   oleaut32:OLEAUT32.dll
 0001:0001d055       __imp_load__RegisterTypeLib@12 7c64e055     oleaut32:OLEAUT32.dll
 0001:0001d05f       _RegisterTypeLib@12        7c64e05f f   oleaut32:OLEAUT32.dll
 0001:0001d065       __imp_load__SysStringLen@4 7c64e065     oleaut32:OLEAUT32.dll
 0001:0001d06f       _SysStringLen@4            7c64e06f f   oleaut32:OLEAUT32.dll
 0001:0001d075       __imp_load__SetErrorInfo@8 7c64e075     oleaut32:OLEAUT32.dll
 0001:0001d07f       _SetErrorInfo@8            7c64e07f f   oleaut32:OLEAUT32.dll
 0001:0001d085       __imp_load__CreateErrorInfo@4 7c64e085     oleaut32:OLEAUT32.dll
 0001:0001d08f       _CreateErrorInfo@4         7c64e08f f   oleaut32:OLEAUT32.dll
 0001:0001d095       __imp_load__SysAllocStringByteLen@8 7c64e095     oleaut32:OLEAUT32.dll
 0001:0001d09f       _SysAllocStringByteLen@8   7c64e09f f   oleaut32:OLEAUT32.dll
 0001:0001d0a5       __imp_load__VariantInit@4  7c64e0a5     oleaut32:OLEAUT32.dll
 0001:0001d0af       _VariantInit@4             7c64e0af f   oleaut32:OLEAUT32.dll
 0001:0001d0b5       __imp_load__VariantClear@4 7c64e0b5     oleaut32:OLEAUT32.dll
 0001:0001d0bf       _VariantClear@4            7c64e0bf f   oleaut32:OLEAUT32.dll
 0001:0001d0c5       __imp_load__VariantChangeType@16 7c64e0c5     oleaut32:OLEAUT32.dll
 0001:0001d0cf       _VariantChangeType@16      7c64e0cf f   oleaut32:OLEAUT32.dll
 0001:0001d0d5       __imp_load__SysStringByteLen@4 7c64e0d5     oleaut32:OLEAUT32.dll
 0001:0001d0df       _SysStringByteLen@4        7c64e0df f   oleaut32:OLEAUT32.dll
 0001:0001d0e5       __imp_load__SysAllocStringLen@8 7c64e0e5     oleaut32:OLEAUT32.dll
 0001:0001d0ef       _SysAllocStringLen@8       7c64e0ef f   oleaut32:OLEAUT32.dll
 0001:0001d0f5       __imp_load__OleCreateFontIndirect@12 7c64e0f5     oleaut32:OLEAUT32.dll
 0001:0001d0ff       _OleCreateFontIndirect@12  7c64e0ff f   oleaut32:OLEAUT32.dll
 0001:0001d105       __imp_load__LoadRegTypeLib@20 7c64e105     oleaut32:OLEAUT32.dll
 0001:0001d10f       _LoadRegTypeLib@20         7c64e10f f   oleaut32:OLEAUT32.dll
 0001:0001d115       __imp_load__RegDeleteKeyA@8 7c64e115     advapi32:ADVAPI32.dll
 0001:0001d11f       __tailMerge_ADVAPI32_dll   7c64e11f     advapi32:ADVAPI32.dll
 0001:0001d130       _RegDeleteKeyA@8           7c64e130 f   advapi32:ADVAPI32.dll
 0001:0001d136       __imp_load__RegDeleteValueA@8 7c64e136     advapi32:ADVAPI32.dll
 0001:0001d140       _RegDeleteValueA@8         7c64e140 f   advapi32:ADVAPI32.dll
 0001:0001d146       __imp_load__RegCloseKey@4  7c64e146     advapi32:ADVAPI32.dll
 0001:0001d150       _RegCloseKey@4             7c64e150 f   advapi32:ADVAPI32.dll
 0001:0001d156       __imp_load__RegCreateKeyExA@36 7c64e156     advapi32:ADVAPI32.dll
 0001:0001d160       _RegCreateKeyExA@36        7c64e160 f   advapi32:ADVAPI32.dll
 0001:0001d166       __imp_load__RegOpenKeyExA@20 7c64e166     advapi32:ADVAPI32.dll
 0001:0001d170       _RegOpenKeyExA@20          7c64e170 f   advapi32:ADVAPI32.dll
 0001:0001d176       __imp_load__RegEnumKeyExA@32 7c64e176     advapi32:ADVAPI32.dll
 0001:0001d180       _RegEnumKeyExA@32          7c64e180 f   advapi32:ADVAPI32.dll
 0001:0001d186       __imp_load__RegSetValueExA@24 7c64e186     advapi32:ADVAPI32.dll
 0001:0001d190       _RegSetValueExA@24         7c64e190 f   advapi32:ADVAPI32.dll
 0001:0001d196       __imp_load__RegQueryInfoKeyA@48 7c64e196     advapi32:ADVAPI32.dll
 0001:0001d1a0       _RegQueryInfoKeyA@48       7c64e1a0 f   advapi32:ADVAPI32.dll
 0001:0001d1a6       __imp_load__RegisterClassExA@4 7c64e1a6     user32:USER32.dll
 0001:0001d1b0       __tailMerge_USER32_dll     7c64e1b0     user32:USER32.dll
 0001:0001d1c1       _RegisterClassExA@4        7c64e1c1 f   user32:USER32.dll
 0001:0001d1c7       __imp_load__GetClassInfoExA@12 7c64e1c7     user32:USER32.dll
 0001:0001d1d1       _GetClassInfoExA@12        7c64e1d1 f   user32:USER32.dll
 0001:0001d1d7       __imp_load__LoadCursorA@8  7c64e1d7     user32:USER32.dll
 0001:0001d1e1       _LoadCursorA@8             7c64e1e1 f   user32:USER32.dll
 0001:0001d1e7       __imp_load__MessageBeep@4  7c64e1e7     user32:USER32.dll
 0001:0001d1f1       _MessageBeep@4             7c64e1f1 f   user32:USER32.dll
 0001:0001d1f7       __imp_load__UnregisterClassA@8 7c64e1f7     user32:USER32.dll
 0001:0001d201       _UnregisterClassA@8        7c64e201 f   user32:USER32.dll
 0001:0001d207       __imp_load__CharNextA@4    7c64e207     user32:USER32.dll
 0001:0001d211       _CharNextA@4               7c64e211 f   user32:USER32.dll
 0001:0001d217       __imp_load__DispatchMessageA@4 7c64e217     user32:USER32.dll
 0001:0001d221       _DispatchMessageA@4        7c64e221 f   user32:USER32.dll
 0001:0001d227       __imp_load__DispatchMessageW@4 7c64e227     user32:USER32.dll
 0001:0001d231       _DispatchMessageW@4        7c64e231 f   user32:USER32.dll
 0001:0001d237       __imp_load__TranslateMessage@4 7c64e237     user32:USER32.dll
 0001:0001d241       _TranslateMessage@4        7c64e241 f   user32:USER32.dll
 0001:0001d247       __imp_load__GetMessageA@16 7c64e247     user32:USER32.dll
 0001:0001d251       _GetMessageA@16            7c64e251 f   user32:USER32.dll
 0001:0001d257       __imp_load__GetMessageW@16 7c64e257     user32:USER32.dll
 0001:0001d261       _GetMessageW@16            7c64e261 f   user32:USER32.dll
 0001:0001d267       __imp_load__IsWindowUnicode@4 7c64e267     user32:USER32.dll
 0001:0001d271       _IsWindowUnicode@4         7c64e271 f   user32:USER32.dll
 0001:0001d277       __imp_load__PeekMessageA@20 7c64e277     user32:USER32.dll
 0001:0001d281       _PeekMessageA@20           7c64e281 f   user32:USER32.dll
 0001:0001d287       __imp_load__MsgWaitForMultipleObjects@20 7c64e287     user32:USER32.dll
 0001:0001d291       _MsgWaitForMultipleObjects@20 7c64e291 f   user32:USER32.dll
 0001:0001d297       __imp_load__LoadStringA@16 7c64e297     user32:USER32.dll
 0001:0001d2a1       _LoadStringA@16            7c64e2a1 f   user32:USER32.dll
 0001:0001d2a7       __imp_load__RegisterWindowMessageA@4 7c64e2a7     user32:USER32.dll
 0001:0001d2b1       _RegisterWindowMessageA@4  7c64e2b1 f   user32:USER32.dll
 0001:0001d2b7       __imp_load__DefWindowProcA@16 7c64e2b7     user32:USER32.dll
 0001:0001d2c1       _DefWindowProcA@16         7c64e2c1 f   user32:USER32.dll
 0001:0001d2c7       __imp_load__SetWindowLongA@12 7c64e2c7     user32:USER32.dll
 0001:0001d2d1       _SetWindowLongA@12         7c64e2d1 f   user32:USER32.dll
 0001:0001d2d7       __imp_load__GetWindowLongA@8 7c64e2d7     user32:USER32.dll
 0001:0001d2e1       _GetWindowLongA@8          7c64e2e1 f   user32:USER32.dll
 0001:0001d2e7       __imp_load__SetWindowTextA@8 7c64e2e7     user32:USER32.dll
 0001:0001d2f1       _SetWindowTextA@8          7c64e2f1 f   user32:USER32.dll
 0001:0001d2f7       __imp_load__GetWindowTextA@12 7c64e2f7     user32:USER32.dll
 0001:0001d301       _GetWindowTextA@12         7c64e301 f   user32:USER32.dll
 0001:0001d307       __imp_load__GetWindowTextLengthA@4 7c64e307     user32:USER32.dll
 0001:0001d311       _GetWindowTextLengthA@4    7c64e311 f   user32:USER32.dll
 0001:0001d317       __imp_load__SendMessageA@16 7c64e317     user32:USER32.dll
 0001:0001d321       _SendMessageA@16           7c64e321 f   user32:USER32.dll
 0001:0001d327       __imp_load__RegisterClassExW@4 7c64e327     user32:USER32.dll
 0001:0001d331       _RegisterClassExW@4        7c64e331 f   user32:USER32.dll
 0001:0001d337       __imp_load__ReleaseDC@8    7c64e337     user32:USER32.dll
 0001:0001d341       _ReleaseDC@8               7c64e341 f   user32:USER32.dll
 0001:0001d347       __imp_load__GetDC@4        7c64e347     user32:USER32.dll
 0001:0001d351       _GetDC@4                   7c64e351 f   user32:USER32.dll
 0001:0001d357       __imp_load__DestroyAcceleratorTable@4 7c64e357     user32:USER32.dll
 0001:0001d361       _DestroyAcceleratorTable@4 7c64e361 f   user32:USER32.dll
 0001:0001d367       __imp_load__GetSysColor@4  7c64e367     user32:USER32.dll
 0001:0001d371       _GetSysColor@4             7c64e371 f   user32:USER32.dll
 0001:0001d377       __imp_load__GetWindow@8    7c64e377     user32:USER32.dll
 0001:0001d381       _GetWindow@8               7c64e381 f   user32:USER32.dll
 0001:0001d387       __imp_load__GetFocus@0     7c64e387     user32:USER32.dll
 0001:0001d391       _GetFocus@0                7c64e391 f   user32:USER32.dll
 0001:0001d397       __imp_load__SetFocus@4     7c64e397     user32:USER32.dll
 0001:0001d3a1       _SetFocus@4                7c64e3a1 f   user32:USER32.dll
 0001:0001d3a7       __imp_load__IsChild@8      7c64e3a7     user32:USER32.dll
 0001:0001d3b1       _IsChild@8                 7c64e3b1 f   user32:USER32.dll
 0001:0001d3b7       __imp_load__IsWindow@4     7c64e3b7     user32:USER32.dll
 0001:0001d3c1       _IsWindow@4                7c64e3c1 f   user32:USER32.dll
 0001:0001d3c7       __imp_load__EndPaint@8     7c64e3c7     user32:USER32.dll
 0001:0001d3d1       _EndPaint@8                7c64e3d1 f   user32:USER32.dll
 0001:0001d3d7       __imp_load__FillRect@12    7c64e3d7     user32:USER32.dll
 0001:0001d3e1       _FillRect@12               7c64e3e1 f   user32:USER32.dll
 0001:0001d3e7       __imp_load__BeginPaint@8   7c64e3e7     user32:USER32.dll
 0001:0001d3f1       _BeginPaint@8              7c64e3f1 f   user32:USER32.dll
 0001:0001d3f7       __imp_load__GetClientRect@8 7c64e3f7     user32:USER32.dll
 0001:0001d401       _GetClientRect@8           7c64e401 f   user32:USER32.dll
 0001:0001d407       __imp_load__RedrawWindow@16 7c64e407     user32:USER32.dll
 0001:0001d411       _RedrawWindow@16           7c64e411 f   user32:USER32.dll
 0001:0001d417       __imp_load__SetWindowPos@28 7c64e417     user32:USER32.dll
 0001:0001d421       _SetWindowPos@28           7c64e421 f   user32:USER32.dll
 0001:0001d427       __imp_load__GetClassNameA@12 7c64e427     user32:USER32.dll
 0001:0001d431       _GetClassNameA@12          7c64e431 f   user32:USER32.dll
 0001:0001d437       __imp_load__GetParent@4    7c64e437     user32:USER32.dll
 0001:0001d441       _GetParent@4               7c64e441 f   user32:USER32.dll
 0001:0001d447       __imp_load__GetDesktopWindow@0 7c64e447     user32:USER32.dll
 0001:0001d451       _GetDesktopWindow@0        7c64e451 f   user32:USER32.dll
 0001:0001d457       __imp_load__CreateAcceleratorTableA@8 7c64e457     user32:USER32.dll
 0001:0001d461       _CreateAcceleratorTableA@8 7c64e461 f   user32:USER32.dll
 0001:0001d467       __imp_load__MoveWindow@24  7c64e467     user32:USER32.dll
 0001:0001d471       _MoveWindow@24             7c64e471 f   user32:USER32.dll
 0001:0001d477       __imp_load__ClientToScreen@8 7c64e477     user32:USER32.dll
 0001:0001d481       _ClientToScreen@8          7c64e481 f   user32:USER32.dll
 0001:0001d487       __imp_load__ScreenToClient@8 7c64e487     user32:USER32.dll
 0001:0001d491       _ScreenToClient@8          7c64e491 f   user32:USER32.dll
 0001:0001d497       __imp_load__ReleaseCapture@0 7c64e497     user32:USER32.dll
 0001:0001d4a1       _ReleaseCapture@0          7c64e4a1 f   user32:USER32.dll
 0001:0001d4a7       __imp_load__SetCapture@4   7c64e4a7     user32:USER32.dll
 0001:0001d4b1       _SetCapture@4              7c64e4b1 f   user32:USER32.dll
 0001:0001d4b7       __imp_load__InvalidateRect@12 7c64e4b7     user32:USER32.dll
 0001:0001d4c1       _InvalidateRect@12         7c64e4c1 f   user32:USER32.dll
 0001:0001d4c7       __imp_load__InvalidateRgn@12 7c64e4c7     user32:USER32.dll
 0001:0001d4d1       _InvalidateRgn@12          7c64e4d1 f   user32:USER32.dll
 0001:0001d4d7       __imp_load__GetDlgItem@8   7c64e4d7     user32:USER32.dll
 0001:0001d4e1       _GetDlgItem@8              7c64e4e1 f   user32:USER32.dll
 0001:0001d4e7       __imp_load__DestroyWindow@4 7c64e4e7     user32:USER32.dll
 0001:0001d4f1       _DestroyWindow@4           7c64e4f1 f   user32:USER32.dll
 0001:0001d4f7       __imp_load__CallWindowProcA@20 7c64e4f7     user32:USER32.dll
 0001:0001d501       _CallWindowProcA@20        7c64e501 f   user32:USER32.dll
 0001:0001d507       __imp_load__CreateWindowExA@48 7c64e507     user32:USER32.dll
 0001:0001d511       _CreateWindowExA@48        7c64e511 f   user32:USER32.dll
 0001:0001d517       __imp_load__DialogBoxIndirectParamW@20 7c64e517     user32:USER32.dll
 0001:0001d521       _DialogBoxIndirectParamW@20 7c64e521 f   user32:USER32.dll
 0001:0001d527       __imp_load__DialogBoxIndirectParamA@20 7c64e527     user32:USER32.dll
 0001:0001d531       _DialogBoxIndirectParamA@20 7c64e531 f   user32:USER32.dll
 0001:0001d537       __imp_load__CreateDialogIndirectParamW@20 7c64e537     user32:USER32.dll
 0001:0001d541       _CreateDialogIndirectParamW@20 7c64e541 f   user32:USER32.dll
 0001:0001d547       __imp_load__CreateDialogIndirectParamA@20 7c64e547     user32:USER32.dll
 0001:0001d551       _CreateDialogIndirectParamA@20 7c64e551 f   user32:USER32.dll
 0001:0001d557       __imp_load__GetClassInfoExW@12 7c64e557     user32:USER32.dll
 0001:0001d561       _GetClassInfoExW@12        7c64e561 f   user32:USER32.dll
 0001:0001d567       __imp_load__LoadCursorW@8  7c64e567     user32:USER32.dll
 0001:0001d571       _LoadCursorW@8             7c64e571 f   user32:USER32.dll
 0001:0001d577       __imp_load__GetDeviceCaps@8 7c64e577     gdi32:GDI32.dll
 0001:0001d581       __tailMerge_GDI32_dll      7c64e581     gdi32:GDI32.dll
 0001:0001d592       _GetDeviceCaps@8           7c64e592 f   gdi32:GDI32.dll
 0001:0001d598       __imp_load__CreateDCA@16   7c64e598     gdi32:GDI32.dll
 0001:0001d5a2       _CreateDCA@16              7c64e5a2 f   gdi32:GDI32.dll
 0001:0001d5a8       __imp_load__DeleteDC@4     7c64e5a8     gdi32:GDI32.dll
 0001:0001d5b2       _DeleteDC@4                7c64e5b2 f   gdi32:GDI32.dll
 0001:0001d5b8       __imp_load__BitBlt@36      7c64e5b8     gdi32:GDI32.dll
 0001:0001d5c2       _BitBlt@36                 7c64e5c2 f   gdi32:GDI32.dll
 0001:0001d5c8       __imp_load__SelectObject@8 7c64e5c8     gdi32:GDI32.dll
 0001:0001d5d2       _SelectObject@8            7c64e5d2 f   gdi32:GDI32.dll
 0001:0001d5d8       __imp_load__CreateCompatibleDC@4 7c64e5d8     gdi32:GDI32.dll
 0001:0001d5e2       _CreateCompatibleDC@4      7c64e5e2 f   gdi32:GDI32.dll
 0001:0001d5e8       __imp_load__CreateCompatibleBitmap@12 7c64e5e8     gdi32:GDI32.dll
 0001:0001d5f2       _CreateCompatibleBitmap@12 7c64e5f2 f   gdi32:GDI32.dll
 0001:0001d5f8       __imp_load__DeleteObject@4 7c64e5f8     gdi32:GDI32.dll
 0001:0001d602       _DeleteObject@4            7c64e602 f   gdi32:GDI32.dll
 0001:0001d608       __imp_load__CreateSolidBrush@4 7c64e608     gdi32:GDI32.dll
 0001:0001d612       _CreateSolidBrush@4        7c64e612 f   gdi32:GDI32.dll
 0001:0001d618       __imp_load__GetObjectA@12  7c64e618     gdi32:GDI32.dll
 0001:0001d622       _GetObjectA@12             7c64e622 f   gdi32:GDI32.dll
 0001:0001d628       __imp_load__GetStockObject@4 7c64e628     gdi32:GDI32.dll
 0001:0001d632       _GetStockObject@4          7c64e632 f   gdi32:GDI32.dll
 0001:0001d638       _GetCurrentThreadId@0      7c64e638 f   kernel32:KERNEL32.dll
 0001:0001d63e       _RaiseException@16         7c64e63e f   kernel32:KERNEL32.dll
 0001:0001d644       _LeaveCriticalSection@4    7c64e644 f   kernel32:KERNEL32.dll
 0001:0001d64a       _EnterCriticalSection@4    7c64e64a f   kernel32:KERNEL32.dll
 0001:0001d650       _DisableThreadLibraryCalls@4 7c64e650 f   kernel32:KERNEL32.dll
 0001:0001d656       _OutputDebugStringA@4      7c64e656 f   kernel32:KERNEL32.dll
 0001:0001d65c       _GetVersionExA@4           7c64e65c f   kernel32:KERNEL32.dll
 0001:0001d662       _GetModuleHandleA@4        7c64e662 f   kernel32:KERNEL32.dll
 0001:0001d668       _lstrlenA@4                7c64e668 f   kernel32:KERNEL32.dll
 0001:0001d66e       _GetModuleFileNameA@12     7c64e66e f   kernel32:KERNEL32.dll
 0001:0001d674       _MultiByteToWideChar@24    7c64e674 f   kernel32:KERNEL32.dll
 0001:0001d67a       _lstrlenW@4                7c64e67a f   kernel32:KERNEL32.dll
 0001:0001d680       _InitializeCriticalSection@4 7c64e680 f   kernel32:KERNEL32.dll
 0001:0001d686       _GetLastError@0            7c64e686 f   kernel32:KERNEL32.dll
 0001:0001d68c       _DeleteCriticalSection@4   7c64e68c f   kernel32:KERNEL32.dll
 0001:0001d692       _WideCharToMultiByte@32    7c64e692 f   kernel32:KERNEL32.dll
 0001:0001d698       _FreeLibrary@4             7c64e698 f   kernel32:KERNEL32.dll
 0001:0001d69e       _SizeofResource@8          7c64e69e f   kernel32:KERNEL32.dll
 0001:0001d6a4       _LoadResource@8            7c64e6a4 f   kernel32:KERNEL32.dll
 0001:0001d6aa       _FindResourceA@12          7c64e6aa f   kernel32:KERNEL32.dll
 0001:0001d6b0       _LoadLibraryExA@12         7c64e6b0 f   kernel32:KERNEL32.dll
 0001:0001d6b6       _CloseHandle@4             7c64e6b6 f   kernel32:KERNEL32.dll
 0001:0001d6bc       _ReadFile@20               7c64e6bc f   kernel32:KERNEL32.dll
 0001:0001d6c2       _GetFileSize@8             7c64e6c2 f   kernel32:KERNEL32.dll
 0001:0001d6c8       _CreateFileA@28            7c64e6c8 f   kernel32:KERNEL32.dll
 0001:0001d6ce       _lstrcmpiA@8               7c64e6ce f   kernel32:KERNEL32.dll
 0001:0001d6d4       _IsDBCSLeadByte@4          7c64e6d4 f   kernel32:KERNEL32.dll
 0001:0001d6da       _InterlockedIncrement@4    7c64e6da f   kernel32:KERNEL32.dll
 0001:0001d6e0       _InterlockedDecrement@4    7c64e6e0 f   kernel32:KERNEL32.dll
 0001:0001d6e6       _WaitForSingleObject@8     7c64e6e6 f   kernel32:KERNEL32.dll
 0001:0001d6ec       _LocalFree@4               7c64e6ec f   kernel32:KERNEL32.dll
 0001:0001d6f2       _FormatMessageA@28         7c64e6f2 f   kernel32:KERNEL32.dll
 0001:0001d6f8       _GlobalUnlock@4            7c64e6f8 f   kernel32:KERNEL32.dll
 0001:0001d6fe       _GlobalLock@4              7c64e6fe f   kernel32:KERNEL32.dll
 0001:0001d704       _GlobalAlloc@8             7c64e704 f   kernel32:KERNEL32.dll
 0001:0001d70a       _MulDiv@12                 7c64e70a f   kernel32:KERNEL32.dll
 0001:0001d710       _lstrcmpA@8                7c64e710 f   kernel32:KERNEL32.dll
 0001:0001d716       _FlushInstructionCache@12  7c64e716 f   kernel32:KERNEL32.dll
 0001:0001d71c       _GetCurrentProcess@0       7c64e71c f   kernel32:KERNEL32.dll
 0001:0001d722       _SetLastError@4            7c64e722 f   kernel32:KERNEL32.dll
 0001:0001d728       _GlobalFree@4              7c64e728 f   kernel32:KERNEL32.dll
 0001:0001d72e       _GlobalHandle@4            7c64e72e f   kernel32:KERNEL32.dll
 0001:0001d734       _LockResource@4            7c64e734 f   kernel32:KERNEL32.dll
 0001:0001d73a       _FindResourceW@12          7c64e73a f   kernel32:KERNEL32.dll
 0001:0001d740       _GetTickCount@0            7c64e740 f   kernel32:KERNEL32.dll
 0001:0001d750       ?_AtlGetThreadACPThunk@ATL@@YGIXZ 7c64e750 f i atlsd:atltrace.obj
 0001:0001d7d0       ?InterlockedExchangePointer@@YGPAXPAPAXPAX@Z 7c64e7d0 f i atlsd:atltrace.obj
 0001:0001d7f0       ?_AtlGetThreadACPFake@ATL@@YGIXZ 7c64e7f0 f i atlsd:atltrace.obj
 0001:0001d880       ?_AtlGetThreadACPReal@ATL@@YGIXZ 7c64e880 f i atlsd:atltrace.obj
 0001:0001d890       ??0CTraceCategory@ATL@@QAE@PBDI@Z 7c64e890 f i atlsd:atltrace.obj
 0001:0001d8e0       ?ChangeCategory@CTrace@ATL@@QAE_NKIW4ATLTRACESTATUS@2@@Z 7c64e8e0 f i atlsd:atltrace.obj
 0001:0001d910       ?RegisterCategory@CTrace@ATL@@QAEKPBD@Z 7c64e910 f i atlsd:atltrace.obj
 0001:0001d930       ??0CAtlAllocator@@QAE@XZ   7c64e930 f i atlsd:Externs.obj
 0001:0001d980       ??0CTraceSnapshot@@QAE@XZ  7c64e980 f i atlsd:Externs.obj
 0001:0001d9b0       ??0?$CSimpleArray@UCModuleInfo@CTraceSnapshot@@V?$CSimpleArrayEqualHelper@UCModuleInfo@CTraceSnapshot@@@ATL@@@ATL@@QAE@XZ 7c64e9b0 f i atlsd:Externs.obj
 0001:0001d9e0       ??0?$CSimpleArray@KV?$CSimpleArrayEqualHelper@K@ATL@@@ATL@@QAE@XZ 7c64e9e0 f i atlsd:Externs.obj
 0001:0001db30       ??0CAtlException@ATL@@QAE@J@Z 7c64eb30 f i atlsd:Externs.obj
 0001:0001db50       ??0CTrace@ATL@@AAE@P6AHHPBDH00ZZ@Z 7c64eb50 f i atlsd:Externs.obj
 0001:0001db90       ??1CAtlAllocator@@QAE@XZ   7c64eb90 f i atlsd:Externs.obj
 0001:0001dbb0       ??1CTraceSnapshot@@QAE@XZ  7c64ebb0 f i atlsd:Externs.obj
 0001:0001dbd0       ??1?$CSimpleArray@UCModuleInfo@CTraceSnapshot@@V?$CSimpleArrayEqualHelper@UCModuleInfo@CTraceSnapshot@@@ATL@@@ATL@@QAE@XZ 7c64ebd0 f i atlsd:Externs.obj
 0001:0001dbf0       ??1?$CSimpleArray@KV?$CSimpleArrayEqualHelper@K@ATL@@@ATL@@QAE@XZ 7c64ebf0 f i atlsd:Externs.obj
 0001:0001dc10       ?RemoveAll@?$CSimpleArray@UCModuleInfo@CTraceSnapshot@@V?$CSimpleArrayEqualHelper@UCModuleInfo@CTraceSnapshot@@@ATL@@@ATL@@QAEXXZ 7c64ec10 f i atlsd:Externs.obj
 0001:0001dc70       ?RemoveAll@?$CSimpleArray@KV?$CSimpleArrayEqualHelper@K@ATL@@@ATL@@QAEXXZ 7c64ec70 f i atlsd:Externs.obj
 0001:0001dcd0       ??1CTrace@ATL@@AAE@XZ      7c64ecd0 f i atlsd:Externs.obj
 0001:0001dcf0       ?NotifyTool@ATL@@YGXXZ     7c64ecf0 f   atlsd:AtlDebugAPI.obj
 0001:0001dd30       _AtlTraceRegister@8        7c64ed30 f   atlsd:AtlDebugAPI.obj
 0001:0001dda0       _AtlTraceUnregister@4      7c64eda0 f   atlsd:AtlDebugAPI.obj
 0001:0001ddd0       _AtlTraceRegisterCategoryA@8 7c64edd0 f   atlsd:AtlDebugAPI.obj
 0001:0001de20       _AtlTraceRegisterCategoryU@8 7c64ee20 f   atlsd:AtlDebugAPI.obj
 0001:0001de60       _AtlTraceModifyProcess@20  7c64ee60 f   atlsd:AtlDebugAPI.obj
 0001:0001df00       _AtlTraceModifyModule@16   7c64ef00 f   atlsd:AtlDebugAPI.obj
 0001:0001dfe0       _AtlTraceModifyCategory@16 7c64efe0 f   atlsd:AtlDebugAPI.obj
 0001:0001e090       _AtlTraceGetProcess@20     7c64f090 f   atlsd:AtlDebugAPI.obj
 0001:0001e160       _AtlTraceGetModule@16      7c64f160 f   atlsd:AtlDebugAPI.obj
 0001:0001e270       _AtlTraceGetCategory@16    7c64f270 f   atlsd:AtlDebugAPI.obj
 0001:0001e350       _AtlTraceGetUpdateEventNameA@4 7c64f350 f   atlsd:AtlDebugAPI.obj
 0001:0001e380       _AtlTraceGetUpdateEventNameA_s@8 7c64f380 f   atlsd:AtlDebugAPI.obj
 0001:0001e3b0       _AtlTraceGetUpdateEventNameU@4 7c64f3b0 f   atlsd:AtlDebugAPI.obj
 0001:0001e400       _AtlTraceGetUpdateEventNameU_s@8 7c64f400 f   atlsd:AtlDebugAPI.obj
 0001:0001e460       _AtlTraceVA                7c64f460 f   atlsd:AtlDebugAPI.obj
 0001:0001e780       _AtlTraceVU                7c64f780 f   atlsd:AtlDebugAPI.obj
 0001:0001ead0       _AtlTraceOpenProcess@4     7c64fad0 f   atlsd:AtlDebugAPI.obj
 0001:0001ebc0       _AtlTraceCloseProcess@4    7c64fbc0 f   atlsd:AtlDebugAPI.obj
 0001:0001ec50       _AtlTraceSnapshotProcess@4 7c64fc50 f   atlsd:AtlDebugAPI.obj
 0001:0001ecc0       _AtlTraceGetProcessInfo@8  7c64fcc0 f   atlsd:AtlDebugAPI.obj
 0001:0001ee60       _AtlTraceGetModuleInfo@12  7c64fe60 f   atlsd:AtlDebugAPI.obj
 0001:0001eff0       _AtlTraceGetCategoryInfo@16 7c64fff0 f   atlsd:AtlDebugAPI.obj
 0001:0001f370       ?_IsTracingEnabled@ATL@@YA_NKKI@Z 7c650370 f   atlsd:AtlDebugAPI.obj
 0001:0001f3b0       ?GetProcess@CAtlAllocator@@QBEPAVCAtlTraceProcess@@XZ 7c6503b0 f i atlsd:AtlDebugAPI.obj
 0001:0001f3d0       ?Name@CAtlTraceCategory@@QBEPB_WXZ 7c6503d0 f i atlsd:AtlDebugAPI.obj
 0001:0001f3f0       ??_GCAtlAllocator@@QAEPAXI@Z 7c6503f0 f i atlsd:AtlDebugAPI.obj
 0001:0001f420       ?Path@CAtlTraceModuleInfo@@QBEPB_WXZ 7c650420 f i atlsd:AtlDebugAPI.obj
 0001:0001f440       ?Name@CAtlTraceModuleInfo@@QBEPB_WXZ 7c650440 f i atlsd:AtlDebugAPI.obj
 0001:0001f460       ?Id@CAtlTraceProcess@@QBEKXZ 7c650460 f i atlsd:AtlDebugAPI.obj
 0001:0001f480       ?CrtDbgReport@CAtlTraceModule@@QBEP6AHHPBDH00ZZXZ 7c650480 f i atlsd:AtlDebugAPI.obj
 0001:0001f4a0       ?GetSize@?$CSimpleArray@UCModuleInfo@CTraceSnapshot@@V?$CSimpleArrayEqualHelper@UCModuleInfo@CTraceSnapshot@@@ATL@@@ATL@@QBEHXZ 7c6504a0 f i atlsd:AtlDebugAPI.obj
 0001:0001f4c0       ??A?$CSimpleArray@UCModuleInfo@CTraceSnapshot@@V?$CSimpleArrayEqualHelper@UCModuleInfo@CTraceSnapshot@@@ATL@@@ATL@@QAEAAUCModuleInfo@CTraceSnapshot@@H@Z 7c6504c0 f i atlsd:AtlDebugAPI.obj
 0001:0001f530       ?wcscpy_s@Checked@ATL@@YAXPA_WIPB_W@Z 7c650530 f i atlsd:AtlDebugAPI.obj
 0001:0001f560       ??0?$CA2WEX@$0IA@@ATL@@QAE@PBD@Z 7c650560 f i atlsd:AtlDebugAPI.obj
 0001:0001f590       ??1?$CA2WEX@$0IA@@ATL@@QAE@XZ 7c650590 f i atlsd:AtlDebugAPI.obj
 0001:0001f5c0       ??B?$CA2WEX@$0IA@@ATL@@QBEPA_WXZ 7c6505c0 f i atlsd:AtlDebugAPI.obj
 0001:0001f5d0       ?Init@?$CA2WEX@$0IA@@ATL@@AAEXPBDI@Z 7c6505d0 f i atlsd:AtlDebugAPI.obj
 0001:0001f6d0       ??$AtlConvFreeMemory@_W@ATL@@YAXPA_W0H@Z 7c6506d0 f i atlsd:AtlDebugAPI.obj
 0001:0001f710       ??$AtlConvAllocMemory@_W@ATL@@YAXPAPA_WHPA_WH@Z 7c650710 f i atlsd:AtlDebugAPI.obj
 0001:0001f890       ??0CAtlBaseModule@ATL@@QAE@XZ 7c650890 f   atlsd:atlbase.obj
 0001:0001fa00       ??1CAtlBaseModule@ATL@@QAE@XZ 7c650a00 f   atlsd:atlbase.obj
 0001:0001fa20       ?AddResourceInstance@CAtlBaseModule@ATL@@QAE_NPAUHINSTANCE__@@@Z 7c650a20 f   atlsd:atlbase.obj
 0001:0001fad0       ?RemoveResourceInstance@CAtlBaseModule@ATL@@QAE_NPAUHINSTANCE__@@@Z 7c650ad0 f   atlsd:atlbase.obj
 0001:0001fbd0       ?GetHInstanceAt@CAtlBaseModule@ATL@@QAEPAUHINSTANCE__@@H@Z 7c650bd0 f   atlsd:atlbase.obj
 0001:0001fcd0       ??0_ATL_BASE_MODULE70@ATL@@QAE@XZ 7c650cd0 f i atlsd:atlbase.obj
 0001:0001fd00       ??1_ATL_BASE_MODULE70@ATL@@QAE@XZ 7c650d00 f i atlsd:atlbase.obj
 0001:0001fd30       ??0?$CSimpleArray@PAUHINSTANCE__@@V?$CSimpleArrayEqualHelper@PAUHINSTANCE__@@@ATL@@@ATL@@QAE@XZ 7c650d30 f i atlsd:atlbase.obj
 0001:0001fd60       ?GetSize@?$CSimpleArray@PAUHINSTANCE__@@V?$CSimpleArrayEqualHelper@PAUHINSTANCE__@@@ATL@@@ATL@@QBEHXZ 7c650d60 f i atlsd:atlbase.obj
 0001:0001fd80       ?Add@?$CSimpleArray@PAUHINSTANCE__@@V?$CSimpleArrayEqualHelper@PAUHINSTANCE__@@@ATL@@@ATL@@QAEHABQAUHINSTANCE__@@@Z 7c650d80 f i atlsd:atlbase.obj
 0001:0001fea0       ?RemoveAt@?$CSimpleArray@PAUHINSTANCE__@@V?$CSimpleArrayEqualHelper@PAUHINSTANCE__@@@ATL@@@ATL@@QAEHH@Z 7c650ea0 f i atlsd:atlbase.obj
 0001:0001ff60       ??A?$CSimpleArray@PAUHINSTANCE__@@V?$CSimpleArrayEqualHelper@PAUHINSTANCE__@@@ATL@@@ATL@@QAEAAPAUHINSTANCE__@@H@Z 7c650f60 f i atlsd:atlbase.obj
 0001:0001ffd0       ?InternalSetAtIndex@?$CSimpleArray@PAUHINSTANCE__@@V?$CSimpleArrayEqualHelper@PAUHINSTANCE__@@@ATL@@@ATL@@QAEXHABQAUHINSTANCE__@@@Z 7c650fd0 f i atlsd:atlbase.obj
 0001:00020020       ??0Wrapper@?$CSimpleArray@PAUHINSTANCE__@@V?$CSimpleArrayEqualHelper@PAUHINSTANCE__@@@ATL@@@ATL@@QAE@ABQAUHINSTANCE__@@@Z 7c651020 f i atlsd:atlbase.obj
 0001:00020040       ??1?$CSimpleArray@PAUHINSTANCE__@@V?$CSimpleArrayEqualHelper@PAUHINSTANCE__@@@ATL@@@ATL@@QAE@XZ 7c651040 f i atlsd:atlbase.obj
 0001:00020060       ??$?2PAUHINSTANCE__@@@Wrapper@?$CSimpleArray@PAUHINSTANCE__@@V?$CSimpleArrayEqualHelper@PAUHINSTANCE__@@@ATL@@@ATL@@SAPAXIPAPAUHINSTANCE__@@@Z 7c651060 f i atlsd:atlbase.obj
 0001:00020070       ?RemoveAll@?$CSimpleArray@PAUHINSTANCE__@@V?$CSimpleArrayEqualHelper@PAUHINSTANCE__@@@ATL@@@ATL@@QAEXXZ 7c651070 f i atlsd:atlbase.obj
 0001:000200d0       ?memmove_s@Checked@ATL@@YAXPAXIPBXI@Z 7c6510d0 f i atlsd:atlbase.obj
 0001:00020100       ??0CAtlWinModule@ATL@@QAE@XZ 7c651100 f i atlsd:atlbase.obj
 0001:00020170       ??0_ATL_WIN_MODULE70@ATL@@QAE@XZ 7c651170 f i atlsd:atlbase.obj
 0001:000201a0       ??0?$CSimpleArray@GV?$CSimpleArrayEqualHelper@G@ATL@@@ATL@@QAE@XZ 7c6511a0 f i atlsd:atlbase.obj
 0001:000201d0       ??1CAtlWinModule@ATL@@QAE@XZ 7c6511d0 f i atlsd:atlbase.obj
 0001:000201f0       ??1_ATL_WIN_MODULE70@ATL@@QAE@XZ 7c6511f0 f i atlsd:atlbase.obj
 0001:00020220       ?AtlWinModuleTerm@ATL@@YGJPAU_ATL_WIN_MODULE70@1@PAUHINSTANCE__@@@Z 7c651220 f i atlsd:atlbase.obj
 0001:000202c0       ??1?$CSimpleArray@GV?$CSimpleArrayEqualHelper@G@ATL@@@ATL@@QAE@XZ 7c6512c0 f i atlsd:atlbase.obj
 0001:000202e0       ?__AllocStdCallThunk_cmn@@YAPAXXZ 7c6512e0 f   atlsd:atlthunk.obj
 0001:000203f0       ?__FreeStdCallThunk_cmn@@YAXPAX@Z 7c6513f0 f   atlsd:atlthunk.obj
 0001:00020540       ?__AllocStdCallThunk@@YGPAXXZ 7c651540 f   atlsd:atlthunk.obj
 0001:00020550       ?__FreeStdCallThunk@@YGXPAX@Z 7c651550 f   atlsd:atlthunk.obj
 0001:00020570       ?__AllocStdCallThunk@ATL@@YGPAXXZ 7c651570 f   atlsd:atlthunk.obj
 0001:00020580       ?__FreeStdCallThunk@ATL@@YGXPAX@Z 7c651580 f   atlsd:atlthunk.obj
 0001:000205a0       ___InlineInterlockedCompareExchangePointer 7c6515a0 f i atlsd:atlthunk.obj
 0001:000205c0       _Atl_NtCurrentTeb          7c6515c0 f i atlsd:atlthunk.obj
 0001:000205d0       ?Init@CAtlAllocator@@QAE_NPBDK@Z 7c6515d0 f   atlsd:Allocate.obj
 0001:00020910       ?Open@CAtlAllocator@@QAE_NPBD@Z 7c651910 f   atlsd:Allocate.obj
 0001:00020a50       ?Close@CAtlAllocator@@QAEX_N@Z 7c651a50 f   atlsd:Allocate.obj
 0001:00020ac0       ?GetModule@CAtlAllocator@@QBEPAVCAtlTraceModule@@H@Z 7c651ac0 f   atlsd:Allocate.obj
 0001:00020b40       ?GetCategory@CAtlAllocator@@QBEPAVCAtlTraceCategory@@H@Z 7c651b40 f   atlsd:Allocate.obj
 0001:00020be0       ?GetCategoryCount@CAtlAllocator@@QBEHH@Z 7c651be0 f   atlsd:Allocate.obj
 0001:00020c50       ?GetCategoryCount@CAtlAllocator@@QBEHABVCAtlTraceModule@@@Z 7c651c50 f   atlsd:Allocate.obj
 0001:00020cb0       ?GetModuleCount@CAtlAllocator@@QBEHXZ 7c651cb0 f   atlsd:Allocate.obj
 0001:00020cf0       ?FindModule@CAtlAllocator@@QBE_NPB_WPAI@Z 7c651cf0 f   atlsd:Allocate.obj
 0001:00020d60       ?AddModule@CAtlAllocator@@QAEHPAUHINSTANCE__@@@Z 7c651d60 f   atlsd:Allocate.obj
 0001:00020f20       ?AddCategory@CAtlAllocator@@QAEHHPB_W@Z 7c651f20 f   atlsd:Allocate.obj
 0001:00021140       ?RemoveModule@CAtlAllocator@@QAE_NH@Z 7c652140 f   atlsd:Allocate.obj
 0001:000211e0       ?CleanUp@CAtlAllocator@@QAEXXZ 7c6521e0 f   atlsd:Allocate.obj
 0001:00021200       ?TakeSnapshot@CAtlAllocator@@QAEXXZ 7c652200 f   atlsd:Allocate.obj
 0001:000213c0       ?ReleaseSnapshot@CAtlAllocator@@QAEXXZ 7c6523c0 f   atlsd:Allocate.obj
 0001:00021490       ?IncRef@CAtlTraceProcess@@QAEIXZ 7c652490 f i atlsd:Allocate.obj
 0001:000214c0       ?Base@CAtlTraceProcess@@QBEPAXXZ 7c6524c0 f i atlsd:Allocate.obj
 0001:000214e0       ?DecRef@CAtlTraceProcess@@QAEIXZ 7c6524e0 f i atlsd:Allocate.obj
 0001:00021510       ?ModuleCount@CAtlTraceProcess@@QBEHXZ 7c652510 f i atlsd:Allocate.obj
 0001:00021530       ?MaxSize@CAtlTraceProcess@@QBEKXZ 7c652530 f i atlsd:Allocate.obj
 0001:00021550       ?CategoryCount@CAtlTraceProcess@@QBEHXZ 7c652550 f i atlsd:Allocate.obj
 0001:00021570       ?TryAllocate@CAtlTraceSettings@@QAE_NXZ 7c652570 f i atlsd:Allocate.obj
 0001:000215b0       ?MarkValid@CAtlTraceSettings@@QAEXJ@Z 7c6525b0 f i atlsd:Allocate.obj
 0001:000215f0       ?IncModuleCount@CAtlTraceProcess@@QAEXI@Z 7c6525f0 f i atlsd:Allocate.obj
 0001:00021620       ?TryAddRef@CAtlTraceSettings@@QAE_NXZ 7c652620 f i atlsd:Allocate.obj
 0001:00021660       ?Release@CAtlTraceSettings@@QAEXXZ 7c652660 f i atlsd:Allocate.obj
 0001:00021690       ?IncCategoryCount@CAtlTraceProcess@@QAEXI@Z 7c652690 f i atlsd:Allocate.obj
 0001:000216c0       ?Add@?$CSimpleArray@UCModuleInfo@CTraceSnapshot@@V?$CSimpleArrayEqualHelper@UCModuleInfo@CTraceSnapshot@@@ATL@@@ATL@@QAEHABUCModuleInfo@CTraceSnapshot@@@Z 7c6526c0 f i atlsd:Allocate.obj
 0001:000217e0       ?GetSize@?$CSimpleArray@KV?$CSimpleArrayEqualHelper@K@ATL@@@ATL@@QBEHXZ 7c6527e0 f i atlsd:Allocate.obj
 0001:00021800       ?Add@?$CSimpleArray@KV?$CSimpleArrayEqualHelper@K@ATL@@@ATL@@QAEHABK@Z 7c652800 f i atlsd:Allocate.obj
 0001:00021920       ?RemoveAt@?$CSimpleArray@KV?$CSimpleArrayEqualHelper@K@ATL@@@ATL@@QAEHH@Z 7c652920 f i atlsd:Allocate.obj
 0001:000219e0       ??A?$CSimpleArray@KV?$CSimpleArrayEqualHelper@K@ATL@@@ATL@@QAEAAKH@Z 7c6529e0 f i atlsd:Allocate.obj
 0001:00021a50       ?InternalSetAtIndex@?$CSimpleArray@UCModuleInfo@CTraceSnapshot@@V?$CSimpleArrayEqualHelper@UCModuleInfo@CTraceSnapshot@@@ATL@@@ATL@@QAEXHABUCModuleInfo@CTraceSnapshot@@@Z 7c652a50 f i atlsd:Allocate.obj
 0001:00021aa0       ?InternalSetAtIndex@?$CSimpleArray@KV?$CSimpleArrayEqualHelper@K@ATL@@@ATL@@QAEXHABK@Z 7c652aa0 f i atlsd:Allocate.obj
 0001:00021af0       ??0Wrapper@?$CSimpleArray@UCModuleInfo@CTraceSnapshot@@V?$CSimpleArrayEqualHelper@UCModuleInfo@CTraceSnapshot@@@ATL@@@ATL@@QAE@ABUCModuleInfo@CTraceSnapshot@@@Z 7c652af0 f i atlsd:Allocate.obj
 0001:00021b20       ??0Wrapper@?$CSimpleArray@KV?$CSimpleArrayEqualHelper@K@ATL@@@ATL@@QAE@ABK@Z 7c652b20 f i atlsd:Allocate.obj
 0001:00021b40       ??$?2UCModuleInfo@CTraceSnapshot@@@Wrapper@?$CSimpleArray@UCModuleInfo@CTraceSnapshot@@V?$CSimpleArrayEqualHelper@UCModuleInfo@CTraceSnapshot@@@ATL@@@ATL@@SAPAXIPAUCModuleInfo@CTraceSnapshot@@@Z 7c652b40 f i atlsd:Allocate.obj
 0001:00021b50       ??$?2K@Wrapper@?$CSimpleArray@KV?$CSimpleArrayEqualHelper@K@ATL@@@ATL@@SAPAXIPAK@Z 7c652b50 f i atlsd:Allocate.obj
 0001:00021b60       ??2@YAPAXIPAX@Z            7c652b60 f i atlsd:Allocate.obj
 0001:00021b70       ??0CAtlTraceModuleInfo@@QAE@XZ 7c652b70 f   atlsd:AtlTraceModuleManager.obj
 0001:00021bc0       ?Reset@CAtlTraceModuleInfo@@QAEXPAUHINSTANCE__@@@Z 7c652bc0 f   atlsd:AtlTraceModuleManager.obj
 0001:00021e30       ??0CAtlTraceCategory@@QAE@XZ 7c652e30 f   atlsd:AtlTraceModuleManager.obj
 0001:00021e60       ?Reset@CAtlTraceCategory@@QAEXPB_WJ@Z 7c652e60 f   atlsd:AtlTraceModuleManager.obj
 0001:00021eb0       ??0CAtlTraceModule@@QAE@XZ 7c652eb0 f   atlsd:AtlTraceModuleManager.obj
 0001:00021ef0       ?CrtDbgReport@CAtlTraceModule@@QAEXP6AHHPBDH00ZZ@Z 7c652ef0 f   atlsd:AtlTraceModuleManager.obj
 0001:00021f20       ??0CAtlTraceProcess@@QAE@K@Z 7c652f20 f   atlsd:AtlTraceModuleManager.obj
 0001:00021ff0       ?GetNextCookie@CAtlTraceProcess@@QAEJXZ 7c652ff0 f   atlsd:AtlTraceModuleManager.obj
 0001:00022010       ??0CAtlTraceSettings@@QAE@XZ 7c653010 f i atlsd:AtlTraceModuleManager.obj
 0001:00022050       ?AtlAdvise@ATL@@YGJPAUIUnknown@@0ABU_GUID@@PAK@Z 7c653050 f   atlsd:atlfuncs.obj
 0001:00022110       ?AtlUnadvise@ATL@@YGJPAUIUnknown@@ABU_GUID@@K@Z 7c653110 f   atlsd:atlfuncs.obj
 0001:000221d0       ?AtlFreeMarshalStream@ATL@@YGJPAUIStream@@@Z 7c6531d0 f   atlsd:atlfuncs.obj
 0001:00022230       ?AtlMarshalPtrInProc@ATL@@YGJPAUIUnknown@@ABU_GUID@@PAPAUIStream@@@Z 7c653230 f   atlsd:atlfuncs.obj
 0001:000222d0       ?AtlUnmarshalPtr@ATL@@YGJPAUIStream@@ABU_GUID@@PAPAUIUnknown@@@Z 7c6532d0 f   atlsd:atlfuncs.obj
 0001:00022370       ?AtlComModuleGetClassObject@ATL@@YGJPAU_ATL_COM_MODULE70@1@ABU_GUID@@1PAPAX@Z 7c653370 f   atlsd:atlfuncs.obj
 0001:00022540       ?AtlComModuleRegisterClassObjects@ATL@@YGJPAU_ATL_COM_MODULE70@1@KK@Z 7c653540 f   atlsd:atlfuncs.obj
 0001:000225d0       ?AtlComModuleRevokeClassObjects@ATL@@YGJPAU_ATL_COM_MODULE70@1@@Z 7c6535d0 f   atlsd:atlfuncs.obj
 0001:00022660       ?AtlWaitWithMessageLoop@ATL@@YGHPAX@Z 7c653660 f   atlsd:atlfuncs.obj
 0001:00022750       ?AtlInternalQueryInterface@ATL@@YGJPAXPBU_ATL_INTMAP_ENTRY@1@ABU_GUID@@PAPAX@Z 7c653750 f   atlsd:atlfuncs.obj
 0001:00022920       ?AtlGetVersion@ATL@@YGKPAX@Z 7c653920 f   atlsd:atlfuncs.obj
 0001:00022930       ?AtlWinModuleAddCreateWndData@ATL@@YGXPAU_ATL_WIN_MODULE70@1@PAU_AtlCreateWndData@1@PAX@Z 7c653930 f   atlsd:atlfuncs.obj
 0001:00022a40       ?AtlWinModuleExtractCreateWndData@ATL@@YGPAXPAU_ATL_WIN_MODULE70@1@@Z 7c653a40 f   atlsd:atlfuncs.obj
 0001:00022b60       ?AtlWinModuleInit@ATL@@YGJPAU_ATL_WIN_MODULE70@1@@Z 7c653b60 f   atlsd:atlfuncs.obj
 0001:00022c00       ?AtlModuleAddTermFunc@ATL@@YGJPAU_ATL_MODULE70@1@P6GXK@ZK@Z 7c653c00 f   atlsd:atlfuncs.obj
 0001:00022d10       ?AtlCallTermFunc@ATL@@YGXPAU_ATL_MODULE70@1@@Z 7c653d10 f   atlsd:atlfuncs.obj
 0001:00022d80       _CComStdCallThunkHelper@0  7c653d80 f   atlsd:atlfuncs.obj
 0001:00022d90       ??3@YAXPAX@Z               7c653d90 f   libcmtd:dbgdel.obj
 0001:00022e80       __CrtSetReportHookW2       7c653e80 f   libcmtd:dbgrptw.obj
 0001:000231a0       __CrtDbgReportW            7c6541a0 f   libcmtd:dbgrptw.obj
 0001:000231e0       __CrtDbgReportWV           7c6541e0 f i libcmtd:dbgrptw.obj
 0001:00023520       __invoke_watson_if_error   7c654520 f i libcmtd:dbgrptw.obj
 0001:00023550       __invoke_watson_if_oneof   7c654550 f i libcmtd:dbgrptw.obj
 0001:00023590       ___crtMessageWindowW       7c654590 f   libcmtd:dbgrptw.obj
 0001:00023990       ?_CrtDbgReportW@@YAHHPBGH00ZZ 7c654990 f   libcmtd:dbgrptw.obj
 0001:000239d0       _malloc                    7c6549d0 f   libcmtd:dbgheap.obj
 0001:00023a00       __malloc_dbg               7c654a00 f   libcmtd:dbgheap.obj
 0001:00023a30       __nh_malloc                7c654a30 f   libcmtd:dbgheap.obj
 0001:00023a50       __nh_malloc_dbg            7c654a50 f   libcmtd:dbgheap.obj
 0001:00023ac0       __heap_alloc               7c654ac0 f   libcmtd:dbgheap.obj
 0001:00023ae0       __heap_alloc_dbg           7c654ae0 f   libcmtd:dbgheap.obj
 0001:00023e80       _calloc                    7c654e80 f   libcmtd:dbgheap.obj
 0001:00023eb0       __calloc_dbg               7c654eb0 f   libcmtd:dbgheap.obj
 0001:00023f70       _realloc                   7c654f70 f   libcmtd:dbgheap.obj
 0001:00023fa0       __recalloc                 7c654fa0 f   libcmtd:dbgheap.obj
 0001:00023fd0       __realloc_dbg              7c654fd0 f   libcmtd:dbgheap.obj
 0001:00024600       __recalloc_dbg             7c655600 f   libcmtd:dbgheap.obj
 0001:00024700       __expand                   7c655700 f   libcmtd:dbgheap.obj
 0001:00024730       __expand_dbg               7c655730 f   libcmtd:dbgheap.obj
 0001:00024840       _free                      7c655840 f   libcmtd:dbgheap.obj
 0001:00024860       __free_nolock              7c655860 f   libcmtd:dbgheap.obj
 0001:00024880       __free_dbg                 7c655880 f   libcmtd:dbgheap.obj
 0001:00024900       __free_dbg_nolock          7c655900 f   libcmtd:dbgheap.obj
 0001:00024de0       __msize                    7c655de0 f   libcmtd:dbgheap.obj
 0001:00024e00       __msize_dbg                7c655e00 f   libcmtd:dbgheap.obj
 0001:00024ff0       __CrtSetBreakAlloc         7c655ff0 f   libcmtd:dbgheap.obj
 0001:00025010       __CrtSetDbgBlockType       7c656010 f   libcmtd:dbgheap.obj
 0001:00025100       __CrtSetAllocHook          7c656100 f   libcmtd:dbgheap.obj
 0001:00025120       __CrtGetAllocHook          7c656120 f   libcmtd:dbgheap.obj
 0001:00025180       __CrtCheckMemory           7c656180 f   libcmtd:dbgheap.obj
 0001:000255d0       __CrtSetDbgFlag            7c6565d0 f   libcmtd:dbgheap.obj
 0001:00025720       __CrtDoForAllClientObjects 7c656720 f   libcmtd:dbgheap.obj
 0001:00025840       __CrtIsValidPointer        7c656840 f   libcmtd:dbgheap.obj
 0001:00025850       __CrtIsValidHeapPointer    7c656850 f   libcmtd:dbgheap.obj
 0001:00025940       __CrtIsMemoryBlock         7c656940 f   libcmtd:dbgheap.obj
 0001:00025ab0       __CrtReportBlockType       7c656ab0 f   libcmtd:dbgheap.obj
 0001:00025ae0       __CrtSetDumpClient         7c656ae0 f   libcmtd:dbgheap.obj
 0001:00025b00       __CrtGetDumpClient         7c656b00 f   libcmtd:dbgheap.obj
 0001:00025b10       __CrtMemCheckpoint         7c656b10 f   libcmtd:dbgheap.obj
 0001:00025d30       __CrtMemDifference         7c656d30 f   libcmtd:dbgheap.obj
 0001:00025f50       __CrtMemDumpAllObjectsSince 7c656f50 f   libcmtd:dbgheap.obj
 0001:00025f90       ??0_LocaleUpdate@@QAE@PAUlocaleinfo_struct@@@Z 7c656f90 f i libcmtd:dbgheap.obj
 0001:00026070       ??1_LocaleUpdate@@QAE@XZ   7c657070 f i libcmtd:dbgheap.obj
 0001:000260a0       ?GetLocaleT@_LocaleUpdate@@QAEPAUlocaleinfo_struct@@XZ 7c6570a0 f i libcmtd:dbgheap.obj
 0001:00026560       __CrtDumpMemoryLeaks       7c657560 f   libcmtd:dbgheap.obj
 0001:000265d0       __CrtMemDumpStatistics     7c6575d0 f   libcmtd:dbgheap.obj
 0001:000266e0       __aligned_malloc           7c6576e0 f   libcmtd:dbgheap.obj
 0001:00026700       __aligned_malloc_dbg       7c657700 f   libcmtd:dbgheap.obj
 0001:00026720       __aligned_realloc          7c657720 f   libcmtd:dbgheap.obj
 0001:00026740       __aligned_recalloc         7c657740 f   libcmtd:dbgheap.obj
 0001:00026770       __aligned_realloc_dbg      7c657770 f   libcmtd:dbgheap.obj
 0001:000267a0       __aligned_recalloc_dbg     7c6577a0 f   libcmtd:dbgheap.obj
 0001:000267d0       __aligned_offset_malloc    7c6577d0 f   libcmtd:dbgheap.obj
 0001:000267f0       __aligned_offset_malloc_dbg 7c6577f0 f   libcmtd:dbgheap.obj
 0001:00026990       __aligned_offset_realloc   7c657990 f   libcmtd:dbgheap.obj
 0001:000269c0       __aligned_offset_recalloc  7c6579c0 f   libcmtd:dbgheap.obj
 0001:000269f0       __aligned_offset_realloc_dbg 7c6579f0 f   libcmtd:dbgheap.obj
 0001:00026cc0       __aligned_offset_recalloc_dbg 7c657cc0 f   libcmtd:dbgheap.obj
 0001:00026dd0       __aligned_free             7c657dd0 f   libcmtd:dbgheap.obj
 0001:00026df0       __aligned_free_dbg         7c657df0 f   libcmtd:dbgheap.obj
 0001:00026ea0       __CrtSetDebugFillThreshold 7c657ea0 f   libcmtd:dbgheap.obj
 0001:00026ec0       __CrtSetCheckCount         7c657ec0 f   libcmtd:dbgheap.obj
 0001:00026ee0       __CrtGetCheckCount         7c657ee0 f   libcmtd:dbgheap.obj
 0001:00026ef0       __aligned_msize            7c657ef0 f   libcmtd:dbgheap.obj
 0001:00026f10       __aligned_msize_dbg        7c657f10 f   libcmtd:dbgheap.obj
 0001:00027020       _sprintf                   7c658020 f   libcmtd:sprintf.obj
 0001:000271a0       __sprintf_l                7c6581a0 f   libcmtd:sprintf.obj
 0001:000271d0       _sprintf_s                 7c6581d0 f   libcmtd:sprintf.obj
 0001:00027200       __sprintf_s_l              7c658200 f   libcmtd:sprintf.obj
 0001:00027230       __snprintf_s               7c658230 f   libcmtd:sprintf.obj
 0001:00027260       __snprintf_s_l             7c658260 f   libcmtd:sprintf.obj
 0001:00027290       __sprintf_p                7c658290 f   libcmtd:sprintf.obj
 0001:000272c0       __sprintf_p_l              7c6582c0 f   libcmtd:sprintf.obj
 0001:000272f0       __scprintf                 7c6582f0 f   libcmtd:sprintf.obj
 0001:00027310       __scprintf_p               7c658310 f   libcmtd:sprintf.obj
 0001:00027330       __scprintf_l               7c658330 f   libcmtd:sprintf.obj
 0001:00027360       __scprintf_p_l             7c658360 f   libcmtd:sprintf.obj
 0001:00027390       @__security_check_cookie@4 7c658390 f   libcmtd:secchk.obj
 0001:000273a0       __alloca_probe_16          7c6583a0 f   libcmtd:alloca16.obj
 0001:000273b6       __alloca_probe_8           7c6583b6     libcmtd:alloca16.obj
 0001:000273d0       ??2@YAPAXI@Z               7c6583d0 f   libcmtd:new.obj
 0001:00027450       ??0bad_alloc@std@@QAE@XZ   7c658450 f i libcmtd:new.obj
 0001:00027480       ??1bad_alloc@std@@UAE@XZ   7c658480 f i libcmtd:new.obj
 0001:000274a0       ??_Gbad_alloc@std@@UAEPAXI@Z 7c6584a0 f i libcmtd:new.obj
 0001:000274a0       ??_Ebad_alloc@std@@UAEPAXI@Z 7c6584a0 f i libcmtd:new.obj
 0001:000274d0       ??0bad_alloc@std@@QAE@ABV01@@Z 7c6584d0 f i libcmtd:new.obj
 0001:00027500       __purecall                 7c658500 f   libcmtd:purevirt.obj
 0001:00027540       __set_purecall_handler     7c658540 f   libcmtd:purevirt.obj
 0001:00027580       __get_purecall_handler     7c658580 f   libcmtd:purevirt.obj
 0001:000275a0       __allmul                   7c6585a0 f   libcmtd:llmul.obj
 0001:000275e0       __resetstkoflw             7c6585e0 f   libcmtd:resetstk.obj
 0001:00027790       __except_handler4          7c658790 f   libcmtd:chandler4.obj
 0001:000279b0       _memcpy_s                  7c6589b0 f   libcmtd:memcpy_s.obj
 0001:00027b40       ??_V@YAXPAX@Z              7c658b40 f   libcmtd:delete2.obj
 0001:00027b60       ??_U@YAPAXI@Z              7c658b60 f   libcmtd:new2.obj
 0001:00027b80       __alloca_probe             7c658b80     libcmtd:chkstk.obj
 0001:00027b80       __chkstk                   7c658b80 f   libcmtd:chkstk.obj
 0001:00027bb0       __mbsnbcpy_s               7c658bb0 f   libcmtd:mbsnbcpy_s.obj
 0001:00027bd0       _memset                    7c658bd0 f   libcmtd:memset.obj
 0001:00027c50       __onexit                   7c658c50 f   libcmtd:onexit.obj
 0001:00027e20       _atexit                    7c658e20 f   libcmtd:onexit.obj
 0001:00027e40       ___onexitinit              7c658e40 f   libcmtd:onexit.obj
 0001:00027ea0       _strcpy_s                  7c658ea0 f   libcmtd:strcpy_s.obj
 0001:00028180       _wcsncpy_s                 7c659180 f   libcmtd:wcsncpy_s.obj
 0001:00028580       _memcmp                    7c659580 f   libcmtd:memcmp.obj
 0001:00028ff0       _strcat_s                  7c659ff0 f   libcmtd:strcat_s.obj
 0001:000293d0       __swprintf                 7c65a3d0 f   libcmtd:swprintf.obj
 0001:000295a0       ___swprintf_l              7c65a5a0 f   libcmtd:swprintf.obj
 0001:000295d0       _swprintf_s                7c65a5d0 f   libcmtd:swprintf.obj
 0001:00029600       __snwprintf_s              7c65a600 f   libcmtd:swprintf.obj
 0001:00029630       __swprintf_p               7c65a630 f   libcmtd:swprintf.obj
 0001:00029660       __swprintf_s_l             7c65a660 f   libcmtd:swprintf.obj
 0001:00029690       __snwprintf_s_l            7c65a690 f   libcmtd:swprintf.obj
 0001:000296c0       __swprintf_p_l             7c65a6c0 f   libcmtd:swprintf.obj
 0001:000296f0       __scwprintf                7c65a6f0 f   libcmtd:swprintf.obj
 0001:00029710       __scwprintf_p              7c65a710 f   libcmtd:swprintf.obj
 0001:00029730       __scwprintf_l              7c65a730 f   libcmtd:swprintf.obj
 0001:00029760       __scwprintf_p_l            7c65a760 f   libcmtd:swprintf.obj
 0001:00029790       __CRT_INIT@12              7c65a790 f   libcmtd:dllcrt0.obj
 0001:00029a70       __set_osplatform           7c65aa70 f i libcmtd:dllcrt0.obj
 0001:00029a80       __set_osver                7c65aa80 f i libcmtd:dllcrt0.obj
 0001:00029a90       __set_winver               7c65aa90 f i libcmtd:dllcrt0.obj
 0001:00029aa0       __set_winmajor             7c65aaa0 f i libcmtd:dllcrt0.obj
 0001:00029ab0       __set_winminor             7c65aab0 f i libcmtd:dllcrt0.obj
 0001:00029ac0       __DllMainCRTStartup@12     7c65aac0 f   libcmtd:dllcrt0.obj
 0001:00029ca0       __dosmaperr                7c65aca0 f   libcmtd:dosmap.obj
 0001:00029cd0       __get_errno_from_oserr     7c65acd0 f   libcmtd:dosmap.obj
 0001:00029d50       __set_errno                7c65ad50 f   libcmtd:dosmap.obj
 0001:00029d80       __get_errno                7c65ad80 f   libcmtd:dosmap.obj
 0001:00029e00       __set_doserrno             7c65ae00 f   libcmtd:dosmap.obj
 0001:00029e30       __get_doserrno             7c65ae30 f   libcmtd:dosmap.obj
 0001:00029eb0       __errno                    7c65aeb0 f   libcmtd:dosmap.obj
 0001:00029ee0       ___doserrno                7c65aee0 f   libcmtd:dosmap.obj
 0001:00029f10       __CxxThrowException@8      7c65af10 f   libcmtd:throw.obj
 0001:00029f70       ?name@type_info@@QBEPBDPAU__type_info_node@@@Z 7c65af70 f   libcmtd:typinfo.obj
 0001:00029f90       ??1type_info@@UAE@XZ       7c65af90 f   libcmtd:typinfo.obj
 0001:00029fb0       ??_Etype_info@@UAEPAXI@Z   7c65afb0 f i libcmtd:typinfo.obj
 0001:00029fb0       ??_Gtype_info@@UAEPAXI@Z   7c65afb0 f i libcmtd:typinfo.obj
 0001:00029fe0       ?_name_internal_method@type_info@@QBEPBDPAU__type_info_node@@@Z 7c65afe0 f   libcmtd:typinfo.obj
 0001:0002a000       ?_type_info_dtor_internal_method@type_info@@QAEXXZ 7c65b000 f   libcmtd:typinfo.obj
 0001:0002a020       ??8type_info@@QBE_NABV0@@Z 7c65b020 f   libcmtd:typinfo.obj
 0001:0002a050       ??9type_info@@QBE_NABV0@@Z 7c65b050 f   libcmtd:typinfo.obj
 0001:0002a080       ?before@type_info@@QBEHABV1@@Z 7c65b080 f   libcmtd:typinfo.obj
 0001:0002a0b0       ?raw_name@type_info@@QBEPBDXZ 7c65b0b0 f   libcmtd:typinfo.obj
 0001:0002a0d0       ??0type_info@@AAE@ABV0@@Z  7c65b0d0 f   libcmtd:typinfo.obj
 0001:0002a0f0       ??4type_info@@AAEAAV0@ABV0@@Z 7c65b0f0 f   libcmtd:typinfo.obj
 0001:0002a100       __CrtSetReportHook2        7c65b100 f   libcmtd:dbgrpt.obj
 0001:0002a420       __CrtDbgReport             7c65b420 f   libcmtd:dbgrpt.obj
 0001:0002a460       __CrtDbgReportV            7c65b460 f i libcmtd:dbgrpt.obj
 0001:0002a490       ___crtMessageWindowA       7c65b490 f   libcmtd:dbgrpt.obj
 0001:0002a890       _strcpy                    7c65b890 f   libcmtd:strcat.obj
 0001:0002a8a0       _strcat                    7c65b8a0 f   libcmtd:strcat.obj
 0001:0002a990       _wcscat                    7c65b990 f   libcmtd:wcscat.obj
 0001:0002a9e0       _wcscpy                    7c65b9e0 f   libcmtd:wcscat.obj
 0001:0002aa20       __vsnprintf_helper         7c65ba20 f   libcmtd:vsnprnc.obj
 0001:0002abf0       __vsnprintf_c              7c65bbf0 f   libcmtd:vsnprnc.obj
 0001:0002ac40       __vsnprintf_c_l            7c65bc40 f   libcmtd:vsnprnc.obj
 0001:0002ac90       __vsprintf_s_l             7c65bc90 f   libcmtd:vsnprnc.obj
 0001:0002aef0       _vsprintf_s                7c65bef0 f   libcmtd:vsnprnc.obj
 0001:0002af10       __vsnprintf_s_l            7c65bf10 f   libcmtd:vsnprnc.obj
 0001:0002b2b0       __vsnprintf_s              7c65c2b0 f   libcmtd:vsnprnc.obj
 0001:0002b2e0       __vsprintf_p               7c65c2e0 f   libcmtd:vsnprnc.obj
 0001:0002b330       __vsprintf_p_l             7c65c330 f   libcmtd:vsnprnc.obj
 0001:0002b380       __vswprintf_helper         7c65c380 f   libcmtd:vswprnc.obj
 0001:0002b5b0       __vswprintf_c              7c65c5b0 f   libcmtd:vswprnc.obj
 0001:0002b600       __vswprintf_c_l            7c65c600 f   libcmtd:vswprnc.obj
 0001:0002b650       __vswprintf_s_l            7c65c650 f   libcmtd:vswprnc.obj
 0001:0002b8c0       _vswprintf_s               7c65c8c0 f   libcmtd:vswprnc.obj
 0001:0002b8e0       __vsnwprintf_s_l           7c65c8e0 f   libcmtd:vswprnc.obj
 0001:0002bc90       __vsnwprintf_s             7c65cc90 f   libcmtd:vswprnc.obj
 0001:0002bcc0       __vswprintf_p              7c65ccc0 f   libcmtd:vswprnc.obj
 0001:0002bd10       __vswprintf_p_l            7c65cd10 f   libcmtd:vswprnc.obj
 0001:0002bd60       _wcscpy_s                  7c65cd60 f   libcmtd:wcscpy_s.obj
 0001:0002c040       _memmove_s                 7c65d040 f   libcmtd:memmove_s.obj
 0001:0002c1a0       __wcsicmp_l                7c65d1a0 f   libcmtd:wcsicmp.obj
 0001:0002c3d0       __wcsicmp                  7c65d3d0 f   libcmtd:wcsicmp.obj
 0001:0002c570       _wcslen                    7c65d570 f   libcmtd:wcslen.obj
 0001:0002c5a0       __mtinitlocks              7c65d5a0 f   libcmtd:mlock.obj
 0001:0002c630       __mtdeletelocks            7c65d630 f   libcmtd:mlock.obj
 0001:0002c6f0       __mtinitlocknum            7c65d6f0 f   libcmtd:mlock.obj
 0001:0002c840       __lock                     7c65d840 f   libcmtd:mlock.obj
 0001:0002c880       __unlock                   7c65d880 f   libcmtd:mlock.obj
 0001:0002c8a0       __lockerr_exit             7c65d8a0 f   libcmtd:mlock.obj
 0001:0002c8c0       __CrtDbgBreak              7c65d8c0 f   libcmtd:dbgrptt.obj
 0001:0002c8d0       __CrtSetReportMode         7c65d8d0 f   libcmtd:dbgrptt.obj
 0001:0002ca10       __CrtSetReportFile         7c65da10 f   libcmtd:dbgrptt.obj
 0001:0002cb00       __CrtSetReportHook         7c65db00 f   libcmtd:dbgrptt.obj
 0001:0002cb20       __CrtGetReportHook         7c65db20 f   libcmtd:dbgrptt.obj
 0001:0002cb30       __VCrtDbgReportA           7c65db30 f   libcmtd:dbgrptt.obj
 0001:0002d360       __VCrtDbgReportW           7c65e360 f   libcmtd:dbgrptt.obj
 0001:0002dc90       __initp_misc_invarg        7c65ec90 f   libcmtd:invarg.obj
 0001:0002dca0       __invalid_parameter        7c65eca0 f   libcmtd:invarg.obj
 0001:0002dd10       __invoke_watson            7c65ed10 f   libcmtd:invarg.obj
 0001:0002de50       __set_invalid_parameter_handler 7c65ee50 f   libcmtd:invarg.obj
 0001:0002de90       __get_invalid_parameter_handler 7c65ee90 f   libcmtd:invarg.obj
 0001:0002dec0       ?_invalid_parameter@@YAXPBG00II@Z 7c65eec0 f   libcmtd:invarg.obj
 0001:0002def0       ?_invoke_watson@@YAXPBG00II@Z 7c65eef0 f   libcmtd:invarg.obj
 0001:0002df20       __wcstombs_l_helper        7c65ef20 f   libcmtd:wcstombs.obj
 0001:0002e470       __wcstombs_l               7c65f470 f   libcmtd:wcstombs.obj
 0001:0002e490       _wcstombs                  7c65f490 f   libcmtd:wcstombs.obj
 0001:0002e4b0       __wcstombs_s_l             7c65f4b0 f   libcmtd:wcstombs.obj
 0001:0002e770       _wcstombs_s                7c65f770 f   libcmtd:wcstombs.obj
 0001:0002e7a0       __cinit                    7c65f7a0 f   libcmtd:crt0dat.obj
 0001:0002e840       _exit                      7c65f840 f   libcmtd:crt0dat.obj
 0001:0002e860       __exit                     7c65f860 f   libcmtd:crt0dat.obj
 0001:0002e880       __cexit                    7c65f880 f   libcmtd:crt0dat.obj
 0001:0002e8a0       __c_exit                   7c65f8a0 f   libcmtd:crt0dat.obj
 0001:0002e8c0       __amsg_exit                7c65f8c0 f   libcmtd:crt0dat.obj
 0001:0002e900       ___freeCrtMemory           7c65f900 f   libcmtd:crt0dat.obj
 0001:0002ebc0       ___crtCorExitProcess       7c65fbc0 f   libcmtd:crt0dat.obj
 0001:0002ec00       ___crtExitProcess          7c65fc00 f   libcmtd:crt0dat.obj
 0001:0002ec20       __lockexit                 7c65fc20 f   libcmtd:crt0dat.obj
 0001:0002ec30       __unlockexit               7c65fc30 f   libcmtd:crt0dat.obj
 0001:0002ec40       __init_pointers            7c65fc40 f   libcmtd:crt0dat.obj
 0001:0002ed00       __initterm_e               7c65fd00 f   libcmtd:crt0dat.obj
 0001:0002ed40       __get_osplatform           7c65fd40 f   libcmtd:crt0dat.obj
 0001:0002ee30       __get_osver                7c65fe30 f   libcmtd:crt0dat.obj
 0001:0002ef20       __get_winver               7c65ff20 f   libcmtd:crt0dat.obj
 0001:0002f010       __get_winmajor             7c660010 f   libcmtd:crt0dat.obj
 0001:0002f100       __get_winminor             7c660100 f   libcmtd:crt0dat.obj
 0001:0002f1f0       __get_wpgmptr              7c6601f0 f   libcmtd:crt0dat.obj
 0001:0002f2e0       __get_pgmptr               7c6602e0 f   libcmtd:crt0dat.obj
 0001:0002f3d0       __initp_misc_winsig        7c6603d0 f   libcmtd:winsig.obj
 0001:0002f400       _signal                    7c660400 f   libcmtd:winsig.obj
 0001:0002f8a0       _raise                     7c6608a0 f   libcmtd:winsig.obj
 0001:0002fc10       ___get_sigabrt             7c660c10 f   libcmtd:winsig.obj
 0001:0002fc30       ___fpecode                 7c660c30 f   libcmtd:winsig.obj
 0001:0002fc40       ___pxcptinfoptrs           7c660c40 f   libcmtd:winsig.obj
 0001:0002fc50       ___crtMessageBoxW          7c660c50 f   libcmtd:crtmboxw.obj
 0001:0002fef0       __initp_heap_handler       7c660ef0 f   libcmtd:handler.obj
 0001:0002ff00       ?_set_new_handler@@YAP6AHI@ZP6AHI@Z@Z 7c660f00 f   libcmtd:handler.obj
 0001:0002ff50       ?_set_new_handler@@YAP6AHI@ZH@Z 7c660f50 f   libcmtd:handler.obj
 0001:0002ff90       ?_query_new_handler@@YAP6AHI@ZXZ 7c660f90 f   libcmtd:handler.obj
 0001:0002ffb0       __callnewh                 7c660fb0 f   libcmtd:handler.obj
 0001:0002fff0       _V6_HeapAlloc              7c660ff0 f   libcmtd:malloc.obj
 0001:00030080       __malloc_base              7c661080 f   libcmtd:malloc.obj
 0001:00030110       __heap_alloc_base          7c661110 f i libcmtd:malloc.obj
 0001:000301d0       __CrtDefaultAllocHook      7c6611d0 f   libcmtd:dbghook.obj
 0001:000301e0       __crt_debugger_hook        7c6611e0 f   libcmtd:dbghook.obj
 0001:000301f0       __expand_base              7c6611f0 f   libcmtd:expand.obj
 0001:000303c0       __realloc_base             7c6613c0 f   libcmtd:realloc.obj
 0001:00030760       __recalloc_base            7c661760 f   libcmtd:realloc.obj
 0001:00030850       __free_base                7c661850 f   libcmtd:free.obj
 0001:00030970       __heapchk                  7c661970 f   libcmtd:heapchk.obj
 0001:00030a40       __heapset                  7c661a40 f   libcmtd:heapchk.obj
 0001:00030a50       ___heap_select             7c661a50 f   libcmtd:heapinit.obj
 0001:00030ae0       __heap_init                7c661ae0 f   libcmtd:heapinit.obj
 0001:00030b60       __heap_term                7c661b60 f   libcmtd:heapinit.obj
 0001:00030c00       __get_heap_handle          7c661c00 f   libcmtd:heapinit.obj
 0001:00030c40       __get_sbh_threshold        7c661c40 f   libcmtd:sbheap.obj
 0001:00030c90       __set_sbh_threshold        7c661c90 f   libcmtd:sbheap.obj
 0001:00030e20       __set_amblksiz             7c661e20 f   libcmtd:sbheap.obj
 0001:00030f20       __get_amblksiz             7c661f20 f   libcmtd:sbheap.obj
 0001:00031010       ___sbh_heap_init           7c662010 f   libcmtd:sbheap.obj
 0001:00031080       ___sbh_find_block          7c662080 f   libcmtd:sbheap.obj
 0001:000310e0       ___sbh_verify_block        7c6620e0 f   libcmtd:sbheap.obj
 0001:00031140       ___sbh_free_block          7c662140 f   libcmtd:sbheap.obj
 0001:00031700       ___sbh_alloc_block         7c662700 f   libcmtd:sbheap.obj
 0001:00031c20       ___sbh_alloc_new_region    7c662c20 f   libcmtd:sbheap.obj
 0001:00031d30       ___sbh_alloc_new_group     7c662d30 f   libcmtd:sbheap.obj
 0001:00031f20       ___sbh_resize_block        7c662f20 f   libcmtd:sbheap.obj
 0001:000324f0       ___sbh_heapmin             7c6634f0 f   libcmtd:sbheap.obj
 0001:00032620       ___sbh_heap_check          7c663620 f   libcmtd:sbheap.obj
 0001:00032b10       ___updatetmbcinfo          7c663b10 f   libcmtd:mbctype.obj
 0001:00032c20       __setmbcp                  7c663c20 f   libcmtd:mbctype.obj
 0001:00032fc0       __setmbcp_nolock           7c663fc0 f   libcmtd:mbctype.obj
 0001:000337b0       __getmbcp                  7c6647b0 f   libcmtd:mbctype.obj
 0001:00033820       ___initmbctable            7c664820 f   libcmtd:mbctype.obj
 0001:00033850       ____setlc_active_func      7c664850 f   libcmtd:setlocal.obj
 0001:00033860       ____unguarded_readlc_active_add_func 7c664860 f   libcmtd:setlocal.obj
 0001:00033870       ___freetlocinfo            7c664870 f   libcmtd:setlocal.obj
 0001:00033b50       ___addlocaleref            7c664b50 f   libcmtd:setlocal.obj
 0001:00033c70       ___removelocaleref         7c664c70 f   libcmtd:setlocal.obj
 0001:00033da0       ___updatetlocinfo          7c664da0 f   libcmtd:setlocal.obj
 0001:00033ef0       __configthreadlocale       7c664ef0 f   libcmtd:setlocal.obj
 0001:00034000       __locterm                  7c665000 f   libcmtd:setlocal.obj
 0001:00034090       __free_locale              7c665090 f   libcmtd:setlocal.obj
 0001:000341a0       ___free_locale             7c6651a0 f   libcmtd:setlocal.obj
 0001:000341c0       __create_locale            7c6651c0 f   libcmtd:setlocal.obj
 0001:000343e0       ___create_locale           7c6653e0 f   libcmtd:setlocal.obj
 0001:00034400       __get_current_locale       7c665400 f   libcmtd:setlocal.obj
 0001:000344f0       ___get_current_locale      7c6654f0 f   libcmtd:setlocal.obj
 0001:00034500       _setlocale                 7c665500 f   libcmtd:setlocal.obj
 0001:00035410       __expandlocale             7c666410 f   libcmtd:setlocal.obj
 0001:000356c0       ___init_dummy              7c6666c0 f   libcmtd:setlocal.obj
 0001:000356d0       __strcats                  7c6666d0 f   libcmtd:setlocal.obj
 0001:00035750       ___lc_strtolc              7c666750 f   libcmtd:setlocal.obj
 0001:00035950       ___lc_lctostr              7c666950 f   libcmtd:setlocal.obj
 0001:000359e0       __encode_pointer           7c6669e0 f   libcmtd:tidtable.obj
 0001:00035b30       __encoded_null             7c666b30 f   libcmtd:tidtable.obj
 0001:00035b40       __decode_pointer           7c666b40 f   libcmtd:tidtable.obj
 0001:00035be0       ___crtTlsAlloc@4           7c666be0 f   libcmtd:tidtable.obj
 0001:00035bf0       ___fls_getvalue@4          7c666bf0 f   libcmtd:tidtable.obj
 0001:00035c10       ___get_flsindex            7c666c10 f   libcmtd:tidtable.obj
 0001:00035c20       ___set_flsgetvalue         7c666c20 f   libcmtd:tidtable.obj
 0001:00035c70       ___fls_setvalue@8          7c666c70 f   libcmtd:tidtable.obj
 0001:00035c90       __mtinit                   7c666c90 f   libcmtd:tidtable.obj
 0001:00035ea0       __mtterm                   7c666ea0 f   libcmtd:tidtable.obj
 0001:00035f00       __initptd                  7c666f00 f   libcmtd:tidtable.obj
 0001:00036030       __getptd_noexit            7c667030 f   libcmtd:tidtable.obj
 0001:000360f0       __getptd                   7c6670f0 f   libcmtd:tidtable.obj
 0001:00036120       __freefls@4                7c667120 f   libcmtd:tidtable.obj
 0001:00036310       __freeptd                  7c667310 f   libcmtd:tidtable.obj
 0001:00036390       ___threadid                7c667390 f   libcmtd:tidtable.obj
 0001:000363a0       ___threadhandle            7c6673a0 f   libcmtd:tidtable.obj
 0001:000363b0       __chvalidator              7c6673b0 f   libcmtd:isctype.obj
 0001:00036400       __chvalidator_l            7c667400 f   libcmtd:isctype.obj
 0001:000364b0       __isctype_l                7c6674b0 f   libcmtd:isctype.obj
 0001:000365c0       __isctype                  7c6675c0 f   libcmtd:isctype.obj
 0001:00036600       _memcpy                    7c667600 f   libcmtd:memcpy.obj
 0001:00036970       __flsbuf                   7c667970 f   libcmtd:_flsbuf.obj
 0001:00036c30       __output_l                 7c667c30 f   libcmtd:output.obj
 0001:000380a0       _get_int_arg               7c6690a0 f i libcmtd:output.obj
 0001:000380c0       _get_int64_arg             7c6690c0 f i libcmtd:output.obj
 0001:000380e0       _get_short_arg             7c6690e0 f i libcmtd:output.obj
 0001:00038100       __vsprintf_l               7c669100 f   libcmtd:vsprintf.obj
 0001:00038270       _vsprintf                  7c669270 f   libcmtd:vsprintf.obj
 0001:00038290       __vscprintf_helper         7c669290 f   libcmtd:vsprintf.obj
 0001:00038350       __vscprintf                7c669350 f   libcmtd:vsprintf.obj
 0001:00038370       __vscprintf_l              7c669370 f   libcmtd:vsprintf.obj
 0001:00038390       __vscprintf_p              7c669390 f   libcmtd:vsprintf.obj
 0001:000383b0       __vscprintf_p_l            7c6693b0 f   libcmtd:vsprintf.obj
 0001:000383d0       ___report_gsfailure        7c6693d0 f   libcmtd:gs_report.obj
 0001:000384e0       ??0exception@std@@QAE@XZ   7c6694e0 f   libcmtd:stdexcpt.obj
 0001:00038510       ??_Gexception@std@@UAEPAXI@Z 7c669510 f i libcmtd:stdexcpt.obj
 0001:00038510       ??_Eexception@std@@UAEPAXI@Z 7c669510 f i libcmtd:stdexcpt.obj
 0001:00038540       ??0exception@std@@QAE@ABQBD@Z 7c669540 f   libcmtd:stdexcpt.obj
 0001:000385d0       ??0exception@std@@QAE@ABQBDH@Z 7c6695d0 f   libcmtd:stdexcpt.obj
 0001:00038600       ??0exception@std@@QAE@ABV01@@Z 7c669600 f   libcmtd:stdexcpt.obj
 0001:000386a0       ??4exception@std@@QAEAAV01@ABV01@@Z 7c6696a0 f   libcmtd:stdexcpt.obj
 0001:00038740       ??1exception@std@@UAE@XZ   7c669740 f   libcmtd:stdexcpt.obj
 0001:00038770       ?what@exception@std@@UBEPBDXZ 7c669770 f   libcmtd:stdexcpt.obj
 0001:000387a0       ??0bad_cast@std@@QAE@PBD@Z 7c6697a0 f   libcmtd:stdexcpt.obj
 0001:000387d0       ??_Ebad_cast@std@@UAEPAXI@Z 7c6697d0 f i libcmtd:stdexcpt.obj
 0001:000387d0       ??_Gbad_cast@std@@UAEPAXI@Z 7c6697d0 f i libcmtd:stdexcpt.obj
 0001:00038800       ??0bad_cast@std@@QAE@ABV01@@Z 7c669800 f   libcmtd:stdexcpt.obj
 0001:00038830       ??1bad_cast@std@@UAE@XZ    7c669830 f   libcmtd:stdexcpt.obj
 0001:00038850       ??0bad_typeid@std@@QAE@PBD@Z 7c669850 f   libcmtd:stdexcpt.obj
 0001:00038880       ??_Ebad_typeid@std@@UAEPAXI@Z 7c669880 f i libcmtd:stdexcpt.obj
 0001:00038880       ??_Gbad_typeid@std@@UAEPAXI@Z 7c669880 f i libcmtd:stdexcpt.obj
 0001:000388b0       ??0bad_typeid@std@@QAE@ABV01@@Z 7c6698b0 f   libcmtd:stdexcpt.obj
 0001:000388e0       ??1bad_typeid@std@@UAE@XZ  7c6698e0 f   libcmtd:stdexcpt.obj
 0001:00038900       ??0__non_rtti_object@std@@QAE@PBD@Z 7c669900 f   libcmtd:stdexcpt.obj
 0001:00038930       ??_E__non_rtti_object@std@@UAEPAXI@Z 7c669930 f i libcmtd:stdexcpt.obj
 0001:00038930       ??_G__non_rtti_object@std@@UAEPAXI@Z 7c669930 f i libcmtd:stdexcpt.obj
 0001:00038960       ??0__non_rtti_object@std@@QAE@ABV01@@Z 7c669960 f   libcmtd:stdexcpt.obj
 0001:00038990       ??1__non_rtti_object@std@@UAE@XZ 7c669990 f   libcmtd:stdexcpt.obj
 0001:000389b0       _abort                     7c6699b0 f   libcmtd:abort.obj
 0001:00038af0       __set_abort_behavior       7c669af0 f   libcmtd:abort.obj
 0001:00038b20       __FF_MSGBANNER             7c669b20 f   libcmtd:crt0msg.obj
 0001:00038b70       __NMSG_WRITE               7c669b70 f   libcmtd:crt0msg.obj
 0001:00038e00       __GET_RTERRMSG             7c669e00 f   libcmtd:crt0msg.obj
 0001:00038e40       ___getlocaleinfo           7c669e40 f   libcmtd:inithelp.obj
 0001:000390e0       __initp_misc_purevirt      7c66a0e0 f   libcmtd:inithelp.obj
 0001:000390f0       __local_unwind4            7c66a0f0 f   libcmtd:exsup4.obj
 0001:000391c6       __seh_longjmp_unwind4@4    7c66a1c6 f   libcmtd:exsup4.obj
 0001:000391e2       @_EH4_CallFilterFunc@8     7c66a1e2 f   libcmtd:exsup4.obj
 0001:000391f9       @_EH4_TransferToHandler@8  7c66a1f9 f   libcmtd:exsup4.obj
 0001:00039212       @_EH4_GlobalUnwind@4       7c66a212 f   libcmtd:exsup4.obj
 0001:0003922c       @_EH4_LocalUnwind@16       7c66a22c f   libcmtd:exsup4.obj
 0001:00039250       __ValidateImageBase        7c66a250 f   libcmtd:pesect.obj
 0001:000392b0       __FindPESection            7c66a2b0 f   libcmtd:pesect.obj
 0001:00039330       __IsNonwritableInCurrentImage 7c66a330 f   libcmtd:pesect.obj
 0001:00039440       __mbsnbcpy_s_l             7c66a440 f   libcmtd:mbsnbcpy_s_l.obj
 0001:00039ac0       __VEC_memzero              7c66aac0 f   libcmtd:p4_memset.obj
 0001:00039bb0       __sse2_mathfcns_init       7c66abb0 f   libcmtd:mathfcns.obj
 0001:00039bd0       __set_SSE2_enable          7c66abd0 f   libcmtd:mathfcns.obj
 0001:00039bf0       __woutput_l                7c66abf0 f   libcmtd:woutput.obj
 0001:0003adc0       __vswprintf_l              7c66bdc0 f   libcmtd:vswprint.obj
 0001:0003af90       __vswprintf                7c66bf90 f   libcmtd:vswprint.obj
 0001:0003afb0       ___vswprintf_l             7c66bfb0 f   libcmtd:vswprint.obj
 0001:0003afd0       __vscwprintf_helper        7c66bfd0 f   libcmtd:vswprint.obj
 0001:0003b090       __vscwprintf               7c66c090 f   libcmtd:vswprint.obj
 0001:0003b0b0       __vscwprintf_l             7c66c0b0 f   libcmtd:vswprint.obj
 0001:0003b0d0       __vscwprintf_p             7c66c0d0 f   libcmtd:vswprint.obj
 0001:0003b0f0       __vscwprintf_p_l           7c66c0f0 f   libcmtd:vswprint.obj
 0001:0003b110       __ioinit                   7c66c110 f   libcmtd:ioinit.obj
 0001:0003b5b0       __ioterm                   7c66c5b0 f   libcmtd:ioinit.obj
 0001:0003b650       __setenvp                  7c66c650 f   libcmtd:stdenvp.obj
 0001:0003b7f0       __setargv                  7c66c7f0 f   libcmtd:stdargv.obj
 0001:0003b910       __set_pgmptr               7c66c910 f i libcmtd:stdargv.obj
 0001:0003bc80       ___crtGetEnvironmentStringsA 7c66cc80 f   libcmtd:a_env.obj
 0001:0003bea0       __RTC_Initialize           7c66cea0 f   libcmtd:initsect.obj
 0001:0003bed0       __RTC_Terminate            7c66ced0 f   libcmtd:initsect.obj
 0001:0003bf00       ___security_init_cookie    7c66cf00 f   libcmtd:gs_support.obj
 0001:0003bfe0       __initp_misc_winxfltr      7c66cfe0 f   libcmtd:winxfltr.obj
 0001:0003bff0       ___CppXcptFilter           7c66cff0 f   libcmtd:winxfltr.obj
 0001:0003c020       __XcptFilter               7c66d020 f   libcmtd:winxfltr.obj
 0001:0003c250       ?_Type_info_dtor@type_info@@CAXPAV1@@Z 7c66d250 f   libcmtd:typname.obj
 0001:0003c360       ?_Name_base@type_info@@CAPBDPBV1@PAU__type_info_node@@@Z 7c66d360 f   libcmtd:typname.obj
 0001:0003c500       ?_Type_info_dtor_internal@type_info@@CAXPAV1@@Z 7c66d500 f   libcmtd:typname.obj
 0001:0003c610       ___unDNameHelper           7c66d610 f   libcmtd:typname.obj
 0001:0003c650       ?_Name_base_internal@type_info@@CAPBDPBV1@PAU__type_info_node@@@Z 7c66d650 f   libcmtd:typname.obj
 0001:0003c7f0       ___clean_type_info_names_internal 7c66d7f0 f   libcmtd:typname.obj
 0001:0003c8a0       _strcmp                    7c66d8a0 f   libcmtd:strcmp.obj
 0001:0003c930       ___crtMessageBoxA          7c66d930 f   libcmtd:crtmbox.obj
 0001:0003cbd0       _strlen                    7c66dbd0 f   libcmtd:strlen.obj
 0001:0003cc60       __output_s_l               7c66dc60 f   libcmtd:outputs.obj
 0001:0003e230       __validate_param_reuseA    7c66f230 f   libcmtd:outputp.obj
 0001:0003e4a0       __output_p_l               7c66f4a0 f   libcmtd:outputp.obj
 0001:000420a0       _get_crtdouble_arg         7c6730a0 f i libcmtd:outputp.obj
 0001:000420c0       __woutput_s_l              7c6730c0 f   libcmtd:woutputs.obj
 0001:000433e0       __validate_param_reuseW    7c6743e0 f   libcmtd:woutputp.obj
 0001:00043650       __woutput_p_l              7c674650 f   libcmtd:woutputp.obj
 0001:00046da0       _memmove                   7c677da0 f   libcmtd:memmove.obj
 0001:00047110       __towlower_l               7c678110 f   libcmtd:towlower.obj
 0001:00047270       _towlower                  7c678270 f   libcmtd:towlower.obj
 0001:00047290       __initp_misc_initcrit      7c678290 f   libcmtd:initcrit.obj
 0001:000472a0       ___crtInitCritSecAndSpinCount 7c6782a0 f   libcmtd:initcrit.obj
 0001:00047410       __mbstowcs_l_helper        7c678410 f   libcmtd:mbstowcs.obj
 0001:000477c0       __mbstowcs_l               7c6787c0 f   libcmtd:mbstowcs.obj
 0001:000477e0       _mbstowcs                  7c6787e0 f   libcmtd:mbstowcs.obj
 0001:00047830       __mbstowcs_s_l             7c678830 f   libcmtd:mbstowcs.obj
 0001:00047b30       _mbstowcs_s                7c678b30 f   libcmtd:mbstowcs.obj
 0001:00047b60       __itoa_s                   7c678b60 f   libcmtd:xtoas.obj
 0001:00047f20       __ltoa_s                   7c678f20 f   libcmtd:xtoas.obj
 0001:00047f60       __ultoa_s                  7c678f60 f   libcmtd:xtoas.obj
 0001:00047f80       __i64toa_s                 7c678f80 f   libcmtd:xtoas.obj
 0001:00048380       __ui64toa_s                7c679380 f   libcmtd:xtoas.obj
 0001:000483a0       _wcscat_s                  7c6793a0 f   libcmtd:wcscat_s.obj
 0001:00048790       __itow_s                   7c679790 f   libcmtd:xtows.obj
 0001:00048b70       __ltow_s                   7c679b70 f   libcmtd:xtows.obj
 0001:00048bb0       __ultow_s                  7c679bb0 f   libcmtd:xtows.obj
 0001:00048bd0       __i64tow_s                 7c679bd0 f   libcmtd:xtows.obj
 0001:00048fe0       __ui64tow_s                7c679fe0 f   libcmtd:xtows.obj
 0001:00049000       __initp_misc_cfltcvt_tab   7c67a000 f   libcmtd:cmiscdat.obj
 0001:00049040       __initp_eh_hooks           7c67a040 f   libcmtd:hooks.obj
 0001:00049060       ?terminate@@YAXXZ          7c67a060 f   libcmtd:hooks.obj
 0001:000490e0       ?unexpected@@YAXXZ         7c67a0e0 f   libcmtd:hooks.obj
 0001:00049110       ?_inconsistency@@YAXXZ     7c67a110 f   libcmtd:hooks.obj
 0001:000491a0       __initp_misc_rand_s        7c67a1a0 f   libcmtd:rand_s.obj
 0001:000491b0       _rand_s                    7c67a1b0 f   libcmtd:rand_s.obj
 0001:000493d0       ?_JumpToContinuation@@YGXPAXPAUEHRegistrationNode@@@Z 7c67a3d0 f   libcmtd:trnsctrl.obj
 0001:00049410       ?_CallMemberFunction0@@YGXPAX0@Z 7c67a410 f   libcmtd:trnsctrl.obj
 0001:00049420       ?_CallMemberFunction1@@YGXPAX00@Z 7c67a420 f   libcmtd:trnsctrl.obj
 0001:00049430       ?_CallMemberFunction2@@YGXPAX00H@Z 7c67a430 f   libcmtd:trnsctrl.obj
 0001:00049440       ?_UnwindNestedFrames@@YGXPAUEHRegistrationNode@@PAUEHExceptionRecord@@@Z 7c67a440 f   libcmtd:trnsctrl.obj
 0001:000494a0       ___CxxFrameHandler         7c67a4a0 f   libcmtd:trnsctrl.obj
 0001:000494e0       ___CxxFrameHandler3        7c67a4e0 f   libcmtd:trnsctrl.obj
 0001:00049520       ___CxxFrameHandler2        7c67a520 f   libcmtd:trnsctrl.obj
 0001:00049560       ___CxxLongjmpUnwind@4      7c67a560 f   libcmtd:trnsctrl.obj
 0001:00049590       ?_CallCatchBlock2@@YAPAXPAUEHRegistrationNode@@PBU_s_FuncInfo@@PAXHK@Z 7c67a590 f   libcmtd:trnsctrl.obj
 0001:00049650       ?_CallSETranslator@@YAHPAUEHExceptionRecord@@PAUEHRegistrationNode@@PAX2PBU_s_FuncInfo@@H1@Z 7c67a650 f   libcmtd:trnsctrl.obj
 0001:000497f0       ?_GetRangeOfTrysToCheck@@YAPBU_s_TryBlockMapEntry@@PBU_s_FuncInfo@@HHPAI1@Z 7c67a7f0 f   libcmtd:trnsctrl.obj
 0001:00049880       __CreateFrameInfo          7c67a880 f   libcmtd:trnsctrl.obj
 0001:000498b0       __IsExceptionObjectToBeDestroyed 7c67a8b0 f   libcmtd:trnsctrl.obj
 0001:000498e0       __FindAndUnlinkFrame       7c67a8e0 f   libcmtd:trnsctrl.obj
 0001:00049940       ___crtLCMapStringA         7c67a940 f   libcmtd:a_map.obj
 0001:00049ef0       ___crtGetStringTypeA       7c67aef0 f   libcmtd:a_str.obj
 0001:0004a180       ___pwctype_func            7c67b180 f   libcmtd:ctype.obj
 0001:0004a190       ___pctype_func             7c67b190 f   libcmtd:ctype.obj
 0001:0004a1e0       ___init_time               7c67b1e0 f   libcmtd:inittime.obj
 0001:0004a900       ___free_lc_time            7c67b900 f   libcmtd:inittime.obj
 0001:0004ac10       ___init_numeric            7c67bc10 f   libcmtd:initnum.obj
 0001:0004af60       ___free_lconv_num          7c67bf60 f   libcmtd:initnum.obj
 0001:0004afd0       ___init_monetary           7c67bfd0 f   libcmtd:initmon.obj
 0001:0004b4d0       ___free_lconv_mon          7c67c4d0 f   libcmtd:initmon.obj
 0001:0004b5c0       ___init_ctype              7c67c5c0 f   libcmtd:initctyp.obj
 0001:0004bb70       ____mb_cur_max_func        7c67cb70 f   libcmtd:initctyp.obj
 0001:0004bbc0       ____mb_cur_max_l_func      7c67cbc0 f   libcmtd:initctyp.obj
 0001:0004bbf0       ____lc_codepage_func       7c67cbf0 f   libcmtd:initctyp.obj
 0001:0004bc40       ____lc_collate_cp_func     7c67cc40 f   libcmtd:initctyp.obj
 0001:0004bc90       ____lc_handle_func         7c67cc90 f   libcmtd:initctyp.obj
 0001:0004bce0       ___init_collate            7c67cce0 f   libcmtd:initcoll.obj
 0001:0004bcf0       __Getdays_l                7c67ccf0 f   libcmtd:strftime.obj
 0001:0004beb0       __Getdays                  7c67ceb0 f   libcmtd:strftime.obj
 0001:0004bec0       __Getmonths_l              7c67cec0 f   libcmtd:strftime.obj
 0001:0004c080       __Getmonths                7c67d080 f   libcmtd:strftime.obj
 0001:0004c090       __Gettnames_l              7c67d090 f   libcmtd:strftime.obj
 0001:0004c600       __Gettnames                7c67d600 f   libcmtd:strftime.obj
 0001:0004c610       __strftime_l               7c67d610 f   libcmtd:strftime.obj
 0001:0004c640       _strftime                  7c67d640 f   libcmtd:strftime.obj
 0001:0004c670       __Strftime                 7c67d670 f   libcmtd:strftime.obj
 0001:0004c6a0       __Strftime_l               7c67d6a0 f   libcmtd:strftime.obj
 0001:0004e470       _localeconv                7c67f470 f   libcmtd:lconv.obj
 0001:0004e4c0       _strncpy_s                 7c67f4c0 f   libcmtd:strncpy_s.obj
 0001:0004e8b0       _strcspn                   7c67f8b0 f   libcmtd:strcspn.obj
 0001:0004e900       _strncmp                   7c67f900 f   libcmtd:strncmp.obj
 0001:0004ea70       _strpbrk                   7c67fa70 f   libcmtd:strpbrk.obj
 0001:0004eab0       ___get_qualified_locale    7c67fab0 f   libcmtd:getqloc.obj
 0001:0004f920       __isleadbyte_l             7c680920 f i libcmtd:_wctype.obj
 0001:0004f970       _isleadbyte                7c680970 f i libcmtd:_wctype.obj
 0001:0004f990       __iswalpha_l               7c680990 f i libcmtd:_wctype.obj
 0001:0004f9b0       _iswalpha                  7c6809b0 f i libcmtd:_wctype.obj
 0001:0004f9d0       __iswupper_l               7c6809d0 f i libcmtd:_wctype.obj
 0001:0004f9f0       _iswupper                  7c6809f0 f i libcmtd:_wctype.obj
 0001:0004fa10       __iswlower_l               7c680a10 f i libcmtd:_wctype.obj
 0001:0004fa30       _iswlower                  7c680a30 f i libcmtd:_wctype.obj
 0001:0004fa50       __iswdigit_l               7c680a50 f i libcmtd:_wctype.obj
 0001:0004fa70       _iswdigit                  7c680a70 f i libcmtd:_wctype.obj
 0001:0004fa90       __iswxdigit_l              7c680a90 f i libcmtd:_wctype.obj
 0001:0004fab0       _iswxdigit                 7c680ab0 f i libcmtd:_wctype.obj
 0001:0004fad0       __iswspace_l               7c680ad0 f i libcmtd:_wctype.obj
 0001:0004faf0       _iswspace                  7c680af0 f i libcmtd:_wctype.obj
 0001:0004fb10       __iswpunct_l               7c680b10 f i libcmtd:_wctype.obj
 0001:0004fb30       _iswpunct                  7c680b30 f i libcmtd:_wctype.obj
 0001:0004fb50       __iswalnum_l               7c680b50 f i libcmtd:_wctype.obj
 0001:0004fb70       _iswalnum                  7c680b70 f i libcmtd:_wctype.obj
 0001:0004fb90       __iswprint_l               7c680b90 f i libcmtd:_wctype.obj
 0001:0004fbb0       _iswprint                  7c680bb0 f i libcmtd:_wctype.obj
 0001:0004fbd0       __iswgraph_l               7c680bd0 f i libcmtd:_wctype.obj
 0001:0004fbf0       _iswgraph                  7c680bf0 f i libcmtd:_wctype.obj
 0001:0004fc10       __iswcntrl_l               7c680c10 f i libcmtd:_wctype.obj
 0001:0004fc30       _iswcntrl                  7c680c30 f i libcmtd:_wctype.obj
 0001:0004fc50       _iswascii                  7c680c50 f i libcmtd:_wctype.obj
 0001:0004fc70       __iswcsym_l                7c680c70 f i libcmtd:_wctype.obj
 0001:0004fcb0       ___iswcsym                 7c680cb0 f i libcmtd:_wctype.obj
 0001:0004fcf0       __iswcsymf_l               7c680cf0 f i libcmtd:_wctype.obj
 0001:0004fd30       ___iswcsymf                7c680d30 f i libcmtd:_wctype.obj
 0001:0004fd70       __VEC_memcpy               7c680d70 f   libcmtd:p4_memcpy.obj
 0001:0004fef0       __lseeki64                 7c680ef0 f   libcmtd:lseeki64.obj
 0001:00050140       __lseeki64_nolock          7c681140 f   libcmtd:lseeki64.obj
 0001:00050230       __write                    7c681230 f   libcmtd:write.obj
 0001:00050450       __write_nolock             7c681450 f   libcmtd:write.obj
 0001:00050f90       __getbuf                   7c681f90 f   libcmtd:_getbuf.obj
 0001:00051050       __isatty                   7c682050 f   libcmtd:isatty.obj
 0001:00051130       ___iob_func                7c682130 f   libcmtd:_file.obj
 0001:00051140       ___initstdio               7c682140 f   libcmtd:_file.obj
 0001:00051290       ___endstdio                7c682290 f   libcmtd:_file.obj
 0001:000512c0       __lock_file                7c6822c0 f   libcmtd:_file.obj
 0001:00051310       __lock_file2               7c682310 f   libcmtd:_file.obj
 0001:00051350       __unlock_file              7c682350 f   libcmtd:_file.obj
 0001:000513a0       __unlock_file2             7c6823a0 f   libcmtd:_file.obj
 0001:000513e0       __fileno                   7c6823e0 f   libcmtd:fileno.obj
 0001:00051450       _printf                    7c682450 f   libcmtd:printf.obj
 0001:00051590       __printf_l                 7c682590 f   libcmtd:printf.obj
 0001:000515c0       __printf_s_l               7c6825c0 f   libcmtd:printf.obj
 0001:000515f0       _printf_s                  7c6825f0 f   libcmtd:printf.obj
 0001:00051610       __printf_p_l               7c682610 f   libcmtd:printf.obj
 0001:00051640       __printf_p                 7c682640 f   libcmtd:printf.obj
 0001:00051660       __set_printf_count_output  7c682660 f   libcmtd:printf.obj
 0001:000516b0       __get_printf_count_output  7c6826b0 f   libcmtd:printf.obj
 0001:000516d0       __wctomb_s_l               7c6826d0 f   libcmtd:wctomb.obj
 0001:000519d0       _wctomb_s                  7c6829d0 f   libcmtd:wctomb.obj
 0001:000519f0       __wctomb_l                 7c6829f0 f   libcmtd:wctomb.obj
 0001:00051a70       _wctomb                    7c682a70 f   libcmtd:wctomb.obj
 0001:00051ac0       __aulldiv                  7c682ac0 f   libcmtd:ulldiv.obj
 0001:00051b30       __aullrem                  7c682b30 f   libcmtd:ullrem.obj
 0001:00051bb0       __set_error_mode           7c682bb0 f   libcmtd:errmode.obj
 0001:00051c70       ___set_app_type            7c682c70 f   libcmtd:errmode.obj
 0001:00051c80       ___get_app_type            7c682c80 f   libcmtd:errmode.obj
 0001:00051c90       __isalpha_l                7c682c90 f i libcmtd:_ctype.obj
 0001:00051d20       _isalpha                   7c682d20 f i libcmtd:_ctype.obj
 0001:00051d60       __isupper_l                7c682d60 f i libcmtd:_ctype.obj
 0001:00051de0       _isupper                   7c682de0 f i libcmtd:_ctype.obj
 0001:00051e10       __islower_l                7c682e10 f i libcmtd:_ctype.obj
 0001:00051e90       _islower                   7c682e90 f i libcmtd:_ctype.obj
 0001:00051ec0       __isdigit_l                7c682ec0 f i libcmtd:_ctype.obj
 0001:00051f40       _isdigit                   7c682f40 f i libcmtd:_ctype.obj
 0001:00051f70       __isxdigit_l               7c682f70 f i libcmtd:_ctype.obj
 0001:00052000       _isxdigit                  7c683000 f i libcmtd:_ctype.obj
 0001:00052040       __isspace_l                7c683040 f i libcmtd:_ctype.obj
 0001:000520c0       _isspace                   7c6830c0 f i libcmtd:_ctype.obj
 0001:000520f0       __ispunct_l                7c6830f0 f i libcmtd:_ctype.obj
 0001:00052170       _ispunct                   7c683170 f i libcmtd:_ctype.obj
 0001:000521a0       __isalnum_l                7c6831a0 f i libcmtd:_ctype.obj
 0001:00052230       _isalnum                   7c683230 f i libcmtd:_ctype.obj
 0001:00052270       __isprint_l                7c683270 f i libcmtd:_ctype.obj
 0001:00052300       _isprint                   7c683300 f i libcmtd:_ctype.obj
 0001:00052340       __isgraph_l                7c683340 f i libcmtd:_ctype.obj
 0001:000523d0       _isgraph                   7c6833d0 f i libcmtd:_ctype.obj
 0001:00052410       __iscntrl_l                7c683410 f i libcmtd:_ctype.obj
 0001:00052490       _iscntrl                   7c683490 f i libcmtd:_ctype.obj
 0001:000524c0       ___isascii                 7c6834c0 f i libcmtd:_ctype.obj
 0001:000524d0       ___toascii                 7c6834d0 f i libcmtd:_ctype.obj
 0001:000524e0       __iscsymf_l                7c6834e0 f i libcmtd:_ctype.obj
 0001:00052520       ___iscsymf                 7c683520 f i libcmtd:_ctype.obj
 0001:00052560       __iscsym_l                 7c683560 f i libcmtd:_ctype.obj
 0001:000525a0       ___iscsym                  7c6835a0 f i libcmtd:_ctype.obj
 0001:000525e0       ___crtGetLocaleInfoW       7c6835e0 f   libcmtd:w_loc.obj
 0001:000527b0       ___crtGetLocaleInfoA       7c6837b0 f   libcmtd:a_loc.obj
 0001:00052988       __global_unwind2           7c683988 f   libcmtd:exsup.obj
 0001:000529ed       __local_unwind2            7c6839ed f   libcmtd:exsup.obj
 0001:00052a71       __abnormal_termination     7c683a71 f   libcmtd:exsup.obj
 0001:00052a94       __NLG_Notify1              7c683a94 f   libcmtd:exsup.obj
 0001:00052a9d       __NLG_Notify               7c683a9d f   libcmtd:exsup.obj
 0001:00052ab4       __NLG_Dispatch             7c683ab4     libcmtd:exsup.obj
 0001:00052ab4       __NLG_Dispatch2            7c683ab4     libcmtd:exsup.obj
 0001:00052abc       __NLG_Call                 7c683abc f   libcmtd:exsup.obj
 0001:00052abe       __NLG_Return2              7c683abe     libcmtd:exsup.obj
 0001:00052ac0       __ismbbkalnum_l            7c683ac0 f   libcmtd:ismbbyte.obj
 0001:00052ae0       __ismbbkalnum              7c683ae0 f   libcmtd:ismbbyte.obj
 0001:00052b00       __ismbbkprint_l            7c683b00 f   libcmtd:ismbbyte.obj
 0001:00052b20       __ismbbkprint              7c683b20 f   libcmtd:ismbbyte.obj
 0001:00052b40       __ismbbkpunct_l            7c683b40 f   libcmtd:ismbbyte.obj
 0001:00052b60       __ismbbkpunct              7c683b60 f   libcmtd:ismbbyte.obj
 0001:00052b80       __ismbbalnum_l             7c683b80 f   libcmtd:ismbbyte.obj
 0001:00052ba0       __ismbbalnum               7c683ba0 f   libcmtd:ismbbyte.obj
 0001:00052bc0       __ismbbalpha_l             7c683bc0 f   libcmtd:ismbbyte.obj
 0001:00052be0       __ismbbalpha               7c683be0 f   libcmtd:ismbbyte.obj
 0001:00052c00       __ismbbgraph_l             7c683c00 f   libcmtd:ismbbyte.obj
 0001:00052c20       __ismbbgraph               7c683c20 f   libcmtd:ismbbyte.obj
 0001:00052c40       __ismbbprint_l             7c683c40 f   libcmtd:ismbbyte.obj
 0001:00052c60       __ismbbprint               7c683c60 f   libcmtd:ismbbyte.obj
 0001:00052c80       __ismbbpunct_l             7c683c80 f   libcmtd:ismbbyte.obj
 0001:00052ca0       __ismbbpunct               7c683ca0 f   libcmtd:ismbbyte.obj
 0001:00052cc0       __ismbblead_l              7c683cc0 f   libcmtd:ismbbyte.obj
 0001:00052ce0       __ismbblead                7c683ce0 f   libcmtd:ismbbyte.obj
 0001:00052d00       __ismbbtrail_l             7c683d00 f   libcmtd:ismbbyte.obj
 0001:00052d20       __ismbbtrail               7c683d20 f   libcmtd:ismbbyte.obj
 0001:00052d40       __ismbbkana_l              7c683d40 f   libcmtd:ismbbyte.obj
 0001:00052db0       __ismbbkana                7c683db0 f   libcmtd:ismbbyte.obj
 0001:00052e90       __get_sse2_info            7c683e90 f   libcmtd:cpu_disp.obj
 0001:00052fb0       ___sse2_available_init     7c683fb0 f   libcmtd:cpu_disp.obj
 0001:00052fd0       __mbtowc_l                 7c683fd0 f   libcmtd:mbtowc.obj
 0001:000531f0       _mbtowc                    7c6841f0 f   libcmtd:mbtowc.obj
 0001:00053210       _fputwc                    7c684210 f   libcmtd:fputwc.obj
 0001:00053310       __fputwc_nolock            7c684310 f   libcmtd:fputwc.obj
 0001:000536f0       _putwc                     7c6846f0 f   libcmtd:fputwc.obj
 0001:00053710       ___unDName                 7c684710 f   libcmtd:undname.obj
 0001:000537f0       ?Constructor@HeapManager@@QAEXP6APAXI@ZP6AXPAX@Z@Z 7c6847f0 f i libcmtd:undname.obj
 0001:00053830       ?Destructor@HeapManager@@QAEXXZ 7c684830 f i libcmtd:undname.obj
 0001:00053880       ___unDNameEx               7c684880 f   libcmtd:undname.obj
 0001:00053960       ??0UnDecorator@@QAE@PADPBDHP6APADJ@ZK@Z 7c684960 f i libcmtd:undname.obj
 0001:00053a00       ??BUnDecorator@@QAEPADXZ   7c684a00 f i libcmtd:undname.obj
 0001:00053c30       ?dbGetString@DName@@QBEPADXZ 7c684c30 f   libcmtd:undname.obj
 0001:00053c50       ?getDecoratedName@UnDecorator@@CA?AVDName@@XZ 7c684c50 f   libcmtd:undname.obj
 0001:00053f60       ?getSymbolName@UnDecorator@@CA?AVDName@@XZ 7c684f60 f i libcmtd:undname.obj
 0001:00053fd0       ?getZName@UnDecorator@@CA?AVDName@@_N@Z 7c684fd0 f   libcmtd:undname.obj
 0001:00054240       ?getOperatorName@UnDecorator@@CA?AVDName@@_NPA_N@Z 7c685240 f i libcmtd:undname.obj
 0001:00054b50       ?getStringEncoding@UnDecorator@@CA?AVDName@@PADH@Z 7c685b50 f   libcmtd:undname.obj
 0001:00054c50       ?getScope@UnDecorator@@CA?AVDName@@XZ 7c685c50 f   libcmtd:undname.obj
 0001:00055030       ?getSignedDimension@UnDecorator@@CA?AVDName@@XZ 7c686030 f   libcmtd:undname.obj
 0001:000550b0       ?getDimension@UnDecorator@@CA?AVDName@@_N@Z 7c6860b0 f   libcmtd:undname.obj
 0001:00055360       ?getNumberOfDimensions@UnDecorator@@CAHXZ 7c686360 f   libcmtd:undname.obj
 0001:00055460       ?getTemplateName@UnDecorator@@CA?AVDName@@_N@Z 7c686460 f   libcmtd:undname.obj
 0001:00055640       ?getTemplateArgumentList@UnDecorator@@CA?AVDName@@XZ 7c686640 f   libcmtd:undname.obj
 0001:000558c0       ?getTemplateConstant@UnDecorator@@CA?AVDName@@XZ 7c6868c0 f   libcmtd:undname.obj
 0001:00055d50       ?composeDeclaration@UnDecorator@@CA?AVDName@@ABV2@@Z 7c686d50 f i libcmtd:undname.obj
 0001:00057350       ?getTypeEncoding@UnDecorator@@CAHXZ 7c688350 f i libcmtd:undname.obj
 0001:00057ce0       ?getBasedType@UnDecorator@@CA?AVDName@@XZ 7c688ce0 f   libcmtd:undname.obj
 0001:00057da0       ?getScopedName@UnDecorator@@CA?AVDName@@XZ 7c688da0 f   libcmtd:undname.obj
 0001:00057ec0       ?getCallingConvention@UnDecorator@@CA?AVDName@@XZ 7c688ec0 f   libcmtd:undname.obj
 0001:00058020       ?getReturnType@UnDecorator@@CA?AVDName@@PAV2@@Z 7c689020 f   libcmtd:undname.obj
 0001:00058070       ?getDataType@UnDecorator@@CA?AVDName@@PAV2@@Z 7c689070 f   libcmtd:undname.obj
 0001:00058180       ?getPrimaryDataType@UnDecorator@@CA?AVDName@@ABV2@@Z 7c689180 f   libcmtd:undname.obj
 0001:00058420       ?getArgumentTypes@UnDecorator@@CA?AVDName@@XZ 7c689420 f   libcmtd:undname.obj
 0001:00058580       ?getArgumentList@UnDecorator@@CA?AVDName@@XZ 7c689580 f   libcmtd:undname.obj
 0001:000586b0       ?getThrowTypes@UnDecorator@@CA?AVDName@@XZ 7c6896b0 f   libcmtd:undname.obj
 0001:00058760       ?getBasicDataType@UnDecorator@@CA?AVDName@@ABV2@@Z 7c689760 f   libcmtd:undname.obj
 0001:00058cd0       ?getECSUDataType@UnDecorator@@CA?AVDName@@XZ 7c689cd0 f   libcmtd:undname.obj
 0001:00058ea0       ?getECSUName@UnDecorator@@CA?AVDName@@XZ 7c689ea0 f i libcmtd:undname.obj
 0001:00058ec0       ?getEnumType@UnDecorator@@CA?AVDName@@XZ 7c689ec0 f i libcmtd:undname.obj
 0001:00059010       ?getFunctionIndirectType@UnDecorator@@CA?AVDName@@ABV2@@Z 7c68a010 f   libcmtd:undname.obj
 0001:00059450       ?getPtrRefType@UnDecorator@@CA?AVDName@@ABV2@0D@Z 7c68a450 f   libcmtd:undname.obj
 0001:000595b0       ?getExtendedDataIndirectType@UnDecorator@@CA?AVDName@@AADAA_NH@Z 7c68a5b0 f   libcmtd:undname.obj
 0001:00059740       ?getDataIndirectType@UnDecorator@@CA?AVDName@@ABV2@D0H@Z 7c68a740 f   libcmtd:undname.obj
 0001:00059e30       ?getPtrRefDataType@UnDecorator@@CA?AVDName@@ABV2@H@Z 7c68ae30 f i libcmtd:undname.obj
 0001:00059f70       ?getArrayType@UnDecorator@@CA?AVDName@@ABV2@@Z 7c68af70 f i libcmtd:undname.obj
 0001:0005a190       ?getLexicalFrame@UnDecorator@@CA?AVDName@@XZ 7c68b190 f i libcmtd:undname.obj
 0001:0005a1d0       ?getThisType@UnDecorator@@CA?AVDName@@XZ 7c68b1d0 f i libcmtd:undname.obj
 0001:0005a200       ?getPointerType@UnDecorator@@CA?AVDName@@ABV2@0@Z 7c68b200 f i libcmtd:undname.obj
 0001:0005a220       ?getPointerTypeArray@UnDecorator@@CA?AVDName@@ABV2@0@Z 7c68b220 f i libcmtd:undname.obj
 0001:0005a240       ?getReferenceType@UnDecorator@@CA?AVDName@@ABV2@0@Z 7c68b240 f i libcmtd:undname.obj
 0001:0005a260       ?getDisplacement@UnDecorator@@CA?AVDName@@XZ 7c68b260 f i libcmtd:undname.obj
 0001:0005a280       ?getCallIndex@UnDecorator@@CA?AVDName@@XZ 7c68b280 f i libcmtd:undname.obj
 0001:0005a2a0       ?getGuardNumber@UnDecorator@@CA?AVDName@@XZ 7c68b2a0 f i libcmtd:undname.obj
 0001:0005a2c0       ?getVbTableType@UnDecorator@@CA?AVDName@@ABV2@@Z 7c68b2c0 f i libcmtd:undname.obj
 0001:0005a2e0       ?getVCallThunkType@UnDecorator@@CA?AVDName@@XZ 7c68b2e0 f i libcmtd:undname.obj
 0001:0005a340       ?getVfTableType@UnDecorator@@CA?AVDName@@ABV2@@Z 7c68b340 f i libcmtd:undname.obj
 0001:0005a500       ?getStorageConvention@UnDecorator@@CA?AVDName@@XZ 7c68b500 f i libcmtd:undname.obj
 0001:0005a520       ?getDataIndirectType@UnDecorator@@CA?AVDName@@XZ 7c68b520 f i libcmtd:undname.obj
 0001:0005a550       ?getVdispMapType@UnDecorator@@CA?AVDName@@ABV2@@Z 7c68b550 f i libcmtd:undname.obj
 0001:0005a5c0       ?getExternalDataType@UnDecorator@@CA?AVDName@@ABV2@@Z 7c68b5c0 f i libcmtd:undname.obj
 0001:0005a650       ?doMSKeywords@UnDecorator@@SAHXZ 7c68b650 f i libcmtd:undname.obj
 0001:0005a670       ?doPtr64@UnDecorator@@SAHXZ 7c68b670 f i libcmtd:undname.obj
 0001:0005a690       ?doFunctionReturns@UnDecorator@@SAHXZ 7c68b690 f i libcmtd:undname.obj
 0001:0005a6b0       ?doAllocationModel@UnDecorator@@SAHXZ 7c68b6b0 f i libcmtd:undname.obj
 0001:0005a6d0       ?doAllocationLanguage@UnDecorator@@SAHXZ 7c68b6d0 f i libcmtd:undname.obj
 0001:0005a6f0       ?doThisTypes@UnDecorator@@SAHXZ 7c68b6f0 f i libcmtd:undname.obj
 0001:0005a710       ?doAccessSpecifiers@UnDecorator@@SAHXZ 7c68b710 f i libcmtd:undname.obj
 0001:0005a730       ?doThrowTypes@UnDecorator@@SAHXZ 7c68b730 f i libcmtd:undname.obj
 0001:0005a750       ?doMemberTypes@UnDecorator@@SAHXZ 7c68b750 f i libcmtd:undname.obj
 0001:0005a770       ?doNameOnly@UnDecorator@@SAHXZ 7c68b770 f i libcmtd:undname.obj
 0001:0005a780       ?doTypeOnly@UnDecorator@@SAHXZ 7c68b780 f i libcmtd:undname.obj
 0001:0005a790       ?haveTemplateParameters@UnDecorator@@SAHXZ 7c68b790 f i libcmtd:undname.obj
 0001:0005a7a0       ?doEcsu@UnDecorator@@SAHXZ 7c68b7a0 f i libcmtd:undname.obj
 0001:0005a7c0       ?doEllipsis@UnDecorator@@SAHXZ 7c68b7c0 f i libcmtd:undname.obj
 0001:0005a7e0       ?UScore@UnDecorator@@SAPBDW4Tokens@@@Z 7c68b7e0 f   libcmtd:undname.obj
 0001:0005a810       ?doUnderScore@UnDecorator@@SAHXZ 7c68b810 f i libcmtd:undname.obj
 0001:0005a830       ??2@YAPAXIAAVHeapManager@@H@Z 7c68b830 f i libcmtd:undname.obj
 0001:0005a850       ?getMemory@HeapManager@@QAEPAXIH@Z 7c68b850 f   libcmtd:undname.obj
 0001:0005a960       ??0Block@HeapManager@@QAE@XZ 7c68b960 f i libcmtd:undname.obj
 0001:0005a980       ??H@YA?AVDName@@DABV0@@Z   7c68b980 f i libcmtd:undname.obj
 0001:0005a9b0       ??H@YA?AVDName@@W4DNameStatus@@ABV0@@Z 7c68b9b0 f i libcmtd:undname.obj
 0001:0005a9e0       ??H@YA?AVDName@@PBDABV0@@Z 7c68b9e0 f i libcmtd:undname.obj
 0001:0005aa10       ??0DName@@QAE@XZ           7c68ba10 f i libcmtd:undname.obj
 0001:0005aac0       ??0DName@@QAE@D@Z          7c68bac0 f   libcmtd:undname.obj
 0001:0005ab90       ??0DName@@QAE@ABV0@@Z      7c68bb90 f i libcmtd:undname.obj
 0001:0005acf0       ??0DName@@QAE@PAV0@@Z      7c68bcf0 f   libcmtd:undname.obj
 0001:0005ae10       ??0DName@@QAE@PBD@Z        7c68be10 f   libcmtd:undname.obj
 0001:0005aee0       ??0DName@@QAE@AAPBDD@Z     7c68bee0 f   libcmtd:undname.obj
 0001:0005b190       ?doNoIdentCharCheck@UnDecorator@@SAHXZ 7c68c190 f i libcmtd:undname.obj
 0001:0005b1a0       ??0DName@@QAE@_K@Z         7c68c1a0 f   libcmtd:undname.obj
 0001:0005b2d0       ??0DName@@QAE@_J@Z         7c68c2d0 f   libcmtd:undname.obj
 0001:0005b440       ??0DName@@QAE@W4DNameStatus@@@Z 7c68c440 f   libcmtd:undname.obj
 0001:0005b560       ?isValid@DName@@QBEHXZ     7c68c560 f   libcmtd:undname.obj
 0001:0005b5a0       ?isEmpty@DName@@QBEHXZ     7c68c5a0 f   libcmtd:undname.obj
 0001:0005b5e0       ?status@DName@@QBE?AW4DNameStatus@@XZ 7c68c5e0 f i libcmtd:undname.obj
 0001:0005b600       ?clearStatus@DName@@QAEXXZ 7c68c600 f i libcmtd:undname.obj
 0001:0005b620       ?setPtrRef@DName@@QAEAAV1@XZ 7c68c620 f i libcmtd:undname.obj
 0001:0005b640       ?isPtrRef@DName@@QBEHXZ    7c68c640 f i libcmtd:undname.obj
 0001:0005b660       ?isUDC@DName@@QBEHXZ       7c68c660 f i libcmtd:undname.obj
 0001:0005b6a0       ?setIsUDC@DName@@QAEXXZ    7c68c6a0 f i libcmtd:undname.obj
 0001:0005b6d0       ?isUDTThunk@DName@@QBEHXZ  7c68c6d0 f i libcmtd:undname.obj
 0001:0005b710       ?setIsArray@DName@@QAEXXZ  7c68c710 f i libcmtd:undname.obj
 0001:0005b730       ?isArray@DName@@QBEHXZ     7c68c730 f i libcmtd:undname.obj
 0001:0005b750       ?isNoTE@DName@@QBEHXZ      7c68c750 f i libcmtd:undname.obj
 0001:0005b770       ?setIsNoTE@DName@@QAEXXZ   7c68c770 f i libcmtd:undname.obj
 0001:0005b790       ?isPinPtr@DName@@QBEHXZ    7c68c790 f i libcmtd:undname.obj
 0001:0005b7b0       ?setIsPinPtr@DName@@QAEXXZ 7c68c7b0 f i libcmtd:undname.obj
 0001:0005b7d0       ?isComArray@DName@@QBEHXZ  7c68c7d0 f i libcmtd:undname.obj
 0001:0005b7f0       ?setIsComArray@DName@@QAEXXZ 7c68c7f0 f i libcmtd:undname.obj
 0001:0005b810       ?isVCallThunk@DName@@QBEHXZ 7c68c810 f i libcmtd:undname.obj
 0001:0005b830       ?setIsVCallThunk@DName@@QAEXXZ 7c68c830 f i libcmtd:undname.obj
 0001:0005b850       ?length@DName@@QBEHXZ      7c68c850 f   libcmtd:undname.obj
 0001:0005b8b0       ?getLastChar@DName@@QBEDXZ 7c68c8b0 f   libcmtd:undname.obj
 0001:0005b930       ?getString@DName@@QBEPADPADH@Z 7c68c930 f   libcmtd:undname.obj
 0001:0005ba30       ??HDName@@QBE?AV0@D@Z      7c68ca30 f   libcmtd:undname.obj
 0001:0005ba80       ??HDName@@QBE?AV0@PBD@Z    7c68ca80 f   libcmtd:undname.obj
 0001:0005bad0       ??HDName@@QBE?AV0@ABV0@@Z  7c68cad0 f   libcmtd:undname.obj
 0001:0005bb40       ??HDName@@QBE?AV0@PAV0@@Z  7c68cb40 f   libcmtd:undname.obj
 0001:0005bb90       ??HDName@@QBE?AV0@W4DNameStatus@@@Z 7c68cb90 f   libcmtd:undname.obj
 0001:0005bbe0       ??YDName@@QAEAAV0@D@Z      7c68cbe0 f   libcmtd:undname.obj
 0001:0005bc90       ??YDName@@QAEAAV0@PBD@Z    7c68cc90 f   libcmtd:undname.obj
 0001:0005bd50       ??YDName@@QAEAAV0@ABV0@@Z  7c68cd50 f   libcmtd:undname.obj
 0001:0005bde0       ??YDName@@QAEAAV0@PAV0@@Z  7c68cde0 f   libcmtd:undname.obj
 0001:0005bee0       ??YDName@@QAEAAV0@W4DNameStatus@@@Z 7c68cee0 f   libcmtd:undname.obj
 0001:0005bfb0       ??_5DName@@QAEAAV0@ABV0@@Z 7c68cfb0 f   libcmtd:undname.obj
 0001:0005c000       ??4DName@@QAEAAV0@D@Z      7c68d000 f   libcmtd:undname.obj
 0001:0005c070       ??4DName@@QAEAAV0@PBD@Z    7c68d070 f   libcmtd:undname.obj
 0001:0005c0f0       ??4DName@@QAEAAV0@ABV0@@Z  7c68d0f0 f   libcmtd:undname.obj
 0001:0005c200       ??4DName@@QAEAAV0@PAV0@@Z  7c68d200 f   libcmtd:undname.obj
 0001:0005c2f0       ??4DName@@QAEAAV0@W4DNameStatus@@@Z 7c68d2f0 f   libcmtd:undname.obj
 0001:0005c400       ?doPchar@DName@@AAEXPBDH@Z 7c68d400 f   libcmtd:undname.obj
 0001:0005c550       ?isFull@Replicator@@QBEHXZ 7c68d550 f i libcmtd:undname.obj
 0001:0005c570       ??0Replicator@@QAE@XZ      7c68d570 f i libcmtd:undname.obj
 0001:0005c5b0       ??YReplicator@@QAEAAV0@ABVDName@@@Z 7c68d5b0 f   libcmtd:undname.obj
 0001:0005c640       ??AReplicator@@QBEABVDName@@H@Z 7c68d640 f   libcmtd:undname.obj
 0001:0005c690       ??0DNameNode@@IAE@XZ       7c68d690 f   libcmtd:undname.obj
 0001:0005c6c0       ?nextNode@DNameNode@@QBEPAV1@XZ 7c68d6c0 f i libcmtd:undname.obj
 0001:0005c6e0       ?clone@DNameNode@@QAEPAV1@XZ 7c68d6e0 f   libcmtd:undname.obj
 0001:0005c760       ??0DName@@QAE@PAVDNameNode@@@Z 7c68d760 f i libcmtd:undname.obj
 0001:0005c810       ??YDNameNode@@QAEAAV0@PAV0@@Z 7c68d810 f   libcmtd:undname.obj
 0001:0005c870       ??0charNode@@QAE@D@Z       7c68d870 f   libcmtd:undname.obj
 0001:0005c8a0       ?length@charNode@@UBEHXZ   7c68d8a0 f i libcmtd:undname.obj
 0001:0005c8b0       ?getLastChar@charNode@@UBEDXZ 7c68d8b0 f i libcmtd:undname.obj
 0001:0005c8d0       ?getString@charNode@@UBEPADPADH@Z 7c68d8d0 f   libcmtd:undname.obj
 0001:0005c900       ??0pcharNode@@QAE@PBDH@Z   7c68d900 f   libcmtd:undname.obj
 0001:0005c9b0       ?length@pcharNode@@UBEHXZ  7c68d9b0 f i libcmtd:undname.obj
 0001:0005c9d0       ?getLastChar@pcharNode@@UBEDXZ 7c68d9d0 f i libcmtd:undname.obj
 0001:0005ca10       ?getString@pcharNode@@UBEPADPADH@Z 7c68da10 f   libcmtd:undname.obj
 0001:0005ca80       ??0pDNameNode@@QAE@PAVDName@@@Z 7c68da80 f   libcmtd:undname.obj
 0001:0005cae0       ?length@pDNameNode@@UBEHXZ 7c68dae0 f i libcmtd:undname.obj
 0001:0005cb10       ?getLastChar@pDNameNode@@UBEDXZ 7c68db10 f i libcmtd:undname.obj
 0001:0005cb40       ?getString@pDNameNode@@UBEPADPADH@Z 7c68db40 f   libcmtd:undname.obj
 0001:0005cb90       ??0DNameStatusNode@@QAE@W4DNameStatus@@@Z 7c68db90 f   libcmtd:undname.obj
 0001:0005cbe0       ?length@DNameStatusNode@@UBEHXZ 7c68dbe0 f i libcmtd:undname.obj
 0001:0005cc00       ?getLastChar@DNameStatusNode@@UBEDXZ 7c68dc00 f i libcmtd:undname.obj
 0001:0005cc20       ?getString@DNameStatusNode@@UBEPADPADH@Z 7c68dc20 f   libcmtd:undname.obj
 0001:0005cd70       _strtol                    7c68dd70 f   libcmtd:strtol.obj
 0001:0005d2a0       __strtol_l                 7c68e2a0 f   libcmtd:strtol.obj
 0001:0005d2c0       _strtoul                   7c68e2c0 f   libcmtd:strtol.obj
 0001:0005d310       __strtoul_l                7c68e310 f   libcmtd:strtol.obj
 0001:0005d330       _wcstol                    7c68e330 f   libcmtd:wcstol.obj
 0001:0005d7b0       __wcstol_l                 7c68e7b0 f   libcmtd:wcstol.obj
 0001:0005d7d0       _wcstoul                   7c68e7d0 f   libcmtd:wcstol.obj
 0001:0005d820       __wcstoul_l                7c68e820 f   libcmtd:wcstol.obj
 0001:0005d840       ___crtLCMapStringW         7c68e840 f   libcmtd:w_map.obj
 0001:0005dc40       __iswctype_l               7c68ec40 f   libcmtd:iswctype.obj
 0001:0005dcf0       _iswctype                  7c68ecf0 f   libcmtd:iswctype.obj
 0001:0005dd80       _is_wctype                 7c68ed80 f   libcmtd:iswctype.obj
 0001:0005dda0       __fptrap                   7c68eda0 f   libcmtd:crt0fp.obj
 0001:0005ddb0       ___InternalCxxFrameHandler 7c68edb0 f   libcmtd:frame.obj
 0001:0005e3a0       ??0bad_exception@std@@QAE@PBD@Z 7c68f3a0 f i libcmtd:frame.obj
 0001:0005e3d0       ??1bad_exception@std@@UAE@XZ 7c68f3d0 f i libcmtd:frame.obj
 0001:0005e3f0       ??_Gbad_exception@std@@UAEPAXI@Z 7c68f3f0 f i libcmtd:frame.obj
 0001:0005e3f0       ??_Ebad_exception@std@@UAEPAXI@Z 7c68f3f0 f i libcmtd:frame.obj
 0001:0005e420       ??0bad_exception@std@@QAE@ABV01@@Z 7c68f420 f i libcmtd:frame.obj
 0001:0005e5d0       ___TypeMatch               7c68f5d0 f   libcmtd:frame.obj
 0001:0005e680       ___FrameUnwindFilter       7c68f680 f   libcmtd:frame.obj
 0001:0005e6f0       ___FrameUnwindToState      7c68f6f0 f   libcmtd:frame.obj
 0001:0005ec30       ___BuildCatchObjectHelper  7c68fc30 f   libcmtd:frame.obj
 0001:0005eea0       ___BuildCatchObject        7c68fea0 f   libcmtd:frame.obj
 0001:0005efb0       ___DestructExceptionObject 7c68ffb0 f   libcmtd:frame.obj
 0001:0005f060       ___AdjustPointer           7c690060 f   libcmtd:frame.obj
 0001:0005f0b0       ?__uncaught_exception@@YA_NXZ 7c6900b0 f   libcmtd:frame.obj
 0001:0005f0d0       ___CxxExceptionFilter      7c6900d0 f   libcmtd:frame.obj
 0001:0005f2c0       ___CxxRegisterExceptionObject 7c6902c0 f   libcmtd:frame.obj
 0001:0005f3f0       ___CxxDetectRethrow        7c6903f0 f   libcmtd:frame.obj
 0001:0005f470       ___CxxUnregisterExceptionObject 7c690470 f   libcmtd:frame.obj
 0001:0005f5f0       ___CxxQueryExceptionSize   7c6905f0 f   libcmtd:frame.obj
 0001:0005f600       ___CxxCallUnwindDtor       7c690600 f   libcmtd:frame.obj
 0001:0005f680       ___CxxCallUnwindDelDtor    7c690680 f   libcmtd:frame.obj
 0001:0005f700       ___CxxCallUnwindStdDelDtor 7c690700 f   libcmtd:frame.obj
 0001:0005f780       ___CxxCallUnwindVecDtor    7c690780 f   libcmtd:frame.obj
 0001:0005f9a0       ?_is_exception_typeof@@YAHABVtype_info@@PAU_EXCEPTION_POINTERS@@@Z 7c6909a0 f   libcmtd:frame.obj
 0001:0005fa80       __CallSettingFrame@12      7c690a80 f   libcmtd:lowhelpr.obj
 0001:0005faa7       __NLG_Return               7c690aa7     libcmtd:lowhelpr.obj
 0001:0005fad0       ___ansicp                  7c690ad0 f   libcmtd:convrtcp.obj
 0001:0005fb30       ___convertcp               7c690b30 f   libcmtd:convrtcp.obj
 0001:0005fd70       __get_daylight             7c690d70 f   libcmtd:timeset.obj
 0001:0005fdf0       __get_dstbias              7c690df0 f   libcmtd:timeset.obj
 0001:0005fe70       __get_timezone             7c690e70 f   libcmtd:timeset.obj
 0001:0005fef0       __get_tzname               7c690ef0 f   libcmtd:timeset.obj
 0001:000600c0       ___daylight                7c6910c0 f   libcmtd:timeset.obj
 0001:000600d0       ___dstbias                 7c6910d0 f   libcmtd:timeset.obj
 0001:000600e0       ___timezone                7c6910e0 f   libcmtd:timeset.obj
 0001:000600f0       ___tzname                  7c6910f0 f   libcmtd:timeset.obj
 0001:00060100       ___tzset                   7c691100 f   libcmtd:tzset.obj
 0001:00060190       __tzset                    7c691190 f   libcmtd:tzset.obj
 0001:00060740       __set_daylight             7c691740 f i libcmtd:tzset.obj
 0001:00060750       __set_dstbias              7c691750 f i libcmtd:tzset.obj
 0001:00060760       __set_timezone             7c691760 f i libcmtd:tzset.obj
 0001:00060770       __isindst                  7c691770 f   libcmtd:tzset.obj
 0001:00060e10       __stricmp_l                7c691e10 f   libcmtd:stricmp.obj
 0001:00060fc0       ___ascii_stricmp           7c691fc0 f   libcmtd:stricmp.obj
 0001:00061030       __stricmp                  7c692030 f   libcmtd:stricmp.obj
 0001:00061140       __strnicmp_l               7c692140 f   libcmtd:strnicmp.obj
 0001:00061380       __strnicmp                 7c692380 f   libcmtd:strnicmp.obj
 0001:00061510       _atol                      7c692510 f   libcmtd:atox.obj
 0001:00061530       __atol_l                   7c692530 f   libcmtd:atox.obj
 0001:00061550       _atoi                      7c692550 f   libcmtd:atox.obj
 0001:00061570       __atoi_l                   7c692570 f   libcmtd:atox.obj
 0001:00061590       __atoi64                   7c692590 f   libcmtd:atox.obj
 0001:000615b0       __atoi64_l                 7c6925b0 f   libcmtd:atox.obj
 0001:000615d0       __alloc_osfhnd             7c6925d0 f   libcmtd:osfinfo.obj
 0001:00061880       __set_osfhnd               7c692880 f   libcmtd:osfinfo.obj
 0001:00061950       __free_osfhnd              7c692950 f   libcmtd:osfinfo.obj
 0001:00061a40       __get_osfhandle            7c692a40 f   libcmtd:osfinfo.obj
 0001:00061ba0       __open_osfhandle           7c692ba0 f   libcmtd:osfinfo.obj
 0001:00061dd0       ___lock_fhandle            7c692dd0 f   libcmtd:osfinfo.obj
 0001:00061ed0       __unlock_fhandle           7c692ed0 f   libcmtd:osfinfo.obj
 0001:00061f00       __putwch                   7c692f00 f   libcmtd:putwch.obj
 0001:00061f90       __putwch_nolock            7c692f90 f   libcmtd:putwch.obj
 0001:00062090       __cputws                   7c693090 f   libcmtd:putwch.obj
 0001:000621d0       _DebuggerKnownHandle       7c6931d0 f   libcmtd:error.obj
 0001:00062270       ?_RTC_Failure@@YAXPAXH@Z   7c693270 f   libcmtd:error.obj
 0001:000625a0       ?_RTC_StackFailure@@YAXPAXPBD@Z 7c6935a0 f   libcmtd:error.obj
 0001:000626c0       ?_RTC_AllocaFailure@@YAXPAXPAU_RTC_ALLOCA_NODE@@H@Z 7c6936c0 f   libcmtd:error.obj
 0001:00062880       __RTC_UninitUse            7c693880 f   libcmtd:error.obj
 0001:00062990       __fcloseall                7c693990 f   libcmtd:closeall.obj
 0001:00062ac0       _fflush                    7c693ac0 f   libcmtd:fflush.obj
 0001:00062b60       __fflush_nolock            7c693b60 f   libcmtd:fflush.obj
 0001:00062bc0       __flush                    7c693bc0 f   libcmtd:fflush.obj
 0001:00062c80       __flushall                 7c693c80 f   libcmtd:fflush.obj
 0001:00062e30       __stbuf                    7c693e30 f   libcmtd:_sftbuf.obj
 0001:00062f90       __ftbuf                    7c693f90 f   libcmtd:_sftbuf.obj
 0001:00063020       _vprintf_helper            7c694020 f   libcmtd:vprintf.obj
 0001:00063140       __vprintf_l                7c694140 f   libcmtd:vprintf.obj
 0001:00063160       __vprintf_s_l              7c694160 f   libcmtd:vprintf.obj
 0001:00063180       __vprintf_p_l              7c694180 f   libcmtd:vprintf.obj
 0001:000631a0       _vprintf                   7c6941a0 f   libcmtd:vprintf.obj
 0001:000631c0       _vprintf_s                 7c6941c0 f   libcmtd:vprintf.obj
 0001:000631e0       __vprintf_p                7c6941e0 f   libcmtd:vprintf.obj
 0001:00063200       __flswbuf                  7c694200 f   libcmtd:_flswbuf.obj
 0001:000634e0       __allshl                   7c6944e0 f   libcmtd:llshl.obj
 0001:00063500       __wchartodigit             7c694500 f   libcmtd:wchtodig.obj
 0001:00063820       ___crtGetStringTypeW       7c694820 f   libcmtd:w_str.obj
 0001:00063b20       ?_ValidateRead@@YAHPBXI@Z  7c694b20 f   libcmtd:validate.obj
 0001:00063b40       ?_ValidateWrite@@YAHPAXI@Z 7c694b40 f   libcmtd:validate.obj
 0001:00063b60       ?_ValidateExecute@@YAHP6GHXZ@Z 7c694b60 f   libcmtd:validate.obj
 0001:00063b80       _getenv                    7c694b80 f   libcmtd:getenv.obj
 0001:00063cd0       __getenv_helper_nolock     7c694cd0 f   libcmtd:getenv.obj
 0001:00063df0       _getenv_s                  7c694df0 f   libcmtd:getenv.obj
 0001:00064020       __dupenv_s                 7c695020 f   libcmtd:getenv.obj
 0001:00064040       __dupenv_s_dbg             7c695040 f   libcmtd:getenv.obj
 0001:00064290       __tolower                  7c695290 f   libcmtd:tolower.obj
 0001:000642a0       __tolower_l                7c6952a0 f   libcmtd:tolower.obj
 0001:00064480       _tolower                   7c695480 f   libcmtd:tolower.obj
 0001:000644d0       ___ascii_strnicmp          7c6954d0 f   libcmtd:_strnicm.obj
 0001:00064540       __strtoi64                 7c695540 f   libcmtd:strtoq.obj
 0001:00064ab0       __strtoi64_l               7c695ab0 f   libcmtd:strtoq.obj
 0001:00064ad0       __strtoui64                7c695ad0 f   libcmtd:strtoq.obj
 0001:00064b20       __strtoui64_l              7c695b20 f   libcmtd:strtoq.obj
 0001:00064b40       ___initconin               7c695b40 f   libcmtd:initcon.obj
 0001:00064b70       ___initconout              7c695b70 f   libcmtd:initcon.obj
 0001:00064ba0       ___termcon                 7c695ba0 f   libcmtd:initcon.obj
 0001:00064bf0       ?_RTC_GetSrcLine@@YAHPAEPA_WKPAH1K@Z 7c695bf0 f   libcmtd:pdblkup.obj
 0001:00065080       __RTC_NumErrors            7c696080 f   libcmtd:userapi.obj
 0001:00065090       __RTC_GetErrDesc           7c696090 f   libcmtd:userapi.obj
 0001:000650b0       __RTC_SetErrorType         7c6960b0 f   libcmtd:userapi.obj
 0001:000650e0       __RTC_SetErrorFunc         7c6960e0 f   libcmtd:userapi.obj
 0001:00065100       __RTC_SetErrorFuncW        7c696100 f   libcmtd:userapi.obj
 0001:00065120       ?_RTC_GetErrorFunc@@YAP6AHHPBDH00ZZPBX@Z 7c696120 f   libcmtd:userapi.obj
 0001:00065130       ?_RTC_GetErrorFuncW@@YAP6AHHPB_WH00ZZPBX@Z 7c696130 f   libcmtd:userapi.obj
 0001:00065140       _fclose                    7c696140 f   libcmtd:fclose.obj
 0001:00065250       __fclose_nolock            7c696250 f   libcmtd:fclose.obj
 0001:00065350       __commit                   7c696350 f   libcmtd:commit.obj
 0001:00065570       _strnlen                   7c696570 f   libcmtd:strlen_s.obj
 0001:000655b0       __mbsnbicoll_l             7c6965b0 f   libcmtd:mbsnbico.obj
 0001:000657f0       __mbsnbicoll               7c6967f0 f   libcmtd:mbsnbico.obj
 0001:00065810       ___wtomb_environ           7c696810 f   libcmtd:wtombenv.obj
 0001:00065900       __close                    7c696900 f   libcmtd:close.obj
 0001:00065b10       __close_nolock             7c696b10 f   libcmtd:close.obj
 0001:00065be0       __freebuf                  7c696be0 f   libcmtd:_freebuf.obj
 0001:00065c70       ___crtCompareStringA       7c696c70 f   libcmtd:a_cmp.obj
 0001:00066230       __strnicoll_l              7c697230 f   libcmtd:strnicol.obj
 0001:00066480       __strnicoll                7c697480 f   libcmtd:strnicol.obj
 0001:000664c0       ___crtsetenv               7c6974c0 f   libcmtd:setenv.obj
 0001:00066b40       __mbschr_l                 7c697b40 f   libcmtd:mbschr.obj
 0001:00066cd0       __mbschr                   7c697cd0 f   libcmtd:mbschr.obj
 0001:00066d00       _strchr                    7c697d00 f   libcmtd:strchr.obj
 0001:00066d06       ___from_strstr_to_strchr   7c697d06     libcmtd:strchr.obj
 0001:00066e1d       ?IndexFromPImgThunkData@@YGIPBU_IMAGE_THUNK_DATA32@@0@Z 7c697e1d f i delayimp:delayhlp.obj
 0001:00066e2f       ?CountOfImports@@YGIPBU_IMAGE_THUNK_DATA32@@@Z 7c697e2f f i delayimp:delayhlp.obj
 0001:00066e4a       ??2ULI@@SGPAXI@Z           7c697e4a f i delayimp:delayhlp.obj
 0001:00066e5e       ??3ULI@@SGXPAX@Z           7c697e5e f i delayimp:delayhlp.obj
 0001:00066e6a       ?Unlink@ULI@@QAEXXZ        7c697e6a f i delayimp:delayhlp.obj
 0001:00066e8e       ?Link@ULI@@QAEXXZ          7c697e8e f i delayimp:delayhlp.obj
 0001:00066ed7       ??$PFromRva@PBD@@YGPBDK@Z  7c697ed7 f i delayimp:delayhlp.obj
 0001:00066ee9       ??$PFromRva@PAPAUHINSTANCE__@@@@YGPAPAUHINSTANCE__@@K@Z 7c697ee9 f i delayimp:delayhlp.obj
 0001:00066efb       ??$PFromRva@PAU_IMAGE_THUNK_DATA32@@@@YGPAU_IMAGE_THUNK_DATA32@@K@Z 7c697efb f i delayimp:delayhlp.obj
 0001:00066f0d       ??$PFromRva@PBU_IMAGE_THUNK_DATA32@@@@YGPBU_IMAGE_THUNK_DATA32@@K@Z 7c697f0d f i delayimp:delayhlp.obj
 0001:00066f1f       ??$PFromRva@PAU_IMAGE_IMPORT_BY_NAME@@@@YGPAU_IMAGE_IMPORT_BY_NAME@@K@Z 7c697f1f f i delayimp:delayhlp.obj
 0001:00066f31       ??$PFromRva@PBUImgDelayDescr@@@@YGPBUImgDelayDescr@@K@Z 7c697f31 f i delayimp:delayhlp.obj
 0001:00066f43       ??$PFromRva@PAP6GHXZ@@YGPAP6GHXZK@Z 7c697f43 f i delayimp:delayhlp.obj
 0001:00066f55       ??0ULI@@QAE@PBUImgDelayDescr@@@Z 7c697f55 f i delayimp:delayhlp.obj
 0001:00066f73       ??1ULI@@QAE@XZ             7c697f73 f i delayimp:delayhlp.obj
 0001:00066f78       ___delayLoadHelper2@8      7c697f78 f   delayimp:delayhlp.obj
 0001:000671b5       ??_GULI@@QAEPAXI@Z         7c6981b5 f i delayimp:delayhlp.obj
 0001:000671d6       ___HrLoadAllImportsForDll@4 7c6981d6 f   delayimp:delayhlp.obj
 0001:00067268       ___FUnloadDelayLoadedDLL2@4 7c698268 f   delayimp:delayhlp.obj
 0001:00067324       __imp_load__SetThreadToken@8 7c698324     advapi32:ADVAPI32.dll
 0001:0006732e       _SetThreadToken@8          7c69832e f   advapi32:ADVAPI32.dll
 0001:00067334       __imp_load__RevertToSelf@0 7c698334     advapi32:ADVAPI32.dll
 0001:0006733e       _RevertToSelf@0            7c69833e f   advapi32:ADVAPI32.dll
 0001:00067344       __imp_load__OpenThreadToken@16 7c698344     advapi32:ADVAPI32.dll
 0001:0006734e       _OpenThreadToken@16        7c69834e f   advapi32:ADVAPI32.dll
 0001:00067354       _InterlockedExchange@8     7c698354 f   kernel32:KERNEL32.dll
 0001:0006735a       _GetACP@0                  7c69835a f   kernel32:KERNEL32.dll
 0001:00067360       _GetLocaleInfoA@16         7c698360 f   kernel32:KERNEL32.dll
 0001:00067366       _GetThreadLocale@0         7c698366 f   kernel32:KERNEL32.dll
 0001:0006736c       _GetCurrentProcessId@0     7c69836c f   kernel32:KERNEL32.dll
 0001:00067372       _SetEvent@4                7c698372 f   kernel32:KERNEL32.dll
 0001:00067378       _OpenEventA@12             7c698378 f   kernel32:KERNEL32.dll
 0001:0006737e       _OutputDebugStringW@4      7c69837e f   kernel32:KERNEL32.dll
 0001:00067384       _VirtualFree@12            7c698384 f   kernel32:KERNEL32.dll
 0001:0006738a       _VirtualAlloc@16           7c69838a f   kernel32:KERNEL32.dll
 0001:00067390       _HeapAlloc@12              7c698390 f   kernel32:KERNEL32.dll
 0001:00067396       _GetProcessHeap@0          7c698396 f   kernel32:KERNEL32.dll
 0001:0006739c       _HeapFree@12               7c69839c f   kernel32:KERNEL32.dll
 0001:000673a2       _GetProcAddress@8          7c6983a2 f   kernel32:KERNEL32.dll
 0001:000673a8       _LoadLibraryA@4            7c6983a8 f   kernel32:KERNEL32.dll
 0001:000673ae       _IsProcessorFeaturePresent@4 7c6983ae f   kernel32:KERNEL32.dll
 0001:000673b4       _InterlockedCompareExchange@12 7c6983b4 f   kernel32:KERNEL32.dll
 0001:000673ba       _UnmapViewOfFile@4         7c6983ba f   kernel32:KERNEL32.dll
 0001:000673c0       _GetSystemInfo@4           7c6983c0 f   kernel32:KERNEL32.dll
 0001:000673c6       _MapViewOfFile@20          7c6983c6 f   kernel32:KERNEL32.dll
 0001:000673cc       _CreateFileMappingA@24     7c6983cc f   kernel32:KERNEL32.dll
 0001:000673d2       _GetCurrentThread@0        7c6983d2 f   kernel32:KERNEL32.dll
 0001:000673d8       _GetVersion@0              7c6983d8 f   kernel32:KERNEL32.dll
 0001:000673de       _OpenFileMappingA@12       7c6983de f   kernel32:KERNEL32.dll
 0001:000673e4       _GetModuleFileNameW@12     7c6983e4 f   kernel32:KERNEL32.dll
 0001:000673ea       _HeapValidate@12           7c6983ea f   kernel32:KERNEL32.dll
 0001:000673f0       _IsBadReadPtr@8            7c6983f0 f   kernel32:KERNEL32.dll
 0001:000673f6       _VirtualProtect@16         7c6983f6 f   kernel32:KERNEL32.dll
 0001:000673fc       _VirtualQuery@12           7c6983fc f   kernel32:KERNEL32.dll
 0001:00067402       _GetCommandLineA@0         7c698402 f   kernel32:KERNEL32.dll
 0001:00067408       _FatalAppExitA@8           7c698408 f   kernel32:KERNEL32.dll
 0001:0006740e       _DebugBreak@0              7c69840e f   kernel32:KERNEL32.dll
 0001:00067414       _GetStdHandle@4            7c698414 f   kernel32:KERNEL32.dll
 0001:0006741a       _WriteFile@20              7c69841a f   kernel32:KERNEL32.dll
 0001:00067420       _WriteConsoleW@20          7c698420 f   kernel32:KERNEL32.dll
 0001:00067426       _GetFileType@4             7c698426 f   kernel32:KERNEL32.dll
 0001:0006742c       _TerminateProcess@8        7c69842c f   kernel32:KERNEL32.dll
 0001:00067432       _UnhandledExceptionFilter@4 7c698432 f   kernel32:KERNEL32.dll
 0001:00067438       _SetUnhandledExceptionFilter@4 7c698438 f   kernel32:KERNEL32.dll
 0001:0006743e       _IsDebuggerPresent@0       7c69843e f   kernel32:KERNEL32.dll
 0001:00067444       _ExitProcess@4             7c698444 f   kernel32:KERNEL32.dll
 0001:0006744a       _SetConsoleCtrlHandler@8   7c69844a f   kernel32:KERNEL32.dll
 0001:00067450       _LoadLibraryW@4            7c698450 f   kernel32:KERNEL32.dll
 0001:00067456       _HeapReAlloc@16            7c698456 f   kernel32:KERNEL32.dll
 0001:0006745c       _HeapDestroy@4             7c69845c f   kernel32:KERNEL32.dll
 0001:00067462       _HeapCreate@12             7c698462 f   kernel32:KERNEL32.dll
 0001:00067468       _GetOEMCP@0                7c698468 f   kernel32:KERNEL32.dll
 0001:0006746e       _GetCPInfo@8               7c69846e f   kernel32:KERNEL32.dll
 0001:00067474       _IsValidCodePage@4         7c698474 f   kernel32:KERNEL32.dll
 0001:0006747a       _TlsGetValue@4             7c69847a f   kernel32:KERNEL32.dll
 0001:00067480       _TlsAlloc@0                7c698480 f   kernel32:KERNEL32.dll
 0001:00067486       _TlsSetValue@8             7c698486 f   kernel32:KERNEL32.dll
 0001:0006748c       _TlsFree@4                 7c69848c f   kernel32:KERNEL32.dll
 0001:00067492       _RtlUnwind@16              7c698492 f   kernel32:KERNEL32.dll
 0001:00067498       _SetHandleCount@4          7c698498 f   kernel32:KERNEL32.dll
 0001:0006749e       _GetStartupInfoA@4         7c69849e f   kernel32:KERNEL32.dll
 0001:000674a4       _FreeEnvironmentStringsA@4 7c6984a4 f   kernel32:KERNEL32.dll
 0001:000674aa       _GetEnvironmentStrings@0   7c6984aa f   kernel32:KERNEL32.dll
 0001:000674b0       _FreeEnvironmentStringsW@4 7c6984b0 f   kernel32:KERNEL32.dll
 0001:000674b6       _GetEnvironmentStringsW@0  7c6984b6 f   kernel32:KERNEL32.dll
 0001:000674bc       _QueryPerformanceCounter@4 7c6984bc f   kernel32:KERNEL32.dll
 0001:000674c2       _GetSystemTimeAsFileTime@4 7c6984c2 f   kernel32:KERNEL32.dll
 0001:000674c8       _LCMapStringA@24           7c6984c8 f   kernel32:KERNEL32.dll
 0001:000674ce       _LCMapStringW@24           7c6984ce f   kernel32:KERNEL32.dll
 0001:000674d4       _GetStringTypeA@20         7c6984d4 f   kernel32:KERNEL32.dll
 0001:000674da       _GetStringTypeW@16         7c6984da f   kernel32:KERNEL32.dll
 0001:000674e0       _GetTimeFormatA@24         7c6984e0 f   kernel32:KERNEL32.dll
 0001:000674e6       _GetDateFormatA@24         7c6984e6 f   kernel32:KERNEL32.dll
 0001:000674ec       _IsValidLocale@8           7c6984ec f   kernel32:KERNEL32.dll
 0001:000674f2       _EnumSystemLocalesA@8      7c6984f2 f   kernel32:KERNEL32.dll
 0001:000674f8       _GetUserDefaultLCID@0      7c6984f8 f   kernel32:KERNEL32.dll
 0001:000674fe       _SetFilePointer@16         7c6984fe f   kernel32:KERNEL32.dll
 0001:00067504       _GetConsoleCP@0            7c698504 f   kernel32:KERNEL32.dll
 0001:0006750a       _GetConsoleMode@8          7c69850a f   kernel32:KERNEL32.dll
 0001:00067510       _GetLocaleInfoW@16         7c698510 f   kernel32:KERNEL32.dll
 0001:00067516       _GetTimeZoneInformation@4  7c698516 f   kernel32:KERNEL32.dll
 0001:0006751c       _SetStdHandle@8            7c69851c f   kernel32:KERNEL32.dll
 0001:00067522       _WriteConsoleA@20          7c698522 f   kernel32:KERNEL32.dll
 0001:00067528       _GetConsoleOutputCP@0      7c698528 f   kernel32:KERNEL32.dll
 0001:0006752e       _FlushFileBuffers@4        7c69852e f   kernel32:KERNEL32.dll
 0001:00067534       _CompareStringA@24         7c698534 f   kernel32:KERNEL32.dll
 0001:0006753a       _CompareStringW@24         7c69853a f   kernel32:KERNEL32.dll
 0001:00067540       _SetEnvironmentVariableA@8 7c698540 f   kernel32:KERNEL32.dll
 0001:00067546       _LocalAlloc@8              7c698546 f   kernel32:KERNEL32.dll
 0002:00000000       __imp__GetCurrentThreadId@0 7c699000     kernel32:KERNEL32.dll
 0002:00000004       __imp__RaiseException@16   7c699004     kernel32:KERNEL32.dll
 0002:00000008       __imp__LeaveCriticalSection@4 7c699008     kernel32:KERNEL32.dll
 0002:0000000c       __imp__EnterCriticalSection@4 7c69900c     kernel32:KERNEL32.dll
 0002:00000010       __imp__DisableThreadLibraryCalls@4 7c699010     kernel32:KERNEL32.dll
 0002:00000014       __imp__OutputDebugStringA@4 7c699014     kernel32:KERNEL32.dll
 0002:00000018       __imp__GetVersionExA@4     7c699018     kernel32:KERNEL32.dll
 0002:0000001c       __imp__GetModuleHandleA@4  7c69901c     kernel32:KERNEL32.dll
 0002:00000020       __imp__lstrlenA@4          7c699020     kernel32:KERNEL32.dll
 0002:00000024       __imp__GetModuleFileNameA@12 7c699024     kernel32:KERNEL32.dll
 0002:00000028       __imp__MultiByteToWideChar@24 7c699028     kernel32:KERNEL32.dll
 0002:0000002c       __imp__lstrlenW@4          7c69902c     kernel32:KERNEL32.dll
 0002:00000030       __imp__InitializeCriticalSection@4 7c699030     kernel32:KERNEL32.dll
 0002:00000034       __imp__GetLastError@0      7c699034     kernel32:KERNEL32.dll
 0002:00000038       __imp__DeleteCriticalSection@4 7c699038     kernel32:KERNEL32.dll
 0002:0000003c       __imp__WideCharToMultiByte@32 7c69903c     kernel32:KERNEL32.dll
 0002:00000040       __imp__FreeLibrary@4       7c699040     kernel32:KERNEL32.dll
 0002:00000044       __imp__SizeofResource@8    7c699044     kernel32:KERNEL32.dll
 0002:00000048       __imp__LoadResource@8      7c699048     kernel32:KERNEL32.dll
 0002:0000004c       __imp__FindResourceA@12    7c69904c     kernel32:KERNEL32.dll
 0002:00000050       __imp__LoadLibraryExA@12   7c699050     kernel32:KERNEL32.dll
 0002:00000054       __imp__CloseHandle@4       7c699054     kernel32:KERNEL32.dll
 0002:00000058       __imp__ReadFile@20         7c699058     kernel32:KERNEL32.dll
 0002:0000005c       __imp__GetFileSize@8       7c69905c     kernel32:KERNEL32.dll
 0002:00000060       __imp__CreateFileA@28      7c699060     kernel32:KERNEL32.dll
 0002:00000064       __imp__lstrcmpiA@8         7c699064     kernel32:KERNEL32.dll
 0002:00000068       __imp__IsDBCSLeadByte@4    7c699068     kernel32:KERNEL32.dll
 0002:0000006c       __imp__InterlockedIncrement@4 7c69906c     kernel32:KERNEL32.dll
 0002:00000070       __imp__InterlockedDecrement@4 7c699070     kernel32:KERNEL32.dll
 0002:00000074       __imp__WaitForSingleObject@8 7c699074     kernel32:KERNEL32.dll
 0002:00000078       __imp__LocalFree@4         7c699078     kernel32:KERNEL32.dll
 0002:0000007c       __imp__FormatMessageA@28   7c69907c     kernel32:KERNEL32.dll
 0002:00000080       __imp__GlobalUnlock@4      7c699080     kernel32:KERNEL32.dll
 0002:00000084       __imp__GlobalLock@4        7c699084     kernel32:KERNEL32.dll
 0002:00000088       __imp__GlobalAlloc@8       7c699088     kernel32:KERNEL32.dll
 0002:0000008c       __imp__MulDiv@12           7c69908c     kernel32:KERNEL32.dll
 0002:00000090       __imp__lstrcmpA@8          7c699090     kernel32:KERNEL32.dll
 0002:00000094       __imp__FlushInstructionCache@12 7c699094     kernel32:KERNEL32.dll
 0002:00000098       __imp__GetCurrentProcess@0 7c699098     kernel32:KERNEL32.dll
 0002:0000009c       __imp__SetLastError@4      7c69909c     kernel32:KERNEL32.dll
 0002:000000a0       __imp__GlobalFree@4        7c6990a0     kernel32:KERNEL32.dll
 0002:000000a4       __imp__GlobalHandle@4      7c6990a4     kernel32:KERNEL32.dll
 0002:000000a8       __imp__LockResource@4      7c6990a8     kernel32:KERNEL32.dll
 0002:000000ac       __imp__FindResourceW@12    7c6990ac     kernel32:KERNEL32.dll
 0002:000000b0       __imp__GetTickCount@0      7c6990b0     kernel32:KERNEL32.dll
 0002:000000b4       __imp__InterlockedExchange@8 7c6990b4     kernel32:KERNEL32.dll
 0002:000000b8       __imp__GetACP@0            7c6990b8     kernel32:KERNEL32.dll
 0002:000000bc       __imp__GetLocaleInfoA@16   7c6990bc     kernel32:KERNEL32.dll
 0002:000000c0       __imp__GetThreadLocale@0   7c6990c0     kernel32:KERNEL32.dll
 0002:000000c4       __imp__GetCurrentProcessId@0 7c6990c4     kernel32:KERNEL32.dll
 0002:000000c8       __imp__SetEvent@4          7c6990c8     kernel32:KERNEL32.dll
 0002:000000cc       __imp__OpenEventA@12       7c6990cc     kernel32:KERNEL32.dll
 0002:000000d0       __imp__OutputDebugStringW@4 7c6990d0     kernel32:KERNEL32.dll
 0002:000000d4       __imp__VirtualFree@12      7c6990d4     kernel32:KERNEL32.dll
 0002:000000d8       __imp__VirtualAlloc@16     7c6990d8     kernel32:KERNEL32.dll
 0002:000000dc       __imp__HeapAlloc@12        7c6990dc     kernel32:KERNEL32.dll
 0002:000000e0       __imp__GetProcessHeap@0    7c6990e0     kernel32:KERNEL32.dll
 0002:000000e4       __imp__HeapFree@12         7c6990e4     kernel32:KERNEL32.dll
 0002:000000e8       __imp__GetProcAddress@8    7c6990e8     kernel32:KERNEL32.dll
 0002:000000ec       __imp__LoadLibraryA@4      7c6990ec     kernel32:KERNEL32.dll
 0002:000000f0       __imp__IsProcessorFeaturePresent@4 7c6990f0     kernel32:KERNEL32.dll
 0002:000000f4       __imp__InterlockedCompareExchange@12 7c6990f4     kernel32:KERNEL32.dll
 0002:000000f8       __imp__UnmapViewOfFile@4   7c6990f8     kernel32:KERNEL32.dll
 0002:000000fc       __imp__GetSystemInfo@4     7c6990fc     kernel32:KERNEL32.dll
 0002:00000100       __imp__MapViewOfFile@20    7c699100     kernel32:KERNEL32.dll
 0002:00000104       __imp__CreateFileMappingA@24 7c699104     kernel32:KERNEL32.dll
 0002:00000108       __imp__GetCurrentThread@0  7c699108     kernel32:KERNEL32.dll
 0002:0000010c       __imp__GetVersion@0        7c69910c     kernel32:KERNEL32.dll
 0002:00000110       __imp__OpenFileMappingA@12 7c699110     kernel32:KERNEL32.dll
 0002:00000114       __imp__GetModuleFileNameW@12 7c699114     kernel32:KERNEL32.dll
 0002:00000118       __imp__HeapValidate@12     7c699118     kernel32:KERNEL32.dll
 0002:0000011c       __imp__IsBadReadPtr@8      7c69911c     kernel32:KERNEL32.dll
 0002:00000120       __imp__VirtualProtect@16   7c699120     kernel32:KERNEL32.dll
 0002:00000124       __imp__VirtualQuery@12     7c699124     kernel32:KERNEL32.dll
 0002:00000128       __imp__GetCommandLineA@0   7c699128     kernel32:KERNEL32.dll
 0002:0000012c       __imp__FatalAppExitA@8     7c69912c     kernel32:KERNEL32.dll
 0002:00000130       __imp__DebugBreak@0        7c699130     kernel32:KERNEL32.dll
 0002:00000134       __imp__GetStdHandle@4      7c699134     kernel32:KERNEL32.dll
 0002:00000138       __imp__WriteFile@20        7c699138     kernel32:KERNEL32.dll
 0002:0000013c       __imp__WriteConsoleW@20    7c69913c     kernel32:KERNEL32.dll
 0002:00000140       __imp__GetFileType@4       7c699140     kernel32:KERNEL32.dll
 0002:00000144       __imp__TerminateProcess@8  7c699144     kernel32:KERNEL32.dll
 0002:00000148       __imp__UnhandledExceptionFilter@4 7c699148     kernel32:KERNEL32.dll
 0002:0000014c       __imp__SetUnhandledExceptionFilter@4 7c69914c     kernel32:KERNEL32.dll
 0002:00000150       __imp__IsDebuggerPresent@0 7c699150     kernel32:KERNEL32.dll
 0002:00000154       __imp__ExitProcess@4       7c699154     kernel32:KERNEL32.dll
 0002:00000158       __imp__SetConsoleCtrlHandler@8 7c699158     kernel32:KERNEL32.dll
 0002:0000015c       __imp__LoadLibraryW@4      7c69915c     kernel32:KERNEL32.dll
 0002:00000160       __imp__HeapReAlloc@16      7c699160     kernel32:KERNEL32.dll
 0002:00000164       __imp__HeapDestroy@4       7c699164     kernel32:KERNEL32.dll
 0002:00000168       __imp__HeapCreate@12       7c699168     kernel32:KERNEL32.dll
 0002:0000016c       __imp__GetOEMCP@0          7c69916c     kernel32:KERNEL32.dll
 0002:00000170       __imp__GetCPInfo@8         7c699170     kernel32:KERNEL32.dll
 0002:00000174       __imp__IsValidCodePage@4   7c699174     kernel32:KERNEL32.dll
 0002:00000178       __imp__TlsGetValue@4       7c699178     kernel32:KERNEL32.dll
 0002:0000017c       __imp__TlsAlloc@0          7c69917c     kernel32:KERNEL32.dll
 0002:00000180       __imp__TlsSetValue@8       7c699180     kernel32:KERNEL32.dll
 0002:00000184       __imp__TlsFree@4           7c699184     kernel32:KERNEL32.dll
 0002:00000188       __imp__RtlUnwind@16        7c699188     kernel32:KERNEL32.dll
 0002:0000018c       __imp__SetHandleCount@4    7c69918c     kernel32:KERNEL32.dll
 0002:00000190       __imp__GetStartupInfoA@4   7c699190     kernel32:KERNEL32.dll
 0002:00000194       __imp__FreeEnvironmentStringsA@4 7c699194     kernel32:KERNEL32.dll
 0002:00000198       __imp__GetEnvironmentStrings@0 7c699198     kernel32:KERNEL32.dll
 0002:0000019c       __imp__FreeEnvironmentStringsW@4 7c69919c     kernel32:KERNEL32.dll
 0002:000001a0       __imp__GetEnvironmentStringsW@0 7c6991a0     kernel32:KERNEL32.dll
 0002:000001a4       __imp__QueryPerformanceCounter@4 7c6991a4     kernel32:KERNEL32.dll
 0002:000001a8       __imp__GetSystemTimeAsFileTime@4 7c6991a8     kernel32:KERNEL32.dll
 0002:000001ac       __imp__LCMapStringA@24     7c6991ac     kernel32:KERNEL32.dll
 0002:000001b0       __imp__LCMapStringW@24     7c6991b0     kernel32:KERNEL32.dll
 0002:000001b4       __imp__GetStringTypeA@20   7c6991b4     kernel32:KERNEL32.dll
 0002:000001b8       __imp__GetStringTypeW@16   7c6991b8     kernel32:KERNEL32.dll
 0002:000001bc       __imp__GetTimeFormatA@24   7c6991bc     kernel32:KERNEL32.dll
 0002:000001c0       __imp__GetDateFormatA@24   7c6991c0     kernel32:KERNEL32.dll
 0002:000001c4       __imp__IsValidLocale@8     7c6991c4     kernel32:KERNEL32.dll
 0002:000001c8       __imp__EnumSystemLocalesA@8 7c6991c8     kernel32:KERNEL32.dll
 0002:000001cc       __imp__GetUserDefaultLCID@0 7c6991cc     kernel32:KERNEL32.dll
 0002:000001d0       __imp__SetFilePointer@16   7c6991d0     kernel32:KERNEL32.dll
 0002:000001d4       __imp__GetConsoleCP@0      7c6991d4     kernel32:KERNEL32.dll
 0002:000001d8       __imp__GetConsoleMode@8    7c6991d8     kernel32:KERNEL32.dll
 0002:000001dc       __imp__GetLocaleInfoW@16   7c6991dc     kernel32:KERNEL32.dll
 0002:000001e0       __imp__GetTimeZoneInformation@4 7c6991e0     kernel32:KERNEL32.dll
 0002:000001e4       __imp__SetStdHandle@8      7c6991e4     kernel32:KERNEL32.dll
 0002:000001e8       __imp__WriteConsoleA@20    7c6991e8     kernel32:KERNEL32.dll
 0002:000001ec       __imp__GetConsoleOutputCP@0 7c6991ec     kernel32:KERNEL32.dll
 0002:000001f0       __imp__FlushFileBuffers@4  7c6991f0     kernel32:KERNEL32.dll
 0002:000001f4       __imp__CompareStringA@24   7c6991f4     kernel32:KERNEL32.dll
 0002:000001f8       __imp__CompareStringW@24   7c6991f8     kernel32:KERNEL32.dll
 0002:000001fc       __imp__SetEnvironmentVariableA@8 7c6991fc     kernel32:KERNEL32.dll
 0002:00000200       __imp__LocalAlloc@8        7c699200     kernel32:KERNEL32.dll
 0002:00000204       \177KERNEL32_NULL_THUNK_DATA 7c699204     kernel32:KERNEL32.dll
 0002:00000208       ___xc_a                    7c699208     libcmtd:crt0init.obj
 0002:0000029c       ___xc_z                    7c69929c     libcmtd:crt0init.obj
 0002:000002a0       ___xi_a                    7c6992a0     libcmtd:crt0init.obj
 0002:000002b8       ___xi_z                    7c6992b8     libcmtd:crt0init.obj
 0002:000002bc       ___xp_a                    7c6992bc     libcmtd:crt0init.obj
 0002:000002cc       ___xp_z                    7c6992cc     libcmtd:crt0init.obj
 0002:000002d0       ___xt_a                    7c6992d0     libcmtd:crt0init.obj
 0002:000002d4       ___xt_z                    7c6992d4     libcmtd:crt0init.obj
 0002:00000e48       _IID_IRegistrar            7c699e48     RegObj.obj
 0002:00000e58       ?rgszNeverDelete@CRegParser@ATL@@1QBQBDB 7c699e58     RegObj.obj
 0002:00000e88       ??_C@_1BA@JJDNGNLN@?$AA?$CB?$AAb?$AAB?$AAl?$AAi?$AAn?$AAd?$AA?$AA@ 7c699e88     RegObj.obj
 0002:00000e98       ??_C@_1GE@KALDMMBC@?$AAp?$AAE?$AAn?$AAt?$AAr?$AAi?$AAe?$AAs?$AA?9?$AA?$DO?$AAp?$AAF?$AAu?$AAn?$AAc?$AA?5?$AA?$DN?$AA?$DN?$AA?5?$AA?$CI?$AA?$CI?$AAA?$AAT?$AAL?$AA?3?$AA?3?$AA_?$AAA?$AAT?$AAL?$AA_?$AAC@ 7c699e98     RegObj.obj
 0002:00000efc       ??_C@_1BK@ENABKMAI@?$AAp?$AAE?$AAn?$AAt?$AAr?$AAi?$AAe?$AAs?$AA?$CB?$AA?$DN?$AA?5?$AA0?$AA?$AA@ 7c699efc     RegObj.obj
 0002:00000f18       ??_C@_1JO@LLIADCFN@?$AAC?$AA?3?$AA?2?$AAP?$AAr?$AAo?$AAg?$AAr?$AAa?$AAm?$AA?5?$AAF?$AAi?$AAl?$AAe?$AAs?$AA?5?$AA?$CI?$AAx?$AA8?$AA6?$AA?$CJ?$AA?2?$AAM?$AAi?$AAc?$AAr?$AAo?$AAs?$AAo?$AAf?$AAt@ 7c699f18     RegObj.obj
 0002:00000fb8       ??_C@_1BG@PEGMCOIG@?$AAp?$AAT?$AAh?$AAi?$AAs?$AA?5?$AA?$CB?$AA?$DN?$AA?5?$AA0?$AA?$AA@ 7c699fb8     RegObj.obj
 0002:00000fd0       ??_C@_13COJANIEC@?$AA0?$AA?$AA@ 7c699fd0     RegObj.obj
 0002:00000fd8       ??_C@_0EP@DONPPGKN@C?3?2Program?5Files?5?$CIx86?$CJ?2Microsoft@ 7c699fd8     RegObj.obj
 0002:00001028       ??_C@_0EJ@CKDEEONF@ERROR?5?3?5Unable?5to?5lock?5critical?5@ 7c69a028     RegObj.obj
 0002:00001074       ??_C@_1DG@BEGLAIHK@?$AAp?$AAD?$AAa?$AAt?$AAa?$AA?5?$AA?$CB?$AA?$DN?$AA?5?$AA0?$AA?5?$AA?$CG?$AA?$CG?$AA?5?$AAp?$AAO?$AAb?$AAj?$AAe?$AAc?$AAt?$AA?5?$AA?$CB?$AA?$DN?$AA?5?$AA0?$AA?$AA@ 7c69a074     RegObj.obj
 0002:000010b0       ??_C@_0EN@LNBCEPAE@ERROR?5?3?5Unable?5to?5lock?5critical?5@ 7c69a0b0     RegObj.obj
 0002:00001100       ??_C@_1JI@BDNAPBOG@?$AAC?$AA?3?$AA?2?$AAP?$AAr?$AAo?$AAg?$AAr?$AAa?$AAm?$AA?5?$AAF?$AAi?$AAl?$AAe?$AAs?$AA?5?$AA?$CI?$AAx?$AA8?$AA6?$AA?$CJ?$AA?2?$AAM?$AAi?$AAc?$AAr?$AAo?$AAs?$AAo?$AAf?$AAt@ 7c69a100     RegObj.obj
 0002:00001198       ??_C@_19GCAABOFN@?$AAb?$AAR?$AAe?$AAt?$AA?$AA@ 7c69a198     RegObj.obj
 0002:000011a8       ??_C@_1KC@CPPDAIDJ@?$AAC?$AA?3?$AA?2?$AAP?$AAr?$AAo?$AAg?$AAr?$AAa?$AAm?$AA?5?$AAF?$AAi?$AAl?$AAe?$AAs?$AA?5?$AA?$CI?$AAx?$AA8?$AA6?$AA?$CJ?$AA?2?$AAM?$AAi?$AAc?$AAr?$AAo?$AAs?$AAo?$AAf?$AAt@ 7c69a1a8     RegObj.obj
 0002:0000124c       ??_C@_1BM@GBBOFEAE@?$AA_?$AA_?$AAa?$AAt?$AAl?$AA_?$AAc?$AAo?$AAn?$AAd?$AAV?$AAa?$AAl?$AA?$AA@ 7c69a24c     RegObj.obj
 0002:00001268       ??_C@_1JO@MHBJDLCP@?$AAC?$AA?3?$AA?2?$AAP?$AAr?$AAo?$AAg?$AAr?$AAa?$AAm?$AA?5?$AAF?$AAi?$AAl?$AAe?$AAs?$AA?5?$AA?$CI?$AAx?$AA8?$AA6?$AA?$CJ?$AA?2?$AAM?$AAi?$AAc?$AAr?$AAo?$AAs?$AAo?$AAf?$AAt@ 7c69a268     RegObj.obj
 0002:00001308       ??_C@_1M@HLGKFCJM@?$AAf?$AAa?$AAl?$AAs?$AAe?$AA?$AA@ 7c69a308     RegObj.obj
 0002:00001318       ??_C@_0EP@GPDCJLIG@C?3?2Program?5Files?5?$CIx86?$CJ?2Microsoft@ 7c69a318     RegObj.obj
 0002:00001368       ??_C@_0BF@IAAKIJDJ@AtlThrow?3?5hr?5?$DN?50x?$CFx?6?$AA@ 7c69a368     RegObj.obj
 0002:00001380       ??_C@_1JK@KHLHEDLB@?$AAC?$AA?3?$AA?2?$AAP?$AAr?$AAo?$AAg?$AAr?$AAa?$AAm?$AA?5?$AAF?$AAi?$AAl?$AAe?$AAs?$AA?5?$AA?$CI?$AAx?$AA8?$AA6?$AA?$CJ?$AA?2?$AAM?$AAi?$AAc?$AAr?$AAo?$AAs?$AAo?$AAf?$AAt@ 7c69a380     RegObj.obj
 0002:0000141c       ??_C@_1BE@NPGJNKLA@?$AAm?$AA_?$AAb?$AAL?$AAo?$AAc?$AAk?$AAe?$AAd?$AA?$AA@ 7c69a41c     RegObj.obj
 0002:00001430       ??_C@_1BG@OHCCAGNO@?$AA?$CB?$AAm?$AA_?$AAb?$AAL?$AAo?$AAc?$AAk?$AAe?$AAd?$AA?$AA@ 7c69a430     RegObj.obj
 0002:00001448       ??_C@_06ENMEENN@ATL?3?$CFp?$AA@ 7c69a448     RegObj.obj
 0002:000020e8       _CLSID_Registrar           7c69b0e8     atl.obj
 0002:000020f8       _LIBID_ATLLib              7c69b0f8     atl.obj
 0002:00002108       ??_C@_1BC@KAILKFFG@?$AAR?$AAE?$AAG?$AAI?$AAS?$AAT?$AAR?$AAY?$AA?$AA@ 7c69b108     atl.obj
 0002:0000211c       ??_C@_1BG@JBACFMF@?$AAM?$AAo?$AAd?$AAu?$AAl?$AAe?$AA_?$AAR?$AAa?$AAw?$AA?$AA@ 7c69b11c     atl.obj
 0002:00002134       ??_C@_1O@MNLDABAF@?$AAM?$AAo?$AAd?$AAu?$AAl?$AAe?$AA?$AA@ 7c69b134     atl.obj
 0002:00002144       ??_C@_1DC@HEJCCJC@?$AA0?$AA?5?$AA?$CB?$AA?$DN?$AA?5?$AAp?$AAM?$AAa?$AAp?$AAE?$AAn?$AAt?$AAr?$AAi?$AAe?$AAs?$AA?9?$AA?$DO?$AAs?$AAz?$AAD?$AAa?$AAt?$AAa?$AA?$AA@ 7c69b144     atl.obj
 0002:00002178       ??_C@_1BA@DFBLIMAN@?$AAa?$AAt?$AAl?$AA?4?$AAc?$AAp?$AAp?$AA?$AA@ 7c69b178     atl.obj
 0002:00002188       ??_C@_1BG@MLGKHNLI@?$AAh?$AAI?$AAn?$AAs?$AAt?$AA?5?$AA?$CB?$AA?$DN?$AA?5?$AA0?$AA?$AA@ 7c69b188     atl.obj
 0002:000021a0       ??_C@_1JI@JPFPFAMB@?$AAC?$AA?3?$AA?2?$AAP?$AAr?$AAo?$AAg?$AAr?$AAa?$AAm?$AA?5?$AAF?$AAi?$AAl?$AAe?$AAs?$AA?5?$AA?$CI?$AAx?$AA8?$AA6?$AA?$CJ?$AA?2?$AAM?$AAi?$AAc?$AAr?$AAo?$AAs?$AAo?$AAf?$AAt@ 7c69b1a0     atl.obj
 0002:00002238       ??_C@_1BC@MNKGOHDN@?$AAp?$AAp?$AAv?$AA?5?$AA?$CB?$AA?$DN?$AA?5?$AA0?$AA?$AA@ 7c69b238     atl.obj
 0002:0000224c       ??_7?$CComObjectCached@VCComClassFactory@ATL@@@ATL@@6B@ 7c69b24c     atl.obj
 0002:00002260       ??_7CComClassFactory@ATL@@6B@ 7c69b260     atl.obj
 0002:00002274       ??_7?$CComObject@VCDLLRegObject@@@ATL@@6B@ 7c69b274     atl.obj
 0002:000022ac       ?_entries@?1??_GetEntries@CDLLRegObject@@SGPBU_ATL_INTMAP_ENTRY@ATL@@XZ@4QBU34@B 7c69b2ac     atl.obj
 0002:000022d0       ??_C@_0O@NPGPOPNN@CDLLRegObject?$AA@ 7c69b2d0     atl.obj
 0002:000022e0       __GUID_44ec053b_400f_11d0_9dcd_00a0c90391d3 7c69b2e0     atl.obj
 0002:000022f0       ??_C@_1JM@HAJMOPCI@?$AAC?$AA?3?$AA?2?$AAP?$AAr?$AAo?$AAg?$AAr?$AAa?$AAm?$AA?5?$AAF?$AAi?$AAl?$AAe?$AAs?$AA?5?$AA?$CI?$AAx?$AA8?$AA6?$AA?$CJ?$AA?2?$AAM?$AAi?$AAc?$AAr?$AAo?$AAs?$AAo?$AAf?$AAt@ 7c69b2f0     atl.obj
 0002:0000238c       ??_C@_1BC@GCPDCDFJ@?$AAl?$AAp?$AAw?$AA?5?$AA?$CB?$AA?$DN?$AA?5?$AA0?$AA?$AA@ 7c69b38c     atl.obj
 0002:000023a0       ??_C@_1JK@PDONENEJ@?$AAC?$AA?3?$AA?2?$AAP?$AAr?$AAo?$AAg?$AAr?$AAa?$AAm?$AA?5?$AAF?$AAi?$AAl?$AAe?$AAs?$AA?5?$AA?$CI?$AAx?$AA8?$AA6?$AA?$CJ?$AA?2?$AAM?$AAi?$AAc?$AAr?$AAo?$AAs?$AAo?$AAf?$AAt@ 7c69b3a0     atl.obj
 0002:0000243c       ??_C@_1BC@PMIDFEID@?$AAl?$AAp?$AAa?$AA?5?$AA?$CB?$AA?$DN?$AA?5?$AA0?$AA?$AA@ 7c69b43c     atl.obj
 0002:00002450       ??_C@_1JK@DMELBKOH@?$AAC?$AA?3?$AA?2?$AAP?$AAr?$AAo?$AAg?$AAr?$AAa?$AAm?$AA?5?$AAF?$AAi?$AAl?$AAe?$AAs?$AA?5?$AA?$CI?$AAx?$AA8?$AA6?$AA?$CJ?$AA?2?$AAM?$AAi?$AAc?$AAr?$AAo?$AAs?$AAo?$AAf?$AAt@ 7c69b450     atl.obj
 0002:000024ec       ??_C@_1CA@MNJCDMEH@?$AA?$CB?$AAm?$AA_?$AAb?$AAI?$AAn?$AAi?$AAt?$AAi?$AAa?$AAl?$AAi?$AAz?$AAe?$AAd?$AA?$AA@ 7c69b4ec     atl.obj
 0002:0000250c       ??_C@_1BO@IINBGKAE@?$AAp?$AAp?$AAv?$AAO?$AAb?$AAj?$AAe?$AAc?$AAt?$AA?5?$AA?$CB?$AA?$DN?$AA?5?$AA0?$AA?$AA@ 7c69b50c     atl.obj
 0002:0000252c       ??_C@_1BK@MDGGGAPK@?$AAm?$AA_?$AAd?$AAw?$AAR?$AAe?$AAf?$AA?5?$AA?$DN?$AA?$DN?$AA?5?$AA0?$AA?$AA@ 7c69b52c     atl.obj
 0002:00002548       ?_entries@?1??_GetEntries@CComClassFactory@ATL@@SGPBU_ATL_INTMAP_ENTRY@3@XZ@4QBU43@B 7c69b548     atl.obj
 0002:0000256c       ??_C@_0BB@PADCHBLN@CComClassFactory?$AA@ 7c69b56c     atl.obj
 0002:00002580       __GUID_00000001_0000_0000_c000_000000000046 7c69b580     atl.obj
 0002:00002590       ??_C@_0EM@NACCKFED@C?3?2Program?5Files?5?$CIx86?$CJ?2Microsoft@ 7c69b590     atl.obj
 0002:000025e0       ??_C@_0FH@OCMNPHBO@CComClassFactory?3?5asked?5for?5non?5@ 7c69b5e0     atl.obj
 0002:00002638       ??_C@_1DC@ENLDIEGP@?$AAm?$AA_?$AAp?$AAf?$AAn?$AAC?$AAr?$AAe?$AAa?$AAt?$AAe?$AAI?$AAn?$AAs?$AAt?$AAa?$AAn?$AAc?$AAe?$AA?5?$AA?$CB?$AA?$DN?$AA?5?$AA0?$AA?$AA@ 7c69b638     atl.obj
 0002:0000266c       ??_C@_1BO@BPPEIPCH@?$AAm?$AA_?$AAb?$AAI?$AAn?$AAi?$AAt?$AAi?$AAa?$AAl?$AAi?$AAz?$AAe?$AAd?$AA?$AA@ 7c69b66c     atl.obj
 0002:00002690       ??_C@_1JK@JJGGCEF@?$AAC?$AA?3?$AA?2?$AAP?$AAr?$AAo?$AAg?$AAr?$AAa?$AAm?$AA?5?$AAF?$AAi?$AAl?$AAe?$AAs?$AA?5?$AA?$CI?$AAx?$AA8?$AA6?$AA?$CJ?$AA?2?$AAM?$AAi?$AAc?$AAr?$AAo?$AAs?$AAo?$AAf?$AAt@ 7c69b690     atl.obj
 0002:0000272c       ??_C@_1DO@EIGOLNAA@?$AAl?$AAp?$AAs?$AAz?$AAK?$AAe?$AAy?$AA?5?$AA?$CB?$AA?$DN?$AA?5?$AA0?$AA?5?$AA?$CG?$AA?$CG?$AA?5?$AAl?$AAp?$AAs?$AAz?$AAV?$AAa?$AAl?$AAu?$AAe?$AA?5?$AA?$CB?$AA?$DN?$AA?5?$AA0?$AA?$AA@ 7c69b72c     atl.obj
 0002:0000276c       ??_C@_0BI@LNHJMEOP@Failed?5to?5LoadResource?6?$AA@ 7c69b76c     atl.obj
 0002:00002784       ??_C@_0CJ@COPMGFKA@Failed?5to?5FindResource?5on?5ID?3?$CFs?5@ 7c69b784     atl.obj
 0002:000027b0       ??_C@_0CJ@KJDBLEOI@Failed?5to?5FindResource?5on?5ID?3?$CFd?5@ 7c69b7b0     atl.obj
 0002:000027e0       ??_C@_0EN@EFDFIJCF@C?3?2Program?5Files?5?$CIx86?$CJ?2Microsoft@ 7c69b7e0     atl.obj
 0002:00002830       ??_C@_0BN@HGJLNPOD@Failed?5to?5LoadLibrary?5on?5?$CFs?6?$AA@ 7c69b830     atl.obj
 0002:00002850       ??_C@_0BH@DIPIMAII@Read?5Failed?5on?5file?$CFs?6?$AA@ 7c69b850     atl.obj
 0002:00002868       ??_C@_0BM@GPEAKKFD@Failed?5to?5CreateFile?5on?5?$CFs?6?$AA@ 7c69b868     atl.obj
 0002:00002884       ??_C@_0CC@MOJNOPNN@Failed?5to?5register?0?5cleaning?5up?$CB@ 7c69b884     atl.obj
 0002:000028a8       ??_C@_0CJ@JJEGIHLG@Syntax?5error?0?5expecting?5a?5?$HL?0?5fou@ 7c69b8a8     atl.obj
 0002:000028d4       ??_C@_0BN@HJIJAHEL@HKeyFromString?5failed?5on?5?$CFs?6?$AA@ 7c69b8d4     atl.obj
 0002:000028f4       ??_C@_03OFAPEBGM@?$CFs?6?$AA@ 7c69b8f4     atl.obj
 0002:000028f8       ?map@?2??HKeyFromString@CRegParser@ATL@@KAPAUHKEY__@@PAD@Z@4QBUkeymap@?1??123@KAPAU4@0@Z@B 7c69b8f8     atl.obj
 0002:00002968       ??_C@_04OHBKMIBJ@HKCR?$AA@ 7c69b968     atl.obj
 0002:00002970       ??_C@_04KIFLFONO@HKCU?$AA@ 7c69b970     atl.obj
 0002:00002978       ??_C@_04CBBMIBLK@HKLM?$AA@ 7c69b978     atl.obj
 0002:00002980       ??_C@_03DLBIJLAB@HKU?$AA@  7c69b980     atl.obj
 0002:00002984       ??_C@_04OFOCGAOH@HKPD?$AA@ 7c69b984     atl.obj
 0002:0000298c       ??_C@_04POMNGLEL@HKDD?$AA@ 7c69b98c     atl.obj
 0002:00002994       ??_C@_04LEMDOLAJ@HKCC?$AA@ 7c69b994     atl.obj
 0002:0000299c       ??_C@_0BC@JBJOLKMF@HKEY_CLASSES_ROOT?$AA@ 7c69b99c     atl.obj
 0002:000029b0       ??_C@_0BC@GMMMKLBI@HKEY_CURRENT_USER?$AA@ 7c69b9b0     atl.obj
 0002:000029c4       ??_C@_0BD@GIIFIKDM@HKEY_LOCAL_MACHINE?$AA@ 7c69b9c4     atl.obj
 0002:000029d8       ??_C@_0L@OEMMANAM@HKEY_USERS?$AA@ 7c69b9d8     atl.obj
 0002:000029e4       ??_C@_0BG@IDBEHNDO@HKEY_PERFORMANCE_DATA?$AA@ 7c69b9e4     atl.obj
 0002:000029fc       ??_C@_0O@MJDLIIGK@HKEY_DYN_DATA?$AA@ 7c69b9fc     atl.obj
 0002:00002a0c       ??_C@_0BE@NLNNHLLF@HKEY_CURRENT_CONFIG?$AA@ 7c69ba0c     atl.obj
 0002:00002a20       ??_C@_0CE@HPLFHOFC@NextToken?5?3?5Unexpected?5End?5of?5Fi@ 7c69ba20     atl.obj
 0002:00002a44       ??_C@_0BL@HDJEDLOC@Error?5no?5closing?5?$CF?$CF?5found?6?$AA@ 7c69ba44     atl.obj
 0002:00002a60       ??_C@_1BK@DGLFCBHI@?$AAp?$AAp?$AAs?$AAz?$AAR?$AAe?$AAg?$AA?5?$AA?$CB?$AA?$DN?$AA?5?$AA0?$AA?$AA@ 7c69ba60     atl.obj
 0002:00002a7c       ??_C@_1BK@ODFKMBGC@?$AAl?$AAp?$AAs?$AAz?$AAR?$AAe?$AAg?$AA?5?$AA?$CB?$AA?$DN?$AA?5?$AA0?$AA?$AA@ 7c69ba7c     atl.obj
 0002:00002a98       ??_C@_1O@JFMKDNFA@?$AAp?$AA?5?$AA?$CB?$AA?$DN?$AA?5?$AA0?$AA?$AA@ 7c69ba98     atl.obj
 0002:00002aa8       ??_C@_0BF@KHDDAOIJ@Map?5Entry?5not?5found?6?$AA@ 7c69baa8     atl.obj
 0002:00002ac0       ??_C@_0BB@FDAMNOMP@Deleting?5Key?5?$CFs?6?$AA@ 7c69bac0     atl.obj
 0002:00002ad4       ??_C@_0CH@OEJDLABI@Deleting?5non?9empty?5subkey?5?$CFs?5by?5@ 7c69bad4     atl.obj
 0002:00002afc       ??_C@_0BG@OEFMOOAA@Ending?5Recovery?5Mode?6?$AA@ 7c69bafc     atl.obj
 0002:00002b14       ??_C@_0CM@LEFFDKCG@Ignoring?5Open?5key?5on?5?$CFs?5?3?5In?5Rec@ 7c69bb14     atl.obj
 0002:00002b40       ??_C@_0P@IONAJCEO@Opened?5Key?5?$CFs?6?$AA@ 7c69bb40     atl.obj
 0002:00002b50       ??_C@_0BB@POOIJOEN@Creating?5key?5?$CFs?6?$AA@ 7c69bb50     atl.obj
 0002:00002b64       ??_C@_0N@GKIPNAL@Deleting?5?$CFs?6?$AA@ 7c69bb64     atl.obj
 0002:00002b74       ??_C@_0O@EHICPHFJ@Num?5Els?5?$DN?5?$CFd?6?$AA@ 7c69bb74     atl.obj
 0002:00002b84       ??_C@_1BI@JPOONHGO@?$AAm?$AA_?$AAh?$AAK?$AAe?$AAy?$AA?5?$AA?$DN?$AA?$DN?$AA?5?$AA0?$AA?$AA@ 7c69bb84     atl.obj
 0002:00002b9c       ??_C@_1BI@KCHMLGAI@?$AAm?$AA_?$AAh?$AAK?$AAe?$AAy?$AA?5?$AA?$CB?$AA?$DN?$AA?5?$AA0?$AA?$AA@ 7c69bb9c     atl.obj
 0002:00002bb4       ??_C@_1CA@JAHJEEHI@?$AAh?$AAK?$AAe?$AAy?$AAP?$AAa?$AAr?$AAe?$AAn?$AAt?$AA?5?$AA?$CB?$AA?$DN?$AA?5?$AA0?$AA?$AA@ 7c69bbb4     atl.obj
 0002:00002bd4       ??_C@_1BG@OMKLFNDM@?$AAl?$AAR?$AAe?$AAs?$AA?5?$AA?$DN?$AA?$DN?$AA?5?$AA0?$AAL?$AA?$AA@ 7c69bbd4     atl.obj
 0002:00002bf0       ??_C@_0EN@DJIOLOEJ@C?3?2Program?5Files?5?$CIx86?$CJ?2Microsoft@ 7c69bbf0     atl.obj
 0002:00002c40       ??_C@_0DP@JOHDIOJH@CRegKey?3?3RecurseDeleteKey?5?3?5Fail@ 7c69bc40     atl.obj
 0002:00002c80       ??_C@_0CN@BAKOHBFP@Binary?5Data?5does?5not?5fall?5on?5BYT@ 7c69bc80     atl.obj
 0002:00002cb0       ??_C@_0BI@NDCHGJG@Setting?5Value?5?$CFd?5at?5?$CFs?6?$AA@ 7c69bcb0     atl.obj
 0002:00002cc8       ??_C@_0BI@MFJDFJCO@Setting?5Value?5?$CFs?5at?5?$CFs?6?$AA@ 7c69bcc8     atl.obj
 0002:00002ce0       ??_C@_07DLHCIBDH@default?$AA@ 7c69bce0     atl.obj
 0002:00002ce8       ??_C@_0BH@IHOFLOMJ@?$CFs?5Type?5not?5supported?6?$AA@ 7c69bce8     atl.obj
 0002:00002d00       ??_C@_1EO@OGKOBPLN@?$AA?$CI?$AAd?$AAw?$AAT?$AAy?$AAp?$AAe?$AA?5?$AA?$DN?$AA?$DN?$AA?5?$AA?$CI?$AA?5?$AA1?$AA?5?$AA?$CJ?$AA?$CJ?$AA?5?$AA?$HM?$AA?$HM?$AA?5?$AA?$CI?$AAd?$AAw?$AAT?$AAy?$AAp?$AAe?$AA?5?$AA?$DN?$AA?$DN?$AA?5@ 7c69bd00     atl.obj
 0002:00002d50       ??_C@_0CL@PILPOMLI@Bogus?5value?5?$CFc?5passed?5as?5binary?5@ 7c69bd50     atl.obj
 0002:00002d7c       ??_C@_0BG@OFKLEKA@Should?5not?5be?5here?$CB?$CB?6?$AA@ 7c69bd7c     atl.obj
 0002:00002d98       ??_C@_1EA@JHMKKLFC@?$AAn?$AAI?$AAn?$AAd?$AAe?$AAx?$AA?5?$AA?$DO?$AA?$DN?$AA?5?$AA0?$AA?5?$AA?$CG?$AA?$CG?$AA?5?$AAn?$AAI?$AAn?$AAd?$AAe?$AAx?$AA?5?$AA?$DM?$AA?5?$AAm?$AA_?$AAn?$AAS?$AAi?$AAz?$AAe?$AA?$AA@ 7c69bd98     atl.obj
 0002:00002dd8       ??_C@_1JO@CMDBPELN@?$AAC?$AA?3?$AA?2?$AAP?$AAr?$AAo?$AAg?$AAr?$AAa?$AAm?$AA?5?$AAF?$AAi?$AAl?$AAe?$AAs?$AA?5?$AA?$CI?$AAx?$AA8?$AA6?$AA?$CJ?$AA?2?$AAM?$AAi?$AAc?$AAr?$AAo?$AAs?$AAo?$AAf?$AAt@ 7c69bdd8     atl.obj
 0002:00002e78       ??_C@_19LMDLLIGP@?$AAp?$AA?$DN?$AA?$DN?$AA0?$AA?$AA@ 7c69be78     atl.obj
 0002:00002e84       ??_C@_19JHCPJMAL@?$AAp?$AA?$CB?$AA?$DN?$AA0?$AA?$AA@ 7c69be84     atl.obj
 0002:00002e90       ??_C@_1BC@EMCLECFJ@?$AAm?$AA_?$AAp?$AA?5?$AA?$DN?$AA?$DN?$AA?5?$AA0?$AA?$AA@ 7c69be90     atl.obj
 0002:00002ea4       ??_C@_0L@FHJFKMMJ@AtlAxWin80?$AA@ 7c69bea4     atl.obj
 0002:00002eb0       ??_C@_0O@GFLEABON@AtlAxWinLic80?$AA@ 7c69beb0     atl.obj
 0002:00002ec0       ??_C@_1BO@CFNLNIPO@?$AAm?$AA_?$AAd?$AAw?$AAR?$AAe?$AAf?$AA?5?$AA?$CB?$AA?$DN?$AA?5?$AA?9?$AA1?$AAL?$AA?$AA@ 7c69bec0     atl.obj
 0002:00002ee0       ??_C@_1IE@KNGMNLO@?$AA0?$AA?5?$AA?$CG?$AA?$CG?$AA?5?$AA?$CC?$AAR?$AAe?$AAl?$AAe?$AAa?$AAs?$AAe?$AA?5?$AAc?$AAa?$AAl?$AAl?$AAe?$AAd?$AA?5?$AAo?$AAn?$AA?5?$AAa?$AA?5?$AAp?$AAo?$AAi?$AAn?$AAt?$AAe@ 7c69bee0     atl.obj
 0002:00002f64       ??_C@_1BM@NFPICFEL@?$AA_?$AAp?$AAM?$AAo?$AAd?$AAu?$AAl?$AAe?$AA?5?$AA?$DN?$AA?$DN?$AA?5?$AA0?$AA?$AA@ 7c69bf64     atl.obj
 0002:00002f80       ??_7CComModule@ATL@@6B@    7c69bf80     atl.obj
 0002:00002fa8       ??_C@_1BI@JBLBCKD@?$AAm?$AA_?$AAp?$AAG?$AAI?$AAT?$AA?5?$AA?$CB?$AA?$DN?$AA?5?$AA0?$AA?$AA@ 7c69bfa8     atl.obj
 0002:00002fc0       __GUID_00000146_0000_0000_c000_000000000046 7c69bfc0     atl.obj
 0002:00002fd0       ??_C@_1BG@LENCCAOJ@?$AAp?$AAp?$AAG?$AAI?$AAT?$AA?5?$AA?$CB?$AA?$DN?$AA?5?$AA0?$AA?$AA@ 7c69bfd0     atl.obj
 0002:00002fe8       ??_C@_0DN@JALIHHGH@ERROR?5?3?5Unable?5to?5initialize?5cri@ 7c69bfe8     atl.obj
 0002:00003028       ??_C@_1CC@DNHFMIHP@?$AA_?$AAp?$AAA?$AAt?$AAl?$AAM?$AAo?$AAd?$AAu?$AAl?$AAe?$AA?5?$AA?$DN?$AA?$DN?$AA?5?$AA0?$AA?$AA@ 7c69c028     atl.obj
 0002:0000304c       ??_C@_1M@PPPPCDEP@?$AAA?$AAP?$AAP?$AAI?$AAD?$AA?$AA@ 7c69c04c     atl.obj
 0002:00003058       ??_C@_11LOCGONAA@?$AA?$AA@ 7c69c058     atl.obj
 0002:00003060       ??_C@_0EA@EJEMLPD@ERROR?5?3?5Unable?5to?5initialize?5cri@ 7c69c060     atl.obj
 0002:00004918       ?_Min@?$AtlLimits@H@ATL@@2HB 7c69d918     stdafx.obj
 0002:0000491c       ?_Max@?$AtlLimits@H@ATL@@2HB 7c69d91c     stdafx.obj
 0002:00004920       ?_Min@?$AtlLimits@I@ATL@@2IB 7c69d920     stdafx.obj
 0002:00004924       ?_Max@?$AtlLimits@I@ATL@@2IB 7c69d924     stdafx.obj
 0002:00004928       ?_Min@?$AtlLimits@J@ATL@@2JB 7c69d928     stdafx.obj
 0002:0000492c       ?_Max@?$AtlLimits@J@ATL@@2JB 7c69d92c     stdafx.obj
 0002:00004930       ?_Min@?$AtlLimits@K@ATL@@2KB 7c69d930     stdafx.obj
 0002:00004934       ?_Max@?$AtlLimits@K@ATL@@2KB 7c69d934     stdafx.obj
 0002:00004938       ?_Min@?$AtlLimits@_J@ATL@@2_JB 7c69d938     stdafx.obj
 0002:00004940       ?_Max@?$AtlLimits@_J@ATL@@2_JB 7c69d940     stdafx.obj
 0002:00004948       ?_Min@?$AtlLimits@_K@ATL@@2_KB 7c69d948     stdafx.obj
 0002:00004950       ?_Max@?$AtlLimits@_K@ATL@@2_KB 7c69d950     stdafx.obj
 0002:00004958       ?VT@?$CVarTypeInfo@D@ATL@@2GB 7c69d958     stdafx.obj
 0002:0000495c       ?pmField@?$CVarTypeInfo@D@ATL@@2QQtagVARIANT@@DQ3@ 7c69d95c     stdafx.obj
 0002:00004960       ?VT@?$CVarTypeInfo@E@ATL@@2GB 7c69d960     stdafx.obj
 0002:00004964       ?pmField@?$CVarTypeInfo@E@ATL@@2QQtagVARIANT@@EQ3@ 7c69d964     stdafx.obj
 0002:00004968       ?VT@?$CVarTypeInfo@PAD@ATL@@2GB 7c69d968     stdafx.obj
 0002:0000496c       ?pmField@?$CVarTypeInfo@PAD@ATL@@2QQtagVARIANT@@PADQ3@ 7c69d96c     stdafx.obj
 0002:00004970       ?VT@?$CVarTypeInfo@PAE@ATL@@2GB 7c69d970     stdafx.obj
 0002:00004974       ?pmField@?$CVarTypeInfo@PAE@ATL@@2QQtagVARIANT@@PAEQ3@ 7c69d974     stdafx.obj
 0002:00004978       ?VT@?$CVarTypeInfo@F@ATL@@2GB 7c69d978     stdafx.obj
 0002:0000497c       ?pmField@?$CVarTypeInfo@F@ATL@@2QQtagVARIANT@@FQ3@ 7c69d97c     stdafx.obj
 0002:00004980       ?VT@?$CVarTypeInfo@PAF@ATL@@2GB 7c69d980     stdafx.obj
 0002:00004984       ?pmField@?$CVarTypeInfo@PAF@ATL@@2QQtagVARIANT@@PAFQ3@ 7c69d984     stdafx.obj
 0002:00004988       ?VT@?$CVarTypeInfo@G@ATL@@2GB 7c69d988     stdafx.obj
 0002:0000498c       ?pmField@?$CVarTypeInfo@G@ATL@@2QQtagVARIANT@@GQ3@ 7c69d98c     stdafx.obj
 0002:00004990       ?VT@?$CVarTypeInfo@PAG@ATL@@2GB 7c69d990     stdafx.obj
 0002:00004994       ?pmField@?$CVarTypeInfo@PAG@ATL@@2QQtagVARIANT@@PAGQ3@ 7c69d994     stdafx.obj
 0002:00004998       ?VT@?$CVarTypeInfo@H@ATL@@2GB 7c69d998     stdafx.obj
 0002:0000499c       ?pmField@?$CVarTypeInfo@H@ATL@@2QQtagVARIANT@@HQ3@ 7c69d99c     stdafx.obj
 0002:000049a0       ?VT@?$CVarTypeInfo@PAH@ATL@@2GB 7c69d9a0     stdafx.obj
 0002:000049a4       ?pmField@?$CVarTypeInfo@PAH@ATL@@2QQtagVARIANT@@PAHQ3@ 7c69d9a4     stdafx.obj
 0002:000049a8       ?VT@?$CVarTypeInfo@I@ATL@@2GB 7c69d9a8     stdafx.obj
 0002:000049ac       ?pmField@?$CVarTypeInfo@I@ATL@@2QQtagVARIANT@@IQ3@ 7c69d9ac     stdafx.obj
 0002:000049b0       ?VT@?$CVarTypeInfo@PAI@ATL@@2GB 7c69d9b0     stdafx.obj
 0002:000049b4       ?pmField@?$CVarTypeInfo@PAI@ATL@@2QQtagVARIANT@@PAIQ3@ 7c69d9b4     stdafx.obj
 0002:000049b8       ?VT@?$CVarTypeInfo@J@ATL@@2GB 7c69d9b8     stdafx.obj
 0002:000049bc       ?pmField@?$CVarTypeInfo@J@ATL@@2QQtagVARIANT@@JQ3@ 7c69d9bc     stdafx.obj
 0002:000049c0       ?VT@?$CVarTypeInfo@PAJ@ATL@@2GB 7c69d9c0     stdafx.obj
 0002:000049c4       ?pmField@?$CVarTypeInfo@PAJ@ATL@@2QQtagVARIANT@@PAJQ3@ 7c69d9c4     stdafx.obj
 0002:000049c8       ?VT@?$CVarTypeInfo@K@ATL@@2GB 7c69d9c8     stdafx.obj
 0002:000049cc       ?pmField@?$CVarTypeInfo@K@ATL@@2QQtagVARIANT@@KQ3@ 7c69d9cc     stdafx.obj
 0002:000049d0       ?VT@?$CVarTypeInfo@PAK@ATL@@2GB 7c69d9d0     stdafx.obj
 0002:000049d4       ?pmField@?$CVarTypeInfo@PAK@ATL@@2QQtagVARIANT@@PAKQ3@ 7c69d9d4     stdafx.obj
 0002:000049d8       ?VT@?$CVarTypeInfo@_J@ATL@@2GB 7c69d9d8     stdafx.obj
 0002:000049dc       ?pmField@?$CVarTypeInfo@_J@ATL@@2QQtagVARIANT@@_JQ3@ 7c69d9dc     stdafx.obj
 0002:000049e0       ?VT@?$CVarTypeInfo@PA_J@ATL@@2GB 7c69d9e0     stdafx.obj
 0002:000049e4       ?pmField@?$CVarTypeInfo@PA_J@ATL@@2QQtagVARIANT@@PA_JQ3@ 7c69d9e4     stdafx.obj
 0002:000049e8       ?VT@?$CVarTypeInfo@_K@ATL@@2GB 7c69d9e8     stdafx.obj
 0002:000049ec       ?pmField@?$CVarTypeInfo@_K@ATL@@2QQtagVARIANT@@_KQ3@ 7c69d9ec     stdafx.obj
 0002:000049f0       ?VT@?$CVarTypeInfo@PA_K@ATL@@2GB 7c69d9f0     stdafx.obj
 0002:000049f4       ?pmField@?$CVarTypeInfo@PA_K@ATL@@2QQtagVARIANT@@PA_KQ3@ 7c69d9f4     stdafx.obj
 0002:000049f8       ?VT@?$CVarTypeInfo@M@ATL@@2GB 7c69d9f8     stdafx.obj
 0002:000049fc       ?pmField@?$CVarTypeInfo@M@ATL@@2QQtagVARIANT@@MQ3@ 7c69d9fc     stdafx.obj
 0002:00004a00       ?VT@?$CVarTypeInfo@PAM@ATL@@2GB 7c69da00     stdafx.obj
 0002:00004a04       ?pmField@?$CVarTypeInfo@PAM@ATL@@2QQtagVARIANT@@PAMQ3@ 7c69da04     stdafx.obj
 0002:00004a08       ?VT@?$CVarTypeInfo@N@ATL@@2GB 7c69da08     stdafx.obj
 0002:00004a0c       ?pmField@?$CVarTypeInfo@N@ATL@@2QQtagVARIANT@@NQ3@ 7c69da0c     stdafx.obj
 0002:00004a10       ?VT@?$CVarTypeInfo@PAN@ATL@@2GB 7c69da10     stdafx.obj
 0002:00004a14       ?pmField@?$CVarTypeInfo@PAN@ATL@@2QQtagVARIANT@@PANQ3@ 7c69da14     stdafx.obj
 0002:00004a18       ?VT@?$CVarTypeInfo@UtagVARIANT@@@ATL@@2GB 7c69da18     stdafx.obj
 0002:00004a1c       ?VT@?$CVarTypeInfo@PA_W@ATL@@2GB 7c69da1c     stdafx.obj
 0002:00004a20       ?pmField@?$CVarTypeInfo@PA_W@ATL@@2QQtagVARIANT@@PA_WQ3@ 7c69da20     stdafx.obj
 0002:00004a24       ?VT@?$CVarTypeInfo@PAPA_W@ATL@@2GB 7c69da24     stdafx.obj
 0002:00004a28       ?pmField@?$CVarTypeInfo@PAPA_W@ATL@@2QQtagVARIANT@@PAPA_WQ3@ 7c69da28     stdafx.obj
 0002:00004a2c       ?VT@?$CVarTypeInfo@PAUIUnknown@@@ATL@@2GB 7c69da2c     stdafx.obj
 0002:00004a30       ?pmField@?$CVarTypeInfo@PAUIUnknown@@@ATL@@2QQtagVARIANT@@PAUIUnknown@@Q3@ 7c69da30     stdafx.obj
 0002:00004a34       ?VT@?$CVarTypeInfo@PAPAUIUnknown@@@ATL@@2GB 7c69da34     stdafx.obj
 0002:00004a38       ?pmField@?$CVarTypeInfo@PAPAUIUnknown@@@ATL@@2QQtagVARIANT@@PAPAUIUnknown@@Q3@ 7c69da38     stdafx.obj
 0002:00004a3c       ?VT@?$CVarTypeInfo@PAUIDispatch@@@ATL@@2GB 7c69da3c     stdafx.obj
 0002:00004a40       ?pmField@?$CVarTypeInfo@PAUIDispatch@@@ATL@@2QQtagVARIANT@@PAUIDispatch@@Q3@ 7c69da40     stdafx.obj
 0002:00004a44       ?VT@?$CVarTypeInfo@PAPAUIDispatch@@@ATL@@2GB 7c69da44     stdafx.obj
 0002:00004a48       ?pmField@?$CVarTypeInfo@PAPAUIDispatch@@@ATL@@2QQtagVARIANT@@PAPAUIDispatch@@Q3@ 7c69da48     stdafx.obj
 0002:00004a4c       ?VT@?$CVarTypeInfo@TtagCY@@@ATL@@2GB 7c69da4c     stdafx.obj
 0002:00004a50       ?pmField@?$CVarTypeInfo@TtagCY@@@ATL@@2QQtagVARIANT@@TtagCY@@Q3@ 7c69da50     stdafx.obj
 0002:00004a54       ?VT@?$CVarTypeInfo@PATtagCY@@@ATL@@2GB 7c69da54     stdafx.obj
 0002:00004a58       ?pmField@?$CVarTypeInfo@PATtagCY@@@ATL@@2QQtagVARIANT@@PATtagCY@@Q3@ 7c69da58     stdafx.obj
 0002:00004a5c       _IID_IAxWinHostWindow      7c69da5c     stdafx.obj
 0002:00004a6c       _IID_IAxWinAmbientDispatch 7c69da6c     stdafx.obj
 0002:00004a7c       _IID_IInternalConnection   7c69da7c     stdafx.obj
 0002:00004a8c       _IID_IDocHostUIHandlerDispatch 7c69da8c     stdafx.obj
 0002:00004a9c       _IID_IAxWinHostWindowLic   7c69da9c     stdafx.obj
 0002:00004aac       _IID_IAxWinAmbientDispatchEx 7c69daac     stdafx.obj
 0002:00004abc       ?MAX_VALUE@CRegParser@ATL@@1HB 7c69dabc     stdafx.obj
 0002:00004ac0       ?MAX_TYPE@CRegParser@ATL@@1HB 7c69dac0     stdafx.obj
 0002:00004ac4       ?cbNeverDelete@CRegParser@ATL@@1HB 7c69dac4     stdafx.obj
 0002:00004ac8       ??_C@_1CA@BAIAOAO@?$AAl?$AAp?$AAD?$AAe?$AAv?$AAM?$AAo?$AAd?$AAe?$AAA?$AA?5?$AA?$CB?$AA?$DN?$AA?5?$AA0?$AA?$AA@ 7c69dac8     stdafx.obj
 0002:00004ae8       ??_C@_04LFHHJFCN@?4tlb?$AA@ 7c69dae8     stdafx.obj
 0002:00004af0       ??_C@_1CE@MNLFIKHJ@?$AAh?$AAI?$AAn?$AAs?$AAt?$AAT?$AAy?$AAp?$AAe?$AAL?$AAi?$AAb?$AA?5?$AA?$CB?$AA?$DN?$AA?5?$AA0?$AA?$AA@ 7c69daf0     stdafx.obj
 0002:00004b18       ??_C@_1EC@GOCPDDCL@?$AAp?$AAb?$AAs?$AAt?$AAr?$AAP?$AAa?$AAt?$AAh?$AA?5?$AA?$CB?$AA?$DN?$AA?5?$AA0?$AA?5?$AA?$CG?$AA?$CG?$AA?5?$AAp?$AAp?$AAT?$AAy?$AAp?$AAe?$AAL?$AAi?$AAb?$AA?5?$AA?$CB?$AA?$DN?$AA?5?$AA0@ 7c69db18     stdafx.obj
 0002:00004b60       ??_C@_1EA@JIHAIGJA@?$AAp?$AAC?$AAo?$AAm?$AAM?$AAo?$AAd?$AAu?$AAl?$AAe?$AA?9?$AA?$DO?$AAm?$AA_?$AAh?$AAI?$AAn?$AAs?$AAt?$AAT?$AAy?$AAp?$AAe?$AAL?$AAi?$AAb?$AA?5?$AA?$CB?$AA?$DN?$AA?5?$AA0?$AA?$AA@ 7c69db60     stdafx.obj
 0002:00004ba0       ??_C@_1CA@GAOMIJFK@?$AAp?$AAC?$AAo?$AAm?$AAM?$AAo?$AAd?$AAu?$AAl?$AAe?$AA?5?$AA?$CB?$AA?$DN?$AA?5?$AA0?$AA?$AA@ 7c69dba0     stdafx.obj
 0002:00004bc0       ??_C@_0BI@LFOHFLDB@?2Implemented?5Categories?$AA@ 7c69dbc0     stdafx.obj
 0002:00004bd8       ??_C@_0BF@CCIMKLEB@?2Required?5Categories?$AA@ 7c69dbd8     stdafx.obj
 0002:00004bf0       ??_C@_06JHNIBAJK@CLSID?2?$AA@ 7c69dbf0     stdafx.obj
 0002:00004bf8       ??_C@_1CG@IDMIONOG@?$AAp?$AAE?$AAn?$AAt?$AAr?$AAy?$AA?9?$AA?$DO?$AAi?$AAT?$AAy?$AAp?$AAe?$AA?5?$AA?$DN?$AA?$DN?$AA?5?$AA2?$AA?$AA@ 7c69dbf8     stdafx.obj
 0002:00004c20       __GUID_0002e012_0000_0000_c000_000000000046 7c69dc20     stdafx.obj
 0002:00004c30       ??_C@_1OI@HIMHHOFM@?$AA0?$AA?5?$AA?$CG?$AA?$CG?$AA?5?$AA?$CC?$AAU?$AAs?$AAe?$AA?5?$AAO?$AAB?$AAJ?$AAE?$AAC?$AAT?$AA_?$AAE?$AAN?$AAT?$AAR?$AAY?$AA_?$AAN?$AAO?$AAN?$AA_?$AAC?$AAR?$AAE?$AAA?$AAT@ 7c69dc30     stdafx.obj
 0002:00004d18       __GUID_b196b284_bab4_101a_b69c_00aa00341d07 7c69dd18     stdafx.obj
 0002:00004d28       ??_C@_1BM@JDLBBKGD@?$AAp?$AAp?$AAS?$AAt?$AAr?$AAe?$AAa?$AAm?$AA?5?$AA?$CB?$AA?$DN?$AA?5?$AA0?$AA?$AA@ 7c69dd28     stdafx.obj
 0002:00004d44       ??_C@_1BG@IICBGEDI@?$AAp?$AAp?$AAU?$AAn?$AAk?$AA?5?$AA?$CB?$AA?$DN?$AA?5?$AA0?$AA?$AA@ 7c69dd44     stdafx.obj
 0002:00004d5c       __GUID_00000000_0000_0000_c000_000000000046 7c69dd5c     stdafx.obj
 0002:00004d70       ??_C@_0EH@NIJCHDDG@ERROR?5?3?5Unable?5to?5lock?5critical?5@ 7c69dd70     stdafx.obj
 0002:00004db8       ??_C@_0ED@GFNHMOFC@ERROR?5?3?5Unable?5to?5initialize?5cri@ 7c69ddb8     stdafx.obj
 0002:00004e00       ??_C@_0EB@NAGECGJC@ERROR?5?3?5Unable?5to?5lock?5critical?5@ 7c69de00     stdafx.obj
 0002:00004e44       __GUID_1cf2b120_547d_101b_8e65_08002b2bd119 7c69de44     stdafx.obj
 0002:00004e54       ??_C@_0O@NPFKCNOE@Unknown?5Error?$AA@ 7c69de54     stdafx.obj
 0002:00004e68       ??_C@_1FM@KLFFOOL@?$AA?$CI?$AAn?$AAI?$AAD?$AA?5?$AA?$DO?$AA?$DN?$AA?5?$AA0?$AAx?$AA0?$AA2?$AA0?$AA0?$AA?5?$AA?$CG?$AA?$CG?$AA?5?$AAn?$AAI?$AAD?$AA?5?$AA?$DM?$AA?$DN?$AA?5?$AA0?$AAx?$AAf?$AAf?$AAf?$AAf?$AA?$CJ@ 7c69de68     stdafx.obj
 0002:00004ec4       ??_C@_0BN@GHBEMKHH@Invoked?5failed?5on?5DISPID?5?$CFx?6?$AA@ 7c69dec4     stdafx.obj
 0002:00004ee4       ??_C@_0DD@ENAKNIIA@Failed?5to?5get?5a?5dispatch?5pointer@ 7c69dee4     stdafx.obj
 0002:00004f18       ??_C@_1BE@FKGJCHLP@?$AAp?$AAM?$AAa?$AAp?$AA?5?$AA?$CB?$AA?$DN?$AA?5?$AA0?$AA?$AA@ 7c69df18     stdafx.obj
 0002:00004f30       ??_C@_0EP@OLFDLHLP@C?3?2Program?5Files?5?$CIx86?$CJ?2Microsoft@ 7c69df30     stdafx.obj
 0002:00004f80       ??_C@_0BO@OKMCOHNI@CPropertyHelper?3?3PutProperty?6?$AA@ 7c69df80     stdafx.obj
 0002:00004fa0       ??_C@_1BE@GIHDMMGE@?$AAp?$AAV?$AAa?$AAr?$AA?5?$AA?$CB?$AA?$DN?$AA?5?$AA0?$AA?$AA@ 7c69dfa0     stdafx.obj
 0002:00004fb4       ??_C@_13LFIEIAHP@?$AAp?$AA?$AA@ 7c69dfb4     stdafx.obj
 0002:00004fb8       ??_C@_1BI@CLMCJPON@?$AAc?$AAh?$AA?5?$AA?$DN?$AA?$DN?$AA?5?$AAL?$AA?8?$AA?2?$AA0?$AA?8?$AA?$AA@ 7c69dfb8     stdafx.obj
 0002:00004fd0       ??_C@_0CJ@CAIPJFLB@Cannot?5read?5NULL?5terminator?5from@ 7c69dfd0     stdafx.obj
 0002:00004ffc       ??_C@_0DC@KGKNPNNP@Length?5of?5string?5data?5is?5differe@ 7c69dffc     stdafx.obj
 0002:00005030       ??_C@_0ED@HFACFCLM@String?5exceeded?5the?5maximum?5allo@ 7c69e030     stdafx.obj
 0002:00005074       ??_C@_0BL@NMFNKFEA@Input?5stream?5is?5corrupted?4?$AA@ 7c69e074     stdafx.obj
 0002:00005090       ??_C@_1O@CGPEODAD@?$AA?$CB?$AA?$CK?$AAt?$AAh?$AAi?$AAs?$AA?$AA@ 7c69e090     stdafx.obj
 0002:000050a0       ??_C@_1BK@PMLCOGII@?$AAp?$AAS?$AAt?$AAr?$AAe?$AAa?$AAm?$AA?5?$AA?$CB?$AA?$DN?$AA?5?$AA0?$AA?$AA@ 7c69e0a0     stdafx.obj
 0002:000050bc       __GUID_00020400_0000_0000_c000_000000000046 7c69e0bc     stdafx.obj
 0002:000050cc       ??_C@_0BO@CPKOKKKG@CPropertyHelper?3?3GetProperty?6?$AA@ 7c69e0cc     stdafx.obj
 0002:000050ec       __GUID_7fd52380_4e07_101b_ae2d_08002b2ec713 7c69e0ec     stdafx.obj
 0002:000050fc       __GUID_00000109_0000_0000_c000_000000000046 7c69e0fc     stdafx.obj
 0002:0000510c       ??_C@_0DI@IKDGMNLP@Error?5attempting?5to?5read?5Propert@ 7c69e10c     stdafx.obj
 0002:00005144       ??_C@_0DF@IPNMLCCH@Error?5attempting?5to?5read?5Propert@ 7c69e144     stdafx.obj
 0002:0000517c       ??_C@_0BI@GELMNGCK@Property?5?$CFs?5not?5in?5Bag?6?$AA@ 7c69e17c     stdafx.obj
 0002:00005194       ??_C@_0BF@DLCABIHH@Property?5not?5in?5Bag?6?$AA@ 7c69e194     stdafx.obj
 0002:000051ac       ??_C@_0CJ@OBMGCDHH@Warning?5skipping?5empty?5IUnknown?5@ 7c69e1ac     stdafx.obj
 0002:000051d8       ??_C@_0CH@NPIIBLHA@PropBag?5pointer?5passed?5in?5was?5in@ 7c69e1d8     stdafx.obj
 0002:00005200       __GUID_0000010c_0000_0000_c000_000000000046 7c69e200     stdafx.obj
 0002:00005210       __GUID_a6bc3ac0_dbaa_11ce_9de3_00aa004bb851 7c69e210     stdafx.obj
 0002:00005220       __GUID_b6ea2050_048a_11d1_82b9_00c04fb9942e 7c69e220     stdafx.obj
 0002:00005230       ??_C@_0BB@ICJMLDDL@WM_ATLGETCONTROL?$AA@ 7c69e230     stdafx.obj
 0002:00005244       ??_C@_0O@POPOELFC@WM_ATLGETHOST?$AA@ 7c69e244     stdafx.obj
 0002:00005258       ??_C@_1JK@CMKAHLIB@?$AAC?$AA?3?$AA?2?$AAP?$AAr?$AAo?$AAg?$AAr?$AAa?$AAm?$AA?5?$AAF?$AAi?$AAl?$AAe?$AAs?$AA?5?$AA?$CI?$AAx?$AA8?$AA6?$AA?$CJ?$AA?2?$AAM?$AAi?$AAc?$AAr?$AAo?$AAs?$AAo?$AAf?$AAt@ 7c69e258     stdafx.obj
 0002:000052f8       ??_C@_0EN@EPFBLAIN@C?3?2Program?5Files?5?$CIx86?$CJ?2Microsoft@ 7c69e2f8     stdafx.obj
 0002:00005348       ??_C@_0DJ@HGBKDMEN@ERROR?5?3?5Unable?5to?5lock?5critical?5@ 7c69e348     stdafx.obj
 0002:00005384       __GUID_3935bda8_4ed9_495c_8650_e01fc1e38a4b 7c69e384     stdafx.obj
 0002:00005394       ??_C@_1CM@NOHDPLGL@?$AAW?$AAM?$AA_?$AAA?$AAT?$AAL?$AAG?$AAE?$AAT?$AAC?$AAO?$AAN?$AAT?$AAR?$AAO?$AAL?$AA?5?$AA?$CB?$AA?$DN?$AA?5?$AA0?$AA?$AA@ 7c69e394     stdafx.obj
 0002:000053c0       ??_C@_1CG@NOLPIEJO@?$AAW?$AAM?$AA_?$AAA?$AAT?$AAL?$AAG?$AAE?$AAT?$AAH?$AAO?$AAS?$AAT?$AA?5?$AA?$CB?$AA?$DN?$AA?5?$AA0?$AA?$AA@ 7c69e3c0     stdafx.obj
 0002:000053e8       ??_C@_07JPHDIPNG@DISPLAY?$AA@ 7c69e3e8     stdafx.obj
 0002:000053f0       ??_C@_1BO@EKDDFOBL@?$AAh?$AAD?$AAC?$AAS?$AAc?$AAr?$AAe?$AAe?$AAn?$AA?5?$AA?$CB?$AA?$DN?$AA?5?$AA0?$AA?$AA@ 7c69e3f0     stdafx.obj
 0002:00005410       ??_7?$CComPolyObject@VCAxHostWindow@ATL@@@ATL@@6B@ 7c69e410     stdafx.obj
 0002:00005420       ?_entries@?1??_GetEntries@CAxHostWindow@ATL@@SGPBU_ATL_INTMAP_ENTRY@3@XZ@4QBU43@B 7c69e420     stdafx.obj
 0002:000054f8       ??_C@_0O@IEKIGPOE@CAxHostWindow?$AA@ 7c69e4f8     stdafx.obj
 0002:00005508       __GUID_00000118_0000_0000_c000_000000000046 7c69e508     stdafx.obj
 0002:00005518       __GUID_922eada0_3424_11cf_b670_00aa004cd6d8 7c69e518     stdafx.obj
 0002:00005528       __GUID_9c2cad80_3424_11cf_b670_00aa004cd6d8 7c69e528     stdafx.obj
 0002:00005538       __GUID_00000119_0000_0000_c000_000000000046 7c69e538     stdafx.obj
 0002:00005548       __GUID_00000114_0000_0000_c000_000000000046 7c69e548     stdafx.obj
 0002:00005558       __GUID_b196b289_bab4_101a_b69c_00aa00341d07 7c69e558     stdafx.obj
 0002:00005568       __GUID_0000011b_0000_0000_c000_000000000046 7c69e568     stdafx.obj
 0002:00005578       __GUID_fc4801a3_2ba9_11cf_a229_00aa003d7352 7c69e578     stdafx.obj
 0002:00005588       __GUID_6d5140c1_7436_11ce_8034_00aa006009fa 7c69e588     stdafx.obj
 0002:00005598       __GUID_b2d0778b_ac99_4c58_a5c8_e7724e5316b5 7c69e598     stdafx.obj
 0002:000055a8       __GUID_b6ea2051_048a_11d1_82b9_00c04fb9942e 7c69e5a8     stdafx.obj
 0002:000055b8       __GUID_bd3f23c0_d43e_11cf_893b_00aa00bdce1a 7c69e5b8     stdafx.obj
 0002:000055c8       __GUID_0000010f_0000_0000_c000_000000000046 7c69e5c8     stdafx.obj
 0002:000055d8       ??_C@_0EM@NFJALPIA@C?3?2Program?5Files?5?$CIx86?$CJ?2Microsoft@ 7c69e5d8     stdafx.obj
 0002:00005624       ??_C@_0DE@JJEOCICO@ERROR?5?9?5Object?5deleted?5before?5wi@ 7c69e624     stdafx.obj
 0002:00005658       ??_7?$CComContainedObject@VCAxHostWindow@ATL@@@ATL@@6B?$IDispatchImpl@UIAxWinAmbientDispatchEx@@$1?_GUID_b2d0778b_ac99_4c58_a5c8_e7724e5316b5@@3U__s_GUID@@B$1?m_libid@CAtlModule@ATL@@2U_GUID@@A$0PPPP@$0PPPP@VCComTypeInfoHolder@ATL@@@1@@ 7c69e658     stdafx.obj
 0002:000056f0       ??_7?$CComContainedObject@VCAxHostWindow@ATL@@@ATL@@6BIDocHostUIHandler@@@ 7c69e6f0     stdafx.obj
 0002:00005738       ??_7?$CComContainedObject@VCAxHostWindow@ATL@@@ATL@@6BIAdviseSink@@@ 7c69e738     stdafx.obj
 0002:00005758       ??_7?$CComContainedObject@VCAxHostWindow@ATL@@@ATL@@6BIServiceProvider@@@ 7c69e758     stdafx.obj
 0002:00005768       ??_7?$CComContainedObject@VCAxHostWindow@ATL@@@ATL@@6B?$IObjectWithSiteImpl@VCAxHostWindow@ATL@@@1@@ 7c69e768     stdafx.obj
 0002:00005780       ??_7?$CComContainedObject@VCAxHostWindow@ATL@@@ATL@@6BIOleContainer@@@ 7c69e780     stdafx.obj
 0002:00005798       ??_7?$CComContainedObject@VCAxHostWindow@ATL@@@ATL@@6BIOleControlSite@@@ 7c69e798     stdafx.obj
 0002:000057c0       ??_7?$CComContainedObject@VCAxHostWindow@ATL@@@ATL@@6BIOleInPlaceSiteWindowless@@@ 7c69e7c0     stdafx.obj
 0002:00005838       ??_7?$CComContainedObject@VCAxHostWindow@ATL@@@ATL@@6BIOleClientSite@@@ 7c69e838     stdafx.obj
 0002:0000585c       ??_7?$CComContainedObject@VCAxHostWindow@ATL@@@ATL@@6BIAxWinHostWindowLic@@@ 7c69e85c     stdafx.obj
 0002:00005888       ??_7?$CComContainedObject@VCAxHostWindow@ATL@@@ATL@@6B?$CWindowImpl@VCAxHostWindow@ATL@@VCWindow@2@V?$CWinTraits@$0FGAAAAAA@$0A@@2@@1@@ 7c69e888     stdafx.obj
 0002:0000589c       ??_C@_0BN@BNLFFEBD@Invalid?5message?5map?5ID?5?$CI?$CFi?$CJ?6?$AA@ 7c69e89c     stdafx.obj
 0002:000058bc       ??_C@_1BI@CHLGCFKO@?$AAl?$AAP?$AAa?$AAr?$AAa?$AAm?$AA?5?$AA?$CB?$AA?$DN?$AA?5?$AA0?$AA?$AA@ 7c69e8bc     stdafx.obj
 0002:000058d4       ??_C@_1CG@OFEMDDJL@?$AA?3?$AA?3?$AAI?$AAs?$AAW?$AAi?$AAn?$AAd?$AAo?$AAw?$AA?$CI?$AAm?$AA_?$AAh?$AAW?$AAn?$AAd?$AA?$CJ?$AA?$AA@ 7c69e8d4     stdafx.obj
 0002:000058fc       __GUID_d30c1661_cdaf_11d0_8a3e_00c04fc9e26e 7c69e8fc     stdafx.obj
 0002:0000590c       ??_C@_06FGFHJIJL@?$CD32770?$AA@ 7c69e90c     stdafx.obj
 0002:00005914       __GUID_b196b28f_bab4_101a_b69c_00aa00341d07 7c69e914     stdafx.obj
 0002:00005924       __GUID_8856f961_340a_11d0_a96b_00c04fd705a2 7c69e924     stdafx.obj
 0002:00005934       __GUID_25336920_03f9_11cf_8fd0_00aa00686f13 7c69e934     stdafx.obj
 0002:00005944       __GUID_00000122_0000_0000_c000_000000000046 7c69e944     stdafx.obj
 0002:00005954       ??_C@_1CE@GHGFMHAF@?$AAp?$AAp?$AAD?$AAr?$AAo?$AAp?$AAT?$AAa?$AAr?$AAg?$AAe?$AAt?$AA?5?$AA?$CB?$AA?$DN?$AA?5?$AA0?$AA?$AA@ 7c69e954     stdafx.obj
 0002:00005978       ??_C@_1CA@MNALPOMC@?$AAp?$AAp?$AAD?$AAi?$AAs?$AAp?$AAa?$AAt?$AAc?$AAh?$AA?5?$AA?$CB?$AA?$DN?$AA?5?$AA0?$AA?$AA@ 7c69e978     stdafx.obj
 0002:00005998       ??_C@_1CA@CLOKMEBE@?$AAp?$AAp?$AAc?$AAh?$AAU?$AAR?$AAL?$AAO?$AAu?$AAt?$AA?5?$AA?$CB?$AA?$DN?$AA?5?$AA0?$AA?$AA@ 7c69e998     stdafx.obj
 0002:000059b8       __GUID_0000010e_0000_0000_c000_000000000046 7c69e9b8     stdafx.obj
 0002:000059c8       ??_C@_1BK@LJGHPFDM@?$AAp?$AAp?$AAD?$AAO?$AAR?$AAe?$AAt?$AA?5?$AA?$CB?$AA?$DN?$AA?5?$AA0?$AA?$AA@ 7c69e9c8     stdafx.obj
 0002:000059e4       ??_C@_1CO@LFNJOEPM@?$AAp?$AAb?$AAA?$AAl?$AAl?$AAo?$AAw?$AAW?$AAi?$AAn?$AAd?$AAo?$AAw?$AAl?$AAe?$AAs?$AAs?$AA?5?$AA?$CB?$AA?$DN?$AA?5?$AA0?$AA?$AA@ 7c69e9e4     stdafx.obj
 0002:00005a14       ??_C@_1CI@JCPLIMHD@?$AAp?$AAc?$AAl?$AAr?$AAB?$AAa?$AAc?$AAk?$AAg?$AAr?$AAo?$AAu?$AAn?$AAd?$AA?5?$AA?$CB?$AA?$DN?$AA?5?$AA0?$AA?$AA@ 7c69ea14     stdafx.obj
 0002:00005a3c       ??_C@_1CI@CCFIBOKI@?$AAp?$AAc?$AAl?$AAr?$AAF?$AAo?$AAr?$AAe?$AAg?$AAr?$AAo?$AAu?$AAn?$AAd?$AA?5?$AA?$CB?$AA?$DN?$AA?5?$AA0?$AA?$AA@ 7c69ea3c     stdafx.obj
 0002:00005a64       ??_C@_1CG@COFAKDFP@?$AAp?$AAl?$AAc?$AAi?$AAd?$AAL?$AAo?$AAc?$AAa?$AAl?$AAe?$AAI?$AAD?$AA?5?$AA?$CB?$AA?$DN?$AA?5?$AA0?$AA?$AA@ 7c69ea64     stdafx.obj
 0002:00005a8c       ??_C@_1CA@IEEGDLOD@?$AAp?$AAb?$AAU?$AAs?$AAe?$AAr?$AAM?$AAo?$AAd?$AAe?$AA?5?$AA?$CB?$AA?$DN?$AA?5?$AA0?$AA?$AA@ 7c69ea8c     stdafx.obj
 0002:00005aac       ??_C@_1DA@CGLKIOAN@?$AAp?$AAb?$AAD?$AAi?$AAs?$AAp?$AAl?$AAa?$AAy?$AAA?$AAs?$AAD?$AAe?$AAf?$AAa?$AAu?$AAl?$AAt?$AA?5?$AA?$CB?$AA?$DN?$AA?5?$AA0?$AA?$AA@ 7c69eaac     stdafx.obj
 0002:00005adc       __GUID_bef6e003_a874_101a_8bba_00aa00300cab 7c69eadc     stdafx.obj
 0002:00005aec       ??_C@_1BG@KHHOKLPO@?$AAp?$AAF?$AAo?$AAn?$AAt?$AA?5?$AA?$CB?$AA?$DN?$AA?5?$AA0?$AA?$AA@ 7c69eaec     stdafx.obj
 0002:00005b04       ??_C@_1CM@JAPGHLNC@?$AAp?$AAb?$AAM?$AAe?$AAs?$AAs?$AAa?$AAg?$AAe?$AAR?$AAe?$AAf?$AAl?$AAe?$AAc?$AAt?$AA?5?$AA?$CB?$AA?$DN?$AA?5?$AA0?$AA?$AA@ 7c69eb04     stdafx.obj
 0002:00005b30       ??_C@_1CI@LHCAIDAL@?$AAp?$AAb?$AAS?$AAh?$AAo?$AAw?$AAH?$AAa?$AAt?$AAc?$AAh?$AAi?$AAn?$AAg?$AA?5?$AA?$CB?$AA?$DN?$AA?5?$AA0?$AA?$AA@ 7c69eb30     stdafx.obj
 0002:00005b58       ??_C@_1CK@PNCNMNED@?$AAp?$AAd?$AAw?$AAD?$AAo?$AAc?$AAH?$AAo?$AAs?$AAt?$AAF?$AAl?$AAa?$AAg?$AAs?$AA?5?$AA?$CB?$AA?$DN?$AA?5?$AA0?$AA?$AA@ 7c69eb58     stdafx.obj
 0002:00005b88       ??_C@_1EA@FEGECGBB@?$AAp?$AAd?$AAw?$AAD?$AAo?$AAc?$AAH?$AAo?$AAs?$AAt?$AAD?$AAo?$AAu?$AAb?$AAl?$AAe?$AAC?$AAl?$AAi?$AAc?$AAk?$AAF?$AAl?$AAa?$AAg?$AAs?$AA?5?$AA?$CB?$AA?$DN?$AA?5?$AA0?$AA?$AA@ 7c69eb88     stdafx.obj
 0002:00005bc8       ??_C@_1DA@BAEKOLBM@?$AAp?$AAb?$AAA?$AAl?$AAl?$AAo?$AAw?$AAC?$AAo?$AAn?$AAt?$AAe?$AAx?$AAt?$AAM?$AAe?$AAn?$AAu?$AA?5?$AA?$CB?$AA?$DN?$AA?5?$AA0?$AA?$AA@ 7c69ebc8     stdafx.obj
 0002:00005bf8       ??_C@_1CG@LLJDIDLO@?$AAp?$AAb?$AAA?$AAl?$AAl?$AAo?$AAw?$AAS?$AAh?$AAo?$AAw?$AAU?$AAI?$AA?5?$AA?$CB?$AA?$DN?$AA?5?$AA0?$AA?$AA@ 7c69ebf8     stdafx.obj
 0002:00005c20       ??_C@_1DA@NOBBEEFI@?$AAp?$AAb?$AAs?$AAt?$AAr?$AAO?$AAp?$AAt?$AAi?$AAo?$AAn?$AAK?$AAe?$AAy?$AAP?$AAa?$AAt?$AAh?$AA?5?$AA?$CB?$AA?$DN?$AA?5?$AA0?$AA?$AA@ 7c69ec20     stdafx.obj
 0002:00005c50       ??_C@_1FM@GLLGKAGJ@?$AA?$CI?$AA?$CI?$AAH?$AAR?$AAE?$AAS?$AAU?$AAL?$AAT?$AA?$CJ?$AA?$CI?$AAh?$AAr?$AA?$CJ?$AA?5?$AA?$DO?$AA?$DN?$AA?5?$AA0?$AA?$CJ?$AA?5?$AA?$CG?$AA?$CG?$AA?5?$AA?$CC?$AAN?$AAo?$AA?5?$AAS?$AAe?$AAr?$AAv@ 7c69ec50     stdafx.obj
 0002:00005cac       ??_C@_0BE@MNNNBAEJ@No?5ServiceProvider?$CB?$AA@ 7c69ecac     stdafx.obj
 0002:00005cc0       ??_C@_0BK@HFBNDALM@ATL?3?5?$CFs?5not?5implemented?4?6?$AA@ 7c69ecc0     stdafx.obj
 0002:00005cdc       ??_C@_0BL@CNPLMFBE@IOleClientSite?3?3SaveObject?$AA@ 7c69ecdc     stdafx.obj
 0002:00005cf8       ??_C@_0BL@HDINKMHC@IOleClientSite?3?3GetMoniker?$AA@ 7c69ecf8     stdafx.obj
 0002:00005d14       ??_C@_1CC@JAMEAELL@?$AAp?$AAp?$AAC?$AAo?$AAn?$AAt?$AAa?$AAi?$AAn?$AAe?$AAr?$AA?5?$AA?$CB?$AA?$DN?$AA?5?$AA0?$AA?$AA@ 7c69ed14     stdafx.obj
 0002:00005d38       ??_C@_0BO@KEMGAJPK@IOleClientSite?3?3GetContainer?6?$AA@ 7c69ed38     stdafx.obj
 0002:00005d58       ??_C@_0BN@FMNOCGEC@IOleClientSite?3?3ShowObject?$AN?6?$AA@ 7c69ed58     stdafx.obj
 0002:00005d78       ??_C@_0BN@BIBMKNOD@IOleClientSite?3?3OnShowWindow?$AA@ 7c69ed78     stdafx.obj
 0002:00005d98       ??_C@_0CH@INFDHCMD@IOleClientSite?3?3RequestNewObject@ 7c69ed98     stdafx.obj
 0002:00005dc0       ??_C@_0CG@NBALHJKL@IOleInPlaceSite?3?3ContextSensitiv@ 7c69edc0     stdafx.obj
 0002:00005de8       __GUID_00000113_0000_0000_c000_000000000046 7c69ede8     stdafx.obj
 0002:00005df8       ??_C@_1EC@DGNHCBBO@?$AAm?$AA_?$AAs?$AAp?$AAI?$AAn?$AAP?$AAl?$AAa?$AAc?$AAe?$AAO?$AAb?$AAj?$AAe?$AAc?$AAt?$AAW?$AAi?$AAn?$AAd?$AAo?$AAw?$AAl?$AAe?$AAs?$AAs?$AA?5?$AA?$DN?$AA?$DN?$AA?5?$AA0@ 7c69edf8     stdafx.obj
 0002:00005e3c       ??_C@_1CM@CCNOMBOM@?$AAm?$AA_?$AAb?$AAI?$AAn?$AAP?$AAl?$AAa?$AAc?$AAe?$AAA?$AAc?$AAt?$AAi?$AAv?$AAe?$AA?5?$AA?$DN?$AA?$DN?$AA?5?$AA0?$AA?$AA@ 7c69ee3c     stdafx.obj
 0002:00005e68       ??_C@_0BP@BDGDJPEF@IOleInPlaceSite?3?3OnUIActivate?6?$AA@ 7c69ee68     stdafx.obj
 0002:00005e88       ??_C@_1CI@BHDFHLDB@?$AAm?$AA_?$AAs?$AAp?$AAI?$AAn?$AAP?$AAl?$AAa?$AAc?$AAe?$AAU?$AAI?$AAW?$AAi?$AAn?$AAd?$AAo?$AAw?$AA?$AA@ 7c69ee88     stdafx.obj
 0002:00005eb0       __GUID_00000115_0000_0000_c000_000000000046 7c69eeb0     stdafx.obj
 0002:00005ec0       ??_C@_1CC@FOKEHFBH@?$AAm?$AA_?$AAs?$AAp?$AAI?$AAn?$AAP?$AAl?$AAa?$AAc?$AAe?$AAF?$AAr?$AAa?$AAm?$AAe?$AA?$AA@ 7c69eec0     stdafx.obj
 0002:00005ee4       __GUID_00000116_0000_0000_c000_000000000046 7c69eee4     stdafx.obj
 0002:00005ef4       ??_C@_0BI@LMFIJFLF@IOleInPlaceSite?3?3Scroll?$AA@ 7c69eef4     stdafx.obj
 0002:00005f0c       ??_C@_0CB@DPJACDKI@IOleInPlaceSite?3?3OnUIDeactivate?6@ 7c69ef0c     stdafx.obj
 0002:00005f30       ??_C@_0CC@DHNOFCHL@IOleInPlaceSite?3?3DiscardUndoStat@ 7c69ef30     stdafx.obj
 0002:00005f54       ??_C@_0CD@HDPLACCC@IOleInPlaceSite?3?3DeactivateAndUn@ 7c69ef54     stdafx.obj
 0002:00005f78       ??_C@_0CB@EMPHOJEH@IOleInPlaceSite?3?3OnPosRectChange@ 7c69ef78     stdafx.obj
 0002:00005f9c       __GUID_1c2056cc_5ef4_101b_8bc8_00aa003e3b29 7c69ef9c     stdafx.obj
 0002:00005fac       ??_C@_0BP@OACOCMEL@CAxHostWindow?3?3TransformCoords?$AA@ 7c69efac     stdafx.obj
 0002:00005fcc       ??_C@_0CB@LHNPGPLG@CAxHostWindow?3?3ShowPropertyFrame@ 7c69efcc     stdafx.obj
 0002:00005ff0       ??_C@_0CA@JLJFMEKB@CAxHostWindow?3?3ParseDisplayName?$AA@ 7c69eff0     stdafx.obj
 0002:00006010       __GUID_00000100_0000_0000_c000_000000000046 7c69f010     stdafx.obj
 0002:00006020       ??_C@_1M@IJFAIKMG@?$AAA?$AAX?$AAW?$AAI?$AAN?$AA?$AA@ 7c69f020     stdafx.obj
 0002:0000602c       __GUID_0000010d_0000_0000_c000_000000000046 7c69f02c     stdafx.obj
 0002:0000603c       __GUID_00000127_0000_0000_c000_000000000046 7c69f03c     stdafx.obj
 0002:0000604c       __GUID_3af24292_0c96_11ce_a0cf_00aa00600ab8 7c69f04c     stdafx.obj
 0002:0000605c       __GUID_00000112_0000_0000_c000_000000000046 7c69f05c     stdafx.obj
 0002:0000606c       ??_C@_1CM@MHAAOHFA@?$AA?3?$AA?3?$AAI?$AAs?$AAW?$AAi?$AAn?$AAd?$AAo?$AAw?$AA?$CI?$AAh?$AAW?$AAn?$AAd?$AAC?$AAh?$AAi?$AAl?$AAd?$AA?$CJ?$AA?$AA@ 7c69f06c     stdafx.obj
 0002:00006098       ??_C@_1BI@KGIAFCPG@?$AAp?$AAp?$AAv?$AAO?$AAb?$AAj?$AA?5?$AA?$CB?$AA?$DN?$AA?5?$AA0?$AA?$AA@ 7c69f098     stdafx.obj
 0002:000060b0       ??_C@_1BC@OBKMFLEI@?$AAp?$AAp?$AAT?$AA?5?$AA?$CB?$AA?$DN?$AA?5?$AA0?$AA?$AA@ 7c69f0b0     stdafx.obj
 0002:000060c4       ??_C@_0BO@GGAAJPMM@IObjectWithSiteImpl?3?3SetSite?6?$AA@ 7c69f0c4     stdafx.obj
 0002:000060e4       ??_C@_1BA@OMPGFONP@?$AAp?$AAp?$AAv?$AAS?$AAi?$AAt?$AAe?$AA?$AA@ 7c69f0e4     stdafx.obj
 0002:000060f4       ??_C@_0BO@JHCMIMLB@IObjectWithSiteImpl?3?3GetSite?6?$AA@ 7c69f0f4     stdafx.obj
 0002:00006114       ??_C@_1BI@MCKDPFMC@?$AAp?$AAp?$AAI?$AAn?$AAf?$AAo?$AA?5?$AA?$CB?$AA?$DN?$AA?5?$AA0?$AA?$AA@ 7c69f114     stdafx.obj
 0002:00006130       ??_C@_0FB@GGFNIACC@?7IDispatchImpl?0?5CStockPropImpl?0?5@ 7c69f130     stdafx.obj
 0002:00006184       ??_C@_0DE@PFCDKHBK@?7Verify?5TypelibID?5and?5major?5vers@ 7c69f184     stdafx.obj
 0002:000061b8       ??_C@_0DG@JANIJOBP@ERROR?5?3?5Unable?5to?5load?5Typelibra@ 7c69f1b8     stdafx.obj
 0002:000061f0       ??_C@_0DN@OOAEELGE@?7See?5IDispatchImpl?5overview?5help@ 7c69f1f0     stdafx.obj
 0002:00006230       ??_C@_0GE@IPBGNBKO@Warning?5?3?5CComTypeInfoHolder?3?3Ge@ 7c69f230     stdafx.obj
 0002:00006298       ??_C@_1NK@EGGIGGEE@?$AA?$CB?$AAI?$AAn?$AAl?$AAi?$AAn?$AAe?$AAI?$AAs?$AAE?$AAq?$AAu?$AAa?$AAl?$AAG?$AAU?$AAI?$AAD?$AA?$CI?$AA?$CK?$AAm?$AA_?$AAp?$AAl?$AAi?$AAb?$AAi?$AAd?$AA?0?$AA?5?$AAG?$AAU@ 7c69f298     stdafx.obj
 0002:00006374       ??_C@_0DP@CJHCKAIL@Module?5LIBID?5not?5initialized?4?5Se@ 7c69f374     stdafx.obj
 0002:000063b8       ??_C@_0EG@JLAFHAGH@ERROR?5?3?5Unable?5to?5lock?5critical?5@ 7c69f3b8     stdafx.obj
 0002:00006400       ??_C@_1DM@FHENBGPF@?$AAm?$AA_?$AAp?$AAl?$AAi?$AAb?$AAi?$AAd?$AA?5?$AA?$CB?$AA?$DN?$AA?5?$AA0?$AA?5?$AA?$CG?$AA?$CG?$AA?5?$AAm?$AA_?$AAp?$AAg?$AAu?$AAi?$AAd?$AA?5?$AA?$CB?$AA?$DN?$AA?5?$AA0?$AA?$AA@ 7c69f400     stdafx.obj
 0002:0000643c       __GUID_00000117_0000_0000_c000_000000000046 7c69f43c     stdafx.obj
 0002:0000644c       __GUID_b196b288_bab4_101a_b69c_00aa00341d07 7c69f44c     stdafx.obj
 0002:0000645c       ??_7?$CComObject@V?$CComEnum@UIEnumUnknown@@$1?_GUID_00000100_0000_0000_c000_000000000046@@3U__s_GUID@@BPAUIUnknown@@V?$_CopyInterface@UIUnknown@@@ATL@@VCComMultiThreadModel@6@@ATL@@@ATL@@6B@ 7c69f45c     stdafx.obj
 0002:0000647c       ?_entries@?1??_GetEntries@?$CComEnum@UIEnumUnknown@@$1?_GUID_00000100_0000_0000_c000_000000000046@@3U__s_GUID@@BPAUIUnknown@@V?$_CopyInterface@UIUnknown@@@ATL@@VCComMultiThreadModel@6@@ATL@@SGPBU_ATL_INTMAP_ENTRY@3@XZ@4QBU43@B 7c69f47c     stdafx.obj
 0002:000064a0       ??_C@_09BEHAHIFA@_CComEnum?$AA@ 7c69f4a0     stdafx.obj
 0002:000064ac       __GUID_00020412_0000_0000_c000_000000000046 7c69f4ac     stdafx.obj
 0002:000064bc       __GUID_00020401_0000_0000_c000_000000000046 7c69f4bc     stdafx.obj
 0002:000064cc       ??_7?$CComObject@VCAxFrameWindow@ATL@@@ATL@@6BIOleInPlaceFrame@@@ 7c69f4cc     stdafx.obj
 0002:00006508       ??_7?$CComObject@VCAxFrameWindow@ATL@@@ATL@@6B?$CWindowImpl@VCAxFrameWindow@ATL@@VCWindow@2@V?$CWinTraits@$0FGAAAAAA@$0A@@2@@1@@ 7c69f508     stdafx.obj
 0002:00006518       ??_C@_0BD@LIOMMJMF@AXWIN?5Frame?5Window?$AA@ 7c69f518     stdafx.obj
 0002:0000652c       ??_C@_1BG@PLDKHOOK@?$AAp?$AAh?$AAw?$AAn?$AAd?$AA?5?$AA?$CB?$AA?$DN?$AA?5?$AA0?$AA?$AA@ 7c69f52c     stdafx.obj
 0002:00006544       ?_entries@?1??_GetEntries@CAxFrameWindow@ATL@@SGPBU_ATL_INTMAP_ENTRY@3@XZ@4QBU43@B 7c69f544     stdafx.obj
 0002:00006580       ??_C@_0P@MFMDEJMN@CAxFrameWindow?$AA@ 7c69f580     stdafx.obj
 0002:00006590       ??_7?$CComObject@VCAxUIWindow@ATL@@@ATL@@6BIOleInPlaceUIWindow@@@ 7c69f590     stdafx.obj
 0002:000065b4       ??_7?$CComObject@VCAxUIWindow@ATL@@@ATL@@6B?$CWindowImpl@VCAxUIWindow@ATL@@VCWindow@2@V?$CWinTraits@$0FGAAAAAA@$0A@@2@@1@@ 7c69f5b4     stdafx.obj
 0002:000065c4       ??_C@_0BA@FJBCDDKK@AXWIN?5UI?5Window?$AA@ 7c69f5c4     stdafx.obj
 0002:000065d4       ?_entries@?1??_GetEntries@CAxUIWindow@ATL@@SGPBU_ATL_INTMAP_ENTRY@3@XZ@4QBU43@B 7c69f5d4     stdafx.obj
 0002:00006604       ??_C@_0M@EHKCMBND@CAxUIWindow?$AA@ 7c69f604     stdafx.obj
 0002:00006610       ??_C@_1BA@HHKMLMNL@?$AAp?$AAp?$AA?5?$AA?$CB?$AA?$DN?$AA?5?$AA0?$AA?$AA@ 7c69f610     stdafx.obj
 0002:00006620       ??_C@_1JI@HCIINEHI@?$AAc?$AAb?$AAI?$AAt?$AAe?$AAm?$AA?5?$AA?$DO?$AA?$DN?$AA?5?$AA?$CI?$AAb?$AAD?$AAi?$AAa?$AAl?$AAo?$AAg?$AAE?$AAx?$AA?5?$AA?$DP?$AA?5?$AAs?$AAi?$AAz?$AAe?$AAo?$AAf?$AA?$CI?$AAD?$AAL@ 7c69f620     stdafx.obj
 0002:000066b8       ??_C@_1O@GBFKGNEO@?$AAA?$AAT?$AAL?$AA?3?$AA?$CF?$AAp?$AA?$AA@ 7c69f6b8     stdafx.obj
 0002:000066c8       ??_7Thank_you@Define_the_symbol__ATL_MIXED@@6B@ 7c69f6c8     stdafx.obj
 0002:000066cc       ??_C@_0CE@EFPFDKPN@ThisProcedureMustNotExistInKerne@ 7c69f6cc     atldload:downlevel_dload.obj
 0002:000066f0       ??_C@_0N@MDJJJHMB@kernel32?4dll?$AA@ 7c69f6f0     atldload:downlevel_dload.obj
 0002:00006700       ??_C@_0L@GMPLCCII@user32?4dll?$AA@ 7c69f700     atldload:atldload.obj
 0002:0000670c       ??_C@_0N@OLNBCFOM@oleaut32?4dll?$AA@ 7c69f70c     atldload:atldload.obj
 0002:0000671c       ??_C@_09IMMMOKKM@ole32?4dll?$AA@ 7c69f71c     atldload:atldload.obj
 0002:00006728       ??_C@_09HDGMBNAP@gdi32?4dll?$AA@ 7c69f728     atldload:atldload.obj
 0002:00006734       ??_C@_0N@INAGJMNN@advapi32?4dll?$AA@ 7c69f734     atldload:atldload.obj
 0002:00006744       _g_DllEntries              7c69f744     atldload:atldload.obj
 0002:00006780       _g_DllMap                  7c69f780     atldload:atldload.obj
 0002:00006788       ??_C@_09ECGNHKJO@wsprintfW?$AA@ 7c69f788     atldload:user32.obj
 0002:00006794       ??_C@_09FOPFMPEJ@wsprintfA?$AA@ 7c69f794     atldload:user32.obj
 0002:000067a0       ??_C@_0M@EOGKGGKK@mouse_event?$AA@ 7c69f7a0     atldload:user32.obj
 0002:000067ac       ??_C@_0N@NBLAALBE@WindowFromDC?$AA@ 7c69f7ac     atldload:user32.obj
 0002:000067bc       ??_C@_0N@IPBGBCLO@ValidateRect?$AA@ 7c69f7bc     atldload:user32.obj
 0002:000067cc       ??_C@_0BB@OFBGMKEL@UnregisterClassW?$AA@ 7c69f7cc     atldload:user32.obj
 0002:000067e0       ??_C@_0BB@PJIOHPJM@UnregisterClassA?$AA@ 7c69f7e0     atldload:user32.obj
 0002:000067f4       ??_C@_0BB@DHHKBNMB@TranslateMessage?$AA@ 7c69f7f4     atldload:user32.obj
 0002:00006808       ??_C@_0BG@MBJCIDC@SystemParametersInfoW?$AA@ 7c69f808     atldload:user32.obj
 0002:00006820       ??_C@_0L@OKGBCELB@ShowWindow?$AA@ 7c69f820     atldload:user32.obj
 0002:0000682c       ??_C@_0L@BIENLPGM@ShowCursor?$AA@ 7c69f82c     atldload:user32.obj
 0002:00006838       ??_C@_0P@IGGABHFC@SetWindowTextW?$AA@ 7c69f838     atldload:user32.obj
 0002:00006848       ??_C@_0N@JFJFIAMA@SetWindowPos?$AA@ 7c69f848     atldload:user32.obj
 0002:00006858       ??_C@_0P@EIEHJKGP@SetWindowLongW?$AA@ 7c69f858     atldload:user32.obj
 0002:00006868       ??_C@_0P@FENPCPLI@SetWindowLongA?$AA@ 7c69f868     atldload:user32.obj
 0002:00006878       ??_C@_0BB@MDEOMFBF@SetThreadDesktop?$AA@ 7c69f878     atldload:user32.obj
 0002:0000688c       ??_C@_0BA@DCGCFHGD@SetSystemCursor?$AA@ 7c69f88c     atldload:user32.obj
 0002:0000689c       ??_C@_07EHKAKKDH@SetRect?$AA@ 7c69f89c     atldload:user32.obj
 0002:000068a4       ??_C@_0BI@CDMMLKPG@SetProcessWindowStation?$AA@ 7c69f8a4     atldload:user32.obj
 0002:000068bc       ??_C@_0BE@CGIBJMLM@SetForegroundWindow?$AA@ 7c69f8bc     atldload:user32.obj
 0002:000068d0       ??_C@_08GPNNBNIL@SetFocus?$AA@ 7c69f8d0     atldload:user32.obj
 0002:000068dc       ??_C@_0L@HBBIBCDI@SetCapture?$AA@ 7c69f8dc     atldload:user32.obj
 0002:000068e8       ??_C@_0N@HADBEMKH@SendMessageW?$AA@ 7c69f8e8     atldload:user32.obj
 0002:000068f8       ??_C@_09DEEPKLKK@ReleaseDC?$AA@ 7c69f8f8     atldload:user32.obj
 0002:00006904       ??_C@_0P@CGJIDJCJ@ReleaseCapture?$AA@ 7c69f904     atldload:user32.obj
 0002:00006914       ??_C@_0BH@BHMECBNF@RegisterWindowMessageW?$AA@ 7c69f914     atldload:user32.obj
 0002:0000692c       ??_C@_0BB@JOFGLPHA@RegisterClassExW?$AA@ 7c69f92c     atldload:user32.obj
 0002:00006940       ??_C@_0BB@ICMOAKKH@RegisterClassExA?$AA@ 7c69f940     atldload:user32.obj
 0002:00006954       ??_C@_0P@MIANNIHB@RegisterClassA?$AA@ 7c69f954     atldload:user32.obj
 0002:00006964       ??_C@_0N@KOKKNONB@RedrawWindow?$AA@ 7c69f964     atldload:user32.obj
 0002:00006974       ??_C@_0N@HJJIHFPL@PostMessageA?$AA@ 7c69f974     atldload:user32.obj
 0002:00006984       ??_C@_0N@BPNBPMKA@PeekMessageW?$AA@ 7c69f984     atldload:user32.obj
 0002:00006994       ??_C@_0N@DEJEJHH@PeekMessageA?$AA@ 7c69f994     atldload:user32.obj
 0002:000069a4       ??_C@_0BD@MBJAHOAP@OpenWindowStationA?$AA@ 7c69f9a4     atldload:user32.obj
 0002:000069b8       ??_C@_0N@NGNDAMBL@OpenDesktopA?$AA@ 7c69f9b8     atldload:user32.obj
 0002:000069c8       ??_C@_0P@DGPIEHPI@OemToCharBuffA?$AA@ 7c69f9c8     atldload:user32.obj
 0002:000069d8       ??_C@_0BK@LPJAAOIP@MsgWaitForMultipleObjects?$AA@ 7c69f9d8     atldload:user32.obj
 0002:000069f4       ??_C@_0M@CHKKJDAI@MessageBoxA?$AA@ 7c69f9f4     atldload:user32.obj
 0002:00006a00       ??_C@_0M@DPBIDBBE@LoadStringW?$AA@ 7c69fa00     atldload:user32.obj
 0002:00006a0c       ??_C@_0M@CDIAIEMD@LoadStringA?$AA@ 7c69fa0c     atldload:user32.obj
 0002:00006a18       ??_C@_0M@GNNFICFG@LoadCursorW?$AA@ 7c69fa18     atldload:user32.obj
 0002:00006a24       ??_C@_0M@HBENDHIB@LoadCursorA?$AA@ 7c69fa24     atldload:user32.obj
 0002:00006a30       ??_C@_0BA@PFBLONPH@IsWindowVisible?$AA@ 7c69fa30     atldload:user32.obj
 0002:00006a40       ??_C@_0BA@KKLHGEKD@IsWindowUnicode?$AA@ 7c69fa40     atldload:user32.obj
 0002:00006a50       ??_C@_08DBCCILIB@IsWindow?$AA@ 7c69fa50     atldload:user32.obj
 0002:00006a5c       ??_C@_07FHHDFDMG@IsChild?$AA@ 7c69fa5c     atldload:user32.obj
 0002:00006a64       ??_C@_0N@ILMNBIMG@IsCharAlphaA?$AA@ 7c69fa64     atldload:user32.obj
 0002:00006a74       ??_C@_0O@DLGLOENF@InvalidateRgn?$AA@ 7c69fa74     atldload:user32.obj
 0002:00006a84       ??_C@_0P@BPAAKKJF@InvalidateRect?$AA@ 7c69fa84     atldload:user32.obj
 0002:00006a94       ??_C@_0O@PFOMJHEC@IntersectRect?$AA@ 7c69fa94     atldload:user32.obj
 0002:00006aa4       ??_C@_0P@EIHOONHO@GetWindowTextW?$AA@ 7c69faa4     atldload:user32.obj
 0002:00006ab4       ??_C@_0BF@KCNFIJIA@GetWindowTextLengthW?$AA@ 7c69fab4     atldload:user32.obj
 0002:00006acc       ??_C@_0P@FEOGFIKJ@GetWindowTextA?$AA@ 7c69facc     atldload:user32.obj
 0002:00006adc       ??_C@_0O@KGOHEIMB@GetWindowRect?$AA@ 7c69fadc     atldload:user32.obj
 0002:00006aec       ??_C@_0P@IGFJGAED@GetWindowLongW?$AA@ 7c69faec     atldload:user32.obj
 0002:00006afc       ??_C@_0P@JKMBNFJE@GetWindowLongA?$AA@ 7c69fafc     atldload:user32.obj
 0002:00006b0c       ??_C@_09CGMHJDCO@GetWindow?$AA@ 7c69fb0c     atldload:user32.obj
 0002:00006b18       ??_C@_0O@NDDJLEHM@GetUpdateRect?$AA@ 7c69fb18     atldload:user32.obj
 0002:00006b28       ??_C@_0BB@KHBHHLKH@GetThreadDesktop?$AA@ 7c69fb28     atldload:user32.obj
 0002:00006b3c       ??_C@_0BB@BFCABEPI@GetSystemMetrics?$AA@ 7c69fb3c     atldload:user32.obj
 0002:00006b50       ??_C@_0M@IGGMACEF@GetSysColor?$AA@ 7c69fb50     atldload:user32.obj
 0002:00006b5c       ??_C@_0BI@DFKBFLJE@GetProcessWindowStation?$AA@ 7c69fb5c     atldload:user32.obj
 0002:00006b74       ??_C@_09DIHAALNP@GetParent?$AA@ 7c69fb74     atldload:user32.obj
 0002:00006b80       ??_C@_0M@EAFFNEDO@GetMessageW?$AA@ 7c69fb80     atldload:user32.obj
 0002:00006b8c       ??_C@_0M@FMMNGBOJ@GetMessageA?$AA@ 7c69fb8c     atldload:user32.obj
 0002:00006b98       ??_C@_0BE@IIKKNMMA@GetForegroundWindow?$AA@ 7c69fb98     atldload:user32.obj
 0002:00006bac       ??_C@_08JOPBAOPG@GetFocus?$AA@ 7c69fbac     atldload:user32.obj
 0002:00006bb8       ??_C@_0L@CKELNLCE@GetDlgItem?$AA@ 7c69fbb8     atldload:user32.obj
 0002:00006bc4       ??_C@_0BB@EHAGBCIE@GetDesktopWindow?$AA@ 7c69fbc4     atldload:user32.obj
 0002:00006bd8       ??_C@_05EFCIJCKE@GetDC?$AA@ 7c69fbd8     atldload:user32.obj
 0002:00006be0       ??_C@_0O@NGMJCAIB@GetClientRect?$AA@ 7c69fbe0     atldload:user32.obj
 0002:00006bf0       ??_C@_0O@ONDMICJK@GetClassNameW?$AA@ 7c69fbf0     atldload:user32.obj
 0002:00006c00       ??_C@_0BA@BOKJBFN@GetClassInfoExW?$AA@ 7c69fc00     atldload:user32.obj
 0002:00006c10       ??_C@_0BA@BNHCCEIK@GetClassInfoExA?$AA@ 7c69fc10     atldload:user32.obj
 0002:00006c20       ??_C@_0O@LEGHJCPD@GetClassInfoA?$AA@ 7c69fc20     atldload:user32.obj
 0002:00006c30       ??_C@_0BA@HNOPNCHB@GetActiveWindow?$AA@ 7c69fc30     atldload:user32.obj
 0002:00006c40       ??_C@_0M@HKFEMMNM@FindWindowA?$AA@ 7c69fc40     atldload:user32.obj
 0002:00006c4c       ??_C@_08HBDJBON@FillRect?$AA@ 7c69fc4c     atldload:user32.obj
 0002:00006c58       ??_C@_09HKJAMJGO@EqualRect?$AA@ 7c69fc58     atldload:user32.obj
 0002:00006c64       ??_C@_0BF@EOKFFKMH@EnumDisplaySettingsW?$AA@ 7c69fc64     atldload:user32.obj
 0002:00006c7c       ??_C@_0BF@FCDNOPBA@EnumDisplaySettingsA?$AA@ 7c69fc7c     atldload:user32.obj
 0002:00006c94       ??_C@_0BD@KJFJAFEO@EnumDesktopWindows?$AA@ 7c69fc94     atldload:user32.obj
 0002:00006ca8       ??_C@_08NAIDMDDN@EndPaint?$AA@ 7c69fca8     atldload:user32.obj
 0002:00006cb4       ??_C@_0BB@KAKAGNBE@DispatchMessageW?$AA@ 7c69fcb4     atldload:user32.obj
 0002:00006cc8       ??_C@_0BB@LMDINIMD@DispatchMessageA?$AA@ 7c69fcc8     atldload:user32.obj
 0002:00006cdc       ??_C@_0BI@FDLCEMOM@DialogBoxIndirectParamW?$AA@ 7c69fcdc     atldload:user32.obj
 0002:00006cf4       ??_C@_0BI@EPCKPJDL@DialogBoxIndirectParamA?$AA@ 7c69fcf4     atldload:user32.obj
 0002:00006d0c       ??_C@_0O@MCOBDHHO@DestroyWindow?$AA@ 7c69fd0c     atldload:user32.obj
 0002:00006d1c       ??_C@_0O@DAMNKMKD@DestroyCursor?$AA@ 7c69fd1c     atldload:user32.obj
 0002:00006d2c       ??_C@_0BI@HCCLEIGB@DestroyAcceleratorTable?$AA@ 7c69fd2c     atldload:user32.obj
 0002:00006d44       ??_C@_0P@BAKOEHMB@DefWindowProcW?$AA@ 7c69fd44     atldload:user32.obj
 0002:00006d54       ??_C@_0P@MDGPCBG@DefWindowProcA?$AA@ 7c69fd54     atldload:user32.obj
 0002:00006d64       ??_C@_0BA@MHOOFEGE@CreateWindowExW?$AA@ 7c69fd64     atldload:user32.obj
 0002:00006d74       ??_C@_0BA@NLHGOBLD@CreateWindowExA?$AA@ 7c69fd74     atldload:user32.obj
 0002:00006d84       ??_C@_0BL@NMPMLKG@CreateDialogIndirectParamW?$AA@ 7c69fd84     atldload:user32.obj
 0002:00006da0       ??_C@_0BL@BBFHHOHB@CreateDialogIndirectParamA?$AA@ 7c69fda0     atldload:user32.obj
 0002:00006dbc       ??_C@_0BI@LPCBEHPI@CreateAcceleratorTableW?$AA@ 7c69fdbc     atldload:user32.obj
 0002:00006dd4       ??_C@_08PDOCECEH@CopyIcon?$AA@ 7c69fdd4     atldload:user32.obj
 0002:00006de0       ??_C@_0BD@KOKEIHOF@CloseWindowStation?$AA@ 7c69fde0     atldload:user32.obj
 0002:00006df4       ??_C@_0N@IKNGKJFJ@CloseDesktop?$AA@ 7c69fdf4     atldload:user32.obj
 0002:00006e04       ??_C@_0P@ECHHLBF@CharToOemBuffA?$AA@ 7c69fe04     atldload:user32.obj
 0002:00006e14       ??_C@_09IFPMHJPM@CharNextW?$AA@ 7c69fe14     atldload:user32.obj
 0002:00006e20       ??_C@_09JJGEMMCL@CharNextA?$AA@ 7c69fe20     atldload:user32.obj
 0002:00006e2c       ??_C@_0BJ@HFOHINJB@ChangeDisplaySettingsExW?$AA@ 7c69fe2c     atldload:user32.obj
 0002:00006e48       ??_C@_0BH@BMLCALEC@ChangeDisplaySettingsA?$AA@ 7c69fe48     atldload:user32.obj
 0002:00006e60       ??_C@_0BA@DDLFEAI@CallWindowProcW?$AA@ 7c69fe60     atldload:user32.obj
 0002:00006e70       ??_C@_0BA@BPKDOBNP@CallWindowProcA?$AA@ 7c69fe70     atldload:user32.obj
 0002:00006e80       ??_C@_0P@GDEMGIMP@CallNextHookEx?$AA@ 7c69fe80     atldload:user32.obj
 0002:00006e90       ??_C@_0L@OGFFPFBH@BeginPaint?$AA@ 7c69fe90     atldload:user32.obj
 0002:00006ea0       _c_PmapEntries_user32      7c69fea0     atldload:user32.obj
 0002:00007208       _c_Pmap_user32             7c6a0208     atldload:user32.obj
 0002:00007210       _c_OmapEntries_oleaut32    7c6a0210     atldload:oleaut32.obj
 0002:000073f8       _c_Omap_oleaut32           7c6a03f8     atldload:oleaut32.obj
 0002:00007400       ??_C@_0BE@FCDOHMHL@WriteFmtUserTypeStg?$AA@ 7c6a0400     atldload:ole32.obj
 0002:00007414       ??_C@_0O@FOKJMLEL@WriteClassStm?$AA@ 7c6a0414     atldload:ole32.obj
 0002:00007424       ??_C@_0O@KEEGCDMB@WriteClassStg?$AA@ 7c6a0424     atldload:ole32.obj
 0002:00007434       ??_C@_0BA@HEBEPDDD@StringFromGUID2?$AA@ 7c6a0434     atldload:ole32.obj
 0002:00007444       ??_C@_0BA@MMGMLOAO@StringFromCLSID?$AA@ 7c6a0444     atldload:ole32.obj
 0002:00007454       ??_C@_0BL@OMAAGLKL@StgOpenStorageOnILockBytes?$AA@ 7c6a0454     atldload:ole32.obj
 0002:00007470       ??_C@_0BB@BKNKJFEM@StgOpenStorageEx?$AA@ 7c6a0470     atldload:ole32.obj
 0002:00007484       ??_C@_0P@EHIHKBGH@StgOpenStorage?$AA@ 7c6a0484     atldload:ole32.obj
 0002:00007494       ??_C@_0BB@CMDAONJB@StgIsStorageFile?$AA@ 7c6a0494     atldload:ole32.obj
 0002:000074a8       ??_C@_0BN@HEAMIKNE@StgCreateDocfileOnILockBytes?$AA@ 7c6a04a8     atldload:ole32.obj
 0002:000074c8       ??_C@_0BB@IFCKKOAJ@StgCreateDocfile?$AA@ 7c6a04c8     atldload:ole32.obj
 0002:000074dc       ??_C@_0O@ODKMENKN@SetConvertStg?$AA@ 7c6a04dc     atldload:ole32.obj
 0002:000074ec       ??_C@_0P@FHGLBJLH@RevokeDragDrop?$AA@ 7c6a04ec     atldload:ole32.obj
 0002:000074fc       ??_C@_0BB@LFPGAPEO@ReleaseStgMedium?$AA@ 7c6a04fc     atldload:ole32.obj
 0002:00007510       ??_C@_0BB@LGBABCDD@RegisterDragDrop?$AA@ 7c6a0510     atldload:ole32.obj
 0002:00007524       ??_C@_0BD@MEHDGIEH@ReadFmtUserTypeStg?$AA@ 7c6a0524     atldload:ole32.obj
 0002:00007538       ??_C@_0N@EELHJAJA@ReadClassStm?$AA@ 7c6a0538     atldload:ole32.obj
 0002:00007548       ??_C@_0N@LOFIHIBK@ReadClassStg?$AA@ 7c6a0548     atldload:ole32.obj
 0002:00007558       ??_C@_0BA@NEHLDDIP@PropVariantCopy?$AA@ 7c6a0558     atldload:ole32.obj
 0002:00007568       ??_C@_0BB@FCIINBED@PropVariantClear?$AA@ 7c6a0568     atldload:ole32.obj
 0002:0000757c       ??_C@_0BA@JPCHEFCI@ProgIDFromCLSID?$AA@ 7c6a057c     atldload:ole32.obj
 0002:0000758c       ??_C@_0BA@NDEIKCNO@OleUninitialize?$AA@ 7c6a058c     atldload:ole32.obj
 0002:0000759c       ??_C@_0BI@IHPDDHGI@OleTranslateAccelerator?$AA@ 7c6a059c     atldload:ole32.obj
 0002:000075b4       ??_C@_0BF@PKOMHNAO@OleSetMenuDescriptor?$AA@ 7c6a05b4     atldload:ole32.obj
 0002:000075cc       ??_C@_0BG@OIOGPFBH@OleSetContainedObject?$AA@ 7c6a05cc     atldload:ole32.obj
 0002:000075e4       ??_C@_0BA@JBBJCAGB@OleSetClipboard?$AA@ 7c6a05e4     atldload:ole32.obj
 0002:000075f4       ??_C@_0BA@CINMBKIG@OleSaveToStream?$AA@ 7c6a05f4     atldload:ole32.obj
 0002:00007604       ??_C@_07MKJAOGNC@OleSave?$AA@ 7c6a0604     atldload:ole32.obj
 0002:0000760c       ??_C@_06DGHEDJLG@OleRun?$AA@ 7c6a060c     atldload:ole32.obj
 0002:00007614       ??_C@_0BC@KEGJIOBP@OleRegGetUserType?$AA@ 7c6a0614     atldload:ole32.obj
 0002:00007628       ??_C@_0BE@BGBMBJCH@OleRegGetMiscStatus?$AA@ 7c6a0628     atldload:ole32.obj
 0002:0000763c       ??_C@_0BA@PLDMFIAI@OleRegEnumVerbs?$AA@ 7c6a063c     atldload:ole32.obj
 0002:0000764c       ??_C@_0BF@NPFBOJAJ@OleQueryLinkFromData?$AA@ 7c6a064c     atldload:ole32.obj
 0002:00007664       ??_C@_0BH@HCBCFNNI@OleQueryCreateFromData?$AA@ 7c6a0664     atldload:ole32.obj
 0002:0000767c       ??_C@_0P@ICHMAEMG@OleLockRunning?$AA@ 7c6a067c     atldload:ole32.obj
 0002:0000768c       ??_C@_0BC@EMNCPHBG@OleLoadFromStream?$AA@ 7c6a068c     atldload:ole32.obj
 0002:000076a0       ??_C@_07MIINBFAG@OleLoad?$AA@ 7c6a06a0     atldload:ole32.obj
 0002:000076a8       ??_C@_0N@FOFIDKJI@OleIsRunning?$AA@ 7c6a06a8     atldload:ole32.obj
 0002:000076b8       ??_C@_0BG@FEEBNKLP@OleIsCurrentClipboard?$AA@ 7c6a06b8     atldload:ole32.obj
 0002:000076d0       ??_C@_0O@CBKGIDNG@OleInitialize?$AA@ 7c6a06d0     atldload:ole32.obj
 0002:000076e0       ??_C@_0BC@JOGBFHJM@OleGetIconOfClass?$AA@ 7c6a06e0     atldload:ole32.obj
 0002:000076f4       ??_C@_0BA@OFKHOMCN@OleGetClipboard?$AA@ 7c6a06f4     atldload:ole32.obj
 0002:00007704       ??_C@_0BC@EGPELIIP@OleFlushClipboard?$AA@ 7c6a0704     atldload:ole32.obj
 0002:00007718       ??_C@_0BB@NGPAGDJI@OleDuplicateData?$AA@ 7c6a0718     atldload:ole32.obj
 0002:0000772c       ??_C@_07DLGBJABH@OleDraw?$AA@ 7c6a072c     atldload:ole32.obj
 0002:00007734       ??_C@_0BJ@OFMKNELO@OleDestroyMenuDescriptor?$AA@ 7c6a0734     atldload:ole32.obj
 0002:00007750       ??_C@_0BI@BGHEGDCA@OleCreateStaticFromData?$AA@ 7c6a0750     atldload:ole32.obj
 0002:00007768       ??_C@_0BI@LDMOKNBF@OleCreateMenuDescriptor?$AA@ 7c6a0768     atldload:ole32.obj
 0002:00007780       ??_C@_0BE@MDJGCNDK@OleCreateLinkToFile?$AA@ 7c6a0780     atldload:ole32.obj
 0002:00007794       ??_C@_0BG@JFIHFIDG@OleCreateLinkFromData?$AA@ 7c6a0794     atldload:ole32.obj
 0002:000077ac       ??_C@_0BC@DKNJDONJ@OleCreateFromFile?$AA@ 7c6a07ac     atldload:ole32.obj
 0002:000077c0       ??_C@_0BC@PDPEHCJK@OleCreateFromData?$AA@ 7c6a07c0     atldload:ole32.obj
 0002:000077d4       ??_C@_09PLKLODNA@OleCreate?$AA@ 7c6a07d4     atldload:ole32.obj
 0002:000077e0       ??_C@_0BD@PMKLEDMH@MkParseDisplayName?$AA@ 7c6a07e0     atldload:ole32.obj
 0002:000077f4       ??_C@_0O@IOOMGKNO@IsAccelerator?$AA@ 7c6a07f4     atldload:ole32.obj
 0002:00007804       ??_C@_0BG@JMJICKGG@GetRunningObjectTable?$AA@ 7c6a0804     atldload:ole32.obj
 0002:0000781c       ??_C@_0BF@ONNBMKLH@GetHGlobalFromStream?$AA@ 7c6a081c     atldload:ole32.obj
 0002:00007834       ??_C@_0BJ@POIDIDCK@GetHGlobalFromILockBytes?$AA@ 7c6a0834     atldload:ole32.obj
 0002:00007850       ??_C@_0N@IFAIHHMO@GetClassFile?$AA@ 7c6a0850     atldload:ole32.obj
 0002:00007860       ??_C@_0BF@DHKGAAMC@FreePropVariantArray?$AA@ 7c6a0860     atldload:ole32.obj
 0002:00007878       ??_C@_0L@IHMPKEKD@DoDragDrop?$AA@ 7c6a0878     atldload:ole32.obj
 0002:00007884       ??_C@_0BG@DNLLFOBD@CreateStreamOnHGlobal?$AA@ 7c6a0884     atldload:ole32.obj
 0002:0000789c       ??_C@_0BG@COHJHCKD@CreateOleAdviseHolder?$AA@ 7c6a089c     atldload:ole32.obj
 0002:000078b4       ??_C@_0BC@IPPOKPMB@CreateItemMoniker?$AA@ 7c6a08b4     atldload:ole32.obj
 0002:000078c8       ??_C@_0BK@BMBKFBIL@CreateILockBytesOnHGlobal?$AA@ 7c6a08c8     atldload:ole32.obj
 0002:000078e4       ??_C@_0BH@CJDPCFDE@CreateGenericComposite?$AA@ 7c6a08e4     atldload:ole32.obj
 0002:000078fc       ??_C@_0BC@NPMFDAKO@CreateFileMoniker?$AA@ 7c6a08fc     atldload:ole32.obj
 0002:00007910       ??_C@_0BA@OECNGOFP@CreateDataCache?$AA@ 7c6a0910     atldload:ole32.obj
 0002:00007920       ??_C@_0BH@DNLHPAFA@CreateDataAdviseHolder?$AA@ 7c6a0920     atldload:ole32.obj
 0002:00007938       ??_C@_0BD@CNLEPMMB@CreateClassMoniker?$AA@ 7c6a0938     atldload:ole32.obj
 0002:0000794c       ??_C@_0O@BHKMJJJE@CreateBindCtx?$AA@ 7c6a094c     atldload:ole32.obj
 0002:0000795c       ??_C@_0BJ@EHKGDANL@CoWaitForMultipleHandles?$AA@ 7c6a095c     atldload:ole32.obj
 0002:00007978       ??_C@_0BF@JFFBDLH@CoUnmarshalInterface?$AA@ 7c6a0978     atldload:ole32.obj
 0002:00007990       ??_C@_0P@EGMOFMDE@CoUninitialize?$AA@ 7c6a0990     atldload:ole32.obj
 0002:000079a0       ??_C@_0P@KGMONFLD@CoTreatAsClass?$AA@ 7c6a09a0     atldload:ole32.obj
 0002:000079b0       ??_C@_0BB@GONMDNGK@CoTaskMemRealloc?$AA@ 7c6a09b0     atldload:ole32.obj
 0002:000079c4       ??_C@_0O@MIBPKJDN@CoTaskMemFree?$AA@ 7c6a09c4     atldload:ole32.obj
 0002:000079d4       ??_C@_0P@KEDKLINL@CoTaskMemAlloc?$AA@ 7c6a09d4     atldload:ole32.obj
 0002:000079e4       ??_C@_0BE@OKJCLAJD@CoSwitchCallContext?$AA@ 7c6a09e4     atldload:ole32.obj
 0002:000079f8       ??_C@_0BG@ILDEHIMB@CoSuspendClassObjects?$AA@ 7c6a09f8     atldload:ole32.obj
 0002:00007a10       ??_C@_0BC@IOEGILCE@CoSetProxyBlanket?$AA@ 7c6a0a10     atldload:ole32.obj
 0002:00007a24       ??_C@_0BE@PPIBJFGK@CoRevokeClassObject?$AA@ 7c6a0a24     atldload:ole32.obj
 0002:00007a38       ??_C@_0P@IMLFADI@CoRevertToSelf?$AA@ 7c6a0a38     atldload:ole32.obj
 0002:00007a48       ??_C@_0BF@GNEKJPCK@CoResumeClassObjects?$AA@ 7c6a0a48     atldload:ole32.obj
 0002:00007a60       ??_C@_0BF@MEKIJBIA@CoReleaseMarshalData?$AA@ 7c6a0a60     atldload:ole32.obj
 0002:00007a78       ??_C@_0BI@POCCCIDJ@CoRegisterMessageFilter?$AA@ 7c6a0a78     atldload:ole32.obj
 0002:00007a90       ??_C@_0BG@JMOEKBKL@CoRegisterClassObject?$AA@ 7c6a0a90     atldload:ole32.obj
 0002:00007aa8       ??_C@_0CG@DNMFLAOH@CoMarshalInterThreadInterfaceInS@ 7c6a0aa8     atldload:ole32.obj
 0002:00007ad0       ??_C@_0BD@BFCOEHP@CoMarshalInterface?$AA@ 7c6a0ad0     atldload:ole32.obj
 0002:00007ae4       ??_C@_0BF@KPBONONN@CoLockObjectExternal?$AA@ 7c6a0ae4     atldload:ole32.obj
 0002:00007afc       ??_C@_0BF@GDAFCOOE@CoInitializeSecurity?$AA@ 7c6a0afc     atldload:ole32.obj
 0002:00007b14       ??_C@_0P@KHOCNDJK@CoInitializeEx?$AA@ 7c6a0b14     atldload:ole32.obj
 0002:00007b24       ??_C@_0N@JGHNIJDF@CoInitialize?$AA@ 7c6a0b24     atldload:ole32.obj
 0002:00007b34       ??_C@_0BE@LENMDAB@CoImpersonateClient?$AA@ 7c6a0b34     atldload:ole32.obj
 0002:00007b48       ??_C@_0M@IEGONHPO@CoGetMalloc?$AA@ 7c6a0b48     atldload:ole32.obj
 0002:00007b54       ??_C@_0BP@JHBANKGB@CoGetInterfaceAndReleaseStream?$AA@ 7c6a0b54     atldload:ole32.obj
 0002:00007b74       ??_C@_0BB@ENIODEPL@CoGetClassObject?$AA@ 7c6a0b74     atldload:ole32.obj
 0002:00007b88       ??_C@_0BG@EHKBJGLI@CoFreeUnusedLibraries?$AA@ 7c6a0b88     atldload:ole32.obj
 0002:00007ba0       ??_C@_0O@GBDDJNFA@CoFileTimeNow?$AA@ 7c6a0ba0     atldload:ole32.obj
 0002:00007bb0       ??_C@_0BJ@HKHHLCAM@CoEnableCallCancellation?$AA@ 7c6a0bb0     atldload:ole32.obj
 0002:00007bcc       ??_C@_0BD@EOELABIH@CoDisconnectObject?$AA@ 7c6a0bcc     atldload:ole32.obj
 0002:00007be0       ??_C@_0BK@EALJABLK@CoDisableCallCancellation?$AA@ 7c6a0be0     atldload:ole32.obj
 0002:00007bfc       ??_C@_0BB@FBCNKNOO@CoCreateInstance?$AA@ 7c6a0bfc     atldload:ole32.obj
 0002:00007c10       ??_C@_0N@KNBCBJMO@CoCreateGuid?$AA@ 7c6a0c10     atldload:ole32.obj
 0002:00007c20       ??_C@_0BO@CPHBJCPF@CoCreateFreeThreadedMarshaler?$AA@ 7c6a0c20     atldload:ole32.obj
 0002:00007c40       ??_C@_0N@KDLEFCNM@CoCancelCall?$AA@ 7c6a0c40     atldload:ole32.obj
 0002:00007c50       ??_C@_0BL@EBPAFNEB@CoAllowSetForegroundWindow?$AA@ 7c6a0c50     atldload:ole32.obj
 0002:00007c6c       ??_C@_0BA@OCNJAMDG@CLSIDFromString?$AA@ 7c6a0c6c     atldload:ole32.obj
 0002:00007c7c       ??_C@_0BA@POGMPGLC@CLSIDFromProgID?$AA@ 7c6a0c7c     atldload:ole32.obj
 0002:00007c90       _c_PmapEntries_ole32       7c6a0c90     atldload:ole32.obj
 0002:00007ff8       _c_Pmap_ole32              7c6a0ff8     atldload:ole32.obj
 0002:00008000       ??_C@_0P@KLPJJNCN@SetWindowExtEx?$AA@ 7c6a1000     atldload:gdi32.obj
 0002:00008010       ??_C@_0BB@BIHJJLKF@SetViewportOrgEx?$AA@ 7c6a1010     atldload:gdi32.obj
 0002:00008024       ??_C@_0BB@LBPOFIBD@SetViewportExtEx?$AA@ 7c6a1024     atldload:gdi32.obj
 0002:00008038       ??_C@_0BE@EIEHHPAF@SetSystemPaletteUse?$AA@ 7c6a1038     atldload:gdi32.obj
 0002:0000804c       ??_C@_0L@OPKMLCME@SetMapMode?$AA@ 7c6a104c     atldload:gdi32.obj
 0002:00008058       ??_C@_0O@EJKNMEE@SelectPalette?$AA@ 7c6a1058     atldload:gdi32.obj
 0002:00008068       ??_C@_0N@PNAJBKIN@SelectObject?$AA@ 7c6a1068     atldload:gdi32.obj
 0002:00008078       ??_C@_0P@NNFKPIIE@RealizePalette?$AA@ 7c6a1078     atldload:gdi32.obj
 0002:00008088       ??_C@_0BI@IECLBLJO@GetSystemPaletteEntries?$AA@ 7c6a1088     atldload:gdi32.obj
 0002:000080a0       ??_C@_0P@OPLPICEC@GetStockObject?$AA@ 7c6a10a0     atldload:gdi32.obj
 0002:000080b0       ??_C@_0L@GKDCBFOM@GetObjectW?$AA@ 7c6a10b0     atldload:gdi32.obj
 0002:000080bc       ??_C@_0O@ECHGPMEO@GetObjectType?$AA@ 7c6a10bc     atldload:gdi32.obj
 0002:000080cc       ??_C@_0O@NKPJEFC@GetDeviceCaps?$AA@ 7c6a10cc     atldload:gdi32.obj
 0002:000080dc       ??_C@_0N@EMMNKEAC@DeleteObject?$AA@ 7c6a10dc     atldload:gdi32.obj
 0002:000080ec       ??_C@_08LKMBNHBJ@DeleteDC?$AA@ 7c6a10ec     atldload:gdi32.obj
 0002:000080f8       ??_C@_0BB@GHJHAELL@CreateSolidBrush?$AA@ 7c6a10f8     atldload:gdi32.obj
 0002:0000810c       ??_C@_0O@PIOFMFBK@CreatePalette?$AA@ 7c6a110c     atldload:gdi32.obj
 0002:0000811c       ??_C@_0BB@EAEJINNC@CreateDIBSection?$AA@ 7c6a111c     atldload:gdi32.obj
 0002:00008130       ??_C@_09FAFGKJHN@CreateDCW?$AA@ 7c6a1130     atldload:gdi32.obj
 0002:0000813c       ??_C@_0BD@GAEMADDD@CreateCompatibleDC?$AA@ 7c6a113c     atldload:gdi32.obj
 0002:00008150       ??_C@_0BH@JHHFCKBN@CreateCompatibleBitmap?$AA@ 7c6a1150     atldload:gdi32.obj
 0002:00008168       ??_C@_06KJCNECEM@BitBlt?$AA@ 7c6a1168     atldload:gdi32.obj
 0002:00008170       _c_PmapEntries_gdi32       7c6a1170     atldload:gdi32.obj
 0002:00008220       _c_Pmap_gdi32              7c6a1220     atldload:gdi32.obj
 0002:00008228       ??_C@_0P@ECFJFPAL@SetThreadToken?$AA@ 7c6a1228     atldload:advapi.obj
 0002:00008238       ??_C@_0BB@OAMPIGBG@SetFileSecurityW?$AA@ 7c6a1238     atldload:advapi.obj
 0002:0000824c       ??_C@_0BB@PMFHDDMB@SetFileSecurityA?$AA@ 7c6a124c     atldload:advapi.obj
 0002:00008260       ??_C@_0N@NBKDDPIG@RevertToSelf?$AA@ 7c6a1260     atldload:advapi.obj
 0002:00008270       ??_C@_0N@OGEMJOHI@ReportEventW?$AA@ 7c6a1270     atldload:advapi.obj
 0002:00008280       ??_C@_0BF@FNOHIELI@RegisterEventSourceW?$AA@ 7c6a1280     atldload:advapi.obj
 0002:00008298       ??_C@_0N@EOGMNOG@RegSetValueW?$AA@ 7c6a1298     atldload:advapi.obj
 0002:000082a8       ??_C@_0P@LIPJIDOO@RegSetValueExW?$AA@ 7c6a12a8     atldload:advapi.obj
 0002:000082b8       ??_C@_0P@KEGBDGDJ@RegSetValueExA?$AA@ 7c6a12b8     atldload:advapi.obj
 0002:000082c8       ??_C@_0N@BIHOHIDB@RegSetValueA?$AA@ 7c6a12c8     atldload:advapi.obj
 0002:000082d8       ??_C@_0P@DPIKNKDP@RegQueryValueW?$AA@ 7c6a12d8     atldload:advapi.obj
 0002:000082e8       ??_C@_0BB@GLNAEDBD@RegQueryValueExW?$AA@ 7c6a12e8     atldload:advapi.obj
 0002:000082fc       ??_C@_0BB@HHEIPGME@RegQueryValueExA?$AA@ 7c6a12fc     atldload:advapi.obj
 0002:00008310       ??_C@_0P@CDBCGPOI@RegQueryValueA?$AA@ 7c6a1310     atldload:advapi.obj
 0002:00008320       ??_C@_0BB@BILFPGMA@RegQueryInfoKeyW?$AA@ 7c6a1320     atldload:advapi.obj
 0002:00008334       ??_C@_0M@INNIHOHL@RegOpenKeyW?$AA@ 7c6a1334     atldload:advapi.obj
 0002:00008340       ??_C@_0O@COHOBMLB@RegOpenKeyExW?$AA@ 7c6a1340     atldload:advapi.obj
 0002:00008350       ??_C@_0O@DCOGKJGG@RegOpenKeyExA?$AA@ 7c6a1350     atldload:advapi.obj
 0002:00008360       ??_C@_0M@JBEAMLKM@RegOpenKeyA?$AA@ 7c6a1360     atldload:advapi.obj
 0002:0000836c       ??_C@_0BI@ILHBFDHH@RegNotifyChangeKeyValue?$AA@ 7c6a136c     atldload:advapi.obj
 0002:00008384       ??_C@_0O@GLENPJE@RegEnumValueW?$AA@ 7c6a1384     atldload:advapi.obj
 0002:00008394       ??_C@_0M@JAINDJJM@RegEnumKeyW?$AA@ 7c6a1394     atldload:advapi.obj
 0002:000083a0       ??_C@_0O@NHPJLAPM@RegEnumKeyExW?$AA@ 7c6a13a0     atldload:advapi.obj
 0002:000083b0       ??_C@_0M@IMBFIMEL@RegEnumKeyA?$AA@ 7c6a13b0     atldload:advapi.obj
 0002:000083bc       ??_C@_0BA@GJPNJIAM@RegDeleteValueW?$AA@ 7c6a13bc     atldload:advapi.obj
 0002:000083cc       ??_C@_0BA@HFGFCNNL@RegDeleteValueA?$AA@ 7c6a13cc     atldload:advapi.obj
 0002:000083dc       ??_C@_0O@BJCLIAAA@RegDeleteKeyW?$AA@ 7c6a13dc     atldload:advapi.obj
 0002:000083ec       ??_C@_0O@FLDDFNH@RegDeleteKeyA?$AA@ 7c6a13ec     atldload:advapi.obj
 0002:000083fc       ??_C@_0O@NNILLHLD@RegCreateKeyW?$AA@ 7c6a13fc     atldload:advapi.obj
 0002:0000840c       ??_C@_0BA@MPOFGLLA@RegCreateKeyExW?$AA@ 7c6a140c     atldload:advapi.obj
 0002:0000841c       ??_C@_0BA@NDHNNOGH@RegCreateKeyExA?$AA@ 7c6a141c     atldload:advapi.obj
 0002:0000842c       ??_C@_0O@MBBDACGE@RegCreateKeyA?$AA@ 7c6a142c     atldload:advapi.obj
 0002:0000843c       ??_C@_0M@HLOHPNFA@RegCloseKey?$AA@ 7c6a143c     atldload:advapi.obj
 0002:00008448       ??_C@_0BD@PMIABNOP@QueryServiceStatus?$AA@ 7c6a1448     atldload:advapi.obj
 0002:0000845c       ??_C@_0BA@MOEFBCGC@OpenThreadToken?$AA@ 7c6a145c     atldload:advapi.obj
 0002:0000846c       ??_C@_0BB@EANJDCJP@OpenProcessToken?$AA@ 7c6a146c     atldload:advapi.obj
 0002:00008480       ??_C@_0BG@JCADCCGO@LookupPrivilegeValueW?$AA@ 7c6a1480     atldload:advapi.obj
 0002:00008498       ??_C@_0BG@IOJLJHLJ@LookupPrivilegeValueA?$AA@ 7c6a1498     atldload:advapi.obj
 0002:000084b0       ??_C@_0O@JDINBACB@IsTextUnicode?$AA@ 7c6a14b0     atldload:advapi.obj
 0002:000084c0       ??_C@_0N@FIDKBBEB@GetUserNameW?$AA@ 7c6a14c0     atldload:advapi.obj
 0002:000084d0       ??_C@_0BE@JIDLIKOL@GetTokenInformation?$AA@ 7c6a14d0     atldload:advapi.obj
 0002:000084e4       ??_C@_0BB@IEJGDIKE@GetFileSecurityW?$AA@ 7c6a14e4     atldload:advapi.obj
 0002:000084f8       ??_C@_0BB@JIAOINHD@GetFileSecurityA?$AA@ 7c6a14f8     atldload:advapi.obj
 0002:0000850c       ??_C@_07JIBMLCGK@FreeSid?$AA@ 7c6a150c     atldload:advapi.obj
 0002:00008514       ??_C@_0BG@LPHFFLAA@DeregisterEventSource?$AA@ 7c6a1514     atldload:advapi.obj
 0002:0000852c       ??_C@_0BE@FBIJLPPP@CryptReleaseContext?$AA@ 7c6a152c     atldload:advapi.obj
 0002:00008540       ??_C@_0O@DAIMODJH@CryptHashData?$AA@ 7c6a1540     atldload:advapi.obj
 0002:00008550       ??_C@_0BC@BNEOPJAJ@CryptGetHashParam?$AA@ 7c6a1550     atldload:advapi.obj
 0002:00008564       ??_C@_0P@PLHBLCCF@CryptExportKey?$AA@ 7c6a1564     atldload:advapi.obj
 0002:00008574       ??_C@_0BA@FJKBDIMN@CryptDestroyKey?$AA@ 7c6a1574     atldload:advapi.obj
 0002:00008584       ??_C@_0BB@INPNJGML@CryptDestroyHash?$AA@ 7c6a1584     atldload:advapi.obj
 0002:00008598       ??_C@_0BA@IEJOIHIJ@CryptCreateHash?$AA@ 7c6a1598     atldload:advapi.obj
 0002:000085a8       ??_C@_0BF@JHHBLAOM@CryptAcquireContextW?$AA@ 7c6a15a8     atldload:advapi.obj
 0002:000085c0       ??_C@_0BF@KEDGKLKA@CheckTokenMembership?$AA@ 7c6a15c0     atldload:advapi.obj
 0002:000085d8       ??_C@_0BJ@ECIKFEOL@AllocateAndInitializeSid?$AA@ 7c6a15d8     atldload:advapi.obj
 0002:000085f4       ??_C@_0BG@CGCLCMLG@AdjustTokenPrivileges?$AA@ 7c6a15f4     atldload:advapi.obj
 0002:00008610       _c_PmapEntries_advapi32    7c6a1610     atldload:advapi.obj
 0002:000087d0       _c_Pmap_advapi32           7c6a17d0     atldload:advapi.obj
 0002:000087e0       __sz_ole32_dll             7c6a17e0     ole32:ole32.dll
 0002:000087f0       __sz_OLEAUT32_dll          7c6a17f0     oleaut32:OLEAUT32.dll
 0002:00008800       __sz_ADVAPI32_dll          7c6a1800     advapi32:ADVAPI32.dll
 0002:00008810       __sz_USER32_dll            7c6a1810     user32:USER32.dll
 0002:00008820       __sz_GDI32_dll             7c6a1820     gdi32:GDI32.dll
 0002:00009168       ??_C@_1GM@OMLOBEGL@?$AAf?$AA?3?$AA?2?$AAd?$AAd?$AA?2?$AAv?$AAc?$AAt?$AAo?$AAo?$AAl?$AAs?$AA?2?$AAv?$AAc?$AA7?$AAl?$AAi?$AAb?$AAs?$AA?2?$AAs?$AAh?$AAi?$AAp?$AA?2?$AAa?$AAt?$AAl?$AAm?$AAf@ 7c6a2168     atlsd:Externs.obj
 0002:000091d4       ??_C@_0DG@BLHODJEO@f?3?2dd?2vctools?2vc7libs?2ship?2atlmf@ 7c6a21d4     atlsd:Externs.obj
 0002:0000a548       ??_C@_1HA@EFGOBFOA@?$AAf?$AA?3?$AA?2?$AAd?$AAd?$AA?2?$AAv?$AAc?$AAt?$AAo?$AAo?$AAl?$AAs?$AA?2?$AAv?$AAc?$AA7?$AAl?$AAi?$AAb?$AAs?$AA?2?$AAs?$AAh?$AAi?$AAp?$AA?2?$AAa?$AAt?$AAl?$AAm?$AAf@ 7c6a3548     atlsd:AtlDebugAPI.obj
 0002:0000a5b8       ??_C@_1GI@CLJCGCPP@?$AAf?$AA?3?$AA?2?$AAd?$AAd?$AA?2?$AAv?$AAc?$AAt?$AAo?$AAo?$AAl?$AAs?$AA?2?$AAv?$AAc?$AA7?$AAl?$AAi?$AAb?$AAs?$AA?2?$AAs?$AAh?$AAi?$AAp?$AA?2?$AAa?$AAt?$AAl?$AAm?$AAf@ 7c6a35b8     atlsd:AtlDebugAPI.obj
 0002:0000a620       _GUID_ATLVer30             7c6a3620     atlsd:atlbase.obj
 0002:0000a630       _GUID_ATLVer70             7c6a3630     atlsd:atlbase.obj
 0002:0000ada8       ??_C@_1GI@HPMIGMAH@?$AAf?$AA?3?$AA?2?$AAd?$AAd?$AA?2?$AAv?$AAc?$AAt?$AAo?$AAo?$AAl?$AAs?$AA?2?$AAv?$AAc?$AA7?$AAl?$AAi?$AAb?$AAs?$AA?2?$AAs?$AAh?$AAi?$AAp?$AA?2?$AAa?$AAt?$AAl?$AAm?$AAf@ 7c6a3da8     atlsd:atlbase.obj
 0002:0000b830       ??_C@_1IO@GJLKCBCE@?$AAf?$AA?3?$AA?2?$AAd?$AAd?$AA?2?$AAv?$AAc?$AAt?$AAo?$AAo?$AAl?$AAs?$AA?2?$AAv?$AAc?$AA7?$AAl?$AAi?$AAb?$AAs?$AA?2?$AAs?$AAh?$AAi?$AAp?$AA?2?$AAa?$AAt?$AAl?$AAm?$AAf@ 7c6a4830     atlsd:Allocate.obj
 0002:0000b8c0       ??_C@_1BK@GFEAMNLJ@?$AAn?$AAC?$AAo?$AAo?$AAk?$AAi?$AAe?$AA?5?$AA?$CB?$AA?$DN?$AA?5?$AA0?$AA?$AA@ 7c6a48c0     atlsd:Allocate.obj
 0002:0000ca88       ??_C@_1GM@HJGNLPJ@?$AAf?$AA?3?$AA?2?$AAd?$AAd?$AA?2?$AAv?$AAc?$AAt?$AAo?$AAo?$AAl?$AAs?$AA?2?$AAv?$AAc?$AA7?$AAl?$AAi?$AAb?$AAs?$AA?2?$AAs?$AAh?$AAi?$AAp?$AA?2?$AAa?$AAt?$AAl?$AAm?$AAf@ 7c6a5a88     atlsd:atlfuncs.obj
 0002:0000caf4       ??_C@_1BG@NDCBABF@?$AAd?$AAb?$AAg?$AAd?$AAe?$AAl?$AA?4?$AAc?$AAp?$AAp?$AA?$AA@ 7c6a5af4     libcmtd:dbgdel.obj
 0002:0000cb10       ??_C@_1EO@LHDAJOCM@?$AA_?$AAB?$AAL?$AAO?$AAC?$AAK?$AA_?$AAT?$AAY?$AAP?$AAE?$AA_?$AAI?$AAS?$AA_?$AAV?$AAA?$AAL?$AAI?$AAD?$AA?$CI?$AAp?$AAH?$AAe?$AAa?$AAd?$AA?9?$AA?$DO?$AAn?$AAB?$AAl?$AAo@ 7c6a5b10     libcmtd:dbgdel.obj
 0002:0000cb60       ??_C@_17LGKOMLJ@?$AA?4?$AA?4?$AA?4?$AA?$AA@ 7c6a5b60     libcmtd:dbgrptw.obj
 0002:0000cb68       ??_C@_1CC@CGHMNGDG@?$AAA?$AAs?$AAs?$AAe?$AAr?$AAt?$AAi?$AAo?$AAn?$AA?5?$AAF?$AAa?$AAi?$AAl?$AAe?$AAd?$AA?$AA@ 7c6a5b68     libcmtd:dbgrptw.obj
 0002:0000cb8c       ??_C@_1M@ILHOPKA@?$AAE?$AAr?$AAr?$AAo?$AAr?$AA?$AA@ 7c6a5b8c     libcmtd:dbgrptw.obj
 0002:0000cb98       ??_C@_1BA@GLMCNLEM@?$AAW?$AAa?$AAr?$AAn?$AAi?$AAn?$AAg?$AA?$AA@ 7c6a5b98     libcmtd:dbgrptw.obj
 0002:0000cba8       ?ProcessDetach@NativeDll@<CrtImplementationDetails>@@0IB 7c6a5ba8     libcmtd:dbgrptw.obj
 0002:0000cbac       ?ProcessAttach@NativeDll@<CrtImplementationDetails>@@0IB 7c6a5bac     libcmtd:dbgrptw.obj
 0002:0000cbb0       ?ThreadAttach@NativeDll@<CrtImplementationDetails>@@0IB 7c6a5bb0     libcmtd:dbgrptw.obj
 0002:0000cbb4       ?ThreadDetach@NativeDll@<CrtImplementationDetails>@@0IB 7c6a5bb4     libcmtd:dbgrptw.obj
 0002:0000cbb8       ?ProcessVerifier@NativeDll@<CrtImplementationDetails>@@0IB 7c6a5bb8     libcmtd:dbgrptw.obj
 0002:0000cbbc       ??_C@_0DA@PCCBBBID@f?3?2dd?2vctools?2crt_bld?2self_x86?2c@ 7c6a5bbc     libcmtd:dbgrptw.obj
 0002:0000cbf0       ??_C@_1FI@PHIAFFHM@?$AA?$CI?$AA?$CC?$AAT?$AAh?$AAe?$AA?5?$AAh?$AAo?$AAo?$AAk?$AA?5?$AAf?$AAu?$AAn?$AAc?$AAt?$AAi?$AAo?$AAn?$AA?5?$AAi?$AAs?$AA?5?$AAn?$AAo?$AAt?$AA?5?$AAi?$AAn?$AA?5?$AAt?$AAh@ 7c6a5bf0     libcmtd:dbgrptw.obj
 0002:0000cc48       ??_C@_1CG@JBJEFOCM@?$AAp?$AAf?$AAn?$AAN?$AAe?$AAw?$AAH?$AAo?$AAo?$AAk?$AA?5?$AA?$CB?$AA?$DN?$AA?5?$AAN?$AAU?$AAL?$AAL?$AA?$AA@ 7c6a5c48     libcmtd:dbgrptw.obj
 0002:0000cc70       ??_C@_1CI@IIHEAKEI@?$AA_?$AAC?$AAr?$AAt?$AAS?$AAe?$AAt?$AAR?$AAe?$AAp?$AAo?$AAr?$AAt?$AAH?$AAo?$AAo?$AAk?$AAW?$AA2?$AA?$AA@ 7c6a5c70     libcmtd:dbgrptw.obj
 0002:0000cc98       ??_C@_1GA@IBJGKIFE@?$AAf?$AA?3?$AA?2?$AAd?$AAd?$AA?2?$AAv?$AAc?$AAt?$AAo?$AAo?$AAl?$AAs?$AA?2?$AAc?$AAr?$AAt?$AA_?$AAb?$AAl?$AAd?$AA?2?$AAs?$AAe?$AAl?$AAf?$AA_?$AAx?$AA8?$AA6?$AA?2?$AAc@ 7c6a5c98     libcmtd:dbgrptw.obj
 0002:0000ccf8       ??_C@_1HI@OFEHGPPC@?$AAm?$AAo?$AAd?$AAe?$AA?5?$AA?$DN?$AA?$DN?$AA?5?$AA_?$AAC?$AAR?$AAT?$AA_?$AAR?$AAP?$AAT?$AAH?$AAO?$AAO?$AAK?$AA_?$AAI?$AAN?$AAS?$AAT?$AAA?$AAL?$AAL?$AA?5?$AA?$HM?$AA?$HM?$AA?5@ 7c6a5cf8     libcmtd:dbgrptw.obj
 0002:0000cd70       ??_C@_0DP@GNPEPHJD@_CrtDbgReport?3?5String?5too?5long?5o@ 7c6a5d70     libcmtd:dbgrptw.obj
 0002:0000cdb0       ??_C@_1LI@CIHKNEBA@?$AAs?$AAt?$AAr?$AAc?$AAp?$AAy?$AA_?$AAs?$AA?$CI?$AAs?$AAz?$AAa?$AAF?$AAo?$AAr?$AAm?$AAa?$AAt?$AA?0?$AA?5?$AA4?$AA0?$AA9?$AA6?$AA?0?$AA?5?$AA?$CC?$AA_?$AAC?$AAr?$AAt?$AAD@ 7c6a5db0     libcmtd:dbgrptw.obj
 0002:0000ce68       ??_C@_1GO@BIBJILHL@?$AAw?$AAc?$AAs?$AAt?$AAo?$AAm?$AAb?$AAs?$AA_?$AAs?$AA?$CI?$AA0?$AA?0?$AA?5?$AAs?$AAz?$AAa?$AAF?$AAo?$AAr?$AAm?$AAa?$AAt?$AA?0?$AA?5?$AA4?$AA0?$AA9?$AA6?$AA?0?$AA?5?$AAs@ 7c6a5e68     libcmtd:dbgrptw.obj
 0002:0000ced8       ??_C@_1IK@NOIOPCJD@?$AAs?$AAt?$AAr?$AAc?$AAp?$AAy?$AA_?$AAs?$AA?$CI?$AAs?$AAz?$AAa?$AAM?$AAo?$AAd?$AAu?$AAl?$AAe?$AA?0?$AA?5?$AA4?$AA0?$AA9?$AA6?$AA?0?$AA?5?$AA?$CC?$AAE?$AAx?$AAp?$AAr?$AAe@ 7c6a5ed8     libcmtd:dbgrptw.obj
 0002:0000cf68       ??_C@_1GO@EIJIKMJN@?$AAw?$AAc?$AAs?$AAt?$AAo?$AAm?$AAb?$AAs?$AA_?$AAs?$AA?$CI?$AA0?$AA?0?$AA?5?$AAs?$AAz?$AAa?$AAM?$AAo?$AAd?$AAu?$AAl?$AAe?$AA?0?$AA?5?$AA4?$AA0?$AA9?$AA6?$AA?0?$AA?5?$AAs@ 7c6a5f68     libcmtd:dbgrptw.obj
 0002:0000cfd8       ??_C@_0CI@FDIHEIE@Expression?5cannot?5be?5displayed?5o@ 7c6a5fd8     libcmtd:dbgrptw.obj
 0002:0000d000       ??_C@_1IG@KNLLJKPP@?$AAs?$AAt?$AAr?$AAc?$AAp?$AAy?$AA_?$AAs?$AA?$CI?$AAs?$AAz?$AAa?$AAF?$AAi?$AAl?$AAe?$AA?0?$AA?5?$AA4?$AA0?$AA9?$AA6?$AA?0?$AA?5?$AA?$CC?$AAE?$AAx?$AAp?$AAr?$AAe?$AAs?$AAs@ 7c6a6000     libcmtd:dbgrptw.obj
 0002:0000d088       ??_C@_03KHICJKCI@?4?4?4?$AA@ 7c6a6088     libcmtd:dbgrptw.obj
 0002:0000d08c       ??_C@_1DO@CNMELOIB@?$AAs?$AAt?$AAr?$AAc?$AAa?$AAt?$AA_?$AAs?$AA?$CI?$AAs?$AAz?$AAa?$AAF?$AAi?$AAl?$AAe?$AA?0?$AA?5?$AA4?$AA0?$AA9?$AA6?$AA?0?$AA?5?$AA?$CC?$AA?4?$AA?4?$AA?4?$AA?$CC?$AA?$CJ?$AA?$AA@ 7c6a608c     libcmtd:dbgrptw.obj
 0002:0000d0d0       ??_C@_1GG@OHDJJHOI@?$AAw?$AAc?$AAs?$AAt?$AAo?$AAm?$AAb?$AAs?$AA_?$AAs?$AA?$CI?$AA0?$AA?0?$AA?5?$AAs?$AAz?$AAa?$AAF?$AAi?$AAl?$AAe?$AA?0?$AA?5?$AA4?$AA0?$AA9?$AA6?$AA?0?$AA?5?$AAs?$AAz?$AAF@ 7c6a60d0     libcmtd:dbgrptw.obj
 0002:0000d138       ??_C@_1DK@NLBDKACM@?$AA_?$AAg?$AAe?$AAt?$AA_?$AAo?$AAs?$AAp?$AAl?$AAa?$AAt?$AAf?$AAo?$AAr?$AAm?$AA?$CI?$AA?$CG?$AAo?$AAs?$AAp?$AAl?$AAa?$AAt?$AAf?$AAo?$AAr?$AAm?$AA?$CJ?$AA?$AA@ 7c6a6138     libcmtd:dbgrptw.obj
 0002:0000d174       ??_C@_1CA@KLAOOAPJ@?$AA_?$AAC?$AAr?$AAt?$AAD?$AAb?$AAg?$AAR?$AAe?$AAp?$AAo?$AAr?$AAt?$AAW?$AAV?$AA?$AA@ 7c6a6174     libcmtd:dbgrptw.obj
 0002:0000d198       ??_C@_1EG@PEOEAKBB@?$AAM?$AAi?$AAc?$AAr?$AAo?$AAs?$AAo?$AAf?$AAt?$AA?5?$AAV?$AAi?$AAs?$AAu?$AAa?$AAl?$AA?5?$AAC?$AA?$CL?$AA?$CL?$AA?5?$AAD?$AAe?$AAb?$AAu?$AAg?$AA?5?$AAL?$AAi?$AAb?$AAr?$AAa@ 7c6a6198     libcmtd:dbgrptw.obj
 0002:0000d1e0       ??_C@_1FG@BBOLDHGF@?$AA_?$AAC?$AAr?$AAt?$AAD?$AAb?$AAg?$AAR?$AAe?$AAp?$AAo?$AAr?$AAt?$AA?3?$AA?5?$AAS?$AAt?$AAr?$AAi?$AAn?$AAg?$AA?5?$AAt?$AAo?$AAo?$AA?5?$AAl?$AAo?$AAn?$AAg?$AA?5?$AAo@ 7c6a61e0     libcmtd:dbgrptw.obj
 0002:0000d238       ??_C@_1JI@EACPGHID@?$AAw?$AAc?$AAs?$AAc?$AAp?$AAy?$AA_?$AAs?$AA?$CI?$AAs?$AAz?$AAO?$AAu?$AAt?$AAM?$AAe?$AAs?$AAs?$AAa?$AAg?$AAe?$AA?0?$AA?5?$AA4?$AA0?$AA9?$AA6?$AA?0?$AA?5?$AAL?$AA?$CC?$AA_@ 7c6a6238     libcmtd:dbgrptw.obj
 0002:0000d2d0       ??_C@_1BI@KALLJECN@?$AA?$CI?$AA?$CK?$AA_?$AAe?$AAr?$AAr?$AAn?$AAo?$AA?$CI?$AA?$CJ?$AA?$CJ?$AA?$AA@ 7c6a62d0     libcmtd:dbgrptw.obj
 0002:0000d2e8       ??_C@_1KK@MEFMPOLM@?$AAD?$AAe?$AAb?$AAu?$AAg?$AA?5?$AA?$CF?$AAs?$AA?$CB?$AA?6?$AA?6?$AAP?$AAr?$AAo?$AAg?$AAr?$AAa?$AAm?$AA?3?$AA?5?$AA?$CF?$AAs?$AA?$CF?$AAs?$AA?$CF?$AAs?$AA?$CF?$AAs?$AA?$CF?$AAs?$AA?$CF?$AAs@ 7c6a62e8     libcmtd:dbgrptw.obj
 0002:0000d394       ??_C@_1BE@CGCJKGHI@?$AA?6?$AAM?$AAo?$AAd?$AAu?$AAl?$AAe?$AA?3?$AA?5?$AA?$AA@ 7c6a6394     libcmtd:dbgrptw.obj
 0002:0000d3a8       ??_C@_1BA@LNHECFIM@?$AA?6?$AAF?$AAi?$AAl?$AAe?$AA?3?$AA?5?$AA?$AA@ 7c6a63a8     libcmtd:dbgrptw.obj
 0002:0000d3b8       ??_C@_1BA@GLLGCPCK@?$AA?6?$AAL?$AAi?$AAn?$AAe?$AA?3?$AA?5?$AA?$AA@ 7c6a63b8     libcmtd:dbgrptw.obj
 0002:0000d3c8       ??_C@_15IABLJNFO@?$AA?6?$AA?6?$AA?$AA@ 7c6a63c8     libcmtd:dbgrptw.obj
 0002:0000d3d0       ??_C@_1BK@PEDCIPMA@?$AAE?$AAx?$AAp?$AAr?$AAe?$AAs?$AAs?$AAi?$AAo?$AAn?$AA?3?$AA?5?$AA?$AA@ 7c6a63d0     libcmtd:dbgrptw.obj
 0002:0000d3f0       ??_C@_1OG@PMPPFHAF@?$AA?6?$AA?6?$AAF?$AAo?$AAr?$AA?5?$AAi?$AAn?$AAf?$AAo?$AAr?$AAm?$AAa?$AAt?$AAi?$AAo?$AAn?$AA?5?$AAo?$AAn?$AA?5?$AAh?$AAo?$AAw?$AA?5?$AAy?$AAo?$AAu?$AAr?$AA?5?$AAp?$AAr@ 7c6a63f0     libcmtd:dbgrptw.obj
 0002:0000d4d8       ??_C@_1JM@GKDPCMEA@?$AAw?$AAc?$AAs?$AAn?$AAc?$AAp?$AAy?$AA_?$AAs?$AA?$CI?$AAs?$AAz?$AAS?$AAh?$AAo?$AAr?$AAt?$AAP?$AAr?$AAo?$AAg?$AAN?$AAa?$AAm?$AAe?$AA?0?$AA?5?$AA2?$AA6?$AA0?$AA?5?$AA?9@ 7c6a64d8     libcmtd:dbgrptw.obj
 0002:0000d574       ??_C@_1CO@EAEJAADC@?$AA?$DM?$AAp?$AAr?$AAo?$AAg?$AAr?$AAa?$AAm?$AA?5?$AAn?$AAa?$AAm?$AAe?$AA?5?$AAu?$AAn?$AAk?$AAn?$AAo?$AAw?$AAn?$AA?$DO?$AA?$AA@ 7c6a6574     libcmtd:dbgrptw.obj
 0002:0000d5a8       ??_C@_1GI@DEDNNLCI@?$AAw?$AAc?$AAs?$AAc?$AAp?$AAy?$AA_?$AAs?$AA?$CI?$AAs?$AAz?$AAE?$AAx?$AAe?$AAN?$AAa?$AAm?$AAe?$AA?0?$AA?5?$AA2?$AA6?$AA0?$AA?0?$AA?5?$AAL?$AA?$CC?$AA?$DM?$AAp?$AAr?$AAo?$AAg@ 7c6a65a8     libcmtd:dbgrptw.obj
 0002:0000d610       ??_C@_1CI@PGJIFDEK@?$AA_?$AA_?$AAc?$AAr?$AAt?$AAM?$AAe?$AAs?$AAs?$AAa?$AAg?$AAe?$AAW?$AAi?$AAn?$AAd?$AAo?$AAw?$AAW?$AA?$AA@ 7c6a6610     libcmtd:dbgrptw.obj
 0002:0000d638       ??_C@_06PJIGMIJB@Client?$AA@ 7c6a6638     libcmtd:dbgheap.obj
 0002:0000d640       ??_C@_06KMEJCCGM@Ignore?$AA@ 7c6a6640     libcmtd:dbgheap.obj
 0002:0000d648       ??_C@_03OGPFLFLO@CRT?$AA@  7c6a6648     libcmtd:dbgheap.obj
 0002:0000d64c       ??_C@_06EFAGIKOH@Normal?$AA@ 7c6a664c     libcmtd:dbgheap.obj
 0002:0000d654       ??_C@_04HJMOFLDF@Free?$AA@ 7c6a6654     libcmtd:dbgheap.obj
 0002:0000d670       ??_C@_0DC@JEMAGEKG@Error?3?5memory?5allocation?3?5bad?5me@ 7c6a6670     libcmtd:dbgheap.obj
 0002:0000d6a4       ??_C@_0CF@BICKFLAF@Invalid?5allocation?5size?3?5?$CFIu?5byt@ 7c6a66a4     libcmtd:dbgheap.obj
 0002:0000d6cc       ??_C@_02DKCKIIND@?$CFs?$AA@ 7c6a66cc     libcmtd:dbgheap.obj
 0002:0000d6d0       ??_C@_0CB@CCLOLAHO@Client?5hook?5allocation?5failure?4?6@ 7c6a66d0     libcmtd:dbgheap.obj
 0002:0000d6f4       ??_C@_0DF@BBEGIFEK@Client?5hook?5allocation?5failure?5a@ 7c6a66f4     libcmtd:dbgheap.obj
 0002:0000d72c       ??_C@_1BE@DOFBOBGF@?$AAd?$AAb?$AAg?$AAh?$AAe?$AAa?$AAp?$AA?4?$AAc?$AA?$AA@ 7c6a672c     libcmtd:dbgheap.obj
 0002:0000d740       ??_C@_1CE@LJFEPPMP@?$AA_?$AAC?$AAr?$AAt?$AAC?$AAh?$AAe?$AAc?$AAk?$AAM?$AAe?$AAm?$AAo?$AAr?$AAy?$AA?$CI?$AA?$CJ?$AA?$AA@ 7c6a6740     libcmtd:dbgheap.obj
 0002:0000d764       ??_C@_1BI@MIPBBENM@?$AA_?$AAc?$AAa?$AAl?$AAl?$AAo?$AAc?$AA_?$AAd?$AAb?$AAg?$AA?$AA@ 7c6a6764     libcmtd:dbgheap.obj
 0002:0000d77c       ??_C@_1DO@MEOGCGBN@?$AA?$CI?$AA_?$AAH?$AAE?$AAA?$AAP?$AA_?$AAM?$AAA?$AAX?$AAR?$AAE?$AAQ?$AA?5?$AA?1?$AA?5?$AAn?$AAN?$AAu?$AAm?$AA?$CJ?$AA?5?$AA?$DO?$AA?$DN?$AA?5?$AAn?$AAS?$AAi?$AAz?$AAe?$AA?$AA@ 7c6a677c     libcmtd:dbgheap.obj
 0002:0000d7bc       ??_C@_1DE@KOOKLFBB@?$AA_?$AAp?$AAF?$AAi?$AAr?$AAs?$AAt?$AAB?$AAl?$AAo?$AAc?$AAk?$AA?5?$AA?$DN?$AA?$DN?$AA?5?$AAp?$AAO?$AAl?$AAd?$AAB?$AAl?$AAo?$AAc?$AAk?$AA?$AA@ 7c6a67bc     libcmtd:dbgheap.obj
 0002:0000d7f0       ??_C@_1DC@GEFKNOOL@?$AA_?$AAp?$AAL?$AAa?$AAs?$AAt?$AAB?$AAl?$AAo?$AAc?$AAk?$AA?5?$AA?$DN?$AA?$DN?$AA?5?$AAp?$AAO?$AAl?$AAd?$AAB?$AAl?$AAo?$AAc?$AAk?$AA?$AA@ 7c6a67f0     libcmtd:dbgheap.obj
 0002:0000d828       ??_C@_1GE@PCKLOLAO@?$AAf?$AAR?$AAe?$AAa?$AAl?$AAl?$AAo?$AAc?$AA?5?$AA?$HM?$AA?$HM?$AA?5?$AA?$CI?$AA?$CB?$AAf?$AAR?$AAe?$AAa?$AAl?$AAl?$AAo?$AAc?$AA?5?$AA?$CG?$AA?$CG?$AA?5?$AAp?$AAN?$AAe?$AAw?$AAB?$AAl@ 7c6a6828     libcmtd:dbgheap.obj
 0002:0000d890       ??_C@_1IK@DCPKDGNH@?$AAp?$AAO?$AAl?$AAd?$AAB?$AAl?$AAo?$AAc?$AAk?$AA?9?$AA?$DO?$AAn?$AAL?$AAi?$AAn?$AAe?$AA?5?$AA?$DN?$AA?$DN?$AA?5?$AAI?$AAG?$AAN?$AAO?$AAR?$AAE?$AA_?$AAL?$AAI?$AAN?$AAE?$AA?5@ 7c6a6890     libcmtd:dbgheap.obj
 0002:0000d920       ??_C@_1EE@GFOPCECE@?$AA_?$AAC?$AAr?$AAt?$AAI?$AAs?$AAV?$AAa?$AAl?$AAi?$AAd?$AAH?$AAe?$AAa?$AAp?$AAP?$AAo?$AAi?$AAn?$AAt?$AAe?$AAr?$AA?$CI?$AAp?$AAU?$AAs?$AAe?$AAr?$AAD?$AAa?$AAt?$AAa@ 7c6a6920     libcmtd:dbgheap.obj
 0002:0000d968       ??_C@_0EM@LGFLMAGJ@The?5Block?5at?50x?$CFp?5was?5allocated?5@ 7c6a6968     libcmtd:dbgheap.obj
 0002:0000d9b8       ??_C@_0FA@EFEIGJKG@Error?3?5memory?5allocation?3?5bad?5me@ 7c6a69b8     libcmtd:dbgheap.obj
 0002:0000da08       ??_C@_0ED@GPCPBAGP@Invalid?5allocation?5size?3?5?$CFIu?5byt@ 7c6a6a08     libcmtd:dbgheap.obj
 0002:0000da4c       ??_C@_0CE@DOFMDOL@Client?5hook?5re?9allocation?5failur@ 7c6a6a4c     libcmtd:dbgheap.obj
 0002:0000da70       ??_C@_0DI@KKJPDPGM@Client?5hook?5re?9allocation?5failur@ 7c6a6a70     libcmtd:dbgheap.obj
 0002:0000daa8       ??_C@_1BM@OKFKJCEN@?$AA_?$AAr?$AAe?$AAc?$AAa?$AAl?$AAl?$AAo?$AAc?$AA_?$AAd?$AAb?$AAg?$AA?$AA@ 7c6a6aa8     libcmtd:dbgheap.obj
 0002:0000dac4       ??_C@_1DO@GOKJCEHJ@?$AA?$CI?$AA_?$AAH?$AAE?$AAA?$AAP?$AA_?$AAM?$AAA?$AAX?$AAR?$AAE?$AAQ?$AA?5?$AA?1?$AA?5?$AAc?$AAo?$AAu?$AAn?$AAt?$AA?$CJ?$AA?5?$AA?$DO?$AA?$DN?$AA?5?$AAs?$AAi?$AAz?$AAe?$AA?$AA@ 7c6a6ac4     libcmtd:dbgheap.obj
 0002:0000db04       ??_C@_1BI@HAPNGHDP@?$AA_?$AAe?$AAx?$AAp?$AAa?$AAn?$AAd?$AA_?$AAd?$AAb?$AAg?$AA?$AA@ 7c6a6b04     libcmtd:dbgheap.obj
 0002:0000db1c       ??_C@_1CE@CJACEFBA@?$AAp?$AAU?$AAs?$AAe?$AAr?$AAD?$AAa?$AAt?$AAa?$AA?5?$AA?$CB?$AA?$DN?$AA?5?$AAN?$AAU?$AAL?$AAL?$AA?$AA@ 7c6a6b1c     libcmtd:dbgheap.obj
 0002:0000db40       ??_C@_1CM@MMAADDMD@?$AA_?$AAp?$AAF?$AAi?$AAr?$AAs?$AAt?$AAB?$AAl?$AAo?$AAc?$AAk?$AA?5?$AA?$DN?$AA?$DN?$AA?5?$AAp?$AAH?$AAe?$AAa?$AAd?$AA?$AA@ 7c6a6b40     libcmtd:dbgheap.obj
 0002:0000db6c       ??_C@_1CK@DMAGEMBG@?$AA_?$AAp?$AAL?$AAa?$AAs?$AAt?$AAB?$AAl?$AAo?$AAc?$AAk?$AA?5?$AA?$DN?$AA?$DN?$AA?5?$AAp?$AAH?$AAe?$AAa?$AAd?$AA?$AA@ 7c6a6b6c     libcmtd:dbgheap.obj
 0002:0000db98       ??_C@_1DM@ODCJIDCP@?$AAp?$AAH?$AAe?$AAa?$AAd?$AA?9?$AA?$DO?$AAn?$AAB?$AAl?$AAo?$AAc?$AAk?$AAU?$AAs?$AAe?$AA?5?$AA?$DN?$AA?$DN?$AA?5?$AAn?$AAB?$AAl?$AAo?$AAc?$AAk?$AAU?$AAs?$AAe?$AA?$AA@ 7c6a6b98     libcmtd:dbgheap.obj
 0002:0000dbd8       ??_C@_1HK@HPCBMDFG@?$AAp?$AAH?$AAe?$AAa?$AAd?$AA?9?$AA?$DO?$AAn?$AAL?$AAi?$AAn?$AAe?$AA?5?$AA?$DN?$AA?$DN?$AA?5?$AAI?$AAG?$AAN?$AAO?$AAR?$AAE?$AA_?$AAL?$AAI?$AAN?$AAE?$AA?5?$AA?$CG?$AA?$CG?$AA?5?$AAp@ 7c6a6bd8     libcmtd:dbgheap.obj
 0002:0000dc58       ??_C@_0IG@LEMBDCJK@HEAP?5CORRUPTION?5DETECTED?3?5after?5@ 7c6a6c58     libcmtd:dbgheap.obj
 0002:0000dce0       ??_C@_0KE@MBMNHHHN@HEAP?5CORRUPTION?5DETECTED?3?5after?5@ 7c6a6ce0     libcmtd:dbgheap.obj
 0002:0000dd88       ??_C@_0IK@PJCGLBOB@HEAP?5CORRUPTION?5DETECTED?3?5before@ 7c6a6d88     libcmtd:dbgheap.obj
 0002:0000de18       ??_C@_0KI@JGFOHMEB@HEAP?5CORRUPTION?5DETECTED?3?5before@ 7c6a6e18     libcmtd:dbgheap.obj
 0002:0000dec0       ??_C@_0BL@KEIPLFAC@Client?5hook?5free?5failure?4?6?$AA@ 7c6a6ec0     libcmtd:dbgheap.obj
 0002:0000dee0       ??_C@_0EJ@HEIBCIMJ@The?5Block?5at?50x?$CFp?5was?5allocated?5@ 7c6a6ee0     libcmtd:dbgheap.obj
 0002:0000df2c       ??_C@_1BG@MBKOGDLD@?$AA_?$AAm?$AAs?$AAi?$AAz?$AAe?$AA_?$AAd?$AAb?$AAg?$AA?$AA@ 7c6a6f2c     libcmtd:dbgheap.obj
 0002:0000df44       ??_C@_0CI@JMLBEDHJ@?$CFhs?5located?5at?50x?$CFp?5is?5?$CFIu?5bytes@ 7c6a6f44     libcmtd:dbgheap.obj
 0002:0000df70       ??_C@_0EG@DGJMPDBH@?$CFhs?5located?5at?50x?$CFp?5is?5?$CFIu?5bytes@ 7c6a6f70     libcmtd:dbgheap.obj
 0002:0000dfb8       ??_C@_0IC@BBJIOOJH@HEAP?5CORRUPTION?5DETECTED?3?5on?5top@ 7c6a6fb8     libcmtd:dbgheap.obj
 0002:0000e040       ??_C@_0KA@IHNJJKPL@HEAP?5CORRUPTION?5DETECTED?3?5on?5top@ 7c6a7040     libcmtd:dbgheap.obj
 0002:0000e0e0       ??_C@_07OHKEFPKJ@DAMAGED?$AA@ 7c6a70e0     libcmtd:dbgheap.obj
 0002:0000e0e8       ??_C@_0CL@HNNNMKMJ@_heapchk?5fails?5with?5unknown?5retu@ 7c6a70e8     libcmtd:dbgheap.obj
 0002:0000e114       ??_C@_0CC@MFFCHFHO@_heapchk?5fails?5with?5_HEAPBADPTR?4@ 7c6a7114     libcmtd:dbgheap.obj
 0002:0000e138       ??_C@_0CC@MJGLGBDG@_heapchk?5fails?5with?5_HEAPBADEND?4@ 7c6a7138     libcmtd:dbgheap.obj
 0002:0000e15c       ??_C@_0CD@CPKEAPBD@_heapchk?5fails?5with?5_HEAPBADNODE@ 7c6a715c     libcmtd:dbgheap.obj
 0002:0000e180       ??_C@_0CE@MKKHMBMK@_heapchk?5fails?5with?5_HEAPBADBEGI@ 7c6a7180     libcmtd:dbgheap.obj
 0002:0000e1a4       ??_C@_1BO@GJFDNMNF@?$AA_?$AAC?$AAr?$AAt?$AAS?$AAe?$AAt?$AAD?$AAb?$AAg?$AAF?$AAl?$AAa?$AAg?$AA?$AA@ 7c6a71a4     libcmtd:dbgheap.obj
 0002:0000e1c8       ??_C@_1BHO@NNANJNF@?$AA?$CI?$AAf?$AAN?$AAe?$AAw?$AAB?$AAi?$AAt?$AAs?$AA?$DN?$AA?$DN?$AA_?$AAC?$AAR?$AAT?$AAD?$AAB?$AAG?$AA_?$AAR?$AAE?$AAP?$AAO?$AAR?$AAT?$AA_?$AAF?$AAL?$AAA?$AAG?$AA?$CJ?$AA?5@ 7c6a71c8     libcmtd:dbgheap.obj
 0002:0000e348       ??_C@_1DE@GJCKCKEC@?$AA_?$AAC?$AAr?$AAt?$AAD?$AAo?$AAF?$AAo?$AAr?$AAA?$AAl?$AAl?$AAC?$AAl?$AAi?$AAe?$AAn?$AAt?$AAO?$AAb?$AAj?$AAe?$AAc?$AAt?$AAs?$AA?$AA@ 7c6a7348     libcmtd:dbgheap.obj
 0002:0000e37c       ??_C@_1BI@CJGCEEDL@?$AAp?$AAf?$AAn?$AA?5?$AA?$CB?$AA?$DN?$AA?5?$AAN?$AAU?$AAL?$AAL?$AA?$AA@ 7c6a737c     libcmtd:dbgheap.obj
 0002:0000e394       ??_C@_1CG@DGPPLLPG@?$AA_?$AAg?$AAe?$AAt?$AA_?$AAo?$AAs?$AAv?$AAe?$AAr?$AA?$CI?$AA?$CG?$AAo?$AAs?$AAv?$AAe?$AAr?$AA?$CJ?$AA?$AA@ 7c6a7394     libcmtd:dbgheap.obj
 0002:0000e3bc       ??_C@_1CO@JHPAACDJ@?$AA_?$AAC?$AAr?$AAt?$AAI?$AAs?$AAV?$AAa?$AAl?$AAi?$AAd?$AAH?$AAe?$AAa?$AAp?$AAP?$AAo?$AAi?$AAn?$AAt?$AAe?$AAr?$AA?$AA@ 7c6a73bc     libcmtd:dbgheap.obj
 0002:0000e3ec       ??_C@_0CB@EAAIGELO@Bad?5memory?5block?5found?5at?50x?$CFp?4?6@ 7c6a73ec     libcmtd:dbgheap.obj
 0002:0000e410       ??_C@_0DP@LEFMFBOD@Bad?5memory?5block?5found?5at?50x?$CFp?4?6@ 7c6a7410     libcmtd:dbgheap.obj
 0002:0000e450       ??_C@_1CE@NJJKELF@?$AA_?$AAC?$AAr?$AAt?$AAM?$AAe?$AAm?$AAC?$AAh?$AAe?$AAc?$AAk?$AAp?$AAo?$AAi?$AAn?$AAt?$AA?$AA@ 7c6a7450     libcmtd:dbgheap.obj
 0002:0000e474       ??_C@_1BM@MIMANDHC@?$AAs?$AAt?$AAa?$AAt?$AAe?$AA?5?$AA?$CB?$AA?$DN?$AA?5?$AAN?$AAU?$AAL?$AAL?$AA?$AA@ 7c6a7474     libcmtd:dbgheap.obj
 0002:0000e490       ??_C@_1CC@DFPEDFBP@?$AAn?$AAe?$AAw?$AAS?$AAt?$AAa?$AAt?$AAe?$AA?5?$AA?$CB?$AA?$DN?$AA?5?$AAN?$AAU?$AAL?$AAL?$AA?$AA@ 7c6a7490     libcmtd:dbgheap.obj
 0002:0000e4b4       ??_C@_1CC@DHPFEMMN@?$AAo?$AAl?$AAd?$AAS?$AAt?$AAa?$AAt?$AAe?$AA?5?$AA?$CB?$AA?$DN?$AA?5?$AAN?$AAU?$AAL?$AAL?$AA?$AA@ 7c6a74b4     libcmtd:dbgheap.obj
 0002:0000e4d8       ??_C@_1CE@PDIENACM@?$AA_?$AAC?$AAr?$AAt?$AAM?$AAe?$AAm?$AAD?$AAi?$AAf?$AAf?$AAe?$AAr?$AAe?$AAn?$AAc?$AAe?$AA?$AA@ 7c6a74d8     libcmtd:dbgheap.obj
 0002:0000e4fc       ??_C@_0BH@GFGKJDCO@Object?5dump?5complete?4?6?$AA@ 7c6a74fc     libcmtd:dbgheap.obj
 0002:0000e514       ??_C@_0DA@MDLBNIBM@crt?5block?5at?50x?$CFp?0?5subtype?5?$CFx?0?5?$CF@ 7c6a7514     libcmtd:dbgheap.obj
 0002:0000e544       ??_C@_0CH@FAGDDGPN@normal?5block?5at?50x?$CFp?0?5?$CFIu?5bytes?5@ 7c6a7544     libcmtd:dbgheap.obj
 0002:0000e56c       ??_C@_0DD@GHNAAKBB@client?5block?5at?50x?$CFp?0?5subtype?5?$CFx@ 7c6a756c     libcmtd:dbgheap.obj
 0002:0000e5a0       ??_C@_06PKLGBFGM@?$HL?$CFld?$HN?5?$AA@ 7c6a75a0     libcmtd:dbgheap.obj
 0002:0000e5a8       ??_C@_0L@JMEFFCCJ@?$CFhs?$CI?$CFd?$CJ?5?3?5?$AA@ 7c6a75a8     libcmtd:dbgheap.obj
 0002:0000e5b4       ??_C@_0BE@OIEFNFL@?$CDFile?5Error?$CD?$CI?$CFd?$CJ?5?3?5?$AA@ 7c6a75b4     libcmtd:dbgheap.obj
 0002:0000e5c8       ??_C@_0BE@KCIPKCIA@Dumping?5objects?5?9?$DO?6?$AA@ 7c6a75c8     libcmtd:dbgheap.obj
 0002:0000e5dc       ??_C@_0BA@HJBKCELP@?5Data?3?5?$DM?$CFs?$DO?5?$CFs?6?$AA@ 7c6a75dc     libcmtd:dbgheap.obj
 0002:0000e5ec       ??_C@_1CG@LPFIACGM@?$AA_?$AAp?$AAr?$AAi?$AAn?$AAt?$AAM?$AAe?$AAm?$AAB?$AAl?$AAo?$AAc?$AAk?$AAD?$AAa?$AAt?$AAa?$AA?$AA@ 7c6a75ec     libcmtd:dbgheap.obj
 0002:0000e614       ??_C@_05MKKEDADM@?$CF?42X?5?$AA@ 7c6a7614     libcmtd:dbgheap.obj
 0002:0000e61c       ??_C@_0BI@JBFPOEJA@Detected?5memory?5leaks?$CB?6?$AA@ 7c6a761c     libcmtd:dbgheap.obj
 0002:0000e634       ??_C@_0BP@DEDHGGGI@Total?5allocations?3?5?$CFId?5bytes?4?6?$AA@ 7c6a7634     libcmtd:dbgheap.obj
 0002:0000e654       ??_C@_0CB@BLHDAFNE@Largest?5number?5used?3?5?$CFId?5bytes?4?6@ 7c6a7654     libcmtd:dbgheap.obj
 0002:0000e678       ??_C@_0BO@DACNIABB@?$CFId?5bytes?5in?5?$CFId?5?$CFhs?5Blocks?4?6?$AA@ 7c6a7678     libcmtd:dbgheap.obj
 0002:0000e698       ??_C@_1CM@MPNIBKGK@?$AA_?$AAC?$AAr?$AAt?$AAM?$AAe?$AAm?$AAD?$AAu?$AAm?$AAp?$AAS?$AAt?$AAa?$AAt?$AAi?$AAs?$AAt?$AAi?$AAc?$AAs?$AA?$AA@ 7c6a7698     libcmtd:dbgheap.obj
 0002:0000e6c4       ??_C@_1DK@LFLKFPDA@?$AAo?$AAf?$AAf?$AAs?$AAe?$AAt?$AA?5?$AA?$DN?$AA?$DN?$AA?5?$AA0?$AA?5?$AA?$HM?$AA?$HM?$AA?5?$AAo?$AAf?$AAf?$AAs?$AAe?$AAt?$AA?5?$AA?$DM?$AA?5?$AAs?$AAi?$AAz?$AAe?$AA?$AA@ 7c6a76c4     libcmtd:dbgheap.obj
 0002:0000e700       ??_C@_1DG@DONCJBBJ@?$AA_?$AAa?$AAl?$AAi?$AAg?$AAn?$AAe?$AAd?$AA_?$AAo?$AAf?$AAf?$AAs?$AAe?$AAt?$AA_?$AAm?$AAa?$AAl?$AAl?$AAo?$AAc?$AA_?$AAd?$AAb?$AAg?$AA?$AA@ 7c6a7700     libcmtd:dbgheap.obj
 0002:0000e738       ??_C@_1CE@NPMGPNNP@?$AAI?$AAS?$AA_?$AA2?$AA_?$AAP?$AAO?$AAW?$AA_?$AAN?$AA?$CI?$AAa?$AAl?$AAi?$AAg?$AAn?$AA?$CJ?$AA?$AA@ 7c6a7738     libcmtd:dbgheap.obj
 0002:0000e75c       ??_C@_1DI@NINIKFFK@?$AA_?$AAa?$AAl?$AAi?$AAg?$AAn?$AAe?$AAd?$AA_?$AAo?$AAf?$AAf?$AAs?$AAe?$AAt?$AA_?$AAr?$AAe?$AAa?$AAl?$AAl?$AAo?$AAc?$AA_?$AAd?$AAb?$AAg?$AA?$AA@ 7c6a775c     libcmtd:dbgheap.obj
 0002:0000e794       ??_C@_0DL@PGHMMKNE@Damage?5before?50x?$CFp?5which?5was?5all@ 7c6a7794     libcmtd:dbgheap.obj
 0002:0000e7d0       ??_C@_0EI@NDNJMAJK@The?5block?5at?50x?$CFp?5was?5not?5alloca@ 7c6a77d0     libcmtd:dbgheap.obj
 0002:0000e818       ??_C@_1DK@MMLHIFFH@?$AA_?$AAa?$AAl?$AAi?$AAg?$AAn?$AAe?$AAd?$AA_?$AAo?$AAf?$AAf?$AAs?$AAe?$AAt?$AA_?$AAr?$AAe?$AAc?$AAa?$AAl?$AAl?$AAo?$AAc?$AA_?$AAd?$AAb?$AAg?$AA?$AA@ 7c6a7818     libcmtd:dbgheap.obj
 0002:0000e858       ??_C@_0EF@PGELACII@The?5block?5at?50x?$CFp?5was?5not?5alloca@ 7c6a7858     libcmtd:dbgheap.obj
 0002:0000e8a0       ??_C@_1CG@CEGMHIMN@?$AA_?$AAa?$AAl?$AAi?$AAg?$AAn?$AAe?$AAd?$AA_?$AAm?$AAs?$AAi?$AAz?$AAe?$AA_?$AAd?$AAb?$AAg?$AA?$AA@ 7c6a78a0     libcmtd:dbgheap.obj
 0002:0000e8c8       ??_C@_1CC@MOBIKHH@?$AAm?$AAe?$AAm?$AAb?$AAl?$AAo?$AAc?$AAk?$AA?5?$AA?$CB?$AA?$DN?$AA?5?$AAN?$AAU?$AAL?$AAL?$AA?$AA@ 7c6a78c8     libcmtd:dbgheap.obj
 0002:0000e8ec       ??_C@_1CC@OLIJCKA@?$AA?$CI?$AAs?$AAt?$AAr?$AAi?$AAn?$AAg?$AA?5?$AA?$CB?$AA?$DN?$AA?5?$AAN?$AAU?$AAL?$AAL?$AA?$CJ?$AA?$AA@ 7c6a78ec     libcmtd:sprintf.obj
 0002:0000e910       ??_C@_1BA@KBJJGFFE@?$AAs?$AAp?$AAr?$AAi?$AAn?$AAt?$AAf?$AA?$AA@ 7c6a7910     libcmtd:sprintf.obj
 0002:0000e920       ??_C@_1BE@BPBEAPLI@?$AAs?$AAp?$AAr?$AAi?$AAn?$AAt?$AAf?$AA?4?$AAc?$AA?$AA@ 7c6a7920     libcmtd:sprintf.obj
 0002:0000e934       ??_C@_1CC@MGIEJOME@?$AA?$CI?$AAf?$AAo?$AAr?$AAm?$AAa?$AAt?$AA?5?$AA?$CB?$AA?$DN?$AA?5?$AAN?$AAU?$AAL?$AAL?$AA?$CJ?$AA?$AA@ 7c6a7934     libcmtd:sprintf.obj
 0002:0000e958       ??_C@_0P@GHFPNOJB@bad?5allocation?$AA@ 7c6a7958     libcmtd:new.obj
 0002:0000e96c       ??_7bad_alloc@std@@6B@     7c6a796c     libcmtd:new.obj
 0002:0000e974       ??_C@_0BI@BKLFFAPO@SetThreadStackGuarantee?$AA@ 7c6a7974     libcmtd:resetstk.obj
 0002:0000e98c       ??_C@_1BM@DDDMFKDA@?$AA_?$AAr?$AAe?$AAs?$AAe?$AAt?$AAs?$AAt?$AAk?$AAo?$AAf?$AAl?$AAw?$AA?$AA@ 7c6a798c     libcmtd:resetstk.obj
 0002:0000e9a8       ??_C@_1BG@DANJIPJN@?$AAr?$AAe?$AAs?$AAe?$AAt?$AAs?$AAt?$AAk?$AA?4?$AAc?$AA?$AA@ 7c6a79a8     libcmtd:resetstk.obj
 0002:0000e9c0       ??_C@_1CK@DDKKOLAN@?$AAs?$AAi?$AAz?$AAe?$AAI?$AAn?$AAB?$AAy?$AAt?$AAe?$AAs?$AA?5?$AA?$DO?$AA?$DN?$AA?5?$AAc?$AAo?$AAu?$AAn?$AAt?$AA?$AA@ 7c6a79c0     libcmtd:memcpy_s.obj
 0002:0000e9ec       ??_C@_1BI@DCHLDCPP@?$AAs?$AAr?$AAc?$AA?5?$AA?$CB?$AA?$DN?$AA?5?$AAN?$AAU?$AAL?$AAL?$AA?$AA@ 7c6a79ec     libcmtd:memcpy_s.obj
 0002:0000ea04       ??_C@_1BC@GKHDJMGB@?$AAm?$AAe?$AAm?$AAc?$AAp?$AAy?$AA_?$AAs?$AA?$AA@ 7c6a7a04     libcmtd:memcpy_s.obj
 0002:0000ea18       ??_C@_1BG@MKNDEPCK@?$AAm?$AAe?$AAm?$AAc?$AAp?$AAy?$AA_?$AAs?$AA?4?$AAc?$AA?$AA@ 7c6a7a18     libcmtd:memcpy_s.obj
 0002:0000ea30       ??_C@_1BI@GKKCBDMD@?$AAd?$AAs?$AAt?$AA?5?$AA?$CB?$AA?$DN?$AA?5?$AAN?$AAU?$AAL?$AAL?$AA?$AA@ 7c6a7a30     libcmtd:memcpy_s.obj
 0002:0000ea48       ??_C@_08GNMOIKDK@onexit?4c?$AA@ 7c6a7a48     libcmtd:onexit.obj
 0002:0000ea54       ??_C@_1DM@MADKGDLO@?$AA?$CI?$AAL?$AA?$CC?$AAB?$AAu?$AAf?$AAf?$AAe?$AAr?$AA?5?$AAi?$AAs?$AA?5?$AAt?$AAo?$AAo?$AA?5?$AAs?$AAm?$AAa?$AAl?$AAl?$AA?$CC?$AA?5?$AA?$CG?$AA?$CG?$AA?5?$AA0?$AA?$CJ?$AA?$AA@ 7c6a7a54     libcmtd:strcpy_s.obj
 0002:0000ea90       ??_C@_1CI@HCPHDDLE@?$AAB?$AAu?$AAf?$AAf?$AAe?$AAr?$AA?5?$AAi?$AAs?$AA?5?$AAt?$AAo?$AAo?$AA?5?$AAs?$AAm?$AAa?$AAl?$AAl?$AA?$AA@ 7c6a7a90     libcmtd:strcpy_s.obj
 0002:0000eab8       ??_C@_1CG@OFBJMIGJ@?$AA?$CI?$AA?$CI?$AA?$CI?$AA_?$AAS?$AAr?$AAc?$AA?$CJ?$AA?$CJ?$AA?$CJ?$AA?5?$AA?$CB?$AA?$DN?$AA?5?$AAN?$AAU?$AAL?$AAL?$AA?$AA@ 7c6a7ab8     libcmtd:strcpy_s.obj
 0002:0000eae0       ??_C@_1BC@CFJEPFGF@?$AAs?$AAt?$AAr?$AAc?$AAp?$AAy?$AA_?$AAs?$AA?$AA@ 7c6a7ae0     libcmtd:strcpy_s.obj
 0002:0000eaf8       ??_C@_1GI@OOPCGOCD@?$AAF?$AA?3?$AA?2?$AAd?$AAd?$AA?2?$AAv?$AAc?$AAt?$AAo?$AAo?$AAl?$AAs?$AA?2?$AAc?$AAr?$AAt?$AA_?$AAb?$AAl?$AAd?$AA?2?$AAS?$AAE?$AAL?$AAF?$AA_?$AAX?$AA8?$AA6?$AA?2?$AAc@ 7c6a7af8     libcmtd:strcpy_s.obj
 0002:0000eb60       ??_C@_1FC@NCPEPIBI@?$AA?$CI?$AA?$CI?$AA_?$AAD?$AAs?$AAt?$AA?$CJ?$AA?$CJ?$AA?5?$AA?$CB?$AA?$DN?$AA?5?$AAN?$AAU?$AAL?$AAL?$AA?5?$AA?$CG?$AA?$CG?$AA?5?$AA?$CI?$AA?$CI?$AA_?$AAS?$AAi?$AAz?$AAe?$AAI?$AAn?$AAB?$AAy?$AAt@ 7c6a7b60     libcmtd:strcpy_s.obj
 0002:0000ebb4       ??_C@_1BE@PMMBFFCC@?$AAw?$AAc?$AAs?$AAn?$AAc?$AAp?$AAy?$AA_?$AAs?$AA?$AA@ 7c6a7bb4     libcmtd:wcsncpy_s.obj
 0002:0000ebc8       ??_C@_1GK@BKHFKGPA@?$AAF?$AA?3?$AA?2?$AAd?$AAd?$AA?2?$AAv?$AAc?$AAt?$AAo?$AAo?$AAl?$AAs?$AA?2?$AAc?$AAr?$AAt?$AA_?$AAb?$AAl?$AAd?$AA?2?$AAS?$AAE?$AAL?$AAF?$AA_?$AAX?$AA8?$AA6?$AA?2?$AAc@ 7c6a7bc8     libcmtd:wcsncpy_s.obj
 0002:0000ec38       ??_C@_1FC@PFMLEHKI@?$AA?$CI?$AA?$CI?$AA_?$AAD?$AAs?$AAt?$AA?$CJ?$AA?$CJ?$AA?5?$AA?$CB?$AA?$DN?$AA?5?$AAN?$AAU?$AAL?$AAL?$AA?5?$AA?$CG?$AA?$CG?$AA?5?$AA?$CI?$AA?$CI?$AA_?$AAS?$AAi?$AAz?$AAe?$AAI?$AAn?$AAW?$AAo?$AAr@ 7c6a7c38     libcmtd:wcsncpy_s.obj
 0002:0000ec90       ??_C@_1FA@MJKDNFFB@?$AA?$CI?$AAL?$AA?$CC?$AAS?$AAt?$AAr?$AAi?$AAn?$AAg?$AA?5?$AAi?$AAs?$AA?5?$AAn?$AAo?$AAt?$AA?5?$AAn?$AAu?$AAl?$AAl?$AA?5?$AAt?$AAe?$AAr?$AAm?$AAi?$AAn?$AAa?$AAt?$AAe?$AAd@ 7c6a7c90     libcmtd:strcat_s.obj
 0002:0000ece0       ??_C@_1DM@FHLMIEG@?$AAS?$AAt?$AAr?$AAi?$AAn?$AAg?$AA?5?$AAi?$AAs?$AA?5?$AAn?$AAo?$AAt?$AA?5?$AAn?$AAu?$AAl?$AAl?$AA?5?$AAt?$AAe?$AAr?$AAm?$AAi?$AAn?$AAa?$AAt?$AAe?$AAd?$AA?$AA@ 7c6a7ce0     libcmtd:strcat_s.obj
 0002:0000ed1c       ??_C@_1BC@HGPNAKGC@?$AAs?$AAt?$AAr?$AAc?$AAa?$AAt?$AA_?$AAs?$AA?$AA@ 7c6a7d1c     libcmtd:strcat_s.obj
 0002:0000ed30       ??_C@_1GI@CGEJMGID@?$AAF?$AA?3?$AA?2?$AAd?$AAd?$AA?2?$AAv?$AAc?$AAt?$AAo?$AAo?$AAl?$AAs?$AA?2?$AAc?$AAr?$AAt?$AA_?$AAb?$AAl?$AAd?$AA?2?$AAS?$AAE?$AAL?$AAF?$AA_?$AAX?$AA8?$AA6?$AA?2?$AAc@ 7c6a7d30     libcmtd:strcat_s.obj
 0002:0000ed98       ??_C@_1BE@BMIJMLDD@?$AA_?$AAs?$AAw?$AAp?$AAr?$AAi?$AAn?$AAt?$AAf?$AA?$AA@ 7c6a7d98     libcmtd:swprintf.obj
 0002:0000edac       ??_C@_1BG@CEFLJIIJ@?$AAs?$AAw?$AAp?$AAr?$AAi?$AAn?$AAt?$AAf?$AA?4?$AAc?$AA?$AA@ 7c6a7dac     libcmtd:swprintf.obj
 0002:0000edc4       __pRawDllMain              7c6a7dc4     libcmtd:dllcrt0.obj
 0002:0000edc4       __pDefaultRawDllMain       7c6a7dc4     libcmtd:dllcrt0.obj
 0002:0000edc8       ??_C@_09IFKEODFF@dllcrt0?4c?$AA@ 7c6a7dc8     libcmtd:dllcrt0.obj
 0002:0000edd4       ??_C@_1BG@KCMPBBDK@?$AA_?$AAg?$AAe?$AAt?$AA_?$AAe?$AAr?$AAr?$AAn?$AAo?$AA?$AA@ 7c6a7dd4     libcmtd:dosmap.obj
 0002:0000edec       ??_C@_1BC@GFJPPMFE@?$AAd?$AAo?$AAs?$AAm?$AAa?$AAp?$AA?4?$AAc?$AA?$AA@ 7c6a7dec     libcmtd:dosmap.obj
 0002:0000ee00       ??_C@_1BO@LKEBEKJP@?$AAp?$AAV?$AAa?$AAl?$AAu?$AAe?$AA?5?$AA?$CB?$AA?$DN?$AA?5?$AAN?$AAU?$AAL?$AAL?$AA?$AA@ 7c6a7e00     libcmtd:dosmap.obj
 0002:0000ee20       ??_C@_1BM@INIPHHDD@?$AA_?$AAg?$AAe?$AAt?$AA_?$AAd?$AAo?$AAs?$AAe?$AAr?$AAr?$AAn?$AAo?$AA?$AA@ 7c6a7e20     libcmtd:dosmap.obj
 0002:0000ee60       ??_7type_info@@6B@         7c6a7e60     libcmtd:typinfo.obj
 0002:0000ee64       ??_C@_0BB@NAGLCMLI@Assertion?5Failed?$AA@ 7c6a7e64     libcmtd:dbgrpt.obj
 0002:0000ee78       ??_C@_05NAOIJFC@Error?$AA@ 7c6a7e78     libcmtd:dbgrpt.obj
 0002:0000ee80       ??_C@_07KGMMFLDN@Warning?$AA@ 7c6a7e80     libcmtd:dbgrpt.obj
 0002:0000ee88       ??_C@_08ODMAMGBE@dbgrpt?4c?$AA@ 7c6a7e88     libcmtd:dbgrpt.obj
 0002:0000ee94       ??_C@_1CG@GNMJDMIO@?$AA_?$AAC?$AAr?$AAt?$AAS?$AAe?$AAt?$AAR?$AAe?$AAp?$AAo?$AAr?$AAt?$AAH?$AAo?$AAo?$AAk?$AA2?$AA?$AA@ 7c6a7e94     libcmtd:dbgrpt.obj
 0002:0000eebc       ??_C@_1BC@CBGBJLNL@?$AAd?$AAb?$AAg?$AAr?$AAp?$AAt?$AA?4?$AAc?$AA?$AA@ 7c6a7ebc     libcmtd:dbgrpt.obj
 0002:0000eed0       ??_C@_0CD@EBCGLDDL@Microsoft?5Visual?5C?$CL?$CL?5Debug?5Libra@ 7c6a7ed0     libcmtd:dbgrpt.obj
 0002:0000eef4       ??_C@_0CL@EACFGMNB@_CrtDbgReport?3?5String?5too?5long?5o@ 7c6a7ef4     libcmtd:dbgrpt.obj
 0002:0000ef20       ??_C@_1JG@CPKCIOEE@?$AAs?$AAt?$AAr?$AAc?$AAp?$AAy?$AA_?$AAs?$AA?$CI?$AAs?$AAz?$AAO?$AAu?$AAt?$AAM?$AAe?$AAs?$AAs?$AAa?$AAg?$AAe?$AA?0?$AA?5?$AA4?$AA0?$AA9?$AA6?$AA?0?$AA?5?$AA?$CC?$AA_?$AAC@ 7c6a7f20     libcmtd:dbgrpt.obj
 0002:0000efb8       ??_C@_0FF@CCONDJCB@Debug?5?$CFs?$CB?6?6Program?3?5?$CFs?$CFs?$CFs?$CFs?$CFs?$CFs@ 7c6a7fb8     libcmtd:dbgrpt.obj
 0002:0000f010       ??_C@_09OFBFHMBK@?6Module?3?5?$AA@ 7c6a8010     libcmtd:dbgrpt.obj
 0002:0000f01c       ??_C@_07OPHPPLBG@?6File?3?5?$AA@ 7c6a801c     libcmtd:dbgrpt.obj
 0002:0000f024       ??_C@_07DBMPPHDI@?6Line?3?5?$AA@ 7c6a8024     libcmtd:dbgrpt.obj
 0002:0000f02c       ??_C@_02PHMGELLB@?6?6?$AA@ 7c6a802c     libcmtd:dbgrpt.obj
 0002:0000f030       ??_C@_0N@MEECIJGN@Expression?3?5?$AA@ 7c6a8030     libcmtd:dbgrpt.obj
 0002:0000f03d       ??_C@_00CNPNBAHC@?$AA@     7c6a803d     libcmtd:dbgrpt.obj
 0002:0000f040       ??_C@_0HD@GNBNFCCL@?6?6For?5information?5on?5how?5your?5pr@ 7c6a8040     libcmtd:dbgrpt.obj
 0002:0000f0b8       ??_C@_1KA@GHPEDBGI@?$AA_?$AAm?$AAb?$AAs?$AAn?$AAb?$AAc?$AAp?$AAy?$AA_?$AAs?$AA?$CI?$AAs?$AAz?$AAS?$AAh?$AAo?$AAr?$AAt?$AAP?$AAr?$AAo?$AAg?$AAN?$AAa?$AAm?$AAe?$AA?0?$AA?5?$AA2?$AA6?$AA0@ 7c6a80b8     libcmtd:dbgrpt.obj
 0002:0000f158       ??_C@_0BH@DNAGHKFM@?$DMprogram?5name?5unknown?$DO?$AA@ 7c6a8158     libcmtd:dbgrpt.obj
 0002:0000f170       ??_C@_1GG@DLDHOIGE@?$AAs?$AAt?$AAr?$AAc?$AAp?$AAy?$AA_?$AAs?$AA?$CI?$AAs?$AAz?$AAE?$AAx?$AAe?$AAN?$AAa?$AAm?$AAe?$AA?0?$AA?5?$AA2?$AA6?$AA0?$AA?0?$AA?5?$AA?$CC?$AA?$DM?$AAp?$AAr?$AAo?$AAg?$AAr@ 7c6a8170     libcmtd:dbgrpt.obj
 0002:0000f1d8       ??_C@_1CI@IDOKFLAJ@?$AA_?$AA_?$AAc?$AAr?$AAt?$AAM?$AAe?$AAs?$AAs?$AAa?$AAg?$AAe?$AAW?$AAi?$AAn?$AAd?$AAo?$AAw?$AAA?$AA?$AA@ 7c6a81d8     libcmtd:dbgrpt.obj
 0002:0000f200       ??_C@_1EC@FABAOFFO@?$AA?$CI?$AAc?$AAo?$AAu?$AAn?$AAt?$AA?5?$AA?$DN?$AA?$DN?$AA?5?$AA0?$AA?$CJ?$AA?5?$AA?$HM?$AA?$HM?$AA?5?$AA?$CI?$AAs?$AAt?$AAr?$AAi?$AAn?$AAg?$AA?5?$AA?$CB?$AA?$DN?$AA?5?$AAN?$AAU?$AAL?$AAL?$AA?$CJ@ 7c6a8200     libcmtd:vsnprnc.obj
 0002:0000f244       ??_C@_1CE@PCFPEIFI@?$AA_?$AAv?$AAs?$AAn?$AAp?$AAr?$AAi?$AAn?$AAt?$AAf?$AA_?$AAh?$AAe?$AAl?$AAp?$AAe?$AAr?$AA?$AA@ 7c6a8244     libcmtd:vsnprnc.obj
 0002:0000f268       ??_C@_1GE@DPADKNCG@?$AAf?$AA?3?$AA?2?$AAd?$AAd?$AA?2?$AAv?$AAc?$AAt?$AAo?$AAo?$AAl?$AAs?$AA?2?$AAc?$AAr?$AAt?$AA_?$AAb?$AAl?$AAd?$AA?2?$AAs?$AAe?$AAl?$AAf?$AA_?$AAx?$AA8?$AA6?$AA?2?$AAc@ 7c6a8268     libcmtd:vsnprnc.obj
 0002:0000f2cc       ??_C@_1DA@HPBFKMEB@?$AA?$CI?$AA?$CC?$AAB?$AAu?$AAf?$AAf?$AAe?$AAr?$AA?5?$AAt?$AAo?$AAo?$AA?5?$AAs?$AAm?$AAa?$AAl?$AAl?$AA?$CC?$AA?0?$AA?5?$AA0?$AA?$CJ?$AA?$AA@ 7c6a82cc     libcmtd:vsnprnc.obj
 0002:0000f300       ??_C@_1EE@OKCKIGFK@?$AAs?$AAt?$AAr?$AAi?$AAn?$AAg?$AA?5?$AA?$CB?$AA?$DN?$AA?5?$AAN?$AAU?$AAL?$AAL?$AA?5?$AA?$CG?$AA?$CG?$AA?5?$AAs?$AAi?$AAz?$AAe?$AAI?$AAn?$AAB?$AAy?$AAt?$AAe?$AAs?$AA?5?$AA?$DO?$AA?5@ 7c6a8300     libcmtd:vsnprnc.obj
 0002:0000f344       ??_C@_1BM@BLJALHEF@?$AA_?$AAv?$AAs?$AAp?$AAr?$AAi?$AAn?$AAt?$AAf?$AA_?$AAs?$AA_?$AAl?$AA?$AA@ 7c6a8344     libcmtd:vsnprnc.obj
 0002:0000f360       ??_C@_1BO@MLMCMBKN@?$AAf?$AAo?$AAr?$AAm?$AAa?$AAt?$AA?5?$AA?$CB?$AA?$DN?$AA?5?$AAN?$AAU?$AAL?$AAL?$AA?$AA@ 7c6a8360     libcmtd:vsnprnc.obj
 0002:0000f380       ??_C@_1BO@MMPELNIM@?$AA_?$AAv?$AAs?$AAn?$AAp?$AAr?$AAi?$AAn?$AAt?$AAf?$AA_?$AAs?$AA_?$AAl?$AA?$AA@ 7c6a8380     libcmtd:vsnprnc.obj
 0002:0000f3a0       ??_C@_1CE@IGKFIJFD@?$AA_?$AAv?$AAs?$AAw?$AAp?$AAr?$AAi?$AAn?$AAt?$AAf?$AA_?$AAh?$AAe?$AAl?$AAp?$AAe?$AAr?$AA?$AA@ 7c6a83a0     libcmtd:vswprnc.obj
 0002:0000f3c8       ??_C@_1GE@KINELFI@?$AAf?$AA?3?$AA?2?$AAd?$AAd?$AA?2?$AAv?$AAc?$AAt?$AAo?$AAo?$AAl?$AAs?$AA?2?$AAc?$AAr?$AAt?$AA_?$AAb?$AAl?$AAd?$AA?2?$AAs?$AAe?$AAl?$AAf?$AA_?$AAx?$AA8?$AA6?$AA?2?$AAc@ 7c6a83c8     libcmtd:vswprnc.obj
 0002:0000f430       ??_C@_1EE@MPCHJFGP@?$AAs?$AAt?$AAr?$AAi?$AAn?$AAg?$AA?5?$AA?$CB?$AA?$DN?$AA?5?$AAN?$AAU?$AAL?$AAL?$AA?5?$AA?$CG?$AA?$CG?$AA?5?$AAs?$AAi?$AAz?$AAe?$AAI?$AAn?$AAW?$AAo?$AAr?$AAd?$AAs?$AA?5?$AA?$DO?$AA?5@ 7c6a8430     libcmtd:vswprnc.obj
 0002:0000f474       ??_C@_1BO@OALHJLCI@?$AA_?$AAv?$AAs?$AAw?$AAp?$AAr?$AAi?$AAn?$AAt?$AAf?$AA_?$AAs?$AA_?$AAl?$AA?$AA@ 7c6a8474     libcmtd:vswprnc.obj
 0002:0000f494       ??_C@_1CA@BKFKMJFF@?$AA_?$AAv?$AAs?$AAn?$AAw?$AAp?$AAr?$AAi?$AAn?$AAt?$AAf?$AA_?$AAs?$AA_?$AAl?$AA?$AA@ 7c6a8494     libcmtd:vswprnc.obj
 0002:0000f4b4       ??_C@_1BC@KIONAFPO@?$AAw?$AAc?$AAs?$AAc?$AAp?$AAy?$AA_?$AAs?$AA?$AA@ 7c6a84b4     libcmtd:wcscpy_s.obj
 0002:0000f4c8       ??_C@_1BE@NMKKBGPA@?$AAm?$AAe?$AAm?$AAm?$AAo?$AAv?$AAe?$AA_?$AAs?$AA?$AA@ 7c6a84c8     libcmtd:memmove_s.obj
 0002:0000f4dc       ??_C@_1BI@FBHFDPFC@?$AAm?$AAe?$AAm?$AAm?$AAo?$AAv?$AAe?$AA_?$AAs?$AA?4?$AAc?$AA?$AA@ 7c6a84dc     libcmtd:memmove_s.obj
 0002:0000f4f4       ??_C@_1BG@EELGPCPD@?$AA_?$AAw?$AAc?$AAs?$AAi?$AAc?$AAm?$AAp?$AA_?$AAl?$AA?$AA@ 7c6a84f4     libcmtd:wcsicmp.obj
 0002:0000f50c       ??_C@_1BE@MEHEGHGK@?$AAw?$AAc?$AAs?$AAi?$AAc?$AAm?$AAp?$AA?4?$AAc?$AA?$AA@ 7c6a850c     libcmtd:wcsicmp.obj
 0002:0000f520       ??_C@_1BC@NHIBDOMC@?$AA_?$AAw?$AAc?$AAs?$AAi?$AAc?$AAm?$AAp?$AA?$AA@ 7c6a8520     libcmtd:wcsicmp.obj
 0002:0000f534       ??_C@_07CKDBCAPD@mlock?4c?$AA@ 7c6a8534     libcmtd:mlock.obj
 0002:0000f540       ??_C@_1NK@LOFHIHFC@?$AAf?$AAM?$AAo?$AAd?$AAe?$AA?5?$AA?$DN?$AA?$DN?$AA?5?$AA_?$AAC?$AAR?$AAT?$AAD?$AAB?$AAG?$AA_?$AAR?$AAE?$AAP?$AAO?$AAR?$AAT?$AA_?$AAM?$AAO?$AAD?$AAE?$AA?5?$AA?$HM?$AA?$HM?$AA?5@ 7c6a8540     libcmtd:dbgrptt.obj
 0002:0000f61c       ??_C@_1CE@FIHIECNJ@?$AA_?$AAC?$AAr?$AAt?$AAS?$AAe?$AAt?$AAR?$AAe?$AAp?$AAo?$AAr?$AAt?$AAM?$AAo?$AAd?$AAe?$AA?$AA@ 7c6a861c     libcmtd:dbgrptt.obj
 0002:0000f640       ??_C@_1BE@FLKCNJCI@?$AAd?$AAb?$AAg?$AAr?$AAp?$AAt?$AAt?$AA?4?$AAc?$AA?$AA@ 7c6a8640     libcmtd:dbgrptt.obj
 0002:0000f658       ??_C@_1FA@IFFFOLDJ@?$AAn?$AAR?$AAp?$AAt?$AAT?$AAy?$AAp?$AAe?$AA?5?$AA?$DO?$AA?$DN?$AA?5?$AA0?$AA?5?$AA?$CG?$AA?$CG?$AA?5?$AAn?$AAR?$AAp?$AAt?$AAT?$AAy?$AAp?$AAe?$AA?5?$AA?$DM?$AA?5?$AA_?$AAC?$AAR?$AAT@ 7c6a8658     libcmtd:dbgrptt.obj
 0002:0000f6a8       ??_C@_1CE@IKKEDCME@?$AA_?$AAC?$AAr?$AAt?$AAS?$AAe?$AAt?$AAR?$AAe?$AAp?$AAo?$AAr?$AAt?$AAF?$AAi?$AAl?$AAe?$AA?$AA@ 7c6a86a8     libcmtd:dbgrptt.obj
 0002:0000f6d0       ??_C@_1HO@PJOFIKFE@?$AA_?$AAC?$AAr?$AAt?$AAD?$AAb?$AAg?$AAR?$AAe?$AAp?$AAo?$AAr?$AAt?$AA?3?$AA?5?$AAS?$AAt?$AAr?$AAi?$AAn?$AAg?$AA?5?$AAt?$AAo?$AAo?$AA?5?$AAl?$AAo?$AAn?$AAg?$AA?5?$AAo@ 7c6a86d0     libcmtd:dbgrptt.obj
 0002:0000f750       ??_C@_1MC@IGEECMDB@?$AAw?$AAc?$AAs?$AAc?$AAp?$AAy?$AA_?$AAs?$AA?$CI?$AAs?$AAz?$AAO?$AAu?$AAt?$AAM?$AAe?$AAs?$AAs?$AAa?$AAg?$AAe?$AA2?$AA?0?$AA?5?$AA4?$AA0?$AA9?$AA6?$AA?0?$AA?5?$AAL?$AA?$CC@ 7c6a8750     libcmtd:dbgrptt.obj
 0002:0000f818       ??_C@_1IM@OOKIFKOH@?$AAe?$AA?5?$AA?$DN?$AA?5?$AAm?$AAb?$AAs?$AAt?$AAo?$AAw?$AAc?$AAs?$AA_?$AAs?$AA?$CI?$AA?$CG?$AAr?$AAe?$AAt?$AA?0?$AA?5?$AAs?$AAz?$AAO?$AAu?$AAt?$AAM?$AAe?$AAs?$AAs?$AAa?$AAg@ 7c6a8818     libcmtd:dbgrptt.obj
 0002:0000f8a8       ??_C@_1FI@IBIOIHEG@?$AAs?$AAt?$AAr?$AAc?$AAp?$AAy?$AA_?$AAs?$AA?$CI?$AAs?$AAz?$AAO?$AAu?$AAt?$AAM?$AAe?$AAs?$AAs?$AAa?$AAg?$AAe?$AA?0?$AA?5?$AA4?$AA0?$AA9?$AA6?$AA?0?$AA?5?$AAs?$AAz?$AAL@ 7c6a88a8     libcmtd:dbgrptt.obj
 0002:0000f900       ??_C@_0M@IPILFDFN@?$CFs?$CI?$CFd?$CJ?5?3?5?$CFs?$AA@ 7c6a8900     libcmtd:dbgrptt.obj
 0002:0000f910       ??_C@_1EI@LDHJEDO@?$AAs?$AAt?$AAr?$AAc?$AAa?$AAt?$AA_?$AAs?$AA?$CI?$AAs?$AAz?$AAL?$AAi?$AAn?$AAe?$AAM?$AAe?$AAs?$AAs?$AAa?$AAg?$AAe?$AA?0?$AA?5?$AA4?$AA0?$AA9?$AA6?$AA?0?$AA?5?$AA?$CC?$AA?2@ 7c6a8910     libcmtd:dbgrptt.obj
 0002:0000f958       ??_C@_01LIIJDEN@?$AN?$AA@  7c6a8958     libcmtd:dbgrptt.obj
 0002:0000f960       ??_C@_1EI@CACDLAFK@?$AAs?$AAt?$AAr?$AAc?$AAa?$AAt?$AA_?$AAs?$AA?$CI?$AAs?$AAz?$AAL?$AAi?$AAn?$AAe?$AAM?$AAe?$AAs?$AAs?$AAa?$AAg?$AAe?$AA?0?$AA?5?$AA4?$AA0?$AA9?$AA6?$AA?0?$AA?5?$AA?$CC?$AA?2@ 7c6a8960     libcmtd:dbgrptt.obj
 0002:0000f9a8       ??_C@_1FK@NPGBPOFO@?$AAs?$AAt?$AAr?$AAc?$AAa?$AAt?$AA_?$AAs?$AA?$CI?$AAs?$AAz?$AAL?$AAi?$AAn?$AAe?$AAM?$AAe?$AAs?$AAs?$AAa?$AAg?$AAe?$AA?0?$AA?5?$AA4?$AA0?$AA9?$AA6?$AA?0?$AA?5?$AAs?$AAz@ 7c6a89a8     libcmtd:dbgrptt.obj
 0002:0000fa08       ??_C@_1KK@GIGAEDMO@?$AAs?$AAt?$AAr?$AAc?$AAp?$AAy?$AA_?$AAs?$AA?$CI?$AAs?$AAz?$AAL?$AAi?$AAn?$AAe?$AAM?$AAe?$AAs?$AAs?$AAa?$AAg?$AAe?$AA?0?$AA?5?$AA4?$AA0?$AA9?$AA6?$AA?0?$AA?5?$AAs?$AAz@ 7c6a8a08     libcmtd:dbgrptt.obj
 0002:0000fab4       ??_C@_0BC@LAIDCHCH@Assertion?5failed?$CB?$AA@ 7c6a8ab4     libcmtd:dbgrptt.obj
 0002:0000fac8       ??_C@_0BD@CAENFOHP@Assertion?5failed?3?5?$AA@ 7c6a8ac8     libcmtd:dbgrptt.obj
 0002:0000fae0       ??_C@_1JI@GAALPGBM@?$AAs?$AAt?$AAr?$AAc?$AAp?$AAy?$AA_?$AAs?$AA?$CI?$AAs?$AAz?$AAU?$AAs?$AAe?$AAr?$AAM?$AAe?$AAs?$AAs?$AAa?$AAg?$AAe?$AA?0?$AA?5?$AA4?$AA0?$AA9?$AA6?$AA?0?$AA?5?$AA?$CC?$AA_@ 7c6a8ae0     libcmtd:dbgrptt.obj
 0002:0000fb78       ??_C@_01EEMJAFIK@?6?$AA@   7c6a8b78     libcmtd:dbgrptt.obj
 0002:0000fb7c       ??_C@_07BHGABMGB@?0?5Line?5?$AA@ 7c6a8b7c     libcmtd:dbgrptt.obj
 0002:0000fb84       ??_C@_0P@DFJNDPOP@?$DMfile?5unknown?$DO?$AA@ 7c6a8b84     libcmtd:dbgrptt.obj
 0002:0000fb94       ??_C@_0CG@BNGLOCEO@Second?5Chance?5Assertion?5Failed?3?5@ 7c6a8b94     libcmtd:dbgrptt.obj
 0002:0000fbc0       ??_C@_1FA@JPHJBHEM@?$AA_?$AAi?$AAt?$AAo?$AAa?$AA_?$AAs?$AA?$CI?$AAn?$AAL?$AAi?$AAn?$AAe?$AA?0?$AA?5?$AAs?$AAz?$AAL?$AAi?$AAn?$AAe?$AAM?$AAe?$AAs?$AAs?$AAa?$AAg?$AAe?$AA?0?$AA?5?$AA4?$AA0@ 7c6a8bc0     libcmtd:dbgrptt.obj
 0002:0000fc10       ??_C@_1CA@KHJHLKA@?$AA_?$AAV?$AAC?$AAr?$AAt?$AAD?$AAb?$AAg?$AAR?$AAe?$AAp?$AAo?$AAr?$AAt?$AAA?$AA?$AA@ 7c6a8c10     libcmtd:dbgrptt.obj
 0002:0000fc30       ??_C@_1IE@CPGKIAGP@?$AAw?$AAc?$AAs?$AAt?$AAo?$AAm?$AAb?$AAs?$AA_?$AAs?$AA?$CI?$AA?$CG?$AAr?$AAe?$AAt?$AA?0?$AA?5?$AAs?$AAz?$AAa?$AAO?$AAu?$AAt?$AAM?$AAe?$AAs?$AAs?$AAa?$AAg?$AAe?$AA?0?$AA?5@ 7c6a8c30     libcmtd:dbgrptt.obj
 0002:0000fcb8       ??_C@_1MA@LBAMNNOB@?$AAs?$AAt?$AAr?$AAc?$AAp?$AAy?$AA_?$AAs?$AA?$CI?$AAs?$AAz?$AAO?$AAu?$AAt?$AAM?$AAe?$AAs?$AAs?$AAa?$AAg?$AAe?$AA2?$AA?0?$AA?5?$AA4?$AA0?$AA9?$AA6?$AA?0?$AA?5?$AA?$CC?$AA_@ 7c6a8cb8     libcmtd:dbgrptt.obj
 0002:0000fd78       ??_C@_1JC@EOAPFDLN@?$AAw?$AAc?$AAs?$AAt?$AAo?$AAm?$AAb?$AAs?$AA_?$AAs?$AA?$CI?$AA?$CI?$AA?$CI?$AAv?$AAo?$AAi?$AAd?$AA?5?$AA?$CK?$AA?$CJ?$AA0?$AA?$CJ?$AA?0?$AA?5?$AAs?$AAz?$AAO?$AAu?$AAt?$AAM?$AAe?$AAs@ 7c6a8d78     libcmtd:dbgrptt.obj
 0002:0000fe10       ??_C@_1FI@DBAIJPJE@?$AAw?$AAc?$AAs?$AAc?$AAp?$AAy?$AA_?$AAs?$AA?$CI?$AAs?$AAz?$AAO?$AAu?$AAt?$AAM?$AAe?$AAs?$AAs?$AAa?$AAg?$AAe?$AA?0?$AA?5?$AA4?$AA0?$AA9?$AA6?$AA?0?$AA?5?$AAs?$AAz?$AAL@ 7c6a8e10     libcmtd:dbgrptt.obj
 0002:0000fe68       ??_C@_1BI@JIDBEPIG@?$AA?$CF?$AAs?$AA?$CI?$AA?$CF?$AAd?$AA?$CJ?$AA?5?$AA?3?$AA?5?$AA?$CF?$AAs?$AA?$AA@ 7c6a8e68     libcmtd:dbgrptt.obj
 0002:0000fe80       ??_C@_1EK@PHCBEDKB@?$AAw?$AAc?$AAs?$AAc?$AAa?$AAt?$AA_?$AAs?$AA?$CI?$AAs?$AAz?$AAL?$AAi?$AAn?$AAe?$AAM?$AAe?$AAs?$AAs?$AAa?$AAg?$AAe?$AA?0?$AA?5?$AA4?$AA0?$AA9?$AA6?$AA?0?$AA?5?$AAL?$AA?$CC@ 7c6a8e80     libcmtd:dbgrptt.obj
 0002:0000fecc       ??_C@_13CMNBPIDO@?$AA?$AN?$AA?$AA@ 7c6a8ecc     libcmtd:dbgrptt.obj
 0002:0000fed0       ??_C@_1EK@NMDFGHMF@?$AAw?$AAc?$AAs?$AAc?$AAa?$AAt?$AA_?$AAs?$AA?$CI?$AAs?$AAz?$AAL?$AAi?$AAn?$AAe?$AAM?$AAe?$AAs?$AAs?$AAa?$AAg?$AAe?$AA?0?$AA?5?$AA4?$AA0?$AA9?$AA6?$AA?0?$AA?5?$AAL?$AA?$CC@ 7c6a8ed0     libcmtd:dbgrptt.obj
 0002:0000ff20       ??_C@_1FK@HPADHBBD@?$AAw?$AAc?$AAs?$AAc?$AAa?$AAt?$AA_?$AAs?$AA?$CI?$AAs?$AAz?$AAL?$AAi?$AAn?$AAe?$AAM?$AAe?$AAs?$AAs?$AAa?$AAg?$AAe?$AA?0?$AA?5?$AA4?$AA0?$AA9?$AA6?$AA?0?$AA?5?$AAs?$AAz@ 7c6a8f20     libcmtd:dbgrptt.obj
 0002:0000ff80       ??_C@_1KO@DGAHENCH@?$AAw?$AAc?$AAs?$AAc?$AAp?$AAy?$AA_?$AAs?$AA?$CI?$AAs?$AAz?$AAL?$AAi?$AAn?$AAe?$AAM?$AAe?$AAs?$AAs?$AAa?$AAg?$AAe?$AA?0?$AA?5?$AA4?$AA0?$AA9?$AA6?$AA?0?$AA?5?$AAs?$AAz@ 7c6a8f80     libcmtd:dbgrptt.obj
 0002:00010030       ??_C@_1CE@OJBNHDMO@?$AAA?$AAs?$AAs?$AAe?$AAr?$AAt?$AAi?$AAo?$AAn?$AA?5?$AAf?$AAa?$AAi?$AAl?$AAe?$AAd?$AA?$CB?$AA?$AA@ 7c6a9030     libcmtd:dbgrptt.obj
 0002:00010054       ??_C@_1CG@FFFGGODN@?$AAA?$AAs?$AAs?$AAe?$AAr?$AAt?$AAi?$AAo?$AAn?$AA?5?$AAf?$AAa?$AAi?$AAl?$AAe?$AAd?$AA?3?$AA?5?$AA?$AA@ 7c6a9054     libcmtd:dbgrptt.obj
 0002:00010080       ??_C@_1JK@KHFABAEO@?$AAw?$AAc?$AAs?$AAc?$AAp?$AAy?$AA_?$AAs?$AA?$CI?$AAs?$AAz?$AAU?$AAs?$AAe?$AAr?$AAM?$AAe?$AAs?$AAs?$AAa?$AAg?$AAe?$AA?0?$AA?5?$AA4?$AA0?$AA9?$AA6?$AA?0?$AA?5?$AAL?$AA?$CC@ 7c6a9080     libcmtd:dbgrptt.obj
 0002:0001011c       ??_C@_13LBAGMAIH@?$AA?6?$AA?$AA@ 7c6a911c     libcmtd:dbgrptt.obj
 0002:00010120       ??_C@_1BA@ELMMDCFC@?$AA?0?$AA?5?$AAL?$AAi?$AAn?$AAe?$AA?5?$AA?$AA@ 7c6a9120     libcmtd:dbgrptt.obj
 0002:00010130       ??_C@_1BO@OCHMLCAG@?$AA?$DM?$AAf?$AAi?$AAl?$AAe?$AA?5?$AAu?$AAn?$AAk?$AAn?$AAo?$AAw?$AAn?$AA?$DO?$AA?$AA@ 7c6a9130     libcmtd:dbgrptt.obj
 0002:00010150       ??_C@_1EM@MJFLEDMB@?$AAS?$AAe?$AAc?$AAo?$AAn?$AAd?$AA?5?$AAC?$AAh?$AAa?$AAn?$AAc?$AAe?$AA?5?$AAA?$AAs?$AAs?$AAe?$AAr?$AAt?$AAi?$AAo?$AAn?$AA?5?$AAF?$AAa?$AAi?$AAl?$AAe?$AAd?$AA?3?$AA?5@ 7c6a9150     libcmtd:dbgrptt.obj
 0002:000101a0       ??_C@_1FA@CNLLOMHI@?$AA_?$AAi?$AAt?$AAo?$AAw?$AA_?$AAs?$AA?$CI?$AAn?$AAL?$AAi?$AAn?$AAe?$AA?0?$AA?5?$AAs?$AAz?$AAL?$AAi?$AAn?$AAe?$AAM?$AAe?$AAs?$AAs?$AAa?$AAg?$AAe?$AA?0?$AA?5?$AA4?$AA0@ 7c6a91a0     libcmtd:dbgrptt.obj
 0002:000101f0       ??_C@_1CA@HPALHDOD@?$AA_?$AAV?$AAC?$AAr?$AAt?$AAD?$AAb?$AAg?$AAR?$AAe?$AAp?$AAo?$AAr?$AAt?$AAW?$AA?$AA@ 7c6a91f0     libcmtd:dbgrptt.obj
 0002:00010210       ??_C@_1BK@CMPKHPEC@?$AAn?$AA?5?$AA?$DM?$AA?$DN?$AA?5?$AAI?$AAN?$AAT?$AA_?$AAM?$AAA?$AAX?$AA?$AA@ 7c6a9210     libcmtd:wcstombs.obj
 0002:0001022c       ??_C@_1CG@LLJCAOHF@?$AA_?$AAw?$AAc?$AAs?$AAt?$AAo?$AAm?$AAb?$AAs?$AA_?$AAl?$AA_?$AAh?$AAe?$AAl?$AAp?$AAe?$AAr?$AA?$AA@ 7c6a922c     libcmtd:wcstombs.obj
 0002:00010254       ??_C@_1BG@POHBKINF@?$AAw?$AAc?$AAs?$AAt?$AAo?$AAm?$AAb?$AAs?$AA?4?$AAc?$AA?$AA@ 7c6a9254     libcmtd:wcstombs.obj
 0002:0001026c       ??_C@_1BK@OIBENBPM@?$AAp?$AAw?$AAc?$AAs?$AA?5?$AA?$CB?$AA?$DN?$AA?5?$AAN?$AAU?$AAL?$AAL?$AA?$AA@ 7c6a926c     libcmtd:wcstombs.obj
 0002:00010288       ??_C@_1CM@KEOGBFLI@?$AAs?$AAi?$AAz?$AAe?$AAI?$AAn?$AAB?$AAy?$AAt?$AAe?$AAs?$AA?5?$AA?$DO?$AA?5?$AAr?$AAe?$AAt?$AAs?$AAi?$AAz?$AAe?$AA?$AA@ 7c6a9288     libcmtd:wcstombs.obj
 0002:000102b4       ??_C@_1BM@BDMCLLDL@?$AA_?$AAw?$AAc?$AAs?$AAt?$AAo?$AAm?$AAb?$AAs?$AA_?$AAs?$AA_?$AAl?$AA?$AA@ 7c6a92b4     libcmtd:wcstombs.obj
 0002:000102d0       ??_C@_1IM@MFGKHGBP@?$AA?$CI?$AAd?$AAs?$AAt?$AA?5?$AA?$CB?$AA?$DN?$AA?5?$AAN?$AAU?$AAL?$AAL?$AA?5?$AA?$CG?$AA?$CG?$AA?5?$AAs?$AAi?$AAz?$AAe?$AAI?$AAn?$AAB?$AAy?$AAt?$AAe?$AAs?$AA?5?$AA?$DO?$AA?5?$AA0?$AA?$CJ@ 7c6a92d0     libcmtd:wcstombs.obj
 0002:0001035c       ??_C@_0P@MIGLKIOC@CorExitProcess?$AA@ 7c6a935c     libcmtd:crt0dat.obj
 0002:0001036c       ??_C@_0M@MBOPBNBK@mscoree?4dll?$AA@ 7c6a936c     libcmtd:crt0dat.obj
 0002:00010378       ??_C@_1BO@PCPNBEJP@?$AA_?$AAo?$AAs?$AAp?$AAl?$AAa?$AAt?$AAf?$AAo?$AAr?$AAm?$AA?$CB?$AA?$DN?$AA0?$AA?$AA@ 7c6a9378     libcmtd:crt0dat.obj
 0002:00010398       ??_C@_1CA@HBJLODAG@?$AA_?$AAg?$AAe?$AAt?$AA_?$AAo?$AAs?$AAp?$AAl?$AAa?$AAt?$AAf?$AAo?$AAr?$AAm?$AA?$AA@ 7c6a9398     libcmtd:crt0dat.obj
 0002:000103b8       ??_C@_1BE@DFOEAGLM@?$AAc?$AAr?$AAt?$AA0?$AAd?$AAa?$AAt?$AA?4?$AAc?$AA?$AA@ 7c6a93b8     libcmtd:crt0dat.obj
 0002:000103cc       ??_C@_1BG@OLMEODBO@?$AA_?$AAg?$AAe?$AAt?$AA_?$AAo?$AAs?$AAv?$AAe?$AAr?$AA?$AA@ 7c6a93cc     libcmtd:crt0dat.obj
 0002:000103e4       ??_C@_1BI@EHCOONPO@?$AA_?$AAg?$AAe?$AAt?$AA_?$AAw?$AAi?$AAn?$AAv?$AAe?$AAr?$AA?$AA@ 7c6a93e4     libcmtd:crt0dat.obj
 0002:000103fc       ??_C@_1BM@MHJHOJPG@?$AA_?$AAg?$AAe?$AAt?$AA_?$AAw?$AAi?$AAn?$AAm?$AAa?$AAj?$AAo?$AAr?$AA?$AA@ 7c6a93fc     libcmtd:crt0dat.obj
 0002:00010418       ??_C@_1BM@FAAKKHPI@?$AA_?$AAg?$AAe?$AAt?$AA_?$AAw?$AAi?$AAn?$AAm?$AAi?$AAn?$AAo?$AAr?$AA?$AA@ 7c6a9418     libcmtd:crt0dat.obj
 0002:00010434       ??_C@_1CC@CDIPMFPD@?$AA_?$AAw?$AAp?$AAg?$AAm?$AAp?$AAt?$AAr?$AA?5?$AA?$CB?$AA?$DN?$AA?5?$AAN?$AAU?$AAL?$AAL?$AA?$AA@ 7c6a9434     libcmtd:crt0dat.obj
 0002:00010458       ??_C@_1BK@PNLDCCDP@?$AA_?$AAg?$AAe?$AAt?$AA_?$AAw?$AAp?$AAg?$AAm?$AAp?$AAt?$AAr?$AA?$AA@ 7c6a9458     libcmtd:crt0dat.obj
 0002:00010474       ??_C@_1CA@BBNAFCKO@?$AA_?$AAp?$AAg?$AAm?$AAp?$AAt?$AAr?$AA?5?$AA?$CB?$AA?$DN?$AA?5?$AAN?$AAU?$AAL?$AAL?$AA?$AA@ 7c6a9474     libcmtd:crt0dat.obj
 0002:00010494       ??_C@_1BI@COAAPHJK@?$AA_?$AAg?$AAe?$AAt?$AA_?$AAp?$AAg?$AAm?$AAp?$AAt?$AAr?$AA?$AA@ 7c6a9494     libcmtd:crt0dat.obj
 0002:000104ac       ??_C@_1O@EJLDHPPL@?$AAs?$AAi?$AAg?$AAn?$AAa?$AAl?$AA?$AA@ 7c6a94ac     libcmtd:winsig.obj
 0002:000104bc       ??_C@_1BC@KDODBONJ@?$AAw?$AAi?$AAn?$AAs?$AAi?$AAg?$AA?4?$AAc?$AA?$AA@ 7c6a94bc     libcmtd:winsig.obj
 0002:000104d0       ??_C@_1DO@MLNEDKGB@?$AA?$CI?$AA?$CC?$AAI?$AAn?$AAv?$AAa?$AAl?$AAi?$AAd?$AA?5?$AAs?$AAi?$AAg?$AAn?$AAa?$AAl?$AA?5?$AAo?$AAr?$AA?5?$AAe?$AAr?$AAr?$AAo?$AAr?$AA?$CC?$AA?0?$AA?5?$AA0?$AA?$CJ?$AA?$AA@ 7c6a94d0     libcmtd:winsig.obj
 0002:00010510       ??_C@_08FKHPDPAC@winsig?4c?$AA@ 7c6a9510     libcmtd:winsig.obj
 0002:0001051c       ??_C@_1M@DMJEIKHL@?$AAr?$AAa?$AAi?$AAs?$AAe?$AA?$AA@ 7c6a951c     libcmtd:winsig.obj
 0002:00010528       ??_C@_1DC@OIOKIELJ@?$AA_?$AAg?$AAe?$AAt?$AA_?$AAw?$AAi?$AAn?$AAm?$AAa?$AAj?$AAo?$AAr?$AA?$CI?$AA?$CG?$AAw?$AAi?$AAn?$AAm?$AAa?$AAj?$AAo?$AAr?$AA?$CJ?$AA?$AA@ 7c6a9528     libcmtd:crtmboxw.obj
 0002:0001055c       ??_C@_0BK@DEKFELLI@GetUserObjectInformationW?$AA@ 7c6a955c     libcmtd:crtmboxw.obj
 0002:00010578       ??_C@_1CC@LBPMICNL@?$AA_?$AA_?$AAc?$AAr?$AAt?$AAM?$AAe?$AAs?$AAs?$AAa?$AAg?$AAe?$AAB?$AAo?$AAx?$AAW?$AA?$AA@ 7c6a9578     libcmtd:crtmboxw.obj
 0002:000105a0       ??_C@_1GC@IFHIAD@?$AAf?$AA?3?$AA?2?$AAd?$AAd?$AA?2?$AAv?$AAc?$AAt?$AAo?$AAo?$AAl?$AAs?$AA?2?$AAc?$AAr?$AAt?$AA_?$AAb?$AAl?$AAd?$AA?2?$AAs?$AAe?$AAl?$AAf?$AA_?$AAx?$AA8?$AA6?$AA?2?$AAc@ 7c6a95a0     libcmtd:crtmboxw.obj
 0002:00010604       ??_C@_0BD@HHGDFDBJ@GetLastActivePopup?$AA@ 7c6a9604     libcmtd:crtmboxw.obj
 0002:00010618       ??_C@_0M@DLDCCGNP@MessageBoxW?$AA@ 7c6a9618     libcmtd:crtmboxw.obj
 0002:00010624       ??_C@_1BG@GOEBHBDC@?$AAU?$AAS?$AAE?$AAR?$AA3?$AA2?$AA?4?$AAD?$AAL?$AAL?$AA?$AA@ 7c6a9624     libcmtd:crtmboxw.obj
 0002:0001063c       ??_C@_1BI@OINOOFEA@?$AAh?$AAa?$AAn?$AAd?$AAl?$AAe?$AAr?$AA?4?$AAc?$AAp?$AAp?$AA?$AA@ 7c6a963c     libcmtd:handler.obj
 0002:00010654       ??_C@_1BC@JLLICHIC@?$AAp?$AAn?$AAh?$AA?5?$AA?$DN?$AA?$DN?$AA?5?$AA0?$AA?$AA@ 7c6a9654     libcmtd:handler.obj
 0002:00010668       ??_C@_1BK@JMCGJOCC@?$AA_?$AAe?$AAx?$AAp?$AAa?$AAn?$AAd?$AA_?$AAb?$AAa?$AAs?$AAe?$AA?$AA@ 7c6a9668     libcmtd:expand.obj
 0002:00010684       ??_C@_1BC@OBICIAFI@?$AAe?$AAx?$AAp?$AAa?$AAn?$AAd?$AA?4?$AAc?$AA?$AA@ 7c6a9684     libcmtd:expand.obj
 0002:00010698       ??_C@_1BO@KFIJIAEA@?$AAp?$AAB?$AAl?$AAo?$AAc?$AAk?$AA?5?$AA?$CB?$AA?$DN?$AA?5?$AAN?$AAU?$AAL?$AAL?$AA?$AA@ 7c6a9698     libcmtd:expand.obj
 0002:000106b8       ??_C@_1BO@EMPIBJGC@?$AA_?$AAr?$AAe?$AAc?$AAa?$AAl?$AAl?$AAo?$AAc?$AA_?$AAb?$AAa?$AAs?$AAe?$AA?$AA@ 7c6a96b8     libcmtd:realloc.obj
 0002:000106d8       ??_C@_1BE@IAPDAHOE@?$AAr?$AAe?$AAa?$AAl?$AAl?$AAo?$AAc?$AA?4?$AAc?$AA?$AA@ 7c6a96d8     libcmtd:realloc.obj
 0002:000106ec       ??_C@_1BM@DKJOGMJM@?$AA_?$AA_?$AAh?$AAe?$AAa?$AAp?$AA_?$AAs?$AAe?$AAl?$AAe?$AAc?$AAt?$AA?$AA@ 7c6a96ec     libcmtd:heapinit.obj
 0002:00010708       ??_C@_1BG@INAAHHLF@?$AAh?$AAe?$AAa?$AAp?$AAi?$AAn?$AAi?$AAt?$AA?4?$AAc?$AA?$AA@ 7c6a9708     libcmtd:heapinit.obj
 0002:00010720       ??_C@_1BC@DENNNKIM@?$AA_?$AAc?$AAr?$AAt?$AAh?$AAe?$AAa?$AAp?$AA?$AA@ 7c6a9720     libcmtd:heapinit.obj
 0002:00010734       ??_C@_1BC@IMNOJJAO@?$AAs?$AAb?$AAh?$AAe?$AAa?$AAp?$AA?4?$AAc?$AA?$AA@ 7c6a9734     libcmtd:sbheap.obj
 0002:00010748       ??_C@_1IC@MOGBEBCE@?$AA?$CI?$AAt?$AAh?$AAr?$AAe?$AAs?$AAh?$AAo?$AAl?$AAd?$AA?5?$AA?$DM?$AA?$DN?$AA?5?$AAM?$AAA?$AAX?$AA_?$AAA?$AAL?$AAL?$AAO?$AAC?$AA_?$AAD?$AAA?$AAT?$AAA?$AA_?$AAS?$AAI?$AAZ@ 7c6a9748     libcmtd:sbheap.obj
 0002:000107cc       ??_C@_1CG@BBFCGKBK@?$AA_?$AAs?$AAe?$AAt?$AA_?$AAs?$AAb?$AAh?$AA_?$AAt?$AAh?$AAr?$AAe?$AAs?$AAh?$AAo?$AAl?$AAd?$AA?$AA@ 7c6a97cc     libcmtd:sbheap.obj
 0002:000107f8       ??_C@_1EC@DACAONFE@?$AAt?$AAh?$AAr?$AAe?$AAs?$AAh?$AAo?$AAl?$AAd?$AA?5?$AA?$DM?$AA?$DN?$AA?5?$AAM?$AAA?$AAX?$AA_?$AAA?$AAL?$AAL?$AAO?$AAC?$AA_?$AAD?$AAA?$AAT?$AAA?$AA_?$AAS?$AAI?$AAZ?$AAE@ 7c6a97f8     libcmtd:sbheap.obj
 0002:0001083c       ??_C@_1BM@GFNECEDD@?$AA_?$AAs?$AAe?$AAt?$AA_?$AAa?$AAm?$AAb?$AAl?$AAk?$AAs?$AAi?$AAz?$AA?$AA@ 7c6a983c     libcmtd:sbheap.obj
 0002:00010858       ??_C@_1DK@BKLENMLC@?$AA0?$AA?5?$AA?$DM?$AA?5?$AAs?$AAi?$AAz?$AAe?$AA?5?$AA?$CG?$AA?$CG?$AA?5?$AAs?$AAi?$AAz?$AAe?$AA?5?$AA?$DM?$AA?$DN?$AA?5?$AAU?$AAI?$AAN?$AAT?$AA_?$AAM?$AAA?$AAX?$AA?$AA@ 7c6a9858     libcmtd:sbheap.obj
 0002:00010894       ??_C@_1BM@OFBCOJJF@?$AA_?$AAg?$AAe?$AAt?$AA_?$AAa?$AAm?$AAb?$AAl?$AAk?$AAs?$AAi?$AAz?$AA?$AA@ 7c6a9894     libcmtd:sbheap.obj
 0002:000108b0       ??_C@_1BM@IELHFPPM@?$AAp?$AAS?$AAi?$AAz?$AAe?$AA?5?$AA?$CB?$AA?$DN?$AA?5?$AAN?$AAU?$AAL?$AAL?$AA?$AA@ 7c6a98b0     libcmtd:sbheap.obj
 0002:000108cc       ??_C@_09KJLOAKHC@mbctype?4c?$AA@ 7c6a98cc     libcmtd:mbctype.obj
 0002:000108d8       ??_C@_07LCBHPJJN@LC_TIME?$AA@ 7c6a98d8     libcmtd:setlocal.obj
 0002:000108e0       ??_C@_0L@DLHIECNL@LC_NUMERIC?$AA@ 7c6a98e0     libcmtd:setlocal.obj
 0002:000108ec       ??_C@_0M@MIENIKLA@LC_MONETARY?$AA@ 7c6a98ec     libcmtd:setlocal.obj
 0002:000108f8       ??_C@_08EADHIDAD@LC_CTYPE?$AA@ 7c6a98f8     libcmtd:setlocal.obj
 0002:00010904       ??_C@_0L@KFJHEKIK@LC_COLLATE?$AA@ 7c6a9904     libcmtd:setlocal.obj
 0002:00010910       ??_C@_06NEFDFEKB@LC_ALL?$AA@ 7c6a9910     libcmtd:setlocal.obj
 0002:00010918       ___lc_category             7c6a9918     libcmtd:setlocal.obj
 0002:000109e0       ??_C@_1BG@PFHEEGCP@?$AAs?$AAe?$AAt?$AAl?$AAo?$AAc?$AAa?$AAl?$AA?4?$AAc?$AA?$AA@ 7c6a99e0     libcmtd:setlocal.obj
 0002:000109f8       ??_C@_1BKC@GGIENNAK@?$AA?$CI?$AA?$CI?$AAp?$AAt?$AAl?$AAo?$AAc?$AAi?$AA?9?$AA?$DO?$AAl?$AAc?$AA_?$AAc?$AAa?$AAt?$AAe?$AAg?$AAo?$AAr?$AAy?$AA?$FL?$AAc?$AAa?$AAt?$AAe?$AAg?$AAo?$AAr?$AAy?$AA?$FN?$AA?4@ 7c6a99f8     libcmtd:setlocal.obj
 0002:00010b9c       ??_C@_1CI@FGIONOJM@?$AA_?$AAc?$AAo?$AAn?$AAf?$AAi?$AAg?$AAt?$AAh?$AAr?$AAe?$AAa?$AAd?$AAl?$AAo?$AAc?$AAa?$AAl?$AAe?$AA?$AA@ 7c6a9b9c     libcmtd:setlocal.obj
 0002:00010bc8       ??_C@_1GA@LDEGDKD@?$AA?$CI?$AA?$CC?$AAI?$AAn?$AAv?$AAa?$AAl?$AAi?$AAd?$AA?5?$AAp?$AAa?$AAr?$AAa?$AAm?$AAe?$AAt?$AAe?$AAr?$AA?5?$AAf?$AAo?$AAr?$AA?5?$AA_?$AAc?$AAo?$AAn?$AAf?$AAi?$AAg?$AAt@ 7c6a9bc8     libcmtd:setlocal.obj
 0002:00010c28       ??_C@_0L@LEECJGMI@setlocal?4c?$AA@ 7c6a9c28     libcmtd:setlocal.obj
 0002:00010c34       ??_C@_1BE@DBJGBOJC@?$AAs?$AAe?$AAt?$AAl?$AAo?$AAc?$AAa?$AAl?$AAe?$AA?$AA@ 7c6a9c34     libcmtd:setlocal.obj
 0002:00010c48       ??_C@_1FG@OHLFEKMC@?$AAL?$AAC?$AA_?$AAM?$AAI?$AAN?$AA?5?$AA?$DM?$AA?$DN?$AA?5?$AA_?$AAc?$AAa?$AAt?$AAe?$AAg?$AAo?$AAr?$AAy?$AA?5?$AA?$CG?$AA?$CG?$AA?5?$AA_?$AAc?$AAa?$AAt?$AAe?$AAg?$AAo?$AAr?$AAy@ 7c6a9c48     libcmtd:setlocal.obj
 0002:00010ca0       ??_C@_1IA@PFIKKKFB@?$AAs?$AAt?$AAr?$AAn?$AAc?$AAp?$AAy?$AA_?$AAs?$AA?$CI?$AAl?$AAc?$AAt?$AAe?$AAm?$AAp?$AA?0?$AA?5?$AA?$CI?$AAs?$AAi?$AAz?$AAe?$AAo?$AAf?$AA?$CI?$AAl?$AAc?$AAt?$AAe?$AAm?$AAp@ 7c6a9ca0     libcmtd:setlocal.obj
 0002:00010d20       ??_C@_1CE@OFNHIOO@?$AA_?$AAs?$AAe?$AAt?$AAl?$AAo?$AAc?$AAa?$AAl?$AAe?$AA_?$AAn?$AAo?$AAl?$AAo?$AAc?$AAk?$AA?$AA@ 7c6a9d20     libcmtd:setlocal.obj
 0002:00010d44       ??_C@_01ICJEACDI@?$DL?$AA@ 7c6a9d44     libcmtd:setlocal.obj
 0002:00010d48       ??_C@_02BALPLPBG@?$DN?$DL?$AA@ 7c6a9d48     libcmtd:setlocal.obj
 0002:00010d50       ??_C@_1GO@JALHLJEH@?$AAs?$AAt?$AAr?$AAc?$AAp?$AAy?$AA_?$AAs?$AA?$CI?$AAp?$AAc?$AAh?$AA?5?$AA?$CL?$AA?5?$AAs?$AAi?$AAz?$AAe?$AAo?$AAf?$AA?$CI?$AAi?$AAn?$AAt?$AA?$CJ?$AA?0?$AA?5?$AAc?$AAc?$AAh?$AA?5@ 7c6a9d50     libcmtd:setlocal.obj
 0002:00010dc0       ??_C@_1CG@IEFIICPK@?$AA_?$AAs?$AAe?$AAt?$AAl?$AAo?$AAc?$AAa?$AAl?$AAe?$AA_?$AAs?$AAe?$AAt?$AA_?$AAc?$AAa?$AAt?$AA?$AA@ 7c6a9dc0     libcmtd:setlocal.obj
 0002:00010de8       ??_C@_1DA@GDKKLCLM@?$AAs?$AAt?$AAr?$AAc?$AAa?$AAt?$AA_?$AAs?$AA?$CI?$AAp?$AAc?$AAh?$AA?0?$AA?5?$AAc?$AAc?$AAh?$AA?0?$AA?5?$AA?$CC?$AA?$DL?$AA?$CC?$AA?$CJ?$AA?$AA@ 7c6a9de8     libcmtd:setlocal.obj
 0002:00010e18       ??_C@_1CG@NNFIJLDA@?$AA_?$AAs?$AAe?$AAt?$AAl?$AAo?$AAc?$AAa?$AAl?$AAe?$AA_?$AAg?$AAe?$AAt?$AA_?$AAa?$AAl?$AAl?$AA?$AA@ 7c6a9e18     libcmtd:setlocal.obj
 0002:00010e40       ??_C@_01NEMOKFLO@?$DN?$AA@ 7c6a9e40     libcmtd:setlocal.obj
 0002:00010e48       ??_C@_1FA@MHAOOIBO@?$AAs?$AAt?$AAr?$AAc?$AAp?$AAy?$AA_?$AAs?$AA?$CI?$AAo?$AAu?$AAt?$AAp?$AAu?$AAt?$AA?0?$AA?5?$AAs?$AAi?$AAz?$AAe?$AAI?$AAn?$AAC?$AAh?$AAa?$AAr?$AAs?$AA?0?$AA?5?$AAc?$AAa@ 7c6a9e48     libcmtd:setlocal.obj
 0002:00010e98       ??_C@_1IA@ONNFOEDA@?$AAs?$AAt?$AAr?$AAn?$AAc?$AAp?$AAy?$AA_?$AAs?$AA?$CI?$AAc?$AAa?$AAc?$AAh?$AAe?$AAi?$AAn?$AA?0?$AA?5?$AAc?$AAa?$AAc?$AAh?$AAe?$AAi?$AAn?$AAS?$AAi?$AAz?$AAe?$AA?0?$AA?5@ 7c6a9e98     libcmtd:setlocal.obj
 0002:00010f18       ??_C@_01GFHCPBMG@C?$AA@    7c6a9f18     libcmtd:setlocal.obj
 0002:00010f20       ??_C@_1EG@MOMHKOD@?$AAs?$AAt?$AAr?$AAc?$AAp?$AAy?$AA_?$AAs?$AA?$CI?$AAo?$AAu?$AAt?$AAp?$AAu?$AAt?$AA?0?$AA?5?$AAs?$AAi?$AAz?$AAe?$AAI?$AAn?$AAC?$AAh?$AAa?$AAr?$AAs?$AA?0?$AA?5?$AA?$CC?$AAC@ 7c6a9f20     libcmtd:setlocal.obj
 0002:00010f68       ??_C@_1BM@OIIBLEFG@?$AA_?$AAe?$AAx?$AAp?$AAa?$AAn?$AAd?$AAl?$AAo?$AAc?$AAa?$AAl?$AAe?$AA?$AA@ 7c6a9f68     libcmtd:setlocal.obj
 0002:00010f88       ??_C@_1BGM@IJDLABMC@?$AAs?$AAt?$AAr?$AAc?$AAa?$AAt?$AA_?$AAs?$AA?$CI?$AAo?$AAu?$AAt?$AAs?$AAt?$AAr?$AA?0?$AA?5?$AAs?$AAi?$AAz?$AAe?$AAI?$AAn?$AAB?$AAy?$AAt?$AAe?$AAs?$AA?0?$AA?5?$AA?$CI?$AA?5@ 7c6a9f88     libcmtd:setlocal.obj
 0002:000110f4       ??_C@_1BC@PIABMDIP@?$AA_?$AAs?$AAt?$AAr?$AAc?$AAa?$AAt?$AAs?$AA?$AA@ 7c6aa0f4     libcmtd:setlocal.obj
 0002:00011108       ??_C@_1MM@NOPMGFHF@?$AAs?$AAt?$AAr?$AAn?$AAc?$AAp?$AAy?$AA_?$AAs?$AA?$CI?$AAn?$AAa?$AAm?$AAe?$AAs?$AA?9?$AA?$DO?$AAs?$AAz?$AAC?$AAo?$AAd?$AAe?$AAP?$AAa?$AAg?$AAe?$AA?0?$AA?5?$AA?$CI?$AAs?$AAi@ 7c6aa108     libcmtd:setlocal.obj
 0002:000111d8       ??_C@_1MG@PHNILIAG@?$AAs?$AAt?$AAr?$AAn?$AAc?$AAp?$AAy?$AA_?$AAs?$AA?$CI?$AAn?$AAa?$AAm?$AAe?$AAs?$AA?9?$AA?$DO?$AAs?$AAz?$AAC?$AAo?$AAu?$AAn?$AAt?$AAr?$AAy?$AA?0?$AA?5?$AA?$CI?$AAs?$AAi?$AAz@ 7c6aa1d8     libcmtd:setlocal.obj
 0002:000112a0       ??_C@_1MM@BFEECMAF@?$AAs?$AAt?$AAr?$AAn?$AAc?$AAp?$AAy?$AA_?$AAs?$AA?$CI?$AAn?$AAa?$AAm?$AAe?$AAs?$AA?9?$AA?$DO?$AAs?$AAz?$AAL?$AAa?$AAn?$AAg?$AAu?$AAa?$AAg?$AAe?$AA?0?$AA?5?$AA?$CI?$AAs?$AAi@ 7c6aa2a0     libcmtd:setlocal.obj
 0002:0001136c       ??_C@_03EGDHDPFD@_?4?0?$AA@ 7c6aa36c     libcmtd:setlocal.obj
 0002:00011370       ??_C@_1NG@FMOPGKGG@?$AAs?$AAt?$AAr?$AAn?$AAc?$AAp?$AAy?$AA_?$AAs?$AA?$CI?$AAn?$AAa?$AAm?$AAe?$AAs?$AA?9?$AA?$DO?$AAs?$AAz?$AAC?$AAo?$AAd?$AAe?$AAP?$AAa?$AAg?$AAe?$AA?0?$AA?5?$AA?$CI?$AAs?$AAi@ 7c6aa370     libcmtd:setlocal.obj
 0002:00011448       ??_C@_1BK@CBMMLAGJ@?$AA_?$AA_?$AAl?$AAc?$AA_?$AAs?$AAt?$AAr?$AAt?$AAo?$AAl?$AAc?$AA?$AA@ 7c6aa448     libcmtd:setlocal.obj
 0002:00011464       ??_C@_01LFCBOECM@?4?$AA@   7c6aa464     libcmtd:setlocal.obj
 0002:00011468       ??_C@_01IDAFKMJL@_?$AA@    7c6aa468     libcmtd:setlocal.obj
 0002:00011470       ??_C@_1HC@IBDBLKCB@?$AAs?$AAt?$AAr?$AAc?$AAp?$AAy?$AA_?$AAs?$AA?$CI?$AAl?$AAo?$AAc?$AAa?$AAl?$AAe?$AA?0?$AA?5?$AAs?$AAi?$AAz?$AAe?$AAI?$AAn?$AAB?$AAy?$AAt?$AAe?$AAs?$AA?0?$AA?5?$AA?$CI?$AAc@ 7c6aa470     libcmtd:setlocal.obj
 0002:000114e4       ??_C@_1BK@FGDJDEPG@?$AA_?$AA_?$AAl?$AAc?$AA_?$AAl?$AAc?$AAt?$AAo?$AAs?$AAt?$AAr?$AA?$AA@ 7c6aa4e4     libcmtd:setlocal.obj
 0002:00011500       ??_C@_0O@NLDKAIKN@EncodePointer?$AA@ 7c6aa500     libcmtd:tidtable.obj
 0002:00011510       ??_C@_0N@NHGLKGEC@KERNEL32?4DLL?$AA@ 7c6aa510     libcmtd:tidtable.obj
 0002:00011520       ??_C@_07EPKMNAGK@?4mixcrt?$AA@ 7c6aa520     libcmtd:tidtable.obj
 0002:00011528       ??_C@_0O@KBPMFGHI@DecodePointer?$AA@ 7c6aa528     libcmtd:tidtable.obj
 0002:00011538       ??_C@_0L@JKCACIOJ@tidtable?4c?$AA@ 7c6aa538     libcmtd:tidtable.obj
 0002:00011544       ??_C@_07PEJMOBNF@FlsFree?$AA@ 7c6aa544     libcmtd:tidtable.obj
 0002:0001154c       ??_C@_0M@JCPCPOEF@FlsSetValue?$AA@ 7c6aa54c     libcmtd:tidtable.obj
 0002:00011558       ??_C@_0M@GDNOONDI@FlsGetValue?$AA@ 7c6aa558     libcmtd:tidtable.obj
 0002:00011564       ??_C@_08KNHFBNJ@FlsAlloc?$AA@ 7c6aa564     libcmtd:tidtable.obj
 0002:00011570       ??_C@_1BE@CEKCJJBD@?$AAi?$AAs?$AAc?$AAt?$AAy?$AAp?$AAe?$AA?4?$AAc?$AA?$AA@ 7c6aa570     libcmtd:isctype.obj
 0002:00011584       ??_C@_1DC@BPLPALML@?$AA?$CI?$AAu?$AAn?$AAs?$AAi?$AAg?$AAn?$AAe?$AAd?$AA?$CJ?$AA?$CI?$AAc?$AA?5?$AA?$CL?$AA?5?$AA1?$AA?$CJ?$AA?5?$AA?$DM?$AA?$DN?$AA?5?$AA2?$AA5?$AA6?$AA?$AA@ 7c6aa584     libcmtd:isctype.obj
 0002:000115b8       ??_C@_1HO@MLMGPAFH@?$AA?$CI?$AA?$CC?$AAi?$AAn?$AAc?$AAo?$AAn?$AAs?$AAi?$AAs?$AAt?$AAe?$AAn?$AAt?$AA?5?$AAI?$AAO?$AAB?$AA?5?$AAf?$AAi?$AAe?$AAl?$AAd?$AAs?$AA?$CC?$AA?0?$AA?5?$AAs?$AAt?$AAr?$AAe@ 7c6aa5b8     libcmtd:_flsbuf.obj
 0002:00011638       ??_C@_1BE@GOOJIKLI@?$AA_?$AAf?$AAl?$AAs?$AAb?$AAu?$AAf?$AA?4?$AAc?$AA?$AA@ 7c6aa638     libcmtd:_flsbuf.obj
 0002:0001164c       ??_C@_1BI@MFCLPIBM@?$AAs?$AAt?$AAr?$AA?5?$AA?$CB?$AA?$DN?$AA?5?$AAN?$AAU?$AAL?$AAL?$AA?$AA@ 7c6aa64c     libcmtd:_flsbuf.obj
 0002:00011664       ??_C@_1O@CEDCILHN@?$AA?$CI?$AAn?$AAu?$AAl?$AAl?$AA?$CJ?$AA?$AA@ 7c6aa664     libcmtd:output.obj
 0002:00011674       ??_C@_06OJHGLDPL@?$CInull?$CJ?$AA@ 7c6aa674     libcmtd:output.obj
 0002:00011680       ___lookuptable             7c6aa680     libcmtd:output.obj
 0002:000116dc       ??_C@_08MEPFMIND@output?4c?$AA@ 7c6aa6dc     libcmtd:output.obj
 0002:000116e8       ??_C@_1EK@PNGFDECN@?$AA?$CI?$AA?$CC?$AA?8?$AAn?$AA?8?$AA?5?$AAf?$AAo?$AAr?$AAm?$AAa?$AAt?$AA?5?$AAs?$AAp?$AAe?$AAc?$AAi?$AAf?$AAi?$AAe?$AAr?$AA?5?$AAd?$AAi?$AAs?$AAa?$AAb?$AAl?$AAe?$AAd?$AA?$CC@ 7c6aa6e8     libcmtd:output.obj
 0002:00011734       ??_C@_1CC@IFFHEMNF@?$AA?$CI?$AAc?$AAh?$AA?5?$AA?$CB?$AA?$DN?$AA?5?$AA_?$AAT?$AA?$CI?$AA?8?$AA?2?$AA0?$AA?8?$AA?$CJ?$AA?$CJ?$AA?$AA@ 7c6aa734     libcmtd:output.obj
 0002:00011758       ??_C@_1BAE@CBLKKPB@?$AA?$CI?$AA?5?$AA?$CI?$AA_?$AAS?$AAt?$AAr?$AAe?$AAa?$AAm?$AA?9?$AA?$DO?$AA_?$AAf?$AAl?$AAa?$AAg?$AA?5?$AA?$CG?$AA?5?$AA_?$AAI?$AAO?$AAS?$AAT?$AAR?$AAG?$AA?$CJ?$AA?5?$AA?$HM?$AA?$HM?$AA?5@ 7c6aa758     libcmtd:output.obj
 0002:0001185c       ??_C@_1BE@IONLIDNC@?$AA_?$AAo?$AAu?$AAt?$AAp?$AAu?$AAt?$AA_?$AAl?$AA?$AA@ 7c6aa85c     libcmtd:output.obj
 0002:00011870       ??_C@_1BC@NHKJGCDC@?$AAo?$AAu?$AAt?$AAp?$AAu?$AAt?$AA?4?$AAc?$AA?$AA@ 7c6aa870     libcmtd:output.obj
 0002:00011884       ??_C@_1CC@FADMNIL@?$AA?$CI?$AAs?$AAt?$AAr?$AAe?$AAa?$AAm?$AA?5?$AA?$CB?$AA?$DN?$AA?5?$AAN?$AAU?$AAL?$AAL?$AA?$CJ?$AA?$AA@ 7c6aa884     libcmtd:output.obj
 0002:000118a8       ??_C@_1BI@IGILPKD@?$AA_?$AAv?$AAs?$AAp?$AAr?$AAi?$AAn?$AAt?$AAf?$AA_?$AAl?$AA?$AA@ 7c6aa8a8     libcmtd:vsprintf.obj
 0002:000118c0       ??_C@_1BG@CBDPIEBA@?$AAv?$AAs?$AAp?$AAr?$AAi?$AAn?$AAt?$AAf?$AA?4?$AAc?$AA?$AA@ 7c6aa8c0     libcmtd:vsprintf.obj
 0002:000118d8       ??_C@_1CE@HMKDJHB@?$AA_?$AAv?$AAs?$AAc?$AAp?$AAr?$AAi?$AAn?$AAt?$AAf?$AA_?$AAh?$AAe?$AAl?$AAp?$AAe?$AAr?$AA?$AA@ 7c6aa8d8     libcmtd:vsprintf.obj
 0002:00011908       ??_7exception@std@@6B@     7c6aa908     libcmtd:stdexcpt.obj
 0002:00011910       ??_C@_0BC@EOODALEL@Unknown?5exception?$AA@ 7c6aa910     libcmtd:stdexcpt.obj
 0002:00011928       ??_7bad_cast@std@@6B@      7c6aa928     libcmtd:stdexcpt.obj
 0002:00011934       ??_7bad_typeid@std@@6B@    7c6aa934     libcmtd:stdexcpt.obj
 0002:00011940       ??_7__non_rtti_object@std@@6B@ 7c6aa940     libcmtd:stdexcpt.obj
 0002:00011948       ??_C@_0P@GGKDKEEG@runtime?5error?5?$AA@ 7c6aa948     libcmtd:crt0msg.obj
 0002:00011958       ??_C@_02PCIJFNDE@?$AN?6?$AA@ 7c6aa958     libcmtd:crt0msg.obj
 0002:0001195c       ??_C@_0O@MJNIPGOH@TLOSS?5error?$AN?6?$AA@ 7c6aa95c     libcmtd:crt0msg.obj
 0002:0001196c       ??_C@_0N@BONNPDHF@SING?5error?$AN?6?$AA@ 7c6aa96c     libcmtd:crt0msg.obj
 0002:0001197c       ??_C@_0P@MBDAJNE@DOMAIN?5error?$AN?6?$AA@ 7c6aa97c     libcmtd:crt0msg.obj
 0002:00011990       ??_C@_0BFB@HKKMCDOL@R6034?$AN?6An?5application?5has?5made?5a@ 7c6aa990     libcmtd:crt0msg.obj
 0002:00011ae8       ??_C@_0PH@EPAFIJ@R6033?$AN?6?9?5Attempt?5to?5use?5MSIL?5cod@ 7c6aaae8     libcmtd:crt0msg.obj
 0002:00011be0       ??_C@_0DD@BKEEABMM@R6032?$AN?6?9?5not?5enough?5space?5for?5lo@ 7c6aabe0     libcmtd:crt0msg.obj
 0002:00011c18       ??_C@_0GD@OFKILIED@R6031?$AN?6?9?5Attempt?5to?5initialize?5t@ 7c6aac18     libcmtd:crt0msg.obj
 0002:00011c7c       ??_C@_0BP@LPMHJOKI@R6030?$AN?6?9?5CRT?5not?5initialized?$AN?6?$AA@ 7c6aac7c     libcmtd:crt0msg.obj
 0002:00011c9c       ??_C@_0CF@KJDAIALP@R6028?$AN?6?9?5unable?5to?5initialize?5he@ 7c6aac9c     libcmtd:crt0msg.obj
 0002:00011cc4       ??_C@_0DF@GAKBPDFP@R6027?$AN?6?9?5not?5enough?5space?5for?5lo@ 7c6aacc4     libcmtd:crt0msg.obj
 0002:00011cfc       ??_C@_0DF@IBLNNAIG@R6026?$AN?6?9?5not?5enough?5space?5for?5st@ 7c6aacfc     libcmtd:crt0msg.obj
 0002:00011d34       ??_C@_0CG@IOHKGFNJ@R6025?$AN?6?9?5pure?5virtual?5function?5c@ 7c6aad34     libcmtd:crt0msg.obj
 0002:00011d5c       ??_C@_0DF@JIJJFJDC@R6024?$AN?6?9?5not?5enough?5space?5for?5_o@ 7c6aad5c     libcmtd:crt0msg.obj
 0002:00011d94       ??_C@_0CJ@EGEJHFME@R6019?$AN?6?9?5unable?5to?5open?5console?5@ 7c6aad94     libcmtd:crt0msg.obj
 0002:00011dc0       ??_C@_0CB@GNHNIELH@R6018?$AN?6?9?5unexpected?5heap?5error?$AN?6@ 7c6aadc0     libcmtd:crt0msg.obj
 0002:00011de4       ??_C@_0CN@FOLDKNG@R6017?$AN?6?9?5unexpected?5multithread?5@ 7c6aade4     libcmtd:crt0msg.obj
 0002:00011e14       ??_C@_0CM@FAHFJNHO@R6016?$AN?6?9?5not?5enough?5space?5for?5th@ 7c6aae14     libcmtd:crt0msg.obj
 0002:00011e40       ??_C@_0JG@LBKMGKLD@?$AN?6This?5application?5has?5requested@ 7c6aae40     libcmtd:crt0msg.obj
 0002:00011ed8       ??_C@_0CM@FLCNIPKK@R6009?$AN?6?9?5not?5enough?5space?5for?5en@ 7c6aaed8     libcmtd:crt0msg.obj
 0002:00011f04       ??_C@_0CK@KMMJOAPP@R6008?$AN?6?9?5not?5enough?5space?5for?5ar@ 7c6aaf04     libcmtd:crt0msg.obj
 0002:00011f30       ??_C@_0CN@LEKKICBM@R6002?$AN?6?9?5floating?5point?5support?5@ 7c6aaf30     libcmtd:crt0msg.obj
 0002:00011f60       ??_C@_0CF@GOGNBNAK@Microsoft?5Visual?5C?$CL?$CL?5Runtime?5Lib@ 7c6aaf60     libcmtd:crt0msg.obj
 0002:00011f88       ??_C@_1KC@JBIKIPNF@?$AAs?$AAt?$AAr?$AAc?$AAa?$AAt?$AA_?$AAs?$AA?$CI?$AAo?$AAu?$AAt?$AAm?$AAs?$AAg?$AA?0?$AA?5?$AA?$CI?$AAs?$AAi?$AAz?$AAe?$AAo?$AAf?$AA?$CI?$AAo?$AAu?$AAt?$AAm?$AAs?$AAg?$AA?$CJ@ 7c6aaf88     libcmtd:crt0msg.obj
 0002:00012030       ??_C@_1HO@POLIDBMF@?$AAs?$AAt?$AAr?$AAc?$AAa?$AAt?$AA_?$AAs?$AA?$CI?$AAo?$AAu?$AAt?$AAm?$AAs?$AAg?$AA?0?$AA?5?$AA?$CI?$AAs?$AAi?$AAz?$AAe?$AAo?$AAf?$AA?$CI?$AAo?$AAu?$AAt?$AAm?$AAs?$AAg?$AA?$CJ@ 7c6ab030     libcmtd:crt0msg.obj
 0002:000120b0       ??_C@_1HG@CJJGKFHK@?$AAs?$AAt?$AAr?$AAn?$AAc?$AAp?$AAy?$AA_?$AAs?$AA?$CI?$AAp?$AAc?$AAh?$AA?0?$AA?5?$AAp?$AAr?$AAo?$AAg?$AAn?$AAa?$AAm?$AAe?$AA_?$AAs?$AAi?$AAz?$AAe?$AA?5?$AA?9?$AA?5?$AA?$CI@ 7c6ab0b0     libcmtd:crt0msg.obj
 0002:00012128       ??_C@_1HI@FOOPEDMH@?$AAs?$AAt?$AAr?$AAc?$AAp?$AAy?$AA_?$AAs?$AA?$CI?$AAp?$AAr?$AAo?$AAg?$AAn?$AAa?$AAm?$AAe?$AA?0?$AA?5?$AAp?$AAr?$AAo?$AAg?$AAn?$AAa?$AAm?$AAe?$AA_?$AAs?$AAi?$AAz?$AAe@ 7c6ab128     libcmtd:crt0msg.obj
 0002:000121a0       ??_C@_0BK@OFGJDLJJ@Runtime?5Error?$CB?6?6Program?3?5?$AA@ 7c6ab1a0     libcmtd:crt0msg.obj
 0002:000121c0       ??_C@_1KM@NKKPELHG@?$AAs?$AAt?$AAr?$AAc?$AAp?$AAy?$AA_?$AAs?$AA?$CI?$AAo?$AAu?$AAt?$AAm?$AAs?$AAg?$AA?0?$AA?5?$AA?$CI?$AAs?$AAi?$AAz?$AAe?$AAo?$AAf?$AA?$CI?$AAo?$AAu?$AAt?$AAm?$AAs?$AAg?$AA?$CJ@ 7c6ab1c0     libcmtd:crt0msg.obj
 0002:0001226c       ??_C@_1BI@EAHMBMEC@?$AA_?$AAN?$AAM?$AAS?$AAG?$AA_?$AAW?$AAR?$AAI?$AAT?$AAE?$AA?$AA@ 7c6ab26c     libcmtd:crt0msg.obj
 0002:00012284       ??_C@_1BE@HJCCFLDA@?$AAc?$AAr?$AAt?$AA0?$AAm?$AAs?$AAg?$AA?4?$AAc?$AA?$AA@ 7c6ab284     libcmtd:crt0msg.obj
 0002:00012298       ??_C@_1GO@NGIGJNHH@?$AAs?$AAt?$AAr?$AAn?$AAc?$AAp?$AAy?$AA_?$AAs?$AA?$CI?$AA?$CK?$AAs?$AAt?$AAr?$AAa?$AAd?$AAd?$AAr?$AAe?$AAs?$AAs?$AA?0?$AA?5?$AAo?$AAu?$AAt?$AAs?$AAi?$AAz?$AAe?$AA?0?$AA?5@ 7c6ab298     libcmtd:inithelp.obj
 0002:00012308       ??_C@_1CA@KHHCPEI@?$AA_?$AA_?$AAg?$AAe?$AAt?$AAl?$AAo?$AAc?$AAa?$AAl?$AAe?$AAi?$AAn?$AAf?$AAo?$AA?$AA@ 7c6ab308     libcmtd:inithelp.obj
 0002:00012328       ??_C@_1BG@OFMEOKEA@?$AAi?$AAn?$AAi?$AAt?$AAh?$AAe?$AAl?$AAp?$AA?4?$AAc?$AA?$AA@ 7c6ab328     libcmtd:inithelp.obj
 0002:00012340       ??_C@_0L@DILIPMN@inithelp?4c?$AA@ 7c6ab340     libcmtd:inithelp.obj
 0002:0001234c       ??_C@_1BM@HBMHMBEM@?$AA_?$AAm?$AAb?$AAs?$AAn?$AAb?$AAc?$AAp?$AAy?$AA_?$AAs?$AA_?$AAl?$AA?$AA@ 7c6ab34c     libcmtd:mbsnbcpy_s_l.obj
 0002:00012368       ??_C@_1GK@OKCNMEEC@?$AAF?$AA?3?$AA?2?$AAd?$AAd?$AA?2?$AAv?$AAc?$AAt?$AAo?$AAo?$AAl?$AAs?$AA?2?$AAc?$AAr?$AAt?$AA_?$AAb?$AAl?$AAd?$AA?2?$AAS?$AAE?$AAL?$AAF?$AA_?$AAX?$AA8?$AA6?$AA?2?$AAc@ 7c6ab368     libcmtd:mbsnbcpy_s_l.obj
 0002:000123d4       ??_C@_0DA@NFBEBPEE@f?3?2dd?2vctools?2crt_bld?2self_x86?2c@ 7c6ab3d4     libcmtd:woutput.obj
 0002:00012404       ??_C@_1BG@BBCDFOMA@?$AA_?$AAw?$AAo?$AAu?$AAt?$AAp?$AAu?$AAt?$AA_?$AAl?$AA?$AA@ 7c6ab404     libcmtd:woutput.obj
 0002:00012420       ??_C@_1GA@HHFOFBLN@?$AAf?$AA?3?$AA?2?$AAd?$AAd?$AA?2?$AAv?$AAc?$AAt?$AAo?$AAo?$AAl?$AAs?$AA?2?$AAc?$AAr?$AAt?$AA_?$AAb?$AAl?$AAd?$AA?2?$AAs?$AAe?$AAl?$AAf?$AA_?$AAx?$AA8?$AA6?$AA?2?$AAc@ 7c6ab420     libcmtd:woutput.obj
 0002:00012480       ??_C@_1BK@EPLNBKAK@?$AA_?$AAv?$AAs?$AAw?$AAp?$AAr?$AAi?$AAn?$AAt?$AAf?$AA_?$AAl?$AA?$AA@ 7c6ab480     libcmtd:vswprint.obj
 0002:0001249c       ??_C@_1BG@BELBGCGO@?$AAv?$AAs?$AAw?$AAp?$AAr?$AAi?$AAn?$AAt?$AA?4?$AAc?$AA?$AA@ 7c6ab49c     libcmtd:vswprint.obj
 0002:000124b4       ??_C@_1CG@IMMIEPNA@?$AA_?$AAv?$AAs?$AAc?$AAw?$AAp?$AAr?$AAi?$AAn?$AAt?$AAf?$AA_?$AAh?$AAe?$AAl?$AAp?$AAe?$AAr?$AA?$AA@ 7c6ab4b4     libcmtd:vswprint.obj
 0002:000124dc       ??_C@_08MAFBHINM@ioinit?4c?$AA@ 7c6ab4dc     libcmtd:ioinit.obj
 0002:000124e8       ??_C@_1DE@MMOGFGHF@?$AAs?$AAt?$AAr?$AAc?$AAp?$AAy?$AA_?$AAs?$AA?$CI?$AA?$CK?$AAe?$AAn?$AAv?$AA?0?$AA?5?$AAc?$AAc?$AAh?$AAa?$AAr?$AAs?$AA?0?$AA?5?$AAp?$AA?$CJ?$AA?$AA@ 7c6ab4e8     libcmtd:stdenvp.obj
 0002:0001251c       ??_C@_1BC@GHMCNHHL@?$AA_?$AAs?$AAe?$AAt?$AAe?$AAn?$AAv?$AAp?$AA?$AA@ 7c6ab51c     libcmtd:stdenvp.obj
 0002:00012530       ??_C@_1BE@DFNOPGHI@?$AAs?$AAt?$AAd?$AAe?$AAn?$AAv?$AAp?$AA?4?$AAc?$AA?$AA@ 7c6ab530     libcmtd:stdenvp.obj
 0002:00012544       ??_C@_09HCDLHOJP@stdenvp?4c?$AA@ 7c6ab544     libcmtd:stdenvp.obj
 0002:00012550       ??_C@_09IKILHJIC@stdargv?4c?$AA@ 7c6ab550     libcmtd:stdargv.obj
 0002:0001255c       ??_C@_07BPGNOCOG@a_env?4c?$AA@ 7c6ab55c     libcmtd:a_env.obj
 0002:00012564       ??_C@_1BI@JFCCCJAM@?$AAt?$AAy?$AAp?$AAn?$AAa?$AAm?$AAe?$AA?4?$AAc?$AAp?$AAp?$AA?$AA@ 7c6ab564     libcmtd:typname.obj
 0002:0001257c       ??_C@_1CI@IDCGDBOP@?$AAp?$AAN?$AAo?$AAd?$AAe?$AA?9?$AA?$DO?$AAn?$AAe?$AAx?$AAt?$AA?5?$AA?$CB?$AA?$DN?$AA?5?$AAN?$AAU?$AAL?$AAL?$AA?$AA@ 7c6ab57c     libcmtd:typname.obj
 0002:000125a8       ??_C@_1JK@MLBKHELP@?$AAs?$AAt?$AAr?$AAc?$AAp?$AAy?$AA_?$AAs?$AA?5?$AA?$CI?$AA?$CI?$AAc?$AAh?$AAa?$AAr?$AA?5?$AA?$CK?$AA?$CJ?$AA?$CI?$AA?$CI?$AAt?$AAy?$AAp?$AAe?$AA_?$AAi?$AAn?$AAf?$AAo?$AA?5?$AA?$CK?$AA?$CJ@ 7c6ab5a8     libcmtd:typname.obj
 0002:00012644       ??_C@_1CM@OOICDMK@?$AAt?$AAy?$AAp?$AAe?$AA_?$AAi?$AAn?$AAf?$AAo?$AA?3?$AA?3?$AA_?$AAN?$AAa?$AAm?$AAe?$AA_?$AAb?$AAa?$AAs?$AAe?$AA?$AA@ 7c6ab644     libcmtd:typname.obj
 0002:00012670       ??_C@_1DO@OJJLFJPE@?$AAt?$AAy?$AAp?$AAe?$AA_?$AAi?$AAn?$AAf?$AAo?$AA?3?$AA?3?$AA_?$AAN?$AAa?$AAm?$AAe?$AA_?$AAb?$AAa?$AAs?$AAe?$AA_?$AAi?$AAn?$AAt?$AAe?$AAr?$AAn?$AAa?$AAl?$AA?$AA@ 7c6ab670     libcmtd:typname.obj
 0002:000126b0       ??_C@_0BK@CIDNPOGP@GetUserObjectInformationA?$AA@ 7c6ab6b0     libcmtd:crtmbox.obj
 0002:000126cc       ??_C@_1CC@MEIOIKJI@?$AA_?$AA_?$AAc?$AAr?$AAt?$AAM?$AAe?$AAs?$AAs?$AAa?$AAg?$AAe?$AAB?$AAo?$AAx?$AAA?$AA?$AA@ 7c6ab6cc     libcmtd:crtmbox.obj
 0002:000126f0       ??_C@_1BE@DEODNGG@?$AAc?$AAr?$AAt?$AAm?$AAb?$AAo?$AAx?$AA?4?$AAc?$AA?$AA@ 7c6ab6f0     libcmtd:crtmbox.obj
 0002:00012704       ??_C@_0L@NDEGIDAG@USER32?4DLL?$AA@ 7c6ab704     libcmtd:crtmbox.obj
 0002:00012710       ___lookuptable_s           7c6ab710     libcmtd:outputs.obj
 0002:00012770       ??_C@_1FK@LNCFKALM@?$AA?$CI?$AA?$CI?$AAs?$AAt?$AAa?$AAt?$AAe?$AA?5?$AA?$DN?$AA?$DN?$AA?5?$AAS?$AAT?$AA_?$AAN?$AAO?$AAR?$AAM?$AAA?$AAL?$AA?$CJ?$AA?5?$AA?$HM?$AA?$HM?$AA?5?$AA?$CI?$AAs?$AAt?$AAa?$AAt?$AAe?$AA?5@ 7c6ab770     libcmtd:outputs.obj
 0002:000127d0       ??_C@_1EE@DMAIGNBG@?$AA?$CI?$AA?$CC?$AAI?$AAn?$AAc?$AAo?$AAr?$AAr?$AAe?$AAc?$AAt?$AA?5?$AAf?$AAo?$AAr?$AAm?$AAa?$AAt?$AA?5?$AAs?$AAp?$AAe?$AAc?$AAi?$AAf?$AAi?$AAe?$AAr?$AA?$CC?$AA?0?$AA?5?$AA0@ 7c6ab7d0     libcmtd:outputs.obj
 0002:00012814       ??_C@_1BI@COFBLHCG@?$AA_?$AAo?$AAu?$AAt?$AAp?$AAu?$AAt?$AA_?$AAs?$AA_?$AAl?$AA?$AA@ 7c6ab814     libcmtd:outputs.obj
 0002:00012830       ??_C@_1FK@BCPANIEK@?$AA?$CI?$AA?$CC?$AAM?$AAi?$AAs?$AAs?$AAi?$AAn?$AAg?$AA?5?$AAp?$AAo?$AAs?$AAi?$AAt?$AAi?$AAo?$AAn?$AA?5?$AAi?$AAn?$AA?5?$AAt?$AAh?$AAe?$AA?5?$AAf?$AAo?$AAr?$AAm?$AAa?$AAt@ 7c6ab830     libcmtd:outputp.obj
 0002:00012890       ??_C@_1JC@OACKELNN@?$AA_?$AAt?$AAv?$AAa?$AAl?$AAi?$AAd?$AAa?$AAt?$AAe?$AA_?$AAp?$AAa?$AAr?$AAa?$AAm?$AA_?$AAr?$AAe?$AAu?$AAs?$AAe?$AA?$CI?$AA?$CG?$AAp?$AAo?$AAs?$AA_?$AAv?$AAa?$AAl?$AAu@ 7c6ab890     libcmtd:outputp.obj
 0002:00012928       ??_C@_1IK@NBGDDCBN@?$AA_?$AAt?$AAv?$AAa?$AAl?$AAi?$AAd?$AAa?$AAt?$AAe?$AA_?$AAp?$AAa?$AAr?$AAa?$AAm?$AA_?$AAr?$AAe?$AAu?$AAs?$AAe?$AA?$CI?$AA?$CG?$AAp?$AAo?$AAs?$AA_?$AAv?$AAa?$AAl?$AAu@ 7c6ab928     libcmtd:outputp.obj
 0002:000129b4       ??_C@_1DG@GOHGNKHE@?$AAp?$AAa?$AAs?$AAs?$AA?5?$AA?$DN?$AA?$DN?$AA?5?$AAF?$AAO?$AAR?$AAM?$AAA?$AAT?$AA_?$AAO?$AAU?$AAT?$AAP?$AAU?$AAT?$AA_?$AAP?$AAA?$AAS?$AAS?$AA?$AA@ 7c6ab9b4     libcmtd:outputp.obj
 0002:000129f0       ??_C@_1IM@DNGHAPLB@?$AA_?$AAt?$AAv?$AAa?$AAl?$AAi?$AAd?$AAa?$AAt?$AAe?$AA_?$AAp?$AAa?$AAr?$AAa?$AAm?$AA_?$AAr?$AAe?$AAu?$AAs?$AAe?$AA?$CI?$AA?$CG?$AAp?$AAo?$AAs?$AA_?$AAv?$AAa?$AAl?$AAu@ 7c6ab9f0     libcmtd:outputp.obj
 0002:00012a80       ??_C@_1IG@HJIMKDHC@?$AA_?$AAt?$AAv?$AAa?$AAl?$AAi?$AAd?$AAa?$AAt?$AAe?$AA_?$AAp?$AAa?$AAr?$AAa?$AAm?$AA_?$AAr?$AAe?$AAu?$AAs?$AAe?$AA?$CI?$AA?$CG?$AAp?$AAo?$AAs?$AA_?$AAv?$AAa?$AAl?$AAu@ 7c6aba80     libcmtd:outputp.obj
 0002:00012b08       ??_C@_1IG@FDCPLALG@?$AA_?$AAt?$AAv?$AAa?$AAl?$AAi?$AAd?$AAa?$AAt?$AAe?$AA_?$AAp?$AAa?$AAr?$AAa?$AAm?$AA_?$AAr?$AAe?$AAu?$AAs?$AAe?$AA?$CI?$AA?$CG?$AAp?$AAo?$AAs?$AA_?$AAv?$AAa?$AAl?$AAu@ 7c6abb08     libcmtd:outputp.obj
 0002:00012b90       ??_C@_1IK@MHEDJAMK@?$AA_?$AAt?$AAv?$AAa?$AAl?$AAi?$AAd?$AAa?$AAt?$AAe?$AA_?$AAp?$AAa?$AAr?$AAa?$AAm?$AA_?$AAr?$AAe?$AAu?$AAs?$AAe?$AA?$CI?$AA?$CG?$AAp?$AAo?$AAs?$AA_?$AAv?$AAa?$AAl?$AAu@ 7c6abb90     libcmtd:outputp.obj
 0002:00012c20       ??_C@_1EM@BNPHBBIA@?$AA?$CI?$AA?$CI?$AAt?$AAy?$AAp?$AAe?$AA_?$AAp?$AAo?$AAs?$AA?$DO?$AA?$DN?$AA0?$AA?$CJ?$AA?5?$AA?$CG?$AA?$CG?$AA?5?$AA?$CI?$AAt?$AAy?$AAp?$AAe?$AA_?$AAp?$AAo?$AAs?$AA?$DM?$AA_?$AAA?$AAR?$AAG@ 7c6abc20     libcmtd:outputp.obj
 0002:00012c70       ??_C@_1IK@EIEPDKHJ@?$AA_?$AAt?$AAv?$AAa?$AAl?$AAi?$AAd?$AAa?$AAt?$AAe?$AA_?$AAp?$AAa?$AAr?$AAa?$AAm?$AA_?$AAr?$AAe?$AAu?$AAs?$AAe?$AA?$CI?$AA?$CG?$AAp?$AAo?$AAs?$AA_?$AAv?$AAa?$AAl?$AAu@ 7c6abc70     libcmtd:outputp.obj
 0002:00012d00       ??_C@_1JG@JBJBOCFB@?$AA?$CI?$AA?$CI?$AAp?$AAr?$AAe?$AAc?$AAi?$AAs?$AA_?$AAp?$AAo?$AAs?$AA?5?$AA?$DO?$AA?$DN?$AA?5?$AA0?$AA?$CJ?$AA?5?$AA?$CG?$AA?$CG?$AA?5?$AA?$CI?$AA?$CK?$AAe?$AAn?$AAd?$AA_?$AAp?$AAo?$AAs?$AA?5@ 7c6abd00     libcmtd:outputp.obj
 0002:00012d98       ??_C@_1II@PIPIMLPF@?$AA_?$AAt?$AAv?$AAa?$AAl?$AAi?$AAd?$AAa?$AAt?$AAe?$AA_?$AAp?$AAa?$AAr?$AAa?$AAm?$AA_?$AAr?$AAe?$AAu?$AAs?$AAe?$AA?$CI?$AA?$CG?$AAp?$AAo?$AAs?$AA_?$AAv?$AAa?$AAl?$AAu@ 7c6abd98     libcmtd:outputp.obj
 0002:00012e20       ??_C@_1JE@NMBHOLFI@?$AA?$CI?$AA?$CI?$AAw?$AAi?$AAd?$AAt?$AAh?$AA_?$AAp?$AAo?$AAs?$AA?5?$AA?$DO?$AA?$DN?$AA?5?$AA0?$AA?$CJ?$AA?5?$AA?$CG?$AA?$CG?$AA?5?$AA?$CI?$AA?$CK?$AAe?$AAn?$AAd?$AA_?$AAp?$AAo?$AAs?$AA?5?$AA?$DN@ 7c6abe20     libcmtd:outputp.obj
 0002:00012eb8       ??_C@_1JC@PFJNKEIO@?$AA?$CI?$AA?$CI?$AAt?$AAy?$AAp?$AAe?$AA_?$AAp?$AAo?$AAs?$AA?5?$AA?$DO?$AA?$DN?$AA?5?$AA0?$AA?$CJ?$AA?5?$AA?$CG?$AA?$CG?$AA?5?$AA?$CI?$AA?$CK?$AAe?$AAn?$AAd?$AA_?$AAp?$AAo?$AAs?$AA?5?$AA?$DN?$AA?$DN@ 7c6abeb8     libcmtd:outputp.obj
 0002:00012f4c       ??_C@_1BI@KANOLAMF@?$AA_?$AAo?$AAu?$AAt?$AAp?$AAu?$AAt?$AA_?$AAp?$AA_?$AAl?$AA?$AA@ 7c6abf4c     libcmtd:outputp.obj
 0002:00012f64       ??_C@_1BK@ONMFGLDB@?$AA_?$AAw?$AAo?$AAu?$AAt?$AAp?$AAu?$AAt?$AA_?$AAs?$AA_?$AAl?$AA?$AA@ 7c6abf64     libcmtd:woutputs.obj
 0002:00012f80       ??_C@_1BK@GDEKGMNC@?$AA_?$AAw?$AAo?$AAu?$AAt?$AAp?$AAu?$AAt?$AA_?$AAp?$AA_?$AAl?$AA?$AA@ 7c6abf80     libcmtd:woutputp.obj
 0002:00012f9c       ??_C@_0CG@PKBDLMEO@InitializeCriticalSectionAndSpin@ 7c6abf9c     libcmtd:initcrit.obj
 0002:00012fc4       ??_C@_1DK@EGKDBLND@?$AA_?$AA_?$AAc?$AAr?$AAt?$AAI?$AAn?$AAi?$AAt?$AAC?$AAr?$AAi?$AAt?$AAS?$AAe?$AAc?$AAA?$AAn?$AAd?$AAS?$AAp?$AAi?$AAn?$AAC?$AAo?$AAu?$AAn?$AAt?$AA?$AA@ 7c6abfc4     libcmtd:initcrit.obj
 0002:00013000       ??_C@_1BG@LABPBAGA@?$AAi?$AAn?$AAi?$AAt?$AAc?$AAr?$AAi?$AAt?$AA?4?$AAc?$AA?$AA@ 7c6ac000     libcmtd:initcrit.obj
 0002:00013018       ??_C@_1CG@JEHFHLNG@?$AA_?$AAm?$AAb?$AAs?$AAt?$AAo?$AAw?$AAc?$AAs?$AA_?$AAl?$AA_?$AAh?$AAe?$AAl?$AAp?$AAe?$AAr?$AA?$AA@ 7c6ac018     libcmtd:mbstowcs.obj
 0002:00013040       ??_C@_1BG@KMBPFIPB@?$AAm?$AAb?$AAs?$AAt?$AAo?$AAw?$AAc?$AAs?$AA?4?$AAc?$AA?$AA@ 7c6ac040     libcmtd:mbstowcs.obj
 0002:00013058       ??_C@_1BE@EEKACIGI@?$AAs?$AA?5?$AA?$CB?$AA?$DN?$AA?5?$AAN?$AAU?$AAL?$AAL?$AA?$AA@ 7c6ac058     libcmtd:mbstowcs.obj
 0002:0001306c       ??_C@_1CO@JNPEPJAL@?$AAr?$AAe?$AAt?$AAs?$AAi?$AAz?$AAe?$AA?5?$AA?$DM?$AA?$DN?$AA?5?$AAs?$AAi?$AAz?$AAe?$AAI?$AAn?$AAW?$AAo?$AAr?$AAd?$AAs?$AA?$AA@ 7c6ac06c     libcmtd:mbstowcs.obj
 0002:0001309c       ??_C@_1BM@PHENIGHD@?$AA_?$AAm?$AAb?$AAs?$AAt?$AAo?$AAw?$AAc?$AAs?$AA_?$AAs?$AA_?$AAl?$AA?$AA@ 7c6ac09c     libcmtd:mbstowcs.obj
 0002:000130b8       ??_C@_1JA@JKDFMOPO@?$AA?$CI?$AAp?$AAw?$AAc?$AAs?$AA?5?$AA?$DN?$AA?$DN?$AA?5?$AAN?$AAU?$AAL?$AAL?$AA?5?$AA?$CG?$AA?$CG?$AA?5?$AAs?$AAi?$AAz?$AAe?$AAI?$AAn?$AAW?$AAo?$AAr?$AAd?$AAs?$AA?5?$AA?$DN?$AA?$DN?$AA?5@ 7c6ac0b8     libcmtd:mbstowcs.obj
 0002:00013148       ??_C@_1CM@HABGDNLJ@?$AAl?$AAe?$AAn?$AAg?$AAt?$AAh?$AA?5?$AA?$DM?$AA?5?$AAs?$AAi?$AAz?$AAe?$AAI?$AAn?$AAT?$AAC?$AAh?$AAa?$AAr?$AAs?$AA?$AA@ 7c6ac148     libcmtd:xtoas.obj
 0002:00013174       ??_C@_1DE@PCJGDBBD@?$AA2?$AA?5?$AA?$DM?$AA?$DN?$AA?5?$AAr?$AAa?$AAd?$AAi?$AAx?$AA?5?$AA?$CG?$AA?$CG?$AA?5?$AAr?$AAa?$AAd?$AAi?$AAx?$AA?5?$AA?$DM?$AA?$DN?$AA?5?$AA3?$AA6?$AA?$AA@ 7c6ac174     libcmtd:xtoas.obj
 0002:000131a8       ??_C@_1FA@MKGGAGEI@?$AAs?$AAi?$AAz?$AAe?$AAI?$AAn?$AAT?$AAC?$AAh?$AAa?$AAr?$AAs?$AA?5?$AA?$DO?$AA?5?$AA?$CI?$AAs?$AAi?$AAz?$AAe?$AA_?$AAt?$AA?$CJ?$AA?$CI?$AAi?$AAs?$AA_?$AAn?$AAe?$AAg?$AA?5?$AA?$DP@ 7c6ac1a8     libcmtd:xtoas.obj
 0002:000131f8       ??_C@_1CC@JNJFIMGE@?$AAs?$AAi?$AAz?$AAe?$AAI?$AAn?$AAT?$AAC?$AAh?$AAa?$AAr?$AAs?$AA?5?$AA?$DO?$AA?5?$AA0?$AA?$AA@ 7c6ac1f8     libcmtd:xtoas.obj
 0002:0001321c       ??_C@_1O@GIMBNLEI@?$AAx?$AAt?$AAo?$AAa?$AA_?$AAs?$AA?$AA@ 7c6ac21c     libcmtd:xtoas.obj
 0002:00013230       ??_C@_1FM@MFCBFCGB@?$AAf?$AA?3?$AA?2?$AAd?$AAd?$AA?2?$AAv?$AAc?$AAt?$AAo?$AAo?$AAl?$AAs?$AA?2?$AAc?$AAr?$AAt?$AA_?$AAb?$AAl?$AAd?$AA?2?$AAs?$AAe?$AAl?$AAf?$AA_?$AAx?$AA8?$AA6?$AA?2?$AAc@ 7c6ac230     libcmtd:xtoas.obj
 0002:0001328c       ??_C@_1BI@ICGGMGLK@?$AAb?$AAu?$AAf?$AA?5?$AA?$CB?$AA?$DN?$AA?5?$AAN?$AAU?$AAL?$AAL?$AA?$AA@ 7c6ac28c     libcmtd:xtoas.obj
 0002:000132a4       ??_C@_1BC@MJJNBNFN@?$AAx?$AA6?$AA4?$AAt?$AAo?$AAa?$AA_?$AAs?$AA?$AA@ 7c6ac2a4     libcmtd:xtoas.obj
 0002:000132b8       ??_C@_1BC@PLIEPKPJ@?$AAw?$AAc?$AAs?$AAc?$AAa?$AAt?$AA_?$AAs?$AA?$AA@ 7c6ac2b8     libcmtd:wcscat_s.obj
 0002:000132cc       ??_C@_1O@NCBFODOE@?$AAx?$AAt?$AAo?$AAw?$AA_?$AAs?$AA?$AA@ 7c6ac2cc     libcmtd:xtows.obj
 0002:000132dc       ??_C@_1BC@HDEJCFPB@?$AAx?$AA6?$AA4?$AAt?$AAo?$AAw?$AA_?$AAs?$AA?$AA@ 7c6ac2dc     libcmtd:xtows.obj
 0002:000132f0       ??_C@_0BC@JEAENNKH@SystemFunction036?$AA@ 7c6ac2f0     libcmtd:rand_s.obj
 0002:00013308       ??_C@_1GA@EBEDGGGB@?$AA?$CI?$AA?$CC?$AAr?$AAa?$AAn?$AAd?$AA_?$AAs?$AA?5?$AAi?$AAs?$AA?5?$AAn?$AAo?$AAt?$AA?5?$AAa?$AAv?$AAa?$AAi?$AAl?$AAa?$AAb?$AAl?$AAe?$AA?5?$AAo?$AAn?$AA?5?$AAt?$AAh?$AAi@ 7c6ac308     libcmtd:rand_s.obj
 0002:00013368       ??_C@_0N@JJPEKNFO@ADVAPI32?4DLL?$AA@ 7c6ac368     libcmtd:rand_s.obj
 0002:00013378       ??_C@_1O@IJGPPOGF@?$AAr?$AAa?$AAn?$AAd?$AA_?$AAs?$AA?$AA@ 7c6ac378     libcmtd:rand_s.obj
 0002:00013388       ??_C@_1BC@NBJGCJKM@?$AAr?$AAa?$AAn?$AAd?$AA_?$AAs?$AA?4?$AAc?$AA?$AA@ 7c6ac388     libcmtd:rand_s.obj
 0002:0001339c       ??_C@_1CK@GFDNDKK@?$AA_?$AAR?$AAa?$AAn?$AAd?$AAo?$AAm?$AAV?$AAa?$AAl?$AAu?$AAe?$AA?5?$AA?$CB?$AA?$DN?$AA?5?$AAN?$AAU?$AAL?$AAL?$AA?$AA@ 7c6ac39c     libcmtd:rand_s.obj
 0002:000133c8       ??_C@_13NOLLCAOD@?$AA?$AA?$AA?$AA@ 7c6ac3c8     libcmtd:a_map.obj
 0002:000133d0       ??_C@_1GA@GABBGKOG@?$AAF?$AA?3?$AA?2?$AAd?$AAd?$AA?2?$AAv?$AAc?$AAt?$AAo?$AAo?$AAl?$AAs?$AA?2?$AAc?$AAr?$AAt?$AA_?$AAb?$AAl?$AAd?$AA?2?$AAS?$AAE?$AAL?$AAF?$AA_?$AAX?$AA8?$AA6?$AA?2?$AAc@ 7c6ac3d0     libcmtd:a_map.obj
 0002:00013430       ??_C@_1FE@KNPCCODH@?$AA?$CI?$AA?$CC?$AAC?$AAo?$AAr?$AAr?$AAu?$AAp?$AAt?$AAe?$AAd?$AA?5?$AAp?$AAo?$AAi?$AAn?$AAt?$AAe?$AAr?$AA?5?$AAp?$AAa?$AAs?$AAs?$AAe?$AAd?$AA?5?$AAt?$AAo?$AA?5?$AA_?$AAf@ 7c6ac430     libcmtd:a_map.obj
 0002:00013488       ___newctype                7c6ac488     libcmtd:ctype.obj
 0002:00013788       __wctype                   7c6ac788     libcmtd:ctype.obj
 0002:00013990       ___newclmap                7c6ac990     libcmtd:ctype.obj
 0002:00013b10       ___newcumap                7c6acb10     libcmtd:ctype.obj
 0002:00013c90       ??_C@_1BG@HHBAFOPB@?$AAi?$AAn?$AAi?$AAt?$AAt?$AAi?$AAm?$AAe?$AA?4?$AAc?$AA?$AA@ 7c6acc90     libcmtd:inittime.obj
 0002:00013ca8       ??_C@_1EE@FDHCFDHN@?$AAp?$AAl?$AAo?$AAc?$AAi?$AA?9?$AA?$DO?$AAl?$AAc?$AA_?$AAt?$AAi?$AAm?$AAe?$AA_?$AAc?$AAu?$AAr?$AAr?$AA?9?$AA?$DO?$AAr?$AAe?$AAf?$AAc?$AAo?$AAu?$AAn?$AAt?$AA?5?$AA?$DO?$AA?5@ 7c6acca8     libcmtd:inittime.obj
 0002:00013cec       ??_C@_0L@IOJADHBB@inittime?4c?$AA@ 7c6accec     libcmtd:inittime.obj
 0002:00013cf8       ??_C@_1BE@EAFFGEEO@?$AAi?$AAn?$AAi?$AAt?$AAn?$AAu?$AAm?$AA?4?$AAc?$AA?$AA@ 7c6accf8     libcmtd:initnum.obj
 0002:00013d0c       ??_C@_1DM@IFKAINNE@?$AAp?$AAl?$AAo?$AAc?$AAi?$AA?9?$AA?$DO?$AAl?$AAc?$AAo?$AAn?$AAv?$AA_?$AAn?$AAu?$AAm?$AA_?$AAr?$AAe?$AAf?$AAc?$AAo?$AAu?$AAn?$AAt?$AA?5?$AA?$DO?$AA?5?$AA0?$AA?$AA@ 7c6acd0c     libcmtd:initnum.obj
 0002:00013d48       ??_C@_09MECGNAGI@initnum?4c?$AA@ 7c6acd48     libcmtd:initnum.obj
 0002:00013d54       ??_C@_1BE@IJMIKAHM@?$AAi?$AAn?$AAi?$AAt?$AAm?$AAo?$AAn?$AA?4?$AAc?$AA?$AA@ 7c6acd54     libcmtd:initmon.obj
 0002:00013d68       ??_C@_1DM@GKAPAMDO@?$AAp?$AAl?$AAo?$AAc?$AAi?$AA?9?$AA?$DO?$AAl?$AAc?$AAo?$AAn?$AAv?$AA_?$AAm?$AAo?$AAn?$AA_?$AAr?$AAe?$AAf?$AAc?$AAo?$AAu?$AAn?$AAt?$AA?5?$AA?$DO?$AA?5?$AA0?$AA?$AA@ 7c6acd68     libcmtd:initmon.obj
 0002:00013da4       ??_C@_09HKFHICAL@initmon?4c?$AA@ 7c6acda4     libcmtd:initmon.obj
 0002:00013db0       ??_C@_1DG@NMBGBDM@?$AAp?$AAl?$AAo?$AAc?$AAi?$AA?9?$AA?$DO?$AAc?$AAt?$AAy?$AAp?$AAe?$AA1?$AA_?$AAr?$AAe?$AAf?$AAc?$AAo?$AAu?$AAn?$AAt?$AA?5?$AA?$DO?$AA?5?$AA0?$AA?$AA@ 7c6acdb0     libcmtd:initctyp.obj
 0002:00013de8       ??_C@_1BG@PMMGDKJC@?$AAi?$AAn?$AAi?$AAt?$AAc?$AAt?$AAy?$AAp?$AA?4?$AAc?$AA?$AA@ 7c6acde8     libcmtd:initctyp.obj
 0002:00013e00       ??_C@_0L@GBAGBCPL@initctyp?4c?$AA@ 7c6ace00     libcmtd:initctyp.obj
 0002:00013e0c       ??_C@_08JCCMCCIL@HH?3mm?3ss?$AA@ 7c6ace0c     libcmtd:strftime.obj
 0002:00013e18       ??_C@_0BE@CKGJFCPC@dddd?0?5MMMM?5dd?0?5yyyy?$AA@ 7c6ace18     libcmtd:strftime.obj
 0002:00013e2c       ??_C@_08BPBNCDIB@MM?1dd?1yy?$AA@ 7c6ace2c     libcmtd:strftime.obj
 0002:00013e38       ??_C@_02CJNFDJBF@PM?$AA@   7c6ace38     libcmtd:strftime.obj
 0002:00013e3c       ??_C@_02DEDBPAFC@AM?$AA@   7c6ace3c     libcmtd:strftime.obj
 0002:00013e40       ??_C@_08EDHMEBNP@December?$AA@ 7c6ace40     libcmtd:strftime.obj
 0002:00013e4c       ??_C@_08HCHEGEOA@November?$AA@ 7c6ace4c     libcmtd:strftime.obj
 0002:00013e58       ??_C@_07JJNFCEND@October?$AA@ 7c6ace58     libcmtd:strftime.obj
 0002:00013e60       ??_C@_09BHHEALKD@September?$AA@ 7c6ace60     libcmtd:strftime.obj
 0002:00013e6c       ??_C@_06LBBHFDDG@August?$AA@ 7c6ace6c     libcmtd:strftime.obj
 0002:00013e74       ??_C@_04MIEPOIFP@July?$AA@ 7c6ace74     libcmtd:strftime.obj
 0002:00013e7c       ??_C@_04CNLMGBGM@June?$AA@ 7c6ace7c     libcmtd:strftime.obj
 0002:00013e84       ??_C@_05DMJDNLEJ@April?$AA@ 7c6ace84     libcmtd:strftime.obj
 0002:00013e8c       ??_C@_05HPCKOFNC@March?$AA@ 7c6ace8c     libcmtd:strftime.obj
 0002:00013e94       ??_C@_08GNJGEPFN@February?$AA@ 7c6ace94     libcmtd:strftime.obj
 0002:00013ea0       ??_C@_07CGJPFGJA@January?$AA@ 7c6acea0     libcmtd:strftime.obj
 0002:00013ea8       ??_C@_03MKABNOCG@Dec?$AA@  7c6acea8     libcmtd:strftime.obj
 0002:00013eac       ??_C@_03JPJOFNIA@Nov?$AA@  7c6aceac     libcmtd:strftime.obj
 0002:00013eb0       ??_C@_03BMAOKBAD@Oct?$AA@  7c6aceb0     libcmtd:strftime.obj
 0002:00013eb4       ??_C@_03GGCAPAJC@Sep?$AA@  7c6aceb4     libcmtd:strftime.obj
 0002:00013eb8       ??_C@_03IFJFEIGA@Aug?$AA@  7c6aceb8     libcmtd:strftime.obj
 0002:00013ebc       ??_C@_03LBGABGKK@Jul?$AA@  7c6acebc     libcmtd:strftime.obj
 0002:00013ec0       ??_C@_03IDFGHECI@Jun?$AA@  7c6acec0     libcmtd:strftime.obj
 0002:00013ec4       ??_C@_03CNMDKL@May?$AA@    7c6acec4     libcmtd:strftime.obj
 0002:00013ec8       ??_C@_03LEOLGMJP@Apr?$AA@  7c6acec8     libcmtd:strftime.obj
 0002:00013ecc       ??_C@_03ODNJBKGA@Mar?$AA@  7c6acecc     libcmtd:strftime.obj
 0002:00013ed0       ??_C@_03HJBDCHOM@Feb?$AA@  7c6aced0     libcmtd:strftime.obj
 0002:00013ed4       ??_C@_03JIHJHPIE@Jan?$AA@  7c6aced4     libcmtd:strftime.obj
 0002:00013ed8       ??_C@_08INBOOONO@Saturday?$AA@ 7c6aced8     libcmtd:strftime.obj
 0002:00013ee4       ??_C@_06JECMNKMI@Friday?$AA@ 7c6acee4     libcmtd:strftime.obj
 0002:00013eec       ??_C@_08HACCIKIA@Thursday?$AA@ 7c6aceec     libcmtd:strftime.obj
 0002:00013ef8       ??_C@_09DLIGFAKA@Wednesday?$AA@ 7c6acef8     libcmtd:strftime.obj
 0002:00013f04       ??_C@_07BAAGCFCM@Tuesday?$AA@ 7c6acf04     libcmtd:strftime.obj
 0002:00013f0c       ??_C@_06JLEDEDGH@Monday?$AA@ 7c6acf0c     libcmtd:strftime.obj
 0002:00013f14       ??_C@_06OOPIFAJ@Sunday?$AA@ 7c6acf14     libcmtd:strftime.obj
 0002:00013f1c       ??_C@_03FEFJNEK@Sat?$AA@   7c6acf1c     libcmtd:strftime.obj
 0002:00013f20       ??_C@_03IDIOELNC@Fri?$AA@  7c6acf20     libcmtd:strftime.obj
 0002:00013f24       ??_C@_03IOFIKPDN@Thu?$AA@  7c6acf24     libcmtd:strftime.obj
 0002:00013f28       ??_C@_03MHOMLAJA@Wed?$AA@  7c6acf28     libcmtd:strftime.obj
 0002:00013f2c       ??_C@_03NAGEINEP@Tue?$AA@  7c6acf2c     libcmtd:strftime.obj
 0002:00013f30       ??_C@_03PDAGKDH@Mon?$AA@   7c6acf30     libcmtd:strftime.obj
 0002:00013f34       ??_C@_03KOEHGMDN@Sun?$AA@  7c6acf34     libcmtd:strftime.obj
 0002:00013f38       ??_C@_1FM@LPEPDBJF@?$AAs?$AAt?$AAr?$AAc?$AAp?$AAy?$AA_?$AAs?$AA?$CI?$AAs?$AA?0?$AA?5?$AA?$CI?$AAl?$AAe?$AAn?$AA?5?$AA?$CL?$AA?5?$AA1?$AA?$CJ?$AA?5?$AA?9?$AA?5?$AA?$CI?$AAs?$AA?5?$AA?9?$AA?5?$AAp?$AA?$CJ?$AA?0@ 7c6acf38     libcmtd:strftime.obj
 0002:00013f98       ??_C@_1GG@NAGHPCAA@?$AAs?$AAt?$AAr?$AAc?$AAp?$AAy?$AA_?$AAs?$AA?$CI?$AAs?$AA?0?$AA?5?$AA?$CI?$AAl?$AAe?$AAn?$AA?5?$AA?$CL?$AA?5?$AA1?$AA?$CJ?$AA?5?$AA?9?$AA?5?$AA?$CI?$AAs?$AA?5?$AA?9?$AA?5?$AAp?$AA?$CJ?$AA?0@ 7c6acf98     libcmtd:strftime.obj
 0002:00014000       ??_C@_1BG@LGACIFJI@?$AA_?$AAG?$AAe?$AAt?$AAd?$AAa?$AAy?$AAs?$AA_?$AAl?$AA?$AA@ 7c6ad000     libcmtd:strftime.obj
 0002:00014018       ??_C@_1BG@EMNEMEKA@?$AAs?$AAt?$AAr?$AAf?$AAt?$AAi?$AAm?$AAe?$AA?4?$AAc?$AA?$AA@ 7c6ad018     libcmtd:strftime.obj
 0002:00014030       ??_C@_0L@OCEOFAIF@strftime?4c?$AA@ 7c6ad030     libcmtd:strftime.obj
 0002:00014040       ??_C@_1FO@IFFKPIEL@?$AAs?$AAt?$AAr?$AAc?$AAp?$AAy?$AA_?$AAs?$AA?$CI?$AAs?$AA?0?$AA?5?$AA?$CI?$AAl?$AAe?$AAn?$AA?5?$AA?$CL?$AA?5?$AA1?$AA?$CJ?$AA?5?$AA?9?$AA?5?$AA?$CI?$AAs?$AA?5?$AA?9?$AA?5?$AAp?$AA?$CJ?$AA?0@ 7c6ad040     libcmtd:strftime.obj
 0002:000140a0       ??_C@_1GI@LNJDDNLK@?$AAs?$AAt?$AAr?$AAc?$AAp?$AAy?$AA_?$AAs?$AA?$CI?$AAs?$AA?0?$AA?5?$AA?$CI?$AAl?$AAe?$AAn?$AA?5?$AA?$CL?$AA?5?$AA1?$AA?$CJ?$AA?5?$AA?9?$AA?5?$AA?$CI?$AAs?$AA?5?$AA?9?$AA?5?$AAp?$AA?$CJ?$AA?0@ 7c6ad0a0     libcmtd:strftime.obj
 0002:00014108       ??_C@_1BK@IDMELNCB@?$AA_?$AAG?$AAe?$AAt?$AAm?$AAo?$AAn?$AAt?$AAh?$AAs?$AA_?$AAl?$AA?$AA@ 7c6ad108     libcmtd:strftime.obj
 0002:00014128       ??_C@_1FG@CJBIADLJ@?$AAs?$AAt?$AAr?$AAc?$AAp?$AAy?$AA_?$AAs?$AA?$CI?$AAs?$AA?0?$AA?5?$AAl?$AAe?$AAn?$AA?5?$AA?9?$AA?5?$AA?$CI?$AAs?$AA?5?$AA?9?$AA?5?$AAp?$AA?$CJ?$AA?0?$AA?5?$AAp?$AAt?$AA?9?$AA?$DO?$AAw@ 7c6ad128     libcmtd:strftime.obj
 0002:00014180       ??_C@_1FI@PPIHCJGH@?$AAs?$AAt?$AAr?$AAc?$AAp?$AAy?$AA_?$AAs?$AA?$CI?$AAs?$AA?0?$AA?5?$AAl?$AAe?$AAn?$AA?5?$AA?9?$AA?5?$AA?$CI?$AAs?$AA?5?$AA?9?$AA?5?$AAp?$AA?$CJ?$AA?0?$AA?5?$AAp?$AAt?$AA?9?$AA?$DO?$AAw@ 7c6ad180     libcmtd:strftime.obj
 0002:000141d8       ??_C@_1FI@GDNOPCGD@?$AAs?$AAt?$AAr?$AAc?$AAp?$AAy?$AA_?$AAs?$AA?$CI?$AAs?$AA?0?$AA?5?$AAl?$AAe?$AAn?$AA?5?$AA?9?$AA?5?$AA?$CI?$AAs?$AA?5?$AA?9?$AA?5?$AAp?$AA?$CJ?$AA?0?$AA?5?$AAp?$AAt?$AA?9?$AA?$DO?$AAw@ 7c6ad1d8     libcmtd:strftime.obj
 0002:00014230       ??_C@_1FA@MEHIJEIL@?$AAs?$AAt?$AAr?$AAc?$AAp?$AAy?$AA_?$AAs?$AA?$CI?$AAs?$AA?0?$AA?5?$AAl?$AAe?$AAn?$AA?5?$AA?9?$AA?5?$AA?$CI?$AAs?$AA?5?$AA?9?$AA?5?$AAp?$AA?$CJ?$AA?0?$AA?5?$AAp?$AAt?$AA?9?$AA?$DO?$AAa@ 7c6ad230     libcmtd:strftime.obj
 0002:00014280       ??_C@_1FA@INCJEBF@?$AAs?$AAt?$AAr?$AAc?$AAp?$AAy?$AA_?$AAs?$AA?$CI?$AAs?$AA?0?$AA?5?$AAl?$AAe?$AAn?$AA?5?$AA?9?$AA?5?$AA?$CI?$AAs?$AA?5?$AA?9?$AA?5?$AAp?$AA?$CJ?$AA?0?$AA?5?$AAp?$AAt?$AA?9?$AA?$DO?$AAa@ 7c6ad280     libcmtd:strftime.obj
 0002:000142d0       ??_C@_1FC@BEAPAEGE@?$AAs?$AAt?$AAr?$AAc?$AAp?$AAy?$AA_?$AAs?$AA?$CI?$AAs?$AA?0?$AA?5?$AAl?$AAe?$AAn?$AA?5?$AA?9?$AA?5?$AA?$CI?$AAs?$AA?5?$AA?9?$AA?5?$AAp?$AA?$CJ?$AA?0?$AA?5?$AAp?$AAt?$AA?9?$AA?$DO?$AAm@ 7c6ad2d0     libcmtd:strftime.obj
 0002:00014328       ??_C@_1FM@CHHONFED@?$AAs?$AAt?$AAr?$AAc?$AAp?$AAy?$AA_?$AAs?$AA?$CI?$AAs?$AA?0?$AA?5?$AAl?$AAe?$AAn?$AA?5?$AA?9?$AA?5?$AA?$CI?$AAs?$AA?5?$AA?9?$AA?5?$AAp?$AA?$CJ?$AA?0?$AA?5?$AAp?$AAt?$AA?9?$AA?$DO?$AAm@ 7c6ad328     libcmtd:strftime.obj
 0002:00014388       ??_C@_1FA@EBHJJADL@?$AAs?$AAt?$AAr?$AAc?$AAp?$AAy?$AA_?$AAs?$AA?$CI?$AAs?$AA?0?$AA?5?$AAl?$AAe?$AAn?$AA?5?$AA?9?$AA?5?$AA?$CI?$AAs?$AA?5?$AA?9?$AA?5?$AAp?$AA?$CJ?$AA?0?$AA?5?$AAp?$AAt?$AA?9?$AA?$DO?$AAw@ 7c6ad388     libcmtd:strftime.obj
 0002:000143d8       ??_C@_1FK@ODMKEFLD@?$AAs?$AAt?$AAr?$AAc?$AAp?$AAy?$AA_?$AAs?$AA?$CI?$AAs?$AA?0?$AA?5?$AAl?$AAe?$AAn?$AA?5?$AA?9?$AA?5?$AA?$CI?$AAs?$AA?5?$AA?9?$AA?5?$AAp?$AA?$CJ?$AA?0?$AA?5?$AAp?$AAt?$AA?9?$AA?$DO?$AAw@ 7c6ad3d8     libcmtd:strftime.obj
 0002:00014434       ??_C@_1BK@MJNHIAGO@?$AA_?$AAG?$AAe?$AAt?$AAt?$AAn?$AAa?$AAm?$AAe?$AAs?$AA_?$AAl?$AA?$AA@ 7c6ad434     libcmtd:strftime.obj
 0002:00014450       ??_C@_1M@HCOOECOK@?$AAF?$AAA?$AAL?$AAS?$AAE?$AA?$AA@ 7c6ad450     libcmtd:strftime.obj
 0002:00014460       ??_C@_1HC@JGDOBCNK@?$AA?$CI?$AA?$CC?$AAI?$AAn?$AAv?$AAa?$AAl?$AAi?$AAd?$AA?5?$AAM?$AAB?$AAC?$AAS?$AA?5?$AAc?$AAh?$AAa?$AAr?$AAa?$AAc?$AAt?$AAe?$AAr?$AA?5?$AAs?$AAe?$AAq?$AAu?$AAe?$AAn?$AAc@ 7c6ad460     libcmtd:strftime.obj
 0002:000144d4       ??_C@_1BG@CCBNLOOI@?$AAt?$AAi?$AAm?$AAe?$AAp?$AAt?$AAr?$AA?$CB?$AA?$DN?$AA0?$AA?$AA@ 7c6ad4d4     libcmtd:strftime.obj
 0002:000144ec       ??_C@_1CG@MHIOFJLE@?$AA?$CI?$AA?5?$AAf?$AAo?$AAr?$AAm?$AAa?$AAt?$AA?5?$AA?$CB?$AA?$DN?$AA?5?$AAN?$AAU?$AAL?$AAL?$AA?5?$AA?$CJ?$AA?$AA@ 7c6ad4ec     libcmtd:strftime.obj
 0002:00014514       ??_C@_1CC@IHEJKGMG@?$AA?$CI?$AA?5?$AAm?$AAa?$AAx?$AAs?$AAi?$AAz?$AAe?$AA?5?$AA?$CB?$AA?$DN?$AA?5?$AA0?$AA?5?$AA?$CJ?$AA?$AA@ 7c6ad514     libcmtd:strftime.obj
 0002:00014538       ??_C@_1BI@ONBMGNNA@?$AA_?$AAS?$AAt?$AAr?$AAf?$AAt?$AAi?$AAm?$AAe?$AA_?$AAl?$AA?$AA@ 7c6ad538     libcmtd:strftime.obj
 0002:00014550       ??_C@_1CG@MPKJHDAA@?$AA?$CI?$AA?5?$AAs?$AAt?$AAr?$AAi?$AAn?$AAg?$AA?5?$AA?$CB?$AA?$DN?$AA?5?$AAN?$AAU?$AAL?$AAL?$AA?5?$AA?$CJ?$AA?$AA@ 7c6ad550     libcmtd:strftime.obj
 0002:00014578       ??_C@_1EG@JNJKHKFI@?$AA?$CI?$AA?5?$AA?$CC?$AAI?$AAn?$AAv?$AAa?$AAl?$AAi?$AAd?$AA?5?$AAf?$AAo?$AAr?$AAm?$AAa?$AAt?$AA?5?$AAd?$AAi?$AAr?$AAe?$AAc?$AAt?$AAi?$AAv?$AAe?$AA?$CC?$AA?5?$AA?0?$AA?5?$AA0@ 7c6ad578     libcmtd:strftime.obj
 0002:000145c0       ??_C@_1HM@LBNGKIAD@?$AA?$CI?$AA?5?$AAt?$AAi?$AAm?$AAe?$AAp?$AAt?$AAr?$AA?9?$AA?$DO?$AAt?$AAm?$AA_?$AAy?$AAe?$AAa?$AAr?$AA?5?$AA?$DO?$AA?$DN?$AA?5?$AA?9?$AA1?$AA9?$AA0?$AA0?$AA?5?$AA?$CJ?$AA?5?$AA?$CG?$AA?$CG@ 7c6ad5c0     libcmtd:strftime.obj
 0002:0001463c       ??_C@_1DC@NMCFBMJP@?$AA?$CI?$AA?5?$AAt?$AAi?$AAm?$AAe?$AAp?$AAt?$AAr?$AA?9?$AA?$DO?$AAt?$AAm?$AA_?$AAy?$AAe?$AAa?$AAr?$AA?5?$AA?$DO?$AA?$DN?$AA0?$AA?5?$AA?$CJ?$AA?$AA@ 7c6ad63c     libcmtd:strftime.obj
 0002:00014670       ??_C@_1HC@HLKHIKOB@?$AA?$CI?$AA?5?$AA?$CI?$AA?5?$AAt?$AAi?$AAm?$AAe?$AAp?$AAt?$AAr?$AA?9?$AA?$DO?$AAt?$AAm?$AA_?$AAs?$AAe?$AAc?$AA?5?$AA?$DO?$AA?$DN?$AA0?$AA?5?$AA?$CJ?$AA?5?$AA?$CG?$AA?$CG?$AA?5?$AA?$CI?$AA?5?$AAt@ 7c6ad670     libcmtd:strftime.obj
 0002:000146e8       ??_C@_1HC@IGKDPPHL@?$AA?$CI?$AA?5?$AA?$CI?$AA?5?$AAt?$AAi?$AAm?$AAe?$AAp?$AAt?$AAr?$AA?9?$AA?$DO?$AAt?$AAm?$AA_?$AAm?$AAi?$AAn?$AA?5?$AA?$DO?$AA?$DN?$AA0?$AA?5?$AA?$CJ?$AA?5?$AA?$CG?$AA?$CG?$AA?5?$AA?$CI?$AA?5?$AAt@ 7c6ad6e8     libcmtd:strftime.obj
 0002:00014760       ??_C@_1HI@HHCJCPE@?$AA?$CI?$AA?5?$AA?$CI?$AA?5?$AAt?$AAi?$AAm?$AAe?$AAp?$AAt?$AAr?$AA?9?$AA?$DO?$AAt?$AAm?$AA_?$AAy?$AAd?$AAa?$AAy?$AA?5?$AA?$DO?$AA?$DN?$AA0?$AA?5?$AA?$CJ?$AA?5?$AA?$CG?$AA?$CG?$AA?5?$AA?$CI?$AA?5@ 7c6ad760     libcmtd:strftime.obj
 0002:000147d8       ??_C@_1HG@KCGGFLNI@?$AA?$CI?$AA?5?$AA?$CI?$AA?5?$AAt?$AAi?$AAm?$AAe?$AAp?$AAt?$AAr?$AA?9?$AA?$DO?$AAt?$AAm?$AA_?$AAh?$AAo?$AAu?$AAr?$AA?5?$AA?$DO?$AA?$DN?$AA0?$AA?5?$AA?$CJ?$AA?5?$AA?$CG?$AA?$CG?$AA?5?$AA?$CI?$AA?5@ 7c6ad7d8     libcmtd:strftime.obj
 0002:00014850       ??_C@_1HG@NFHHOAD@?$AA?$CI?$AA?5?$AA?$CI?$AA?5?$AAt?$AAi?$AAm?$AAe?$AAp?$AAt?$AAr?$AA?9?$AA?$DO?$AAt?$AAm?$AA_?$AAm?$AAd?$AAa?$AAy?$AA?5?$AA?$DO?$AA?$DN?$AA1?$AA?5?$AA?$CJ?$AA?5?$AA?$CG?$AA?$CG?$AA?5?$AA?$CI?$AA?5@ 7c6ad850     libcmtd:strftime.obj
 0002:000148c8       ??_C@_1HC@OOAMILFB@?$AA?$CI?$AA?5?$AA?$CI?$AA?5?$AAt?$AAi?$AAm?$AAe?$AAp?$AAt?$AAr?$AA?9?$AA?$DO?$AAt?$AAm?$AA_?$AAm?$AAo?$AAn?$AA?5?$AA?$DO?$AA?$DN?$AA0?$AA?5?$AA?$CJ?$AA?5?$AA?$CG?$AA?$CG?$AA?5?$AA?$CI?$AA?5?$AAt@ 7c6ad8c8     libcmtd:strftime.obj
 0002:0001493c       ??_C@_1BI@HBKPAJH@?$AA_?$AAe?$AAx?$AAp?$AAa?$AAn?$AAd?$AAt?$AAi?$AAm?$AAe?$AA?$AA@ 7c6ad93c     libcmtd:strftime.obj
 0002:00014958       ??_C@_1HE@BFLEOKFO@?$AA?$CI?$AA?5?$AA?$CI?$AA?5?$AAt?$AAi?$AAm?$AAe?$AAp?$AAt?$AAr?$AA?9?$AA?$DO?$AAt?$AAm?$AA_?$AAw?$AAd?$AAa?$AAy?$AA?5?$AA?$DO?$AA?$DN?$AA0?$AA?5?$AA?$CJ?$AA?5?$AA?$CG?$AA?$CG?$AA?5?$AA?$CI?$AA?5@ 7c6ad958     libcmtd:strftime.obj
 0002:000149d0       ??_C@_1HG@PAEENAPO@?$AA?$CI?$AA?$CC?$AAI?$AAn?$AAv?$AAa?$AAl?$AAi?$AAd?$AA?5?$AAM?$AAB?$AAC?$AAS?$AA?5?$AAc?$AAh?$AAa?$AAr?$AAa?$AAc?$AAt?$AAe?$AAr?$AA?5?$AAs?$AAe?$AAq?$AAu?$AAe?$AAn?$AAc@ 7c6ad9d0     libcmtd:strftime.obj
 0002:00014a48       ??_C@_1IE@EIDABBDG@?$AA?$CI?$AA?$CC?$AAI?$AAn?$AAv?$AAa?$AAl?$AAi?$AAd?$AA?5?$AAM?$AAB?$AAC?$AAS?$AA?5?$AAc?$AAh?$AAa?$AAr?$AAa?$AAc?$AAt?$AAe?$AAr?$AA?5?$AAs?$AAe?$AAq?$AAu?$AAe?$AAn?$AAc@ 7c6ada48     libcmtd:strftime.obj
 0002:00014acc       ??_C@_03EBAPMIKO@a?1p?$AA@ 7c6adacc     libcmtd:strftime.obj
 0002:00014ad0       ??_C@_05JAMEPDIN@am?1pm?$AA@ 7c6adad0     libcmtd:strftime.obj
 0002:00014ad8       ??_C@_1BE@NDMJHJJG@?$AAs?$AAt?$AAr?$AAn?$AAc?$AAp?$AAy?$AA_?$AAs?$AA?$AA@ 7c6adad8     libcmtd:strncpy_s.obj
 0002:00014aec       ??_C@_0O@FMJNFNKE@united?9states?$AA@ 7c6adaec     libcmtd:getqloc.obj
 0002:00014afc       ??_C@_0P@NDHFFKCA@united?9kingdom?$AA@ 7c6adafc     libcmtd:getqloc.obj
 0002:00014b0c       ??_C@_0BC@HHDADLGF@trinidad?5?$CG?5tobago?$AA@ 7c6adb0c     libcmtd:getqloc.obj
 0002:00014b20       ??_C@_0M@IOAEBDAC@south?9korea?$AA@ 7c6adb20     libcmtd:getqloc.obj
 0002:00014b2c       ??_C@_0N@FIELFKIJ@south?9africa?$AA@ 7c6adb2c     libcmtd:getqloc.obj
 0002:00014b3c       ??_C@_0M@OPNDHCMC@south?5korea?$AA@ 7c6adb3c     libcmtd:getqloc.obj
 0002:00014b48       ??_C@_0N@MDEOEPFI@south?5africa?$AA@ 7c6adb48     libcmtd:getqloc.obj
 0002:00014b58       ??_C@_06FKAPCJLB@slovak?$AA@ 7c6adb58     libcmtd:getqloc.obj
 0002:00014b60       ??_C@_0M@EFJANOAL@puerto?9rico?$AA@ 7c6adb60     libcmtd:getqloc.obj
 0002:00014b6c       ??_C@_08PGOJKDAI@pr?9china?$AA@ 7c6adb6c     libcmtd:getqloc.obj
 0002:00014b78       ??_C@_08JHDOMCMI@pr?5china?$AA@ 7c6adb78     libcmtd:getqloc.obj
 0002:00014b84       ??_C@_02JHCHFBLL@nz?$AA@   7c6adb84     libcmtd:getqloc.obj
 0002:00014b88       ??_C@_0M@LINHDHKP@new?9zealand?$AA@ 7c6adb88     libcmtd:getqloc.obj
 0002:00014b94       ??_C@_09IIIPPBDB@hong?9kong?$AA@ 7c6adb94     libcmtd:getqloc.obj
 0002:00014ba0       ??_C@_07HJLCKBG@holland?$AA@ 7c6adba0     libcmtd:getqloc.obj
 0002:00014ba8       ??_C@_0O@LEHGMHAG@great?5britain?$AA@ 7c6adba8     libcmtd:getqloc.obj
 0002:00014bb8       ??_C@_07FACOMELA@england?$AA@ 7c6adbb8     libcmtd:getqloc.obj
 0002:00014bc0       ??_C@_05JIHCEICB@czech?$AA@ 7c6adbc0     libcmtd:getqloc.obj
 0002:00014bc8       ??_C@_05BBJOBLGB@china?$AA@ 7c6adbc8     libcmtd:getqloc.obj
 0002:00014bd0       ??_C@_07GPKPHICP@britain?$AA@ 7c6adbd0     libcmtd:getqloc.obj
 0002:00014bd8       ??_C@_07MHIPBHMG@america?$AA@ 7c6adbd8     libcmtd:getqloc.obj
 0002:00014be0       ??_C@_03KIALPMKC@usa?$AA@  7c6adbe0     libcmtd:getqloc.obj
 0002:00014be4       ??_C@_02FGJGKGGD@us?$AA@   7c6adbe4     libcmtd:getqloc.obj
 0002:00014be8       ??_C@_02NEINDODK@uk?$AA@   7c6adbe8     libcmtd:getqloc.obj
 0002:00014bec       ??_C@_05JMPCFJFJ@swiss?$AA@ 7c6adbec     libcmtd:getqloc.obj
 0002:00014bf4       ??_C@_0BA@HLOCPIOD@swedish?9finland?$AA@ 7c6adbf4     libcmtd:getqloc.obj
 0002:00014c04       ??_C@_0BC@PKCNIABK@spanish?9venezuela?$AA@ 7c6adc04     libcmtd:getqloc.obj
 0002:00014c18       ??_C@_0BA@GBHHMIJI@spanish?9uruguay?$AA@ 7c6adc18     libcmtd:getqloc.obj
 0002:00014c28       ??_C@_0BE@BHDOHPMC@spanish?9puerto?5rico?$AA@ 7c6adc28     libcmtd:getqloc.obj
 0002:00014c3c       ??_C@_0N@KMOIDGGN@spanish?9peru?$AA@ 7c6adc3c     libcmtd:getqloc.obj
 0002:00014c4c       ??_C@_0BB@HMHLPGPH@spanish?9paraguay?$AA@ 7c6adc4c     libcmtd:getqloc.obj
 0002:00014c60       ??_C@_0P@MCPKNGFD@spanish?9panama?$AA@ 7c6adc60     libcmtd:getqloc.obj
 0002:00014c70       ??_C@_0BC@IHOHGAIL@spanish?9nicaragua?$AA@ 7c6adc70     libcmtd:getqloc.obj
 0002:00014c84       ??_C@_0P@KLMJDNFJ@spanish?9modern?$AA@ 7c6adc84     libcmtd:getqloc.obj
 0002:00014c94       ??_C@_0BA@BPAPGBCM@spanish?9mexican?$AA@ 7c6adc94     libcmtd:getqloc.obj
 0002:00014ca4       ??_C@_0BB@PDECHHHE@spanish?9honduras?$AA@ 7c6adca4     libcmtd:getqloc.obj
 0002:00014cb8       ??_C@_0BC@KLHKFGDB@spanish?9guatemala?$AA@ 7c6adcb8     libcmtd:getqloc.obj
 0002:00014ccc       ??_C@_0BE@MFOOKJAI@spanish?9el?5salvador?$AA@ 7c6adccc     libcmtd:getqloc.obj
 0002:00014ce0       ??_C@_0BA@FCOKFPFC@spanish?9ecuador?$AA@ 7c6adce0     libcmtd:getqloc.obj
 0002:00014cf0       ??_C@_0BL@PLMGIMOO@spanish?9dominican?5republic?$AA@ 7c6adcf0     libcmtd:getqloc.obj
 0002:00014d0c       ??_C@_0BD@HLGDNMHB@spanish?9costa?5rica?$AA@ 7c6add0c     libcmtd:getqloc.obj
 0002:00014d20       ??_C@_0BB@PKCBKCPE@spanish?9colombia?$AA@ 7c6add20     libcmtd:getqloc.obj
 0002:00014d34       ??_C@_0O@MCBIJGNE@spanish?9chile?$AA@ 7c6add34     libcmtd:getqloc.obj
 0002:00014d44       ??_C@_0BA@BEFEIGJJ@spanish?9bolivia?$AA@ 7c6add44     libcmtd:getqloc.obj
 0002:00014d54       ??_C@_0BC@EMECMPD@spanish?9argentina?$AA@ 7c6add54     libcmtd:getqloc.obj
 0002:00014d68       ??_C@_0BF@EALFLENP@portuguese?9brazilian?$AA@ 7c6add68     libcmtd:getqloc.obj
 0002:00014d80       ??_C@_0BC@HBLEBLNN@norwegian?9nynorsk?$AA@ 7c6add80     libcmtd:getqloc.obj
 0002:00014d94       ??_C@_0BB@HMACDDCK@norwegian?9bokmal?$AA@ 7c6add94     libcmtd:getqloc.obj
 0002:00014da8       ??_C@_09BAFFPPHE@norwegian?$AA@ 7c6adda8     libcmtd:getqloc.obj
 0002:00014db4       ??_C@_0O@EAJFJDFG@italian?9swiss?$AA@ 7c6addb4     libcmtd:getqloc.obj
 0002:00014dc4       ??_C@_0O@CNOMPGD@irish?9english?$AA@ 7c6addc4     libcmtd:getqloc.obj
 0002:00014dd4       ??_C@_0N@EDHBGCKG@german?9swiss?$AA@ 7c6addd4     libcmtd:getqloc.obj
 0002:00014de4       ??_C@_0BC@JACMHNBP@german?9luxembourg?$AA@ 7c6adde4     libcmtd:getqloc.obj
 0002:00014df8       ??_C@_0BE@HBGMGFEG@german?9lichtenstein?$AA@ 7c6addf8     libcmtd:getqloc.obj
 0002:00014e0c       ??_C@_0BA@HKKBIBKL@german?9austrian?$AA@ 7c6ade0c     libcmtd:getqloc.obj
 0002:00014e1c       ??_C@_0N@GCAEPEBK@french?9swiss?$AA@ 7c6ade1c     libcmtd:getqloc.obj
 0002:00014e2c       ??_C@_0BC@DJFJJCK@french?9luxembourg?$AA@ 7c6ade2c     libcmtd:getqloc.obj
 0002:00014e40       ??_C@_0BA@NNCEDFIC@french?9canadian?$AA@ 7c6ade40     libcmtd:getqloc.obj
 0002:00014e50       ??_C@_0P@CMPOCLM@french?9belgian?$AA@ 7c6ade50     libcmtd:getqloc.obj
 0002:00014e60       ??_C@_0M@GHHDJOK@english?9usa?$AA@ 7c6ade60     libcmtd:getqloc.obj
 0002:00014e6c       ??_C@_0L@PLDJKEIL@english?9us?$AA@ 7c6ade6c     libcmtd:getqloc.obj
 0002:00014e78       ??_C@_0L@HJCCDMNC@english?9uk?$AA@ 7c6ade78     libcmtd:getqloc.obj
 0002:00014e84       ??_C@_0BK@CKLIAGJB@english?9trinidad?5y?5tobago?$AA@ 7c6ade84     libcmtd:getqloc.obj
 0002:00014ea0       ??_C@_0BF@JMJMGNNF@english?9south?5africa?$AA@ 7c6adea0     libcmtd:getqloc.obj
 0002:00014eb8       ??_C@_0L@DKIIFDFD@english?9nz?$AA@ 7c6adeb8     libcmtd:getqloc.obj
 0002:00014ec4       ??_C@_0BA@ONHGJCLH@english?9jamaica?$AA@ 7c6adec4     libcmtd:getqloc.obj
 0002:00014ed4       ??_C@_0M@HJBGHOPO@english?9ire?$AA@ 7c6aded4     libcmtd:getqloc.obj
 0002:00014ee0       ??_C@_0BC@LFEKMIFB@english?9caribbean?$AA@ 7c6adee0     libcmtd:getqloc.obj
 0002:00014ef4       ??_C@_0M@OLDPFKHI@english?9can?$AA@ 7c6adef4     libcmtd:getqloc.obj
 0002:00014f00       ??_C@_0P@OMDEHBMP@english?9belize?$AA@ 7c6adf00     libcmtd:getqloc.obj
 0002:00014f10       ??_C@_0M@KFHFPFED@english?9aus?$AA@ 7c6adf10     libcmtd:getqloc.obj
 0002:00014f1c       ??_C@_0BB@MNMBKDFE@english?9american?$AA@ 7c6adf1c     libcmtd:getqloc.obj
 0002:00014f30       ??_C@_0O@KIDLNNBA@dutch?9belgian?$AA@ 7c6adf30     libcmtd:getqloc.obj
 0002:00014f40       ??_C@_0BE@JBKABBMH@chinese?9traditional?$AA@ 7c6adf40     libcmtd:getqloc.obj
 0002:00014f54       ??_C@_0BC@MJJMPKCG@chinese?9singapore?$AA@ 7c6adf54     libcmtd:getqloc.obj
 0002:00014f68       ??_C@_0BD@FDKADDCP@chinese?9simplified?$AA@ 7c6adf68     libcmtd:getqloc.obj
 0002:00014f7c       ??_C@_0BB@DBEFDDME@chinese?9hongkong?$AA@ 7c6adf7c     libcmtd:getqloc.obj
 0002:00014f90       ??_C@_07DHNMFMCI@chinese?$AA@ 7c6adf90     libcmtd:getqloc.obj
 0002:00014f98       ??_C@_03FNDDCHI@chi?$AA@   7c6adf98     libcmtd:getqloc.obj
 0002:00014f9c       ??_C@_03BMMIADDJ@chh?$AA@  7c6adf9c     libcmtd:getqloc.obj
 0002:00014fa0       ??_C@_08OAIPJDGI@canadian?$AA@ 7c6adfa0     libcmtd:getqloc.obj
 0002:00014fac       ??_C@_07HBPMNPNJ@belgian?$AA@ 7c6adfac     libcmtd:getqloc.obj
 0002:00014fb4       ??_C@_0L@OEKOPBEL@australian?$AA@ 7c6adfb4     libcmtd:getqloc.obj
 0002:00014fc0       ??_C@_0BB@MEIMBEDG@american?9english?$AA@ 7c6adfc0     libcmtd:getqloc.obj
 0002:00014fd4       ??_C@_0BB@DFMDPDGB@american?5english?$AA@ 7c6adfd4     libcmtd:getqloc.obj
 0002:00014fe8       ??_C@_08IJLOKOLL@american?$AA@ 7c6adfe8     libcmtd:getqloc.obj
 0002:00014ff8       ___rg_language             7c6adff8     libcmtd:getqloc.obj
 0002:00015200       ___rg_country              7c6ae200     libcmtd:getqloc.obj
 0002:000152b8       ___rglangidNotDefault      7c6ae2b8     libcmtd:getqloc.obj
 0002:000152cc       ??_C@_0BC@NFIEMBLL@Norwegian?9Nynorsk?$AA@ 7c6ae2cc     libcmtd:getqloc.obj
 0002:000152e0       ??_C@_1OM@OECHDGCF@?$AAs?$AAt?$AAr?$AAc?$AAp?$AAy?$AA_?$AAs?$AA?$CI?$AAl?$AAp?$AAO?$AAu?$AAt?$AAS?$AAt?$AAr?$AA?9?$AA?$DO?$AAs?$AAz?$AAL?$AAa?$AAn?$AAg?$AAu?$AAa?$AAg?$AAe?$AA?0?$AA?5?$AA?$CI@ 7c6ae2e0     libcmtd:getqloc.obj
 0002:000153cc       ??_C@_1CO@NJACLALJ@?$AA_?$AA_?$AAg?$AAe?$AAt?$AA_?$AAq?$AAu?$AAa?$AAl?$AAi?$AAf?$AAi?$AAe?$AAd?$AA_?$AAl?$AAo?$AAc?$AAa?$AAl?$AAe?$AA?$AA@ 7c6ae3cc     libcmtd:getqloc.obj
 0002:000153fc       ??_C@_1BE@GIJNDGB@?$AAg?$AAe?$AAt?$AAq?$AAl?$AAo?$AAc?$AA?4?$AAc?$AA?$AA@ 7c6ae3fc     libcmtd:getqloc.obj
 0002:00015410       ??_C@_03NFKLAGEF@OCP?$AA@  7c6ae410     libcmtd:getqloc.obj
 0002:00015414       ??_C@_03DFHEHBHG@ACP?$AA@  7c6ae414     libcmtd:getqloc.obj
 0002:00015418       ??_C@_1JE@ECKHFIFP@?$AA?$CI?$AA?$CC?$AAI?$AAn?$AAv?$AAa?$AAl?$AAi?$AAd?$AA?5?$AAf?$AAi?$AAl?$AAe?$AA?5?$AAd?$AAe?$AAs?$AAc?$AAr?$AAi?$AAp?$AAt?$AAo?$AAr?$AA?4?$AA?5?$AAF?$AAi?$AAl?$AAe?$AA?5@ 7c6ae418     libcmtd:lseeki64.obj
 0002:000154ac       ??_C@_1CM@OKGMMMDH@?$AA?$CI?$AA_?$AAo?$AAs?$AAf?$AAi?$AAl?$AAe?$AA?$CI?$AAf?$AAh?$AA?$CJ?$AA?5?$AA?$CG?$AA?5?$AAF?$AAO?$AAP?$AAE?$AAN?$AA?$CJ?$AA?$AA@ 7c6ae4ac     libcmtd:lseeki64.obj
 0002:000154d8       ??_C@_1BE@KHFBJMNM@?$AA_?$AAl?$AAs?$AAe?$AAe?$AAk?$AAi?$AA6?$AA4?$AA?$AA@ 7c6ae4d8     libcmtd:lseeki64.obj
 0002:000154ec       ??_C@_1BG@NGOGNEMB@?$AAl?$AAs?$AAe?$AAe?$AAk?$AAi?$AA6?$AA4?$AA?4?$AAc?$AA?$AA@ 7c6ae4ec     libcmtd:lseeki64.obj
 0002:00015508       ??_C@_1FO@LPCLHKGE@?$AA?$CI?$AAf?$AAh?$AA?5?$AA?$DO?$AA?$DN?$AA?5?$AA0?$AA?5?$AA?$CG?$AA?$CG?$AA?5?$AA?$CI?$AAu?$AAn?$AAs?$AAi?$AAg?$AAn?$AAe?$AAd?$AA?$CJ?$AAf?$AAh?$AA?5?$AA?$DM?$AA?5?$AA?$CI?$AAu?$AAn?$AAs?$AAi@ 7c6ae508     libcmtd:lseeki64.obj
 0002:00015568       ??_C@_1O@KOFKDHPL@?$AA_?$AAw?$AAr?$AAi?$AAt?$AAe?$AA?$AA@ 7c6ae568     libcmtd:write.obj
 0002:00015578       ??_C@_1BA@PMLNGJCB@?$AAw?$AAr?$AAi?$AAt?$AAe?$AA?4?$AAc?$AA?$AA@ 7c6ae578     libcmtd:write.obj
 0002:00015588       ??_C@_1DI@CNMHHHLG@?$AAi?$AAs?$AAl?$AAe?$AAa?$AAd?$AAb?$AAy?$AAt?$AAe?$AA?$CI?$AA_?$AAd?$AAb?$AAc?$AAs?$AAB?$AAu?$AAf?$AAf?$AAe?$AAr?$AA?$CI?$AAf?$AAh?$AA?$CJ?$AA?$CJ?$AA?$AA@ 7c6ae588     libcmtd:write.obj
 0002:000155c0       ??_C@_1CC@EEOLPHGO@?$AA?$CI?$AA?$CI?$AAc?$AAn?$AAt?$AA?5?$AA?$CG?$AA?5?$AA1?$AA?$CJ?$AA?5?$AA?$DN?$AA?$DN?$AA?5?$AA0?$AA?$CJ?$AA?$AA@ 7c6ae5c0     libcmtd:write.obj
 0002:000155e4       ??_C@_1BM@NCANHCIP@?$AA_?$AAw?$AAr?$AAi?$AAt?$AAe?$AA_?$AAn?$AAo?$AAl?$AAo?$AAc?$AAk?$AA?$AA@ 7c6ae5e4     libcmtd:write.obj
 0002:00015600       ??_C@_1BM@KFJLMBPG@?$AA?$CI?$AAb?$AAu?$AAf?$AA?5?$AA?$CB?$AA?$DN?$AA?5?$AAN?$AAU?$AAL?$AAL?$AA?$CJ?$AA?$AA@ 7c6ae600     libcmtd:write.obj
 0002:0001561c       ??_C@_09PKAEMGHJ@_getbuf?4c?$AA@ 7c6ae61c     libcmtd:_getbuf.obj
 0002:00015628       ??_C@_1BE@DJANJIEH@?$AA_?$AAg?$AAe?$AAt?$AAb?$AAu?$AAf?$AA?4?$AAc?$AA?$AA@ 7c6ae628     libcmtd:_getbuf.obj
 0002:0001563c       ??_C@_1BA@LEBDGIHM@?$AA_?$AAi?$AAs?$AAa?$AAt?$AAt?$AAy?$AA?$AA@ 7c6ae63c     libcmtd:isatty.obj
 0002:0001564c       ??_C@_1BC@BPJEKAMC@?$AAi?$AAs?$AAa?$AAt?$AAt?$AAy?$AA?4?$AAc?$AA?$AA@ 7c6ae64c     libcmtd:isatty.obj
 0002:00015660       ??_C@_07PNHPCIEC@_file?4c?$AA@ 7c6ae660     libcmtd:_file.obj
 0002:00015668       ??_C@_1BA@JGHIEKKM@?$AA_?$AAf?$AAi?$AAl?$AAe?$AAn?$AAo?$AA?$AA@ 7c6ae668     libcmtd:fileno.obj
 0002:00015678       ??_C@_1BC@FBGAHIFN@?$AAf?$AAi?$AAl?$AAe?$AAn?$AAo?$AA?4?$AAc?$AA?$AA@ 7c6ae678     libcmtd:fileno.obj
 0002:0001568c       ??_C@_1O@GKDHFACN@?$AAp?$AAr?$AAi?$AAn?$AAt?$AAf?$AA?$AA@ 7c6ae68c     libcmtd:printf.obj
 0002:0001569c       ??_C@_1BC@BHLBENIK@?$AAp?$AAr?$AAi?$AAn?$AAt?$AAf?$AA?4?$AAc?$AA?$AA@ 7c6ae69c     libcmtd:printf.obj
 0002:000156b0       ??_C@_1CA@CBMNPEO@?$AAs?$AAi?$AAz?$AAe?$AAI?$AAn?$AAB?$AAy?$AAt?$AAe?$AAs?$AA?5?$AA?$DO?$AA?5?$AA0?$AA?$AA@ 7c6ae6b0     libcmtd:wctomb.obj
 0002:000156d0       ??_C@_1BI@IEADNOHF@?$AA_?$AAw?$AAc?$AAt?$AAo?$AAm?$AAb?$AA_?$AAs?$AA_?$AAl?$AA?$AA@ 7c6ae6d0     libcmtd:wctomb.obj
 0002:000156e8       ??_C@_1BC@KLMMEMGB@?$AAw?$AAc?$AAt?$AAo?$AAm?$AAb?$AA?4?$AAc?$AA?$AA@ 7c6ae6e8     libcmtd:wctomb.obj
 0002:000156fc       ??_C@_1CO@HFMIILNF@?$AAs?$AAi?$AAz?$AAe?$AAI?$AAn?$AAB?$AAy?$AAt?$AAe?$AAs?$AA?5?$AA?$DM?$AA?$DN?$AA?5?$AAI?$AAN?$AAT?$AA_?$AAM?$AAA?$AAX?$AA?$AA@ 7c6ae6fc     libcmtd:wctomb.obj
 0002:0001572c       ??_C@_1CA@LFDHAMEM@?$AA_?$AAs?$AAe?$AAt?$AA_?$AAe?$AAr?$AAr?$AAo?$AAr?$AA_?$AAm?$AAo?$AAd?$AAe?$AA?$AA@ 7c6ae72c     libcmtd:errmode.obj
 0002:0001574c       ??_C@_1BE@FFANBHLE@?$AAe?$AAr?$AAr?$AAm?$AAo?$AAd?$AAe?$AA?4?$AAc?$AA?$AA@ 7c6ae74c     libcmtd:errmode.obj
 0002:00015760       ??_C@_1DE@BCNCAIK@?$AA?$CI?$AA?$CC?$AAI?$AAn?$AAv?$AAa?$AAl?$AAi?$AAd?$AA?5?$AAe?$AAr?$AAr?$AAo?$AAr?$AA_?$AAm?$AAo?$AAd?$AAe?$AA?$CC?$AA?0?$AA?5?$AA0?$AA?$CJ?$AA?$AA@ 7c6ae760     libcmtd:errmode.obj
 0002:00015794       ??_C@_1BC@MFKEFFNI@?$AAm?$AAb?$AAt?$AAo?$AAw?$AAc?$AA?4?$AAc?$AA?$AA@ 7c6ae794     libcmtd:mbtowc.obj
 0002:000157a8       ??_C@_1NC@EINCOKCO@?$AA_?$AAl?$AAo?$AAc?$AA_?$AAu?$AAp?$AAd?$AAa?$AAt?$AAe?$AA?4?$AAG?$AAe?$AAt?$AAL?$AAo?$AAc?$AAa?$AAl?$AAe?$AAT?$AA?$CI?$AA?$CJ?$AA?9?$AA?$DO?$AAl?$AAo?$AAc?$AAi?$AAn?$AAf@ 7c6ae7a8     libcmtd:mbtowc.obj
 0002:0001587c       ??_C@_1O@HJNPHHHB@?$AAf?$AAp?$AAu?$AAt?$AAw?$AAc?$AA?$AA@ 7c6ae87c     libcmtd:fputwc.obj
 0002:0001588c       ??_C@_1BC@LJHBJFMP@?$AAf?$AAp?$AAu?$AAt?$AAw?$AAc?$AA?4?$AAc?$AA?$AA@ 7c6ae88c     libcmtd:fputwc.obj
 0002:000158a0       ??_C@_1BM@JMKHIAHP@?$AA?$CI?$AAs?$AAt?$AAr?$AA?5?$AA?$CB?$AA?$DN?$AA?5?$AAN?$AAU?$AAL?$AAL?$AA?$CJ?$AA?$AA@ 7c6ae8a0     libcmtd:fputwc.obj
 0002:000158bc       ??_C@_0BK@CFCOFLF@?5Complete?5Object?5Locator?8?$AA@ 7c6ae8bc     libcmtd:undname.obj
 0002:000158d8       ??_C@_0BN@MECKDCOJ@?5Class?5Hierarchy?5Descriptor?8?$AA@ 7c6ae8d8     libcmtd:undname.obj
 0002:000158f8       ??_C@_0BD@LGICGFMM@?5Base?5Class?5Array?8?$AA@ 7c6ae8f8     libcmtd:undname.obj
 0002:0001590c       ??_C@_0BM@LDKODKLH@?5Base?5Class?5Descriptor?5at?5?$CI?$AA@ 7c6ae90c     libcmtd:undname.obj
 0002:00015928       ??_C@_0BC@DAFEJGAK@?5Type?5Descriptor?8?$AA@ 7c6ae928     libcmtd:undname.obj
 0002:0001593c       ??_C@_0BM@PMGGMLDN@?$GAlocal?5static?5thread?5guard?8?$AA@ 7c6ae93c     libcmtd:undname.obj
 0002:00015958       ??_C@_0CL@FGIJHLCE@?$GAmanaged?5vector?5copy?5constructor@ 7c6ae958     libcmtd:undname.obj
 0002:00015984       ??_C@_0CJ@GJELGAMM@?$GAvector?5vbase?5copy?5constructor?5i@ 7c6ae984     libcmtd:undname.obj
 0002:000159b0       ??_C@_0CD@CGAJBKEJ@?$GAvector?5copy?5constructor?5iterato@ 7c6ae9b0     libcmtd:undname.obj
 0002:000159d4       ??_C@_0CB@PDBIFEP@?$GAdynamic?5atexit?5destructor?5for?5?8@ 7c6ae9d4     libcmtd:undname.obj
 0002:000159f8       ??_C@_0BL@CLIPGLGB@?$GAdynamic?5initializer?5for?5?8?$AA@ 7c6ae9f8     libcmtd:undname.obj
 0002:00015a14       ??_C@_0CM@FCBBDIGB@?$GAeh?5vector?5vbase?5copy?5constructo@ 7c6aea14     libcmtd:undname.obj
 0002:00015a40       ??_C@_0CG@HLDDJMAG@?$GAeh?5vector?5copy?5constructor?5iter@ 7c6aea40     libcmtd:undname.obj
 0002:00015a68       ??_C@_0CF@IMGKMJNO@?$GAmanaged?5vector?5destructor?5itera@ 7c6aea68     libcmtd:undname.obj
 0002:00015a90       ??_C@_0CG@CFDHKGGD@?$GAmanaged?5vector?5constructor?5iter@ 7c6aea90     libcmtd:undname.obj
 0002:00015ab8       ??_C@_0BN@CKNJLHMB@?$GAplacement?5delete?$FL?$FN?5closure?8?$AA@ 7c6aeab8     libcmtd:undname.obj
 0002:00015ad8       ??_C@_0BL@CNOONJFP@?$GAplacement?5delete?5closure?8?$AA@ 7c6aead8     libcmtd:undname.obj
 0002:00015af4       ??_C@_0P@HJKNJFNN@?$GAomni?5callsig?8?$AA@ 7c6aeaf4     libcmtd:undname.obj
 0002:00015b04       ??_C@_09LBNFPBCA@?5delete?$FL?$FN?$AA@ 7c6aeb04     libcmtd:undname.obj
 0002:00015b10       ??_C@_06FHBGPFGH@?5new?$FL?$FN?$AA@ 7c6aeb10     libcmtd:undname.obj
 0002:00015b18       ??_C@_0CE@IIHCMGGL@?$GAlocal?5vftable?5constructor?5closu@ 7c6aeb18     libcmtd:undname.obj
 0002:00015b3c       ??_C@_0BA@KKLDJDLB@?$GAlocal?5vftable?8?$AA@ 7c6aeb3c     libcmtd:undname.obj
 0002:00015b4c       ??_C@_05KHLCHHI@?$GARTTI?$AA@ 7c6aeb4c     libcmtd:undname.obj
 0002:00015b54       ??_C@_03KLGMFNMG@?$GAEH?$AA@ 7c6aeb54     libcmtd:undname.obj
 0002:00015b58       ??_C@_0BA@KBCDOMBN@?$GAudt?5returning?8?$AA@ 7c6aeb58     libcmtd:undname.obj
 0002:00015b68       ??_C@_0BL@LLKPOHJI@?$GAcopy?5constructor?5closure?8?$AA@ 7c6aeb68     libcmtd:undname.obj
 0002:00015b84       ??_C@_0CH@OOJPLCPH@?$GAeh?5vector?5vbase?5constructor?5ite@ 7c6aeb84     libcmtd:undname.obj
 0002:00015bac       ??_C@_0CA@GCEOPDGL@?$GAeh?5vector?5destructor?5iterator?8?$AA@ 7c6aebac     libcmtd:undname.obj
 0002:00015bcc       ??_C@_0CB@JONCMFFK@?$GAeh?5vector?5constructor?5iterator?8@ 7c6aebcc     libcmtd:undname.obj
 0002:00015bf0       ??_C@_0BL@NILFHHPC@?$GAvirtual?5displacement?5map?8?$AA@ 7c6aebf0     libcmtd:undname.obj
 0002:00015c0c       ??_C@_0CE@IKBNEHA@?$GAvector?5vbase?5constructor?5iterat@ 7c6aec0c     libcmtd:undname.obj
 0002:00015c30       ??_C@_0BN@LFPFMEDL@?$GAvector?5destructor?5iterator?8?$AA@ 7c6aec30     libcmtd:undname.obj
 0002:00015c50       ??_C@_0BO@PFGOCPJJ@?$GAvector?5constructor?5iterator?8?$AA@ 7c6aec50     libcmtd:undname.obj
 0002:00015c70       ??_C@_0BN@IMDCHIKM@?$GAscalar?5deleting?5destructor?8?$AA@ 7c6aec70     libcmtd:undname.obj
 0002:00015c90       ??_C@_0BO@OBMKPJIG@?$GAdefault?5constructor?5closure?8?$AA@ 7c6aec90     libcmtd:undname.obj
 0002:00015cb0       ??_C@_0BN@DEGPLNFK@?$GAvector?5deleting?5destructor?8?$AA@ 7c6aecb0     libcmtd:undname.obj
 0002:00015cd0       ??_C@_0BD@JDLKDPAB@?$GAvbase?5destructor?8?$AA@ 7c6aecd0     libcmtd:undname.obj
 0002:00015ce4       ??_C@_08OBABFOLI@?$GAstring?8?$AA@ 7c6aece4     libcmtd:undname.obj
 0002:00015cf0       ??_C@_0BF@KDPPACIK@?$GAlocal?5static?5guard?8?$AA@ 7c6aecf0     libcmtd:undname.obj
 0002:00015d08       ??_C@_08LLFFHHDJ@?$GAtypeof?8?$AA@ 7c6aed08     libcmtd:undname.obj
 0002:00015d14       ??_C@_07FEEIOKP@?$GAvcall?8?$AA@ 7c6aed14     libcmtd:undname.obj
 0002:00015d1c       ??_C@_09BLBHBJP@?$GAvbtable?8?$AA@ 7c6aed1c     libcmtd:undname.obj
 0002:00015d28       ??_C@_09IFPLHPGF@?$GAvftable?8?$AA@ 7c6aed28     libcmtd:undname.obj
 0002:00015d34       ??_C@_02MHEGNOJ@?$FO?$DN?$AA@ 7c6aed34     libcmtd:undname.obj
 0002:00015d38       ??_C@_02DHLNPPGH@?$HM?$DN?$AA@ 7c6aed38     libcmtd:undname.obj
 0002:00015d3c       ??_C@_02FGJGFEAB@?$CG?$DN?$AA@ 7c6aed3c     libcmtd:undname.obj
 0002:00015d40       ??_C@_03CDNPDDLA@?$DM?$DM?$DN?$AA@ 7c6aed40     libcmtd:undname.obj
 0002:00015d44       ??_C@_03IKFCCPFF@?$DO?$DO?$DN?$AA@ 7c6aed44     libcmtd:undname.obj
 0002:00015d48       ??_C@_02FENAOKFI@?$CF?$DN?$AA@ 7c6aed48     libcmtd:undname.obj
 0002:00015d4c       ??_C@_02FJEHGPIO@?1?$DN?$AA@ 7c6aed4c     libcmtd:undname.obj
 0002:00015d50       ??_C@_02FKMDLLOA@?9?$DN?$AA@ 7c6aed50     libcmtd:undname.obj
 0002:00015d54       ??_C@_02FOEOMHFC@?$CL?$DN?$AA@ 7c6aed54     libcmtd:undname.obj
 0002:00015d58       ??_C@_02FPIMKNGF@?$CK?$DN?$AA@ 7c6aed58     libcmtd:undname.obj
 0002:00015d5c       ??_C@_02NONPIBCD@?$HM?$HM?$AA@ 7c6aed5c     libcmtd:undname.obj
 0002:00015d60       ??_C@_02PPKAJPJL@?$CG?$CG?$AA@ 7c6aed60     libcmtd:undname.obj
 0002:00015d64       ??_C@_01DNKMNLPK@?$HM?$AA@ 7c6aed64     libcmtd:undname.obj
 0002:00015d68       ??_C@_01JKBOJNNK@?$FO?$AA@ 7c6aed68     libcmtd:undname.obj
 0002:00015d6c       ??_C@_01PJKLJHI@?$HO?$AA@  7c6aed6c     libcmtd:undname.obj
 0002:00015d70       ??_C@_02HCKGKOFO@?$CI?$CJ?$AA@ 7c6aed70     libcmtd:undname.obj
 0002:00015d74       ??_C@_01IHBHIGKO@?0?$AA@   7c6aed74     libcmtd:undname.obj
 0002:00015d78       ??_C@_02EEKDKGMJ@?$DO?$DN?$AA@ 7c6aed78     libcmtd:undname.obj
 0002:00015d7c       ??_C@_01PPODPGHN@?$DO?$AA@ 7c6aed7c     libcmtd:undname.obj
 0002:00015d80       ??_C@_02EHCHHCKH@?$DM?$DN?$AA@ 7c6aed80     libcmtd:undname.obj
 0002:00015d84       ??_C@_01MNNFJEPP@?$DM?$AA@ 7c6aed84     libcmtd:undname.obj
 0002:00015d88       ??_C@_01FGNFDNOH@?$CF?$AA@ 7c6aed88     libcmtd:undname.obj
 0002:00015d8c       ??_C@_01KMDKNFGN@?1?$AA@   7c6aed8c     libcmtd:undname.obj
 0002:00015d90       ??_C@_03MNHNFDLC@?9?$DO?$CK?$AA@ 7c6aed90     libcmtd:undname.obj
 0002:00015d94       ??_C@_01HNPIGOCE@?$CG?$AA@ 7c6aed94     libcmtd:undname.obj
 0002:00015d98       ??_C@_01MIFGBAGJ@?$CL?$AA@ 7c6aed98     libcmtd:undname.obj
 0002:00015d9c       ??_C@_01JOAMLHOP@?9?$AA@   7c6aed9c     libcmtd:undname.obj
 0002:00015da0       ??_C@_02BAABKJLB@?9?9?$AA@ 7c6aeda0     libcmtd:undname.obj
 0002:00015da4       ??_C@_02ECNGHCIF@?$CL?$CL?$AA@ 7c6aeda4     libcmtd:undname.obj
 0002:00015da8       ??_C@_01NBENCBCI@?$CK?$AA@ 7c6aeda8     libcmtd:undname.obj
 0002:00015dac       ??_C@_02HBOOOICD@?9?$DO?$AA@ 7c6aedac     libcmtd:undname.obj
 0002:00015db0       ??_C@_08LHJFAFGD@operator?$AA@ 7c6aedb0     libcmtd:undname.obj
 0002:00015dbc       ??_C@_02GPECMEKF@?$FL?$FN?$AA@ 7c6aedbc     libcmtd:undname.obj
 0002:00015dc0       ??_C@_02FDNJECIE@?$CB?$DN?$AA@ 7c6aedc0     libcmtd:undname.obj
 0002:00015dc4       ??_C@_02EGOFBIJA@?$DN?$DN?$AA@ 7c6aedc4     libcmtd:undname.obj
 0002:00015dc8       ??_C@_01DCLJPIOD@?$CB?$AA@ 7c6aedc8     libcmtd:undname.obj
 0002:00015dcc       ??_C@_02FODMEDOG@?$DM?$DM?$AA@ 7c6aedcc     libcmtd:undname.obj
 0002:00015dd0       ??_C@_02GPIOPFAK@?$DO?$DO?$AA@ 7c6aedd0     libcmtd:undname.obj
 0002:00015dd4       ??_C@_07FPCDHGMM@?5delete?$AA@ 7c6aedd4     libcmtd:undname.obj
 0002:00015ddc       ??_C@_04NIHEBCM@?5new?$AA@ 7c6aeddc     libcmtd:undname.obj
 0002:00015de4       ??_C@_0M@GFIIJFMG@__unaligned?$AA@ 7c6aede4     libcmtd:undname.obj
 0002:00015df0       ??_C@_0L@PILCLIHE@__restrict?$AA@ 7c6aedf0     libcmtd:undname.obj
 0002:00015dfc       ??_C@_07JOMMBBKO@__ptr64?$AA@ 7c6aedfc     libcmtd:undname.obj
 0002:00015e04       ??_C@_09HIJEGCPM@__clrcall?$AA@ 7c6aee04     libcmtd:undname.obj
 0002:00015e10       ??_C@_0L@JMKHOMEK@__fastcall?$AA@ 7c6aee10     libcmtd:undname.obj
 0002:00015e1c       ??_C@_0L@NPHFGOKO@__thiscall?$AA@ 7c6aee1c     libcmtd:undname.obj
 0002:00015e28       ??_C@_09IFJBGAPI@__stdcall?$AA@ 7c6aee28     libcmtd:undname.obj
 0002:00015e34       ??_C@_08GHMPAG@__pascal?$AA@ 7c6aee34     libcmtd:undname.obj
 0002:00015e40       ??_C@_07KOLFKCDI@__cdecl?$AA@ 7c6aee40     libcmtd:undname.obj
 0002:00015e48       ??_C@_08EHJDFFNH@__based?$CI?$AA@ 7c6aee48     libcmtd:undname.obj
 0002:00015fd8       ??_C@_04HEJADOOB@CV?3?5?$AA@ 7c6aefd8     libcmtd:undname.obj
 0002:00015fe0       ??_C@_02MOLJINC@?3?3?$AA@  7c6aefe0     libcmtd:undname.obj
 0002:00015fe4       ??_C@_01GEODFPGF@?8?$AA@   7c6aefe4     libcmtd:undname.obj
 0002:00015fe8       ??_C@_01NLNLIGKH@?$GA?$AA@ 7c6aefe8     libcmtd:undname.obj
 0002:00015fec       ??_C@_0O@KHGCOMHP@generic?9type?9?$AA@ 7c6aefec     libcmtd:undname.obj
 0002:00015ffc       ??_C@_0BE@JAEOCHPE@template?9parameter?9?$AA@ 7c6aeffc     libcmtd:undname.obj
 0002:00016010       ??_C@_02OHHJMEON@?8?8?$AA@ 7c6af010     libcmtd:undname.obj
 0002:00016014       ??_C@_0BG@JNJLAMPM@?$GAanonymous?5namespace?8?$AA@ 7c6af014     libcmtd:undname.obj
 0002:0001602c       ??_C@_0BN@IBLMMFAP@?$GAnon?9type?9template?9parameter?$AA@ 7c6af02c     libcmtd:undname.obj
 0002:0001604c       ??_C@_0BE@EODMJLIF@?$GAtemplate?9parameter?$AA@ 7c6af04c     libcmtd:undname.obj
 0002:00016060       ??_C@_04GKJNKENE@void?$AA@ 7c6af060     libcmtd:undname.obj
 0002:00016068       ??_C@_04HIBGFPH@NULL?$AA@  7c6af068     libcmtd:undname.obj
 0002:00016070       ??_C@_0M@DHNBOJMP@extern?5?$CCC?$CC?5?$AA@ 7c6af070     libcmtd:undname.obj
 0002:0001607c       ??_C@_08KJLFOPNE@?$FLthunk?$FN?3?$AA@ 7c6af07c     libcmtd:undname.obj
 0002:00016088       ??_C@_08GPDDCMKI@public?3?5?$AA@ 7c6af088     libcmtd:undname.obj
 0002:00016094       ??_C@_0M@GAIFPFIP@protected?3?5?$AA@ 7c6af094     libcmtd:undname.obj
 0002:000160a0       ??_C@_09LAPHOOG@private?3?5?$AA@ 7c6af0a0     libcmtd:undname.obj
 0002:000160ac       ??_C@_08NIEOINHE@virtual?5?$AA@ 7c6af0ac     libcmtd:undname.obj
 0002:000160b8       ??_C@_07PGOEDBHP@static?5?$AA@ 7c6af0b8     libcmtd:undname.obj
 0002:000160c0       ??_C@_0DA@HGFJFBBE@?$GAtemplate?5static?5data?5member?5des@ 7c6af0c0     libcmtd:undname.obj
 0002:000160f0       ??_C@_0DB@ILEFOCIJ@?$GAtemplate?5static?5data?5member?5con@ 7c6af0f0     libcmtd:undname.obj
 0002:00016124       ??_C@_0CB@KJDOOODE@?$GAlocal?5static?5destructor?5helper?8@ 7c6af124     libcmtd:undname.obj
 0002:00016148       ??_C@_0L@HNGCOGAE@?$GAadjustor?$HL?$AA@ 7c6af148     libcmtd:undname.obj
 0002:00016154       ??_C@_0L@GHPFDFH@?$GAvtordisp?$HL?$AA@ 7c6af154     libcmtd:undname.obj
 0002:00016160       ??_C@_0N@CBHHHENL@?$GAvtordispex?$HL?$AA@ 7c6af160     libcmtd:undname.obj
 0002:00016170       ??_C@_01CLKCMJKC@?5?$AA@   7c6af170     libcmtd:undname.obj
 0002:00016174       ??_C@_02IGFCGPIL@?$HN?8?$AA@ 7c6af174     libcmtd:undname.obj
 0002:00016178       ??_C@_03OPGICMGF@?$HN?8?5?$AA@ 7c6af178     libcmtd:undname.obj
 0002:0001617c       ??_C@_02KCKGHPCA@?$CJ?5?$AA@ 7c6af17c     libcmtd:undname.obj
 0002:00016180       ??_C@_05BEFAKPML@void?5?$AA@ 7c6af180     libcmtd:undname.obj
 0002:00016188       ??_C@_08PABEKFH@volatile?$AA@ 7c6af188     libcmtd:undname.obj
 0002:00016194       ??_C@_0M@ELJOJFFH@?0?$DMellipsis?$DO?$AA@ 7c6af194     libcmtd:undname.obj
 0002:000161a0       ??_C@_04EENFHACM@?0?4?4?4?$AA@ 7c6af1a0     libcmtd:undname.obj
 0002:000161a8       ??_C@_0L@EGPHHEKN@?$DMellipsis?$DO?$AA@ 7c6af1a8     libcmtd:undname.obj
 0002:000161b4       ??_C@_07HDJPLPEK@?5throw?$CI?$AA@ 7c6af1b4     libcmtd:undname.obj
 0002:000161bc       ??_C@_09EFNPDFFP@?5volatile?$AA@ 7c6af1bc     libcmtd:undname.obj
 0002:000161c8       ??_C@_05BNCCCJPP@const?$AA@ 7c6af1c8     libcmtd:undname.obj
 0002:000161d0       ??_C@_07EDHNAJHC@signed?5?$AA@ 7c6af1d0     libcmtd:undname.obj
 0002:000161d8       ??_C@_09EBBEKKIH@unsigned?5?$AA@ 7c6af1d8     libcmtd:undname.obj
 0002:000161e4       ??_C@_07NFANNNEC@UNKNOWN?$AA@ 7c6af1e4     libcmtd:undname.obj
 0002:000161ec       ??_C@_06GCICPBLB@__w64?5?$AA@ 7c6af1ec     libcmtd:undname.obj
 0002:000161f4       ??_C@_07CLGGIAMF@wchar_t?$AA@ 7c6af1f4     libcmtd:undname.obj
 0002:000161fc       ??_C@_08GAHOLHEO@__int128?$AA@ 7c6af1fc     libcmtd:undname.obj
 0002:00016208       ??_C@_07LFCOJCAC@__int64?$AA@ 7c6af208     libcmtd:undname.obj
 0002:00016210       ??_C@_07OFLPPHGP@__int32?$AA@ 7c6af210     libcmtd:undname.obj
 0002:00016218       ??_C@_07ICFHOGAF@__int16?$AA@ 7c6af218     libcmtd:undname.obj
 0002:00016220       ??_C@_06EBGKOKIG@__int8?$AA@ 7c6af220     libcmtd:undname.obj
 0002:00016228       ??_C@_04DDKJGDCM@bool?$AA@ 7c6af228     libcmtd:undname.obj
 0002:00016230       ??_C@_06BNJCAIGJ@double?$AA@ 7c6af230     libcmtd:undname.obj
 0002:00016238       ??_C@_05CJIMAING@long?5?$AA@ 7c6af238     libcmtd:undname.obj
 0002:00016240       ??_C@_05KNFBNCOH@float?$AA@ 7c6af240     libcmtd:undname.obj
 0002:00016248       ??_C@_04GOKPGOLB@long?$AA@ 7c6af248     libcmtd:undname.obj
 0002:00016250       ??_C@_03JBIPMCLC@int?$AA@  7c6af250     libcmtd:undname.obj
 0002:00016254       ??_C@_05BFKKPKCG@short?$AA@ 7c6af254     libcmtd:undname.obj
 0002:0001625c       ??_C@_04ENMBGAPA@char?$AA@ 7c6af25c     libcmtd:undname.obj
 0002:00016264       ??_C@_05LJGMCFOG@enum?5?$AA@ 7c6af264     libcmtd:undname.obj
 0002:0001626c       ??_C@_0N@DLIEFKNA@cointerface?5?$AA@ 7c6af26c     libcmtd:undname.obj
 0002:0001627c       ??_C@_08KOFANOFK@coclass?5?$AA@ 7c6af27c     libcmtd:undname.obj
 0002:00016288       ??_C@_06LJBABKPM@class?5?$AA@ 7c6af288     libcmtd:undname.obj
 0002:00016290       ??_C@_07DIBCDNGL@struct?5?$AA@ 7c6af290     libcmtd:undname.obj
 0002:00016298       ??_C@_06MOJHIBMG@union?5?$AA@ 7c6af298     libcmtd:undname.obj
 0002:000162a0       ??_C@_0P@GCIFDJCJ@?$GAunknown?5ecsu?8?$AA@ 7c6af2a0     libcmtd:undname.obj
 0002:000162b0       ??_C@_04LAHKHJMA@int?5?$AA@ 7c6af2b0     libcmtd:undname.obj
 0002:000162b8       ??_C@_06EHJMALKF@short?5?$AA@ 7c6af2b8     libcmtd:undname.obj
 0002:000162c0       ??_C@_05CIHEBHNO@char?5?$AA@ 7c6af2c0     libcmtd:undname.obj
 0002:000162c8       ??_C@_06LIJLOJAG@const?5?$AA@ 7c6af2c8     libcmtd:undname.obj
 0002:000162d0       ??_C@_09GAIEOBLP@volatile?5?$AA@ 7c6af2d0     libcmtd:undname.obj
 0002:000162dc       ??_C@_0O@GKABPPIF@cli?3?3pin_ptr?$DM?$AA@ 7c6af2dc     libcmtd:undname.obj
 0002:000162ec       ??_C@_0M@EALIELKG@cli?3?3array?$DM?$AA@ 7c6af2ec     libcmtd:undname.obj
 0002:000162f8       ??_C@_02GOGNNPBN@?$CJ?$FL?$AA@ 7c6af2f8     libcmtd:undname.obj
 0002:000162fc       ??_C@_06EEGAIFAK@?$HLflat?$HN?$AA@ 7c6af2fc     libcmtd:undname.obj
 0002:00016304       ??_C@_02MDINNEEG@s?5?$AA@  7c6af304     libcmtd:undname.obj
 0002:00016308       ??_C@_05JIBOFOHK@?$HLfor?5?$AA@ 7c6af308     libcmtd:undname.obj
 0002:00016314       ??_7DNameNode@@6B@         7c6af314     libcmtd:undname.obj
 0002:00016324       ??_7charNode@@6B@          7c6af324     libcmtd:undname.obj
 0002:00016334       ??_7pcharNode@@6B@         7c6af334     libcmtd:undname.obj
 0002:00016344       ??_7pDNameNode@@6B@        7c6af344     libcmtd:undname.obj
 0002:00016354       ??_7DNameStatusNode@@6B@   7c6af354     libcmtd:undname.obj
 0002:00016360       ??_C@_04OKOHEJBO@?5?$DP?$DP?5?$AA@ 7c6af360     libcmtd:undname.obj
 0002:00016368       ??_C@_1FE@CEHLKAHD@?$AAi?$AAb?$AAa?$AAs?$AAe?$AA?5?$AA?$DN?$AA?$DN?$AA?5?$AA0?$AA?5?$AA?$HM?$AA?$HM?$AA?5?$AA?$CI?$AA2?$AA?5?$AA?$DM?$AA?$DN?$AA?5?$AAi?$AAb?$AAa?$AAs?$AAe?$AA?5?$AA?$CG?$AA?$CG?$AA?5?$AAi?$AAb?$AAa@ 7c6af368     libcmtd:strtol.obj
 0002:000163bc       ??_C@_1BA@LOLAMAJG@?$AAs?$AAt?$AAr?$AAt?$AAo?$AAx?$AAl?$AA?$AA@ 7c6af3bc     libcmtd:strtol.obj
 0002:000163cc       ??_C@_1BC@CPINJNMH@?$AAs?$AAt?$AAr?$AAt?$AAo?$AAl?$AA?4?$AAc?$AA?$AA@ 7c6af3cc     libcmtd:strtol.obj
 0002:000163e0       ??_C@_1BK@LAOAACLJ@?$AAn?$AAp?$AAt?$AAr?$AA?5?$AA?$CB?$AA?$DN?$AA?5?$AAN?$AAU?$AAL?$AAL?$AA?$AA@ 7c6af3e0     libcmtd:strtol.obj
 0002:000163fc       ??_C@_1BA@PCFLFGNC@?$AAw?$AAc?$AAs?$AAt?$AAo?$AAx?$AAl?$AA?$AA@ 7c6af3fc     libcmtd:wcstol.obj
 0002:0001640c       ??_C@_1BC@KCPEGNFM@?$AAw?$AAc?$AAs?$AAt?$AAo?$AAl?$AA?4?$AAc?$AA?$AA@ 7c6af40c     libcmtd:wcstol.obj
 0002:00016420       ??_C@_1OC@EJONBGJF@?$AAs?$AAt?$AAr?$AAn?$AAc?$AAp?$AAy?$AA_?$AAs?$AA?$CI?$AA?5?$AA?$CI?$AAc?$AAh?$AAa?$AAr?$AA?5?$AA?$CK?$AA?$CJ?$AAl?$AAp?$AAD?$AAe?$AAs?$AAt?$AAS?$AAt?$AAr?$AA?0?$AA?5?$AAc?$AAc@ 7c6af420     libcmtd:w_map.obj
 0002:00016504       ??_C@_1CO@FGMDILFM@?$AA_?$AA_?$AAc?$AAr?$AAt?$AAL?$AAC?$AAM?$AAa?$AAp?$AAS?$AAt?$AAr?$AAi?$AAn?$AAg?$AAW?$AA_?$AAs?$AAt?$AAa?$AAt?$AA?$AA@ 7c6af504     libcmtd:w_map.obj
 0002:00016534       ??_C@_1BA@HAPJCPDO@?$AAw?$AA_?$AAm?$AAa?$AAp?$AA?4?$AAc?$AA?$AA@ 7c6af534     libcmtd:w_map.obj
 0002:00016544       __pDestructExceptionObject 7c6af544     libcmtd:frame.obj
 0002:00016548       ??_C@_0O@DPKOEFFH@bad?5exception?$AA@ 7c6af548     libcmtd:frame.obj
 0002:0001655c       ??_7bad_exception@std@@6B@ 7c6af55c     libcmtd:frame.obj
 0002:00016564       ??_C@_0L@KBNGFDKM@convrtcp?4c?$AA@ 7c6af564     libcmtd:convrtcp.obj
 0002:00016570       ___dnames                  7c6af570     libcmtd:timeset.obj
 0002:00016588       ___mnames                  7c6af588     libcmtd:timeset.obj
 0002:000165b0       ??_C@_1BM@FIMHBHEB@?$AA_?$AAg?$AAe?$AAt?$AA_?$AAd?$AAa?$AAy?$AAl?$AAi?$AAg?$AAh?$AAt?$AA?$AA@ 7c6af5b0     libcmtd:timeset.obj
 0002:000165cc       ??_C@_1BE@OINBFMF@?$AAt?$AAi?$AAm?$AAe?$AAs?$AAe?$AAt?$AA?4?$AAc?$AA?$AA@ 7c6af5cc     libcmtd:timeset.obj
 0002:000165e0       ??_C@_1CI@MKJEHFPG@?$AA?$CI?$AA_?$AAD?$AAa?$AAy?$AAl?$AAi?$AAg?$AAh?$AAt?$AA?5?$AA?$CB?$AA?$DN?$AA?5?$AAN?$AAU?$AAL?$AAL?$AA?$CJ?$AA?$AA@ 7c6af5e0     libcmtd:timeset.obj
 0002:00016608       ??_C@_1BK@EMODDHEE@?$AA_?$AAg?$AAe?$AAt?$AA_?$AAd?$AAs?$AAt?$AAb?$AAi?$AAa?$AAs?$AA?$AA@ 7c6af608     libcmtd:timeset.obj
 0002:00016628       ??_C@_1EC@PKDJPAAB@?$AA?$CI?$AA_?$AAD?$AAa?$AAy?$AAl?$AAi?$AAg?$AAh?$AAt?$AA_?$AAs?$AAa?$AAv?$AAi?$AAn?$AAg?$AAs?$AA_?$AAb?$AAi?$AAa?$AAs?$AA?5?$AA?$CB?$AA?$DN?$AA?5?$AAN?$AAU?$AAL?$AAL?$AA?$CJ@ 7c6af628     libcmtd:timeset.obj
 0002:0001666c       ??_C@_1BM@MGEAKPEJ@?$AA_?$AAg?$AAe?$AAt?$AA_?$AAt?$AAi?$AAm?$AAe?$AAz?$AAo?$AAn?$AAe?$AA?$AA@ 7c6af66c     libcmtd:timeset.obj
 0002:00016688       ??_C@_1CI@PODJJGAL@?$AA?$CI?$AA_?$AAT?$AAi?$AAm?$AAe?$AAz?$AAo?$AAn?$AAe?$AA?5?$AA?$CB?$AA?$DN?$AA?5?$AAN?$AAU?$AAL?$AAL?$AA?$CJ?$AA?$AA@ 7c6af688     libcmtd:timeset.obj
 0002:000166b0       ??_C@_1DG@HLGKANIP@?$AA_?$AAI?$AAn?$AAd?$AAe?$AAx?$AA?5?$AA?$DN?$AA?$DN?$AA?5?$AA0?$AA?5?$AA?$HM?$AA?$HM?$AA?5?$AA_?$AAI?$AAn?$AAd?$AAe?$AAx?$AA?5?$AA?$DN?$AA?$DN?$AA?5?$AA1?$AA?$AA@ 7c6af6b0     libcmtd:timeset.obj
 0002:000166e8       ??_C@_1CK@GBKHKEI@?$AA_?$AAR?$AAe?$AAt?$AAu?$AAr?$AAn?$AAV?$AAa?$AAl?$AAu?$AAe?$AA?5?$AA?$CB?$AA?$DN?$AA?5?$AAN?$AAU?$AAL?$AAL?$AA?$AA@ 7c6af6e8     libcmtd:timeset.obj
 0002:00016714       ??_C@_1BI@BHCKCCFA@?$AA_?$AAg?$AAe?$AAt?$AA_?$AAt?$AAz?$AAn?$AAa?$AAm?$AAe?$AA?$AA@ 7c6af714     libcmtd:timeset.obj
 0002:00016730       ??_C@_1KA@POFLNEC@?$AA?$CI?$AA_?$AAB?$AAu?$AAf?$AAf?$AAe?$AAr?$AA?5?$AA?$CB?$AA?$DN?$AA?5?$AAN?$AAU?$AAL?$AAL?$AA?5?$AA?$CG?$AA?$CG?$AA?5?$AA_?$AAS?$AAi?$AAz?$AAe?$AAI?$AAn?$AAB?$AAy?$AAt?$AAe?$AAs@ 7c6af730     libcmtd:timeset.obj
 0002:000167d0       ??_C@_1EA@GEPBEDLJ@?$AAs?$AAt?$AAr?$AAn?$AAc?$AAp?$AAy?$AA_?$AAs?$AA?$CI?$AAt?$AAz?$AAn?$AAa?$AAm?$AAe?$AA?$FL?$AA1?$AA?$FN?$AA?0?$AA?5?$AA6?$AA4?$AA?0?$AA?5?$AAT?$AAZ?$AA?0?$AA?5?$AA3?$AA?$CJ?$AA?$AA@ 7c6af7d0     libcmtd:tzset.obj
 0002:00016810       ??_C@_1EA@FIJBKALB@?$AAs?$AAt?$AAr?$AAn?$AAc?$AAp?$AAy?$AA_?$AAs?$AA?$CI?$AAt?$AAz?$AAn?$AAa?$AAm?$AAe?$AA?$FL?$AA0?$AA?$FN?$AA?0?$AA?5?$AA6?$AA4?$AA?0?$AA?5?$AAT?$AAZ?$AA?0?$AA?5?$AA3?$AA?$CJ?$AA?$AA@ 7c6af810     libcmtd:tzset.obj
 0002:00016850       ??_C@_1EK@MCAIMDPB@?$AAs?$AAt?$AAr?$AAc?$AAp?$AAy?$AA_?$AAs?$AA?$CI?$AAl?$AAa?$AAs?$AAt?$AAT?$AAZ?$AA?0?$AA?5?$AAs?$AAt?$AAr?$AAl?$AAe?$AAn?$AA?$CI?$AAT?$AAZ?$AA?$CJ?$AA?5?$AA?$CL?$AA?5?$AA1?$AA?0@ 7c6af850     libcmtd:tzset.obj
 0002:0001689c       ??_C@_07LOOFNDIO@tzset?4c?$AA@ 7c6af89c     libcmtd:tzset.obj
 0002:000168a4       ??_C@_02CLFPBFFP@TZ?$AA@   7c6af8a4     libcmtd:tzset.obj
 0002:000168a8       ??_C@_1CO@IMMOMMCB@?$AA_?$AAg?$AAe?$AAt?$AA_?$AAd?$AAs?$AAt?$AAb?$AAi?$AAa?$AAs?$AA?$CI?$AA?$CG?$AAd?$AAs?$AAt?$AAb?$AAi?$AAa?$AAs?$AA?$CJ?$AA?$AA@ 7c6af8a8     libcmtd:tzset.obj
 0002:000168d8       ??_C@_1DC@MEHEMOPB@?$AA_?$AAg?$AAe?$AAt?$AA_?$AAd?$AAa?$AAy?$AAl?$AAi?$AAg?$AAh?$AAt?$AA?$CI?$AA?$CG?$AAd?$AAa?$AAy?$AAl?$AAi?$AAg?$AAh?$AAt?$AA?$CJ?$AA?$AA@ 7c6af8d8     libcmtd:tzset.obj
 0002:0001690c       ??_C@_1DC@CMKCHHFC@?$AA_?$AAg?$AAe?$AAt?$AA_?$AAt?$AAi?$AAm?$AAe?$AAz?$AAo?$AAn?$AAe?$AA?$CI?$AA?$CG?$AAt?$AAi?$AAm?$AAe?$AAz?$AAo?$AAn?$AAe?$AA?$CJ?$AA?$AA@ 7c6af90c     libcmtd:tzset.obj
 0002:00016940       ??_C@_1BM@IIODHMJC@?$AA_?$AAt?$AAz?$AAs?$AAe?$AAt?$AA_?$AAn?$AAo?$AAl?$AAo?$AAc?$AAk?$AA?$AA@ 7c6af940     libcmtd:tzset.obj
 0002:0001695c       ??_C@_1BA@HIHOBNBL@?$AAt?$AAz?$AAs?$AAe?$AAt?$AA?4?$AAc?$AA?$AA@ 7c6af95c     libcmtd:tzset.obj
 0002:0001696c       ??_C@_1CA@GOLIIEDM@?$AA_?$AAi?$AAs?$AAi?$AAn?$AAd?$AAs?$AAt?$AA_?$AAn?$AAo?$AAl?$AAo?$AAc?$AAk?$AA?$AA@ 7c6af96c     libcmtd:tzset.obj
 0002:0001698c       ??_C@_1BA@GOCKIDGO@?$AAc?$AAv?$AAt?$AAd?$AAa?$AAt?$AAe?$AA?$AA@ 7c6af98c     libcmtd:tzset.obj
 0002:0001699c       ??_C@_1BG@GLLONOEH@?$AA_?$AAs?$AAt?$AAr?$AAi?$AAc?$AAm?$AAp?$AA_?$AAl?$AA?$AA@ 7c6af99c     libcmtd:stricmp.obj
 0002:000169b4       ??_C@_1BE@OLHMELNO@?$AAs?$AAt?$AAr?$AAi?$AAc?$AAm?$AAp?$AA?4?$AAc?$AA?$AA@ 7c6af9b4     libcmtd:stricmp.obj
 0002:000169c8       ??_C@_1BC@JLGKKIIG@?$AA_?$AAs?$AAt?$AAr?$AAi?$AAc?$AAm?$AAp?$AA?$AA@ 7c6af9c8     libcmtd:stricmp.obj
 0002:000169dc       ??_C@_1CC@JLPHKJPH@?$AAc?$AAo?$AAu?$AAn?$AAt?$AA?5?$AA?$DM?$AA?$DN?$AA?5?$AAI?$AAN?$AAT?$AA_?$AAM?$AAA?$AAX?$AA?$AA@ 7c6af9dc     libcmtd:strnicmp.obj
 0002:00016a00       ??_C@_1BI@BJLEPLEF@?$AA_?$AAs?$AAt?$AAr?$AAn?$AAi?$AAc?$AAm?$AAp?$AA_?$AAl?$AA?$AA@ 7c6afa00     libcmtd:strnicmp.obj
 0002:00016a18       ??_C@_1BG@DAODMAPG@?$AAs?$AAt?$AAr?$AAn?$AAi?$AAc?$AAm?$AAp?$AA?4?$AAc?$AA?$AA@ 7c6afa18     libcmtd:strnicmp.obj
 0002:00016a30       ??_C@_1BE@BHJDFFNA@?$AA_?$AAs?$AAt?$AAr?$AAn?$AAi?$AAc?$AAm?$AAp?$AA?$AA@ 7c6afa30     libcmtd:strnicmp.obj
 0002:00016a44       ??_C@_09MGNHMPHC@osfinfo?4c?$AA@ 7c6afa44     libcmtd:osfinfo.obj
 0002:00016a50       ??_C@_1BO@EMBOBGKE@?$AA_?$AAg?$AAe?$AAt?$AA_?$AAo?$AAs?$AAf?$AAh?$AAa?$AAn?$AAd?$AAl?$AAe?$AA?$AA@ 7c6afa50     libcmtd:osfinfo.obj
 0002:00016a70       ??_C@_1BE@MIGAHMPD@?$AAo?$AAs?$AAf?$AAi?$AAn?$AAf?$AAo?$AA?4?$AAc?$AA?$AA@ 7c6afa70     libcmtd:osfinfo.obj
 0002:00016a84       ??_C@_1BA@NGNGNDEP@?$AA_?$AAc?$AAp?$AAu?$AAt?$AAw?$AAs?$AA?$AA@ 7c6afa84     libcmtd:putwch.obj
 0002:00016a94       ??_C@_1BC@HKEJKGAG@?$AAp?$AAu?$AAt?$AAw?$AAc?$AAh?$AA?4?$AAc?$AA?$AA@ 7c6afa94     libcmtd:putwch.obj
 0002:00016aa8       ??_C@_0BO@GNIAFIKK@Unknown?5Runtime?5Check?5Error?6?$AN?$AA@ 7c6afaa8     libcmtd:error.obj
 0002:00016ac8       ??_C@_0CM@NGINOKPC@Stack?5memory?5around?5_alloca?5was?5@ 7c6afac8     libcmtd:error.obj
 0002:00016af4       ??_C@_0DG@HKJMLLLP@A?5local?5variable?5was?5used?5before@ 7c6afaf4     libcmtd:error.obj
 0002:00016b2c       ??_C@_0BN@FFOINMNJ@Stack?5memory?5was?5corrupted?6?$AN?$AA@ 7c6afb2c     libcmtd:error.obj
 0002:00016b50       ??_C@_0BBN@GPMLNJCF@A?5cast?5to?5a?5smaller?5data?5type?5ha@ 7c6afb50     libcmtd:error.obj
 0002:00016c70       ??_C@_0NN@NGPKDKPD@The?5value?5of?5ESP?5was?5not?5properl@ 7c6afc70     libcmtd:error.obj
 0002:00016dd4       ??_C@_0CA@IODNCDPG@Run?9Time?5Check?5Failure?5?$CD?$CFd?5?9?5?$CFs?$AA@ 7c6afdd4     libcmtd:error.obj
 0002:00016df4       ??_C@_0BE@GNBOBNCK@Unknown?5Module?5Name?$AA@ 7c6afdf4     libcmtd:error.obj
 0002:00016e08       ??_C@_0BB@PFFGGCJP@Unknown?5Filename?$AA@ 7c6afe08     libcmtd:error.obj
 0002:00016e20       ??_C@_1EA@NFKNIFJP@?$AAR?$AAu?$AAn?$AA?9?$AAT?$AAi?$AAm?$AAe?$AA?5?$AAC?$AAh?$AAe?$AAc?$AAk?$AA?5?$AAF?$AAa?$AAi?$AAl?$AAu?$AAr?$AAe?$AA?5?$AA?$CD?$AA?$CF?$AAd?$AA?5?$AA?9?$AA?5?$AA?$CF?$AAs?$AA?$AA@ 7c6afe20     libcmtd:error.obj
 0002:00016e60       ??_C@_1GM@OLMCBDMB@?$AAR?$AAu?$AAn?$AAt?$AAi?$AAm?$AAe?$AA?5?$AAC?$AAh?$AAe?$AAc?$AAk?$AA?5?$AAE?$AAr?$AAr?$AAo?$AAr?$AA?4?$AA?6?$AA?$AN?$AA?5?$AAU?$AAn?$AAa?$AAb?$AAl?$AAe?$AA?5?$AAt?$AAo@ 7c6afe60     libcmtd:error.obj
 0002:00016ecc       ??_C@_0CG@IAFNJNEE@Stack?5corrupted?5near?5unknown?5var@ 7c6afecc     libcmtd:error.obj
 0002:00016ef8       ??_C@_0EJ@LJKNEOLN@Stack?5area?5around?5_alloca?5memory@ 7c6afef8     libcmtd:error.obj
 0002:00016f44       ??_C@_08KJEDNCKC@?$CFs?$CFs?$CFs?$CFs?$AA@ 7c6aff44     libcmtd:error.obj
 0002:00016f50       ??_C@_02LLMPMKNF@?$DO?5?$AA@ 7c6aff50     libcmtd:error.obj
 0002:00016f54       ??_C@_0BC@KIBAILCI@?$CFs?$CFs?$CFp?$CFs?$CFld?$CFs?$CFd?$CFs?$AA@ 7c6aff54     libcmtd:error.obj
 0002:00016f68       ??_C@_0EI@CLEPFNGI@Stack?5area?5around?5_alloca?5memory@ 7c6aff68     libcmtd:error.obj
 0002:00016fb0       ??_C@_0N@MHFFIMFG@?6Address?3?50x?$AA@ 7c6affb0     libcmtd:error.obj
 0002:00016fc0       ??_C@_07DFDJCKFN@?6Size?3?5?$AA@ 7c6affc0     libcmtd:error.obj
 0002:00016fc8       ??_C@_0CK@DKGBICFE@?6Allocation?5number?5within?5this?5f@ 7c6affc8     libcmtd:error.obj
 0002:00016ff4       ??_C@_08OMAHNMHJ@?6Data?3?5?$DM?$AA@ 7c6afff4     libcmtd:error.obj
 0002:00017000       ??_C@_0DE@OHJBPMBP@A?5variable?5is?5being?5used?5without@ 7c6b0000     libcmtd:error.obj
 0002:00017034       ??_C@_09IFKHNCOH@_sftbuf?4c?$AA@ 7c6b0034     libcmtd:_sftbuf.obj
 0002:00017040       ??_C@_1BE@DFMOKHKL@?$AA_?$AAs?$AAf?$AAt?$AAb?$AAu?$AAf?$AA?4?$AAc?$AA?$AA@ 7c6b0040     libcmtd:_sftbuf.obj
 0002:00017054       ??_C@_1CO@KCKAACMI@?$AAf?$AAl?$AAa?$AAg?$AA?5?$AA?$DN?$AA?$DN?$AA?5?$AA0?$AA?5?$AA?$HM?$AA?$HM?$AA?5?$AAf?$AAl?$AAa?$AAg?$AA?5?$AA?$DN?$AA?$DN?$AA?5?$AA1?$AA?$AA@ 7c6b0054     libcmtd:_sftbuf.obj
 0002:00017084       ??_C@_1BO@JGFPDJCP@?$AAv?$AAp?$AAr?$AAi?$AAn?$AAt?$AAf?$AA_?$AAh?$AAe?$AAl?$AAp?$AAe?$AAr?$AA?$AA@ 7c6b0084     libcmtd:vprintf.obj
 0002:000170a4       ??_C@_1BE@DEJONPKH@?$AAv?$AAp?$AAr?$AAi?$AAn?$AAt?$AAf?$AA?4?$AAc?$AA?$AA@ 7c6b00a4     libcmtd:vprintf.obj
 0002:000170b8       ??_C@_1GC@GNCCMPNN@?$AAf?$AA?3?$AA?2?$AAd?$AAd?$AA?2?$AAv?$AAc?$AAt?$AAo?$AAo?$AAl?$AAs?$AA?2?$AAc?$AAr?$AAt?$AA_?$AAb?$AAl?$AAd?$AA?2?$AAs?$AAe?$AAl?$AAf?$AA_?$AAx?$AA8?$AA6?$AA?2?$AAc@ 7c6b00b8     libcmtd:_flswbuf.obj
 0002:00017120       ??_C@_1FA@HILOOCMA@?$AA?$CI?$AA_?$AAt?$AAc?$AAs?$AAn?$AAl?$AAe?$AAn?$AA?$CI?$AAo?$AAp?$AAt?$AAi?$AAo?$AAn?$AA?0?$AA?5?$AA_?$AAM?$AAA?$AAX?$AA_?$AAE?$AAN?$AAV?$AA?$CJ?$AA?5?$AA?$DM?$AA?5?$AA_?$AAM@ 7c6b0120     libcmtd:getenv.obj
 0002:00017170       ??_C@_1O@GMKGKCJO@?$AAg?$AAe?$AAt?$AAe?$AAn?$AAv?$AA?$AA@ 7c6b0170     libcmtd:getenv.obj
 0002:00017180       ??_C@_1BC@CPAPBFCO@?$AAg?$AAe?$AAt?$AAe?$AAn?$AAv?$AA?4?$AAc?$AA?$AA@ 7c6b0180     libcmtd:getenv.obj
 0002:00017194       ??_C@_1CC@FKAOHHLO@?$AA?$CI?$AAo?$AAp?$AAt?$AAi?$AAo?$AAn?$AA?5?$AA?$CB?$AA?$DN?$AA?5?$AAN?$AAU?$AAL?$AAL?$AA?$CJ?$AA?$AA@ 7c6b0194     libcmtd:getenv.obj
 0002:000171b8       ??_C@_1GI@JBIFPFJH@?$AA_?$AAt?$AAc?$AAs?$AAn?$AAl?$AAe?$AAn?$AA?$CI?$AA?$CK?$AAs?$AAe?$AAa?$AAr?$AAc?$AAh?$AA?5?$AA?$CL?$AA?5?$AAl?$AAe?$AAn?$AAg?$AAt?$AAh?$AA?5?$AA?$CL?$AA?5?$AA1?$AA?0?$AA?5?$AA_@ 7c6b01b8     libcmtd:getenv.obj
 0002:00017220       ??_C@_1EI@HHOBPCFK@?$AAs?$AAt?$AAr?$AAc?$AAp?$AAy?$AA_?$AAs?$AA?$CI?$AAb?$AAu?$AAf?$AAf?$AAe?$AAr?$AA?0?$AA?5?$AAs?$AAi?$AAz?$AAe?$AAI?$AAn?$AAT?$AAC?$AAh?$AAa?$AAr?$AAs?$AA?0?$AA?5?$AAs@ 7c6b0220     libcmtd:getenv.obj
 0002:00017268       ??_C@_1JM@NLPGJJPH@?$AA?$CI?$AAb?$AAu?$AAf?$AAf?$AAe?$AAr?$AA?5?$AA?$CB?$AA?$DN?$AA?5?$AAN?$AAU?$AAL?$AAL?$AA?5?$AA?$CG?$AA?$CG?$AA?5?$AAs?$AAi?$AAz?$AAe?$AAI?$AAn?$AAT?$AAC?$AAh?$AAa?$AAr?$AAs?$AA?5@ 7c6b0268     libcmtd:getenv.obj
 0002:00017304       ??_C@_1CC@BAJKDIIF@?$AA_?$AAg?$AAe?$AAt?$AAe?$AAn?$AAv?$AA_?$AAs?$AA_?$AAh?$AAe?$AAl?$AAp?$AAe?$AAr?$AA?$AA@ 7c6b0304     libcmtd:getenv.obj
 0002:00017328       ??_C@_1CK@PIKDAOCL@?$AAp?$AAR?$AAe?$AAt?$AAu?$AAr?$AAn?$AAV?$AAa?$AAl?$AAu?$AAe?$AA?5?$AA?$CB?$AA?$DN?$AA?5?$AAN?$AAU?$AAL?$AAL?$AA?$AA@ 7c6b0328     libcmtd:getenv.obj
 0002:00017354       ??_C@_1DM@GNKNEGJO@?$AAs?$AAt?$AAr?$AAc?$AAp?$AAy?$AA_?$AAs?$AA?$CI?$AA?$CK?$AAp?$AAB?$AAu?$AAf?$AAf?$AAe?$AAr?$AA?0?$AA?5?$AAs?$AAi?$AAz?$AAe?$AA?0?$AA?5?$AAs?$AAt?$AAr?$AA?$CJ?$AA?$AA@ 7c6b0354     libcmtd:getenv.obj
 0002:00017390       ??_C@_1CA@GDBKELOE@?$AAv?$AAa?$AAr?$AAn?$AAa?$AAm?$AAe?$AA?5?$AA?$CB?$AA?$DN?$AA?5?$AAN?$AAU?$AAL?$AAL?$AA?$AA@ 7c6b0390     libcmtd:getenv.obj
 0002:000173b0       ??_C@_1CC@KPLOPIEM@?$AA_?$AAd?$AAu?$AAp?$AAe?$AAn?$AAv?$AA_?$AAs?$AA_?$AAh?$AAe?$AAl?$AAp?$AAe?$AAr?$AA?$AA@ 7c6b03b0     libcmtd:getenv.obj
 0002:000173d4       ??_C@_1CA@FHNFMDOJ@?$AAp?$AAB?$AAu?$AAf?$AAf?$AAe?$AAr?$AA?5?$AA?$CB?$AA?$DN?$AA?5?$AAN?$AAU?$AAL?$AAL?$AA?$AA@ 7c6b03d4     libcmtd:getenv.obj
 0002:000173f4       ??_C@_1BA@BMMDEPNE@?$AAs?$AAt?$AAr?$AAt?$AAo?$AAx?$AAq?$AA?$AA@ 7c6b03f4     libcmtd:strtoq.obj
 0002:00017404       ??_C@_1BC@MIDDLJDN@?$AAs?$AAt?$AAr?$AAt?$AAo?$AAq?$AA?4?$AAc?$AA?$AA@ 7c6b0404     libcmtd:strtoq.obj
 0002:00017418       ??_C@_06GDENEHCP@CONIN$?$AA@ 7c6b0418     libcmtd:initcon.obj
 0002:00017420       ??_C@_07GPDNMNG@CONOUT$?$AA@ 7c6b0420     libcmtd:initcon.obj
 0002:00017428       ??_C@_0M@EKFFODEC@MSPDB80?4DLL?$AA@ 7c6b0428     libcmtd:pdblkup.obj
 0002:00017434       ??_C@_01KDCPPGHE@r?$AA@    7c6b0434     libcmtd:pdblkup.obj
 0002:00017438       ??_C@_0BB@KCIACLNC@PDBOpenValidate5?$AA@ 7c6b0438     libcmtd:pdblkup.obj
 0002:0001744c       ??_C@_0BF@BMIHBHCA@EnvironmentDirectory?$AA@ 7c6b044c     libcmtd:pdblkup.obj
 0002:00017464       ??_C@_0CN@EAEOKKOC@SOFTWARE?2Microsoft?2VisualStudio?2@ 7c6b0464     libcmtd:pdblkup.obj
 0002:00017494       ??_C@_0BP@OGBCLIBO@Stack?5around?5_alloca?5corrupted?$AA@ 7c6b0494     libcmtd:userapi.obj
 0002:000174b4       ??_C@_0CK@CNLNOEPB@Local?5variable?5used?5before?5initi@ 7c6b04b4     libcmtd:userapi.obj
 0002:000174e0       ??_C@_0BI@CIGMDCBH@Stack?5memory?5corruption?$AA@ 7c6b04e0     libcmtd:userapi.obj
 0002:000174f8       ??_C@_0CK@FEGOIOPB@Cast?5to?5smaller?5type?5causing?5los@ 7c6b04f8     libcmtd:userapi.obj
 0002:00017524       ??_C@_0BJ@HEGAHDFO@Stack?5pointer?5corruption?$AA@ 7c6b0524     libcmtd:userapi.obj
 0002:00017554       ??_C@_1O@EGMJNCOI@?$AAf?$AAc?$AAl?$AAo?$AAs?$AAe?$AA?$AA@ 7c6b0554     libcmtd:fclose.obj
 0002:00017564       ??_C@_1BC@MHEDMIA@?$AAf?$AAc?$AAl?$AAo?$AAs?$AAe?$AA?4?$AAc?$AA?$AA@ 7c6b0564     libcmtd:fclose.obj
 0002:00017578       ??_C@_1BO@JINCABEC@?$AA_?$AAf?$AAc?$AAl?$AAo?$AAs?$AAe?$AA_?$AAn?$AAo?$AAl?$AAo?$AAc?$AAk?$AA?$AA@ 7c6b0578     libcmtd:fclose.obj
 0002:00017598       ??_C@_1DG@LNNHNFHJ@?$AA?$CI?$AA_?$AAo?$AAs?$AAf?$AAi?$AAl?$AAe?$AA?$CI?$AAf?$AAi?$AAl?$AAe?$AAd?$AAe?$AAs?$AA?$CJ?$AA?5?$AA?$CG?$AA?5?$AAF?$AAO?$AAP?$AAE?$AAN?$AA?$CJ?$AA?$AA@ 7c6b0598     libcmtd:commit.obj
 0002:000175d0       ??_C@_1BA@FLNMBBIM@?$AA_?$AAc?$AAo?$AAm?$AAm?$AAi?$AAt?$AA?$AA@ 7c6b05d0     libcmtd:commit.obj
 0002:000175e0       ??_C@_1BC@LOAFNBNC@?$AAc?$AAo?$AAm?$AAm?$AAi?$AAt?$AA?4?$AAc?$AA?$AA@ 7c6b05e0     libcmtd:commit.obj
 0002:000175f8       ??_C@_1HC@KFLBHHBC@?$AA?$CI?$AAf?$AAi?$AAl?$AAe?$AAd?$AAe?$AAs?$AA?5?$AA?$DO?$AA?$DN?$AA?5?$AA0?$AA?5?$AA?$CG?$AA?$CG?$AA?5?$AA?$CI?$AAu?$AAn?$AAs?$AAi?$AAg?$AAn?$AAe?$AAd?$AA?$CJ?$AAf?$AAi?$AAl?$AAe?$AAd@ 7c6b05f8     libcmtd:commit.obj
 0002:0001766c       ??_C@_1BG@GBJNMPFA@?$AAs?$AA2?$AA?5?$AA?$CB?$AA?$DN?$AA?5?$AAN?$AAU?$AAL?$AAL?$AA?$AA@ 7c6b066c     libcmtd:mbsnbico.obj
 0002:00017684       ??_C@_1BM@FKNNDAHH@?$AA_?$AAm?$AAb?$AAs?$AAn?$AAb?$AAi?$AAc?$AAo?$AAl?$AAl?$AA_?$AAl?$AA?$AA@ 7c6b0684     libcmtd:mbsnbico.obj
 0002:000176a0       ??_C@_1BG@MHEMLGJO@?$AAm?$AAb?$AAs?$AAn?$AAb?$AAi?$AAc?$AAo?$AA?4?$AAc?$AA?$AA@ 7c6b06a0     libcmtd:mbsnbico.obj
 0002:000176b8       ??_C@_1BG@MODEICJK@?$AAs?$AA1?$AA?5?$AA?$CB?$AA?$DN?$AA?5?$AAN?$AAU?$AAL?$AAL?$AA?$AA@ 7c6b06b8     libcmtd:mbsnbico.obj
 0002:000176d0       ??_C@_0L@CELCHBFJ@wtombenv?4c?$AA@ 7c6b06d0     libcmtd:wtombenv.obj
 0002:000176dc       ??_C@_1O@EDEJGJBM@?$AA_?$AAc?$AAl?$AAo?$AAs?$AAe?$AA?$AA@ 7c6b06dc     libcmtd:close.obj
 0002:000176ec       ??_C@_1BA@GOGDMMEN@?$AAc?$AAl?$AAo?$AAs?$AAe?$AA?4?$AAc?$AA?$AA@ 7c6b06ec     libcmtd:close.obj
 0002:000176fc       ??_C@_1BG@BCLADFND@?$AA_?$AAf?$AAr?$AAe?$AAe?$AAb?$AAu?$AAf?$AA?4?$AAc?$AA?$AA@ 7c6b06fc     libcmtd:_freebuf.obj
 0002:00017714       ??_C@_1BO@KIJENGPH@?$AAs?$AAt?$AAr?$AAe?$AAa?$AAm?$AA?5?$AA?$CB?$AA?$DN?$AA?5?$AAN?$AAU?$AAL?$AAL?$AA?$AA@ 7c6b0714     libcmtd:_freebuf.obj
 0002:00017734       ??_C@_1BA@DGECELNE@?$AAa?$AA_?$AAc?$AAm?$AAp?$AA?4?$AAc?$AA?$AA@ 7c6b0734     libcmtd:a_cmp.obj
 0002:00017748       ??_C@_1HK@ELDMAMK@?$AAc?$AAc?$AAh?$AAC?$AAo?$AAu?$AAn?$AAt?$AA1?$AA?$DN?$AA?$DN?$AA0?$AA?5?$AA?$CG?$AA?$CG?$AA?5?$AAc?$AAc?$AAh?$AAC?$AAo?$AAu?$AAn?$AAt?$AA2?$AA?$DN?$AA?$DN?$AA1?$AA?5?$AA?$HM?$AA?$HM?$AA?5@ 7c6b0748     libcmtd:a_cmp.obj
 0002:000177c4       ??_C@_1CC@CNADELFK@?$AA_?$AAs?$AAt?$AAr?$AAi?$AAn?$AAg?$AA2?$AA?5?$AA?$CB?$AA?$DN?$AA?5?$AAN?$AAU?$AAL?$AAL?$AA?$AA@ 7c6b07c4     libcmtd:strnicol.obj
 0002:000177e8       ??_C@_1BK@IOJEBPLP@?$AA_?$AAs?$AAt?$AAr?$AAn?$AAi?$AAc?$AAo?$AAl?$AAl?$AA_?$AAl?$AA?$AA@ 7c6b07e8     libcmtd:strnicol.obj
 0002:00017804       ??_C@_1BG@BPACDEKP@?$AAs?$AAt?$AAr?$AAn?$AAi?$AAc?$AAo?$AAl?$AA?4?$AAc?$AA?$AA@ 7c6b0804     libcmtd:strnicol.obj
 0002:0001781c       ??_C@_1CC@ICKKAGJA@?$AA_?$AAs?$AAt?$AAr?$AAi?$AAn?$AAg?$AA1?$AA?5?$AA?$CB?$AA?$DN?$AA?5?$AAN?$AAU?$AAL?$AAL?$AA?$AA@ 7c6b081c     libcmtd:strnicol.obj
 0002:00017840       ??_C@_1FG@OKIAKKPK@?$AAs?$AAt?$AAr?$AAc?$AAp?$AAy?$AA_?$AAs?$AA?$CI?$AAn?$AAa?$AAm?$AAe?$AA?0?$AA?5?$AAs?$AAt?$AAr?$AAl?$AAe?$AAn?$AA?$CI?$AAo?$AAp?$AAt?$AAi?$AAo?$AAn?$AA?$CJ?$AA?5?$AA?$CL?$AA?5@ 7c6b0840     libcmtd:setenv.obj
 0002:00017898       ??_C@_1EI@GHDNAPMG@?$AA?$CI?$AA?$CC?$AAC?$AAR?$AAT?$AA?5?$AAL?$AAo?$AAg?$AAi?$AAc?$AA?5?$AAe?$AAr?$AAr?$AAo?$AAr?$AA?5?$AAd?$AAu?$AAr?$AAi?$AAn?$AAg?$AA?5?$AAs?$AAe?$AAt?$AAe?$AAn?$AAv?$AA?$CC@ 7c6b0898     libcmtd:setenv.obj
 0002:000178e0       ??_C@_08BMJILFKN@setenv?4c?$AA@ 7c6b08e0     libcmtd:setenv.obj
 0002:000178f0       ??_C@_1FC@EEJIEIDF@?$AA_?$AAt?$AAc?$AAs?$AAn?$AAl?$AAe?$AAn?$AA?$CI?$AAe?$AAq?$AAu?$AAa?$AAl?$AA?5?$AA?$CL?$AA?5?$AA1?$AA?0?$AA?5?$AA_?$AAM?$AAA?$AAX?$AA_?$AAE?$AAN?$AAV?$AA?$CJ?$AA?5?$AA?$DM?$AA?5@ 7c6b08f0     libcmtd:setenv.obj
 0002:00017944       ??_C@_1DE@EEHFNNGH@?$AAe?$AAq?$AAu?$AAa?$AAl?$AA?5?$AA?9?$AA?5?$AAo?$AAp?$AAt?$AAi?$AAo?$AAn?$AA?5?$AA?$DM?$AA?5?$AA_?$AAM?$AAA?$AAX?$AA_?$AAE?$AAN?$AAV?$AA?$AA@ 7c6b0944     libcmtd:setenv.obj
 0002:00017978       ??_C@_1BI@CDAFOAAL@?$AA_?$AA_?$AAc?$AAr?$AAt?$AAs?$AAe?$AAt?$AAe?$AAn?$AAv?$AA?$AA@ 7c6b0978     libcmtd:setenv.obj
 0002:00017990       ??_C@_1BC@KAEJODA@?$AAs?$AAe?$AAt?$AAe?$AAn?$AAv?$AA?4?$AAc?$AA?$AA@ 7c6b0990     libcmtd:setenv.obj
 0002:000179a4       ??_C@_1CA@LMBEKBDN@?$AAp?$AAo?$AAp?$AAt?$AAi?$AAo?$AAn?$AA?5?$AA?$CB?$AA?$DN?$AA?5?$AAN?$AAU?$AAL?$AAL?$AA?$AA@ 7c6b09a4     libcmtd:setenv.obj
 0002:000179c8       ??_C@_1FK@DNFLNPD@?$AAs?$AAt?$AAr?$AAc?$AAp?$AAy?$AA_?$AAs?$AA?$CI?$AA?$CK?$AAn?$AAe?$AAw?$AAe?$AAn?$AAv?$AAp?$AAt?$AAr?$AA?0?$AA?5?$AAe?$AAn?$AAv?$AAp?$AAt?$AAr?$AAS?$AAi?$AAz?$AAe?$AA?0@ 7c6b09c8     libcmtd:setenv.obj
 0002:00017a24       ??_C@_1BK@ECKIJLPM@?$AAc?$AAo?$AAp?$AAy?$AA_?$AAe?$AAn?$AAv?$AAi?$AAr?$AAo?$AAn?$AA?$AA@ 7c6b0a24     libcmtd:setenv.obj
 0002:00017a40       ??_C@_1BE@JKKFLIKJ@?$AA_?$AAm?$AAb?$AAs?$AAc?$AAh?$AAr?$AA_?$AAl?$AA?$AA@ 7c6b0a40     libcmtd:mbschr.obj
 0002:00017a54       ??_C@_1BC@MDNHFJEJ@?$AAm?$AAb?$AAs?$AAc?$AAh?$AAr?$AA?4?$AAc?$AA?$AA@ 7c6b0a54     libcmtd:mbschr.obj
 0002:00017a68       ??_C@_1BO@JIBAMMGI@?$AAs?$AAt?$AAr?$AAi?$AAn?$AAg?$AA?5?$AA?$CB?$AA?$DN?$AA?5?$AAN?$AAU?$AAL?$AAL?$AA?$AA@ 7c6b0a68     libcmtd:mbschr.obj
 0002:00017a88       _GUID_DEVINTERFACE_SERENUM_BUS_ENUMERATOR 7c6b0a88     uuid:cguid_i.obj
 0002:00017a98       _GUID_DEVINTERFACE_COMPORT 7c6b0a98     uuid:cguid_i.obj
 0002:00017aa8       _GUID_DEVINTERFACE_STORAGEPORT 7c6b0aa8     uuid:cguid_i.obj
 0002:00017ab8       _GUID_DEVINTERFACE_CDCHANGER 7c6b0ab8     uuid:cguid_i.obj
 0002:00017ac8       _GUID_DEVINTERFACE_FLOPPY  7c6b0ac8     uuid:cguid_i.obj
 0002:00017ad8       _GUID_DEVINTERFACE_MEDIUMCHANGER 7c6b0ad8     uuid:cguid_i.obj
 0002:00017ae8       _GUID_DEVINTERFACE_VOLUME  7c6b0ae8     uuid:cguid_i.obj
 0002:00017af8       _GUID_DEVINTERFACE_WRITEONCEDISK 7c6b0af8     uuid:cguid_i.obj
 0002:00017b08       _GUID_DEVINTERFACE_TAPE    7c6b0b08     uuid:cguid_i.obj
 0002:00017b18       _GUID_DEVINTERFACE_PARTITION 7c6b0b18     uuid:cguid_i.obj
 0002:00017b28       _GUID_DEVINTERFACE_CDROM   7c6b0b28     uuid:cguid_i.obj
 0002:00017b38       _GUID_DEVINTERFACE_DISK    7c6b0b38     uuid:cguid_i.obj
 0002:00017b48       _GUID_DEVCLASS_FSFILTER_INFRASTRUCTURE 7c6b0b48     uuid:cguid_i.obj
 0002:00017b58       _GUID_DEVCLASS_FSFILTER_SYSTEM 7c6b0b58     uuid:cguid_i.obj
 0002:00017b68       _GUID_DEVCLASS_FSFILTER_COPYPROTECTION 7c6b0b68     uuid:cguid_i.obj
 0002:00017b78       _GUID_DEVCLASS_FSFILTER_SECURITYENHANCER 7c6b0b78     uuid:cguid_i.obj
 0002:00017b88       _GUID_DEVCLASS_FSFILTER_OPENFILEBACKUP 7c6b0b88     uuid:cguid_i.obj
 0002:00017b98       _GUID_DEVCLASS_FSFILTER_PHYSICALQUOTAMANAGEMENT 7c6b0b98     uuid:cguid_i.obj
 0002:00017ba8       _GUID_DEVCLASS_FSFILTER_ENCRYPTION 7c6b0ba8     uuid:cguid_i.obj
 0002:00017bb8       _GUID_DEVCLASS_FSFILTER_COMPRESSION 7c6b0bb8     uuid:cguid_i.obj
 0002:00017bc8       _GUID_DEVCLASS_FSFILTER_HSM 7c6b0bc8     uuid:cguid_i.obj
 0002:00017bd8       _GUID_DEVCLASS_FSFILTER_CFSMETADATASERVER 7c6b0bd8     uuid:cguid_i.obj
 0002:00017be8       _GUID_DEVCLASS_FSFILTER_SYSTEMRECOVERY 7c6b0be8     uuid:cguid_i.obj
 0002:00017bf8       _GUID_DEVCLASS_FSFILTER_QUOTAMANAGEMENT 7c6b0bf8     uuid:cguid_i.obj
 0002:00017c08       _GUID_DEVCLASS_FSFILTER_CONTENTSCREENER 7c6b0c08     uuid:cguid_i.obj
 0002:00017c18       _GUID_DEVCLASS_FSFILTER_CONTINUOUSBACKUP 7c6b0c18     uuid:cguid_i.obj
 0002:00017c28       _GUID_DEVCLASS_FSFILTER_REPLICATION 7c6b0c28     uuid:cguid_i.obj
 0002:00017c38       _GUID_DEVCLASS_FSFILTER_ANTIVIRUS 7c6b0c38     uuid:cguid_i.obj
 0002:00017c48       _GUID_DEVCLASS_FSFILTER_UNDELETE 7c6b0c48     uuid:cguid_i.obj
 0002:00017c58       _GUID_DEVCLASS_FSFILTER_ACTIVITYMONITOR 7c6b0c58     uuid:cguid_i.obj
 0002:00017c68       _GUID_DEVCLASS_WCEUSBS     7c6b0c68     uuid:cguid_i.obj
 0002:00017c78       _GUID_DEVCLASS_VOLUMESNAPSHOT 7c6b0c78     uuid:cguid_i.obj
 0002:00017c88       _GUID_DEVCLASS_VOLUME      7c6b0c88     uuid:cguid_i.obj
 0002:00017c98       _GUID_DEVCLASS_USB         7c6b0c98     uuid:cguid_i.obj
 0002:00017ca8       _GUID_DEVCLASS_UNKNOWN     7c6b0ca8     uuid:cguid_i.obj
 0002:00017cb8       _GUID_DEVCLASS_TAPEDRIVE   7c6b0cb8     uuid:cguid_i.obj
 0002:00017cc8       _GUID_DEVCLASS_SYSTEM      7c6b0cc8     uuid:cguid_i.obj
 0002:00017cd8       _GUID_DEVCLASS_SOUND       7c6b0cd8     uuid:cguid_i.obj
 0002:00017ce8       _GUID_DEVCLASS_SMARTCARDREADER 7c6b0ce8     uuid:cguid_i.obj
 0002:00017cf8       _GUID_DEVCLASS_SECURITYACCELERATOR 7c6b0cf8     uuid:cguid_i.obj
 0002:00017d08       _GUID_DEVCLASS_SCSIADAPTER 7c6b0d08     uuid:cguid_i.obj
 0002:00017d18       _GUID_DEVCLASS_SBP2        7c6b0d18     uuid:cguid_i.obj
 0002:00017d28       _GUID_DEVCLASS_PROCESSOR   7c6b0d28     uuid:cguid_i.obj
 0002:00017d38       _GUID_DEVCLASS_PRINTERUPGRADE 7c6b0d38     uuid:cguid_i.obj
 0002:00017d48       _GUID_DEVCLASS_PRINTER     7c6b0d48     uuid:cguid_i.obj
 0002:00017d58       _GUID_DEVCLASS_PORTS       7c6b0d58     uuid:cguid_i.obj
 0002:00017d68       _GUID_DEVCLASS_PNPPRINTERS 7c6b0d68     uuid:cguid_i.obj
 0002:00017d78       _GUID_DEVCLASS_PCMCIA      7c6b0d78     uuid:cguid_i.obj
 0002:00017d88       _GUID_DEVCLASS_NODRIVER    7c6b0d88     uuid:cguid_i.obj
 0002:00017d98       _GUID_DEVCLASS_NETTRANS    7c6b0d98     uuid:cguid_i.obj
 0002:00017da8       _GUID_DEVCLASS_NETSERVICE  7c6b0da8     uuid:cguid_i.obj
 0002:00017db8       _GUID_DEVCLASS_NETCLIENT   7c6b0db8     uuid:cguid_i.obj
 0002:00017dc8       _GUID_DEVCLASS_NET         7c6b0dc8     uuid:cguid_i.obj
 0002:00017dd8       _GUID_DEVCLASS_MULTIPORTSERIAL 7c6b0dd8     uuid:cguid_i.obj
 0002:00017de8       _GUID_DEVCLASS_MULTIFUNCTION 7c6b0de8     uuid:cguid_i.obj
 0002:00017df8       _GUID_DEVCLASS_MTD         7c6b0df8     uuid:cguid_i.obj
 0002:00017e08       _GUID_DEVCLASS_MOUSE       7c6b0e08     uuid:cguid_i.obj
 0002:00017e18       _GUID_DEVCLASS_MONITOR     7c6b0e18     uuid:cguid_i.obj
 0002:00017e28       _GUID_DEVCLASS_MODEM       7c6b0e28     uuid:cguid_i.obj
 0002:00017e38       _GUID_DEVCLASS_MEDIUM_CHANGER 7c6b0e38     uuid:cguid_i.obj
 0002:00017e48       _GUID_DEVCLASS_MEDIA       7c6b0e48     uuid:cguid_i.obj
 0002:00017e58       _GUID_DEVCLASS_LEGACYDRIVER 7c6b0e58     uuid:cguid_i.obj
 0002:00017e68       _GUID_DEVCLASS_KEYBOARD    7c6b0e68     uuid:cguid_i.obj
 0002:00017e78       _GUID_DEVCLASS_INFRARED    7c6b0e78     uuid:cguid_i.obj
 0002:00017e88       _GUID_DEVCLASS_INFINIBAND  7c6b0e88     uuid:cguid_i.obj
 0002:00017e98       _GUID_DEVCLASS_IMAGE       7c6b0e98     uuid:cguid_i.obj
 0002:00017ea8       _GUID_DEVCLASS_HIDCLASS    7c6b0ea8     uuid:cguid_i.obj
 0002:00017eb8       _GUID_DEVCLASS_HDC         7c6b0eb8     uuid:cguid_i.obj
 0002:00017ec8       _GUID_DEVCLASS_GPS         7c6b0ec8     uuid:cguid_i.obj
 0002:00017ed8       _GUID_DEVCLASS_FLOPPYDISK  7c6b0ed8     uuid:cguid_i.obj
 0002:00017ee8       _GUID_DEVCLASS_FDC         7c6b0ee8     uuid:cguid_i.obj
 0002:00017ef8       _GUID_DEVCLASS_ENUM1394    7c6b0ef8     uuid:cguid_i.obj
 0002:00017f08       _GUID_DEVCLASS_DOT4PRINT   7c6b0f08     uuid:cguid_i.obj
 0002:00017f18       _GUID_DEVCLASS_DOT4        7c6b0f18     uuid:cguid_i.obj
 0002:00017f28       _GUID_DEVCLASS_DISPLAY     7c6b0f28     uuid:cguid_i.obj
 0002:00017f38       _GUID_DEVCLASS_DISKDRIVE   7c6b0f38     uuid:cguid_i.obj
 0002:00017f48       _GUID_DEVCLASS_DECODER     7c6b0f48     uuid:cguid_i.obj
 0002:00017f58       _GUID_DEVCLASS_COMPUTER    7c6b0f58     uuid:cguid_i.obj
 0002:00017f68       _GUID_DEVCLASS_CDROM       7c6b0f68     uuid:cguid_i.obj
 0002:00017f78       _GUID_DEVCLASS_BLUETOOTH   7c6b0f78     uuid:cguid_i.obj
 0002:00017f88       _GUID_DEVCLASS_BIOMETRIC   7c6b0f88     uuid:cguid_i.obj
 0002:00017f98       _GUID_DEVCLASS_BATTERY     7c6b0f98     uuid:cguid_i.obj
 0002:00017fa8       _GUID_DEVCLASS_AVC         7c6b0fa8     uuid:cguid_i.obj
 0002:00017fb8       _GUID_DEVCLASS_APMSUPPORT  7c6b0fb8     uuid:cguid_i.obj
 0002:00017fc8       _GUID_DEVCLASS_ADAPTER     7c6b0fc8     uuid:cguid_i.obj
 0002:00017fd8       _GUID_DEVCLASS_61883       7c6b0fd8     uuid:cguid_i.obj
 0002:00017fe8       _GUID_DEVCLASS_1394DEBUG   7c6b0fe8     uuid:cguid_i.obj
 0002:00017ff8       _GUID_DEVCLASS_1394        7c6b0ff8     uuid:cguid_i.obj
 0002:00018008       _CLSID_ThumbnailUpdater    7c6b1008     uuid:cguid_i.obj
 0002:00018018       _CLSID_ThumbnailFCNHandler 7c6b1018     uuid:cguid_i.obj
 0002:00018028       _CLSID_GblComponentCategoriesMgr 7c6b1028     uuid:cguid_i.obj
 0002:00018038       _IID_IBoundObjectSite      7c6b1038     uuid:cguid_i.obj
 0002:00018048       _IID_IBoundObject          7c6b1048     uuid:cguid_i.obj
 0002:00018058       __DBCIDGUID                7c6b1058     uuid:cguid_i.obj
 0002:00018068       __DBBMKGUID                7c6b1068     uuid:cguid_i.obj
 0002:00018078       __GUID_NAMEONLY            7c6b1078     uuid:cguid_i.obj
 0002:00018088       _IID_IEntryID              7c6b1088     uuid:cguid_i.obj
 0002:00018098       _IID_ICursorFind           7c6b1098     uuid:cguid_i.obj
 0002:000180a8       _IID_INotifyDBEvents       7c6b10a8     uuid:cguid_i.obj
 0002:000180b8       _IID_ICursorUpdateARow     7c6b10b8     uuid:cguid_i.obj
 0002:000180c8       _IID_ICursorScroll         7c6b10c8     uuid:cguid_i.obj
 0002:000180d8       _IID_ICursorMove           7c6b10d8     uuid:cguid_i.obj
 0002:000180e8       _IID_ICursor               7c6b10e8     uuid:cguid_i.obj
 0002:000180f8       _IID_StdOle                7c6b10f8     uuid:cguid_i.obj
 0002:00018108       _GUID_HANDLE               7c6b1108     uuid:cguid_i.obj
 0002:00018118       _GUID_FONTSTRIKETHROUGH    7c6b1118     uuid:cguid_i.obj
 0002:00018128       _GUID_FONTUNDERSCORE       7c6b1128     uuid:cguid_i.obj
 0002:00018138       _GUID_FONTITALIC           7c6b1138     uuid:cguid_i.obj
 0002:00018148       _GUID_FONTBOLD             7c6b1148     uuid:cguid_i.obj
 0002:00018158       _GUID_FONTSIZE             7c6b1158     uuid:cguid_i.obj
 0002:00018168       _GUID_FONTNAME             7c6b1168     uuid:cguid_i.obj
 0002:00018178       _GUID_CHECKVALUEEXCLUSIVE  7c6b1178     uuid:cguid_i.obj
 0002:00018188       _GUID_OPTIONVALUEEXCLUSIVE 7c6b1188     uuid:cguid_i.obj
 0002:00018198       _GUID_TRISTATE             7c6b1198     uuid:cguid_i.obj
 0002:000181a8       _GUID_YSIZE                7c6b11a8     uuid:cguid_i.obj
 0002:000181b8       _GUID_XSIZE                7c6b11b8     uuid:cguid_i.obj
 0002:000181c8       _GUID_YPOS                 7c6b11c8     uuid:cguid_i.obj
 0002:000181d8       _GUID_XPOS                 7c6b11d8     uuid:cguid_i.obj
 0002:000181e8       _GUID_YSIZEPIXEL           7c6b11e8     uuid:cguid_i.obj
 0002:000181f8       _GUID_XSIZEPIXEL           7c6b11f8     uuid:cguid_i.obj
 0002:00018208       _GUID_YPOSPIXEL            7c6b1208     uuid:cguid_i.obj
 0002:00018218       _GUID_XPOSPIXEL            7c6b1218     uuid:cguid_i.obj
 0002:00018228       _GUID_COLOR                7c6b1228     uuid:cguid_i.obj
 0002:00018238       _GUID_HIMETRIC             7c6b1238     uuid:cguid_i.obj
 0002:00018248       _CLSID_StdPicture          7c6b1248     uuid:cguid_i.obj
 0002:00018258       _CLSID_StdFont             7c6b1258     uuid:cguid_i.obj
 0002:00018268       _CLSID_ConvertVBX          7c6b1268     uuid:cguid_i.obj
 0002:00018278       _CLSID_PersistPropset      7c6b1278     uuid:cguid_i.obj
 0002:00018288       _CLSID_StockPicturePage    7c6b1288     uuid:cguid_i.obj
 0002:00018298       _CLSID_StockColorPage      7c6b1298     uuid:cguid_i.obj
 0002:000182a8       _CLSID_StockFontPage       7c6b12a8     uuid:cguid_i.obj
 0002:000182b8       _CLSID_CPicturePropPage    7c6b12b8     uuid:cguid_i.obj
 0002:000182c8       _CLSID_CColorPropPage      7c6b12c8     uuid:cguid_i.obj
 0002:000182d8       _CLSID_CFontPropPage       7c6b12d8     uuid:cguid_i.obj
 0002:000182e8       _IID_IPropertyFrame        7c6b12e8     uuid:cguid_i.obj
 0002:000182f8       _CLSID_AddrControl         7c6b12f8     uuid:cguid_i.obj
 0002:00018308       _CLSID_CurrentUserClasses  7c6b1308     uuid:cguid_i.obj
 0002:00018318       _CLSID_LocalMachineClasses 7c6b1318     uuid:cguid_i.obj
 0002:00018328       _CLSID_AllClasses          7c6b1328     uuid:cguid_i.obj
 0002:00018338       _IID_IRichEditOleCallback  7c6b1338     uuid:cguid_i.obj
 0002:00018348       _IID_IRichEditOle          7c6b1348     uuid:cguid_i.obj
 0002:00018358       _CLSID_RemoteUnknownPSFactory 7c6b1358     uuid:cguid_i.obj
 0002:00018368       _CLSID_InProcFreeMarshaler 7c6b1368     uuid:cguid_i.obj
 0002:00018378       _CLSID_StdAsyncActManager  7c6b1378     uuid:cguid_i.obj
 0002:00018388       _CLSID_ComBinding          7c6b1388     uuid:cguid_i.obj
 0002:00018398       _CLSID_SynchronizeContainer 7c6b1398     uuid:cguid_i.obj
 0002:000183a8       _CLSID_StdEvent            7c6b13a8     uuid:cguid_i.obj
 0002:000183b8       _CLSID_ManualResetEvent    7c6b13b8     uuid:cguid_i.obj
 0002:000183c8       _CLSID_StdGlobalInterfaceTable 7c6b13c8     uuid:cguid_i.obj
 0002:000183d8       _CLSID_DCOMAccessControl   7c6b13d8     uuid:cguid_i.obj
 0002:000183e8       _CLSID_Picture_Dib         7c6b13e8     uuid:cguid_i.obj
 0002:000183f8       _CLSID_Picture_EnhMetafile 7c6b13f8     uuid:cguid_i.obj
 0002:00018408       _CLSID_Picture_Metafile    7c6b1408     uuid:cguid_i.obj
 0002:00018418       _CLSID_StaticDib           7c6b1418     uuid:cguid_i.obj
 0002:00018428       _CLSID_StaticMetafile      7c6b1428     uuid:cguid_i.obj
 0002:00018438       _CLSID_PSEnumerators       7c6b1438     uuid:cguid_i.obj
 0002:00018448       _CLSID_PSBindCtx           7c6b1448     uuid:cguid_i.obj
 0002:00018458       _CLSID_PSDragDrop          7c6b1458     uuid:cguid_i.obj
 0002:00018468       _CLSID_PSInPlaceFrame      7c6b1468     uuid:cguid_i.obj
 0002:00018478       _CLSID_PSInPlaceActive     7c6b1478     uuid:cguid_i.obj
 0002:00018488       _CLSID_PSClassObject       7c6b1488     uuid:cguid_i.obj
 0002:00018498       _CLSID_PSClientSite        7c6b1498     uuid:cguid_i.obj
 0002:000184a8       _CLSID_PSGenObject         7c6b14a8     uuid:cguid_i.obj
 0002:000184b8       _IID_IDebugStream          7c6b14b8     uuid:cguid_i.obj
 0002:000184c8       _IID_IDebug                7c6b14c8     uuid:cguid_i.obj
 0002:000184d8       _IID_IOlePresObj           7c6b14d8     uuid:cguid_i.obj
 0002:000184e8       _IID_IOleManager           7c6b14e8     uuid:cguid_i.obj
 0002:000184f8       _IID_IEnumCallback         7c6b14f8     uuid:cguid_i.obj
 0002:00018508       _IID_IEnumHolder           7c6b1508     uuid:cguid_i.obj
 0002:00018518       _IID_IEnumGeneric          7c6b1518     uuid:cguid_i.obj
 0002:00018528       _IID_IProxy                7c6b1528     uuid:cguid_i.obj
 0002:00018538       _IID_IStub                 7c6b1538     uuid:cguid_i.obj
 0002:00018548       _CLSID_StdMarshal          7c6b1548     uuid:cguid_i.obj
 0002:00018558       _IID_IDfReserved3          7c6b1558     uuid:cguid_i.obj
 0002:00018568       _IID_IDfReserved2          7c6b1568     uuid:cguid_i.obj
 0002:00018578       _IID_IDfReserved1          7c6b1578     uuid:cguid_i.obj
 0002:00018588       _IID_IInternalMoniker      7c6b1588     uuid:cguid_i.obj
 0002:00018598       _IID_IPSFactory            7c6b1598     uuid:cguid_i.obj
 0002:000185a8       _IID_IProxyManager         7c6b15a8     uuid:cguid_i.obj
 0002:000185b8       _IID_IRpcProxy             7c6b15b8     uuid:cguid_i.obj
 0002:000185c8       _IID_IStubManager          7c6b15c8     uuid:cguid_i.obj
 0002:000185d8       _IID_IRpcStub              7c6b15d8     uuid:cguid_i.obj
 0002:000185e8       _IID_IRpcChannel           7c6b15e8     uuid:cguid_i.obj
 0002:000185f8       _CATID_MARSHALER           7c6b15f8     uuid:cguid_i.obj
 0002:00018608       _GUID_NULL                 7c6b1608     uuid:cguid_i.obj
 0002:00018618       _SID_SVersionHost          7c6b1618     uuid:ieguids.obj
 0002:00018628       _CGID_InternetExplorer     7c6b1628     uuid:ieguids.obj
 0002:00018638       _CGID_DownloadHost         7c6b1638     uuid:ieguids.obj
 0002:00018648       _CLSID_SubscriptionThrottler 7c6b1648     uuid:ieguids.obj
 0002:00018658       _CLSID_HTMLLoadOptions     7c6b1658     uuid:ieguids.obj
 0002:00018668       _CLSID_PersistentZoneIdentifier 7c6b1668     uuid:ieguids.obj
 0002:00018678       _GUID_CUSTOM_LOCALMACHINEZONEUNLOCKED 7c6b1678     uuid:ieguids.obj
 0002:00018688       _CLSID_InternetZoneManager 7c6b1688     uuid:ieguids.obj
 0002:00018698       _CLSID_InternetSecurityManager 7c6b1698     uuid:ieguids.obj
 0002:000186a8       _CLSID_IActiveXSafetyProvider 7c6b16a8     uuid:ieguids.obj
 0002:000186b8       _CLSID_SoftDistExt         7c6b16b8     uuid:ieguids.obj
 0002:000186c8       _NAMEDTIMER_DRAW           7c6b16c8     uuid:ieguids.obj
 0002:000186d8       _IID_IIntDitherer          7c6b16d8     uuid:ieguids.obj
 0002:000186e8       _CLSID_IntDitherer         7c6b16e8     uuid:ieguids.obj
 0002:000186f8       _BFID_GRAY_16              7c6b16f8     uuid:ieguids.obj
 0002:00018708       _BFID_GRAY_8               7c6b1708     uuid:ieguids.obj
 0002:00018718       _BFID_RGBA_32              7c6b1718     uuid:ieguids.obj
 0002:00018728       _BFID_RGB_32               7c6b1728     uuid:ieguids.obj
 0002:00018738       _BFID_RGB_24               7c6b1738     uuid:ieguids.obj
 0002:00018748       _BFID_RGB_565              7c6b1748     uuid:ieguids.obj
 0002:00018758       _BFID_RGB_555              7c6b1758     uuid:ieguids.obj
 0002:00018768       _BFID_RGB_8                7c6b1768     uuid:ieguids.obj
 0002:00018778       _BFID_RGB_4                7c6b1778     uuid:ieguids.obj
 0002:00018788       _BFID_MONOCHROME           7c6b1788     uuid:ieguids.obj
 0002:00018798       _SID_SHTMLEditServices     7c6b1798     uuid:ieguids.obj
 0002:000187a8       _CGID_DocHostCommandHandler 7c6b17a8     uuid:ieguids.obj
 0002:000187b8       _CLSID_HTMLPluginDocument  7c6b17b8     uuid:ieguids.obj
 0002:000187c8       _CLSID_HTMLApplication     7c6b17c8     uuid:ieguids.obj
 0002:000187d8       _CLSID_HTADocument         7c6b17d8     uuid:ieguids.obj
 0002:000187e8       _CLSID_MHTMLDocument       7c6b17e8     uuid:ieguids.obj
 0002:000187f8       _CGID_MSHTML               7c6b17f8     uuid:ieguids.obj
 0002:00018808       _CLSID_IImageDecodeFilter  7c6b1808     uuid:ieguids.obj
 0002:00018818       _IID_IImgCtx               7c6b1818     uuid:ieguids.obj
 0002:00018828       _CLSID_IImgCtx             7c6b1828     uuid:ieguids.obj
 0002:00018838       _CATID_DesignTimeUIActivatableControl 7c6b1838     uuid:ieguids.obj
 0002:00018848       _CATID_SafeForInitializing 7c6b1848     uuid:ieguids.obj
 0002:00018858       _CATID_SafeForScripting    7c6b1858     uuid:ieguids.obj
 0002:00018868       _CATID_InternetAware       7c6b1868     uuid:ieguids.obj
 0002:00018878       _CATID_PersistsToPropertyBag 7c6b1878     uuid:ieguids.obj
 0002:00018888       _CATID_PersistsToFile      7c6b1888     uuid:ieguids.obj
 0002:00018898       _CATID_PersistsToMemory    7c6b1898     uuid:ieguids.obj
 0002:000188a8       _CATID_PersistsToStream    7c6b18a8     uuid:ieguids.obj
 0002:000188b8       _CATID_PersistsToStreamInit 7c6b18b8     uuid:ieguids.obj
 0002:000188c8       _CATID_PersistsToStorage   7c6b18c8     uuid:ieguids.obj
 0002:000188d8       _CATID_PersistsToMoniker   7c6b18d8     uuid:ieguids.obj
 0002:000188e8       _CATID_RequiresDataPathHost 7c6b18e8     uuid:ieguids.obj
 0002:000188f8       _CATID_Printable           7c6b18f8     uuid:ieguids.obj
 0002:00018908       _CATID_DocObject           7c6b1908     uuid:ieguids.obj
 0002:00018918       _CATID_NeverShowExt        7c6b1918     uuid:ieguids.obj
 0002:00018928       _CATID_IsShortcut          7c6b1928     uuid:ieguids.obj
 0002:00018938       _CATID_Programmable        7c6b1938     uuid:ieguids.obj
 0002:00018948       _CATID_Control             7c6b1948     uuid:ieguids.obj
 0002:00018958       _CATID_Insertable          7c6b1958     uuid:ieguids.obj
 0002:00018968       _CLSID_StdComponentCategoriesMgr 7c6b1968     uuid:ieguids.obj
 0002:00018978       _ARRAYID_PathProperties    7c6b1978     uuid:ieguids.obj
 0002:00018988       _FLAGID_Internet           7c6b1988     uuid:ieguids.obj
 0002:00018998       _OLE_DATAPATH_PENDATA      7c6b1998     uuid:ieguids.obj
 0002:000189a8       _OLE_DATAPATH_PALETTE      7c6b19a8     uuid:ieguids.obj
 0002:000189b8       _OLE_DATAPATH_BIFF         7c6b19b8     uuid:ieguids.obj
 0002:000189c8       _OLE_DATAPATH_SYLK         7c6b19c8     uuid:ieguids.obj
 0002:000189d8       _OLE_DATAPATH_DIF          7c6b19d8     uuid:ieguids.obj
 0002:000189e8       _OLE_DATAPATH_ALLTEXT      7c6b19e8     uuid:ieguids.obj
 0002:000189f8       _OLE_DATAPATH_POSTSCRIPT   7c6b19f8     uuid:ieguids.obj
 0002:00018a08       _OLE_DATAPATH_HTML         7c6b1a08     uuid:ieguids.obj
 0002:00018a18       _OLE_DATAPATH_RTF          7c6b1a18     uuid:ieguids.obj
 0002:00018a28       _OLE_DATAPATH_UNICODE      7c6b1a28     uuid:ieguids.obj
 0002:00018a38       _OLE_DATAPATH_ANSITEXT     7c6b1a38     uuid:ieguids.obj
 0002:00018a48       _OLE_DATAPATH_ALLMM        7c6b1a48     uuid:ieguids.obj
 0002:00018a58       _OLE_DATAPATH_VIDEO        7c6b1a58     uuid:ieguids.obj
 0002:00018a68       _OLE_DATAPATH_SOUND        7c6b1a68     uuid:ieguids.obj
 0002:00018a78       _OLE_DATAPATH_RIFF         7c6b1a78     uuid:ieguids.obj
 0002:00018a88       _OLE_DATAPATH_WAV          7c6b1a88     uuid:ieguids.obj
 0002:00018a98       _OLE_DATAPATH_MIDI         7c6b1a98     uuid:ieguids.obj
 0002:00018aa8       _OLE_DATAPATH_BASICAUDIO   7c6b1aa8     uuid:ieguids.obj
 0002:00018ab8       _OLE_DATAPATH_QUICKTIME    7c6b1ab8     uuid:ieguids.obj
 0002:00018ac8       _OLE_DATAPATH_MPEG         7c6b1ac8     uuid:ieguids.obj
 0002:00018ad8       _OLE_DATAPATH_AVI          7c6b1ad8     uuid:ieguids.obj
 0002:00018ae8       _OLE_DATAPATH_ALLIMAGE     7c6b1ae8     uuid:ieguids.obj
 0002:00018af8       _OLE_DATAPATH_COMMONIMAGE  7c6b1af8     uuid:ieguids.obj
 0002:00018b08       _OLE_DATAPATH_EPS          7c6b1b08     uuid:ieguids.obj
 0002:00018b18       _OLE_DATAPATH_CGM          7c6b1b18     uuid:ieguids.obj
 0002:00018b28       _OLE_DATAPATH_PICT         7c6b1b28     uuid:ieguids.obj
 0002:00018b38       _OLE_DATAPATH_PCX          7c6b1b38     uuid:ieguids.obj
 0002:00018b48       _OLE_DATAPATH_XBM          7c6b1b48     uuid:ieguids.obj
 0002:00018b58       _OLE_DATAPATH_TIFF         7c6b1b58     uuid:ieguids.obj
 0002:00018b68       _OLE_DATAPATH_JPEG         7c6b1b68     uuid:ieguids.obj
 0002:00018b78       _OLE_DATAPATH_GIF          7c6b1b78     uuid:ieguids.obj
 0002:00018b88       _OLE_DATAPATH_ENHMF        7c6b1b88     uuid:ieguids.obj
 0002:00018b98       _OLE_DATAPATH_WMF          7c6b1b98     uuid:ieguids.obj
 0002:00018ba8       _OLE_DATAPATH_DIB          7c6b1ba8     uuid:ieguids.obj
 0002:00018bb8       _OLE_DATAPATH_BMP          7c6b1bb8     uuid:ieguids.obj
 0002:00018bc8       _CLSID_StdHlinkBrowseContext 7c6b1bc8     uuid:ieguids.obj
 0002:00018bd8       _CLSID_StdHlink            7c6b1bd8     uuid:ieguids.obj
 0002:00018be8       _GUID_HasPathProperties    7c6b1be8     uuid:ieguids.obj
 0002:00018bf8       _GUID_PathProperty         7c6b1bf8     uuid:ieguids.obj
 0002:00018c08       _SID_SDataPathBrowser      7c6b1c08     uuid:ieguids.obj
 0002:00018c18       _SID_SContainerDispatch    7c6b1c18     uuid:ieguids.obj
 0002:00018c28       _IID_IAccessible           7c6b1c28     uuid:ieguids.obj
 0002:00018c38       _LIBID_Accessibility       7c6b1c38     uuid:ieguids.obj
 0002:00018c48       _CLSID_ClassInstallFilter  7c6b1c48     uuid:ieguids.obj
 0002:00018c58       _CLSID_CdlProtocol         7c6b1c58     uuid:ieguids.obj
 0002:00018c68       _CLSID_DeCompMimeFilter    7c6b1c68     uuid:ieguids.obj
 0002:00018c78       _CLSID_StdEncodingFilterFac 7c6b1c78     uuid:ieguids.obj
 0002:00018c88       _CLSID_NotificaitonTest4   7c6b1c88     uuid:ieguids.obj
 0002:00018c98       _CLSID_NotificaitonTest3   7c6b1c98     uuid:ieguids.obj
 0002:00018ca8       _CLSID_NotificaitonTest2   7c6b1ca8     uuid:ieguids.obj
 0002:00018cb8       _CLSID_NotificaitonTest1   7c6b1cb8     uuid:ieguids.obj
 0002:00018cc8       _NOTIFICATIONTYPE_START_F  7c6b1cc8     uuid:ieguids.obj
 0002:00018cd8       _NOTIFICATIONTYPE_START_E  7c6b1cd8     uuid:ieguids.obj
 0002:00018ce8       _NOTIFICATIONTYPE_START_D  7c6b1ce8     uuid:ieguids.obj
 0002:00018cf8       _NOTIFICATIONTYPE_START_C  7c6b1cf8     uuid:ieguids.obj
 0002:00018d08       _NOTIFICATIONTYPE_START_B  7c6b1d08     uuid:ieguids.obj
 0002:00018d18       _NOTIFICATIONTYPE_START_A  7c6b1d18     uuid:ieguids.obj
 0002:00018d28       _NOTIFICATIONTYPE_START_9  7c6b1d28     uuid:ieguids.obj
 0002:00018d38       _NOTIFICATIONTYPE_START_8  7c6b1d38     uuid:ieguids.obj
 0002:00018d48       _NOTIFICATIONTYPE_START_7  7c6b1d48     uuid:ieguids.obj
 0002:00018d58       _NOTIFICATIONTYPE_START_6  7c6b1d58     uuid:ieguids.obj
 0002:00018d68       _NOTIFICATIONTYPE_START_5  7c6b1d68     uuid:ieguids.obj
 0002:00018d78       _NOTIFICATIONTYPE_START_4  7c6b1d78     uuid:ieguids.obj
 0002:00018d88       _NOTIFICATIONTYPE_START_3  7c6b1d88     uuid:ieguids.obj
 0002:00018d98       _NOTIFICATIONTYPE_START_2  7c6b1d98     uuid:ieguids.obj
 0002:00018da8       _NOTIFICATIONTYPE_START_1  7c6b1da8     uuid:ieguids.obj
 0002:00018db8       _NOTIFICATIONTYPE_START_0  7c6b1db8     uuid:ieguids.obj
 0002:00018dc8       _NOTIFICATIONTYPE_15       7c6b1dc8     uuid:ieguids.obj
 0002:00018dd8       _NOTIFICATIONTYPE_14       7c6b1dd8     uuid:ieguids.obj
 0002:00018de8       _NOTIFICATIONTYPE_13       7c6b1de8     uuid:ieguids.obj
 0002:00018df8       _NOTIFICATIONTYPE_12       7c6b1df8     uuid:ieguids.obj
 0002:00018e08       _NOTIFICATIONTYPE_11       7c6b1e08     uuid:ieguids.obj
 0002:00018e18       _NOTIFICATIONTYPE_f        7c6b1e18     uuid:ieguids.obj
 0002:00018e28       _NOTIFICATIONTYPE_e        7c6b1e28     uuid:ieguids.obj
 0002:00018e38       _NOTIFICATIONTYPE_d        7c6b1e38     uuid:ieguids.obj
 0002:00018e48       _NOTIFICATIONTYPE_TASKS_ERROR 7c6b1e48     uuid:ieguids.obj
 0002:00018e58       _NOTIFICATIONTYPE_TASKS_STARTED 7c6b1e58     uuid:ieguids.obj
 0002:00018e68       _NOTIFICATIONTYPE_USER_IDLE_END 7c6b1e68     uuid:ieguids.obj
 0002:00018e78       _NOTIFICATIONTYPE_USER_IDLE_BEGIN 7c6b1e78     uuid:ieguids.obj
 0002:00018e88       _NOTIFICATIONTYPE_PROGRESS_REPORT 7c6b1e88     uuid:ieguids.obj
 0002:00018e98       _NOTIFICATIONTYPE_CONFIG_CHANGED 7c6b1e98     uuid:ieguids.obj
 0002:00018ea8       _NOTIFICATIONTYPE_DISCONNECT_FROM_INTERNET 7c6b1ea8     uuid:ieguids.obj
 0002:00018eb8       _NOTIFICATIONTYPE_CONNECT_TO_INTERNET 7c6b1eb8     uuid:ieguids.obj
 0002:00018ec8       _NOTIFICATIONTYPE_AGENT_INIT 7c6b1ec8     uuid:ieguids.obj
 0002:00018ed8       _NOTIFICATIONTYPE_END_REPORT 7c6b1ed8     uuid:ieguids.obj
 0002:00018ee8       _NOTIFICATIONTYPE_BEGIN_REPORT 7c6b1ee8     uuid:ieguids.obj
 0002:00018ef8       _NOTIFICATIONTYPE_AGENT_START 7c6b1ef8     uuid:ieguids.obj
 0002:00018f08       _NOTIFICATIONTYPE_TASKS_PROGRESS 7c6b1f08     uuid:ieguids.obj
 0002:00018f18       _NOTIFICATIONTYPE_TASKS_COMPLETED 7c6b1f18     uuid:ieguids.obj
 0002:00018f28       _NOTIFICATIONTYPE_TASKS_ABORT 7c6b1f28     uuid:ieguids.obj
 0002:00018f38       _NOTIFICATIONTYPE_TASKS_RESUME 7c6b1f38     uuid:ieguids.obj
 0002:00018f48       _NOTIFICATIONTYPE_TASKS_SUSPEND 7c6b1f48     uuid:ieguids.obj
 0002:00018f58       _NOTIFICATIONTYPE_INET_ONLINE 7c6b1f58     uuid:ieguids.obj
 0002:00018f68       _NOTIFICATIONTYPE_INET_OFFLINE 7c6b1f68     uuid:ieguids.obj
 0002:00018f78       _NOTIFICATIONTYPE_INET_IDLE 7c6b1f78     uuid:ieguids.obj
 0002:00018f88       _NOTIFICATIONTYPE_ALERT    7c6b1f88     uuid:ieguids.obj
 0002:00018f98       _NOTIFICATIONTYPE_TASK     7c6b1f98     uuid:ieguids.obj
 0002:00018fa8       _NOTIFICATIONTYPE_ANOUNCMENT 7c6b1fa8     uuid:ieguids.obj
 0002:00018fb8       _NOTIFICATIONTYPE_NULL     7c6b1fb8     uuid:ieguids.obj
 0002:00018fc8       _NOTFCOOKIE_SCHEDULE_GROUP_MANUAL 7c6b1fc8     uuid:ieguids.obj
 0002:00018fd8       _NOTFCOOKIE_SCHEDULE_GROUP_MONTHLY 7c6b1fd8     uuid:ieguids.obj
 0002:00018fe8       _NOTFCOOKIE_SCHEDULE_GROUP_WEEKLY 7c6b1fe8     uuid:ieguids.obj
 0002:00018ff8       _NOTFCOOKIE_SCHEDULE_GROUP_DAILY 7c6b1ff8     uuid:ieguids.obj
 0002:00019008       _NOTIFICATIONTYPE_iF       7c6b2008     uuid:ieguids.obj
 0002:00019018       _NOTIFICATIONTYPE_iE       7c6b2018     uuid:ieguids.obj
 0002:00019028       _NOTIFICATIONTYPE_iD       7c6b2028     uuid:ieguids.obj
 0002:00019038       _NOTIFICATIONTYPE_iC       7c6b2038     uuid:ieguids.obj
 0002:00019048       _NOTIFICATIONTYPE_iB       7c6b2048     uuid:ieguids.obj
 0002:00019058       _NOTIFICATIONTYPE_iA       7c6b2058     uuid:ieguids.obj
 0002:00019068       _NOTIFICATIONTYPE_i9       7c6b2068     uuid:ieguids.obj
 0002:00019078       _NOTIFICATIONTYPE_i8       7c6b2078     uuid:ieguids.obj
 0002:00019088       _NOTIFICATIONTYPE_i7       7c6b2088     uuid:ieguids.obj
 0002:00019098       _NOTIFICATIONTYPE_i6       7c6b2098     uuid:ieguids.obj
 0002:000190a8       _NOTIFICATIONTYPE_GROUP_DONE 7c6b20a8     uuid:ieguids.obj
 0002:000190b8       _NOTIFICATIONTYPE_GROUP_RESTART 7c6b20b8     uuid:ieguids.obj
 0002:000190c8       _NOTIFICATIONTYPE_GROUP_START 7c6b20c8     uuid:ieguids.obj
