Microsoft (R) Macro Assembler Version 7.10.4035		    07/24/22 20:38:35
"SPACE NT process bootstrap executable"			     Page 1 - 1


				;;
				;; Copyright (c) Microsoft Corporation. All rights reserved. 
				;; 
				;; You may only use this code if you agree to the terms of the ProjectOZ License agreement (see License.txt).
				;; If you do not agree to the terms, do not use the code.
				;;

				TITLE   "SPACE NT process bootstrap executable"

				include ..\INC\TrapValues.inc
			      C ;;
			      C ;; Copyright (c) Microsoft Corporation. All rights reserved. 
			      C ;; 
			      C ;; You may only use this code if you agree to the terms of the ProjectOZ License agreement (see License.txt).
			      C ;; If you do not agree to the terms, do not use the code.
			      C ;;
			      C 
			      C ; NOTE: Definitions must match SPACE\TrapValues.h
			      C ; NOTE: TRAPEMUL_* must match Bootstrap.asm
			      C 
			      C ;
			      C ; trap types
			      C ;
			      C 
			      C ; emulated SPACE hardware instructions, like resume
			      C ;
 = 00000000		      C      TRAPEMUL_Noop            equ  0
 = 00000001		      C      TRAPEMUL_MapMemory       equ  1
 = 00000002		      C      TRAPEMUL_MapIO           equ  2
 = 00000003		      C      TRAPEMUL_MapTrap         equ  3
 = 00000004		      C      TRAPEMUL_CreatePortal    equ  4
 = 00000005		      C      TRAPEMUL_DestroyPortal   equ  5
 = 00000006		      C      TRAPEMUL_CleanCtx        equ  6
 = 00000007		      C      TRAPEMUL_Resume          equ  7
 = 00000008		      C      TRAPEMUL_Suspend         equ  8
 = 00000009		      C      TRAPEMUL_Unsuspend       equ  9
 = 0000000A		      C      TRAPEMUL_PopCaller       equ 10
 = 0000000B		      C      TRAPEMUL_DiscardToken    equ 11
 = 0000000C		      C      TRAPEMUL_StartCPU        equ 12
 = 0000000D		      C      TRAPEMUL_InterruptCPU    equ 13
 = 0000000E		      C      TRAPEMUL_AccessDevice    equ 14
 = 0000000F		      C      TRAPEMUL_ManageIRQL      equ 15
 = 00000010		      C      TRAPEMUL_HaltCPU         equ 16
 = 00000011		      C      TRAPEMUL_GetSPACEParams  equ 17
 = 00000012		      C      TRAPEMUL_SPACEBreak      equ 18
			      C 
			      C ; implement service call
 = 00000100		      C      TRAPSERV_MAXCALLS        equ 256
			      C 
			      C 

				.686
				.model flat,c

				defemulcall macro icall
				        DWORD           emul_&icall&
				endm

				defservcall macro icall
				        DWORD           OZ_&icall&
				endm

				;
				; assumes a stack is setup
				; services not using a stack have to be invoked more directly
				;
				SPACECall macro  emulcall,icall,N,indirflag,vectoroutflag
				    if emulcall gt 0
				        emul_&icall& LABEL PROC
				    else
				        OZ_&icall&   LABEL PROC
				    endif

				    ; get argument pointer
				    if indirflag gt 0
				        mov  eax,  4[esp]
				    else
				        lea  eax,  4[esp]
				    endif

				        ; save registers -- just in case
				        push ebx
				        push edi
				        push esi

				        ; pass 0-5 parameters via the registers
				    if N gt 0
				            mov  ebx,   [eax]
				     if N gt 1
				            mov  ecx,  4[eax]
				      if N gt 2
				            mov  edx,  8[eax]
				       if N gt 3
				            mov  edi, 12[eax]
				        if N gt 4
				            mov  esi, 16[eax]
				         if N gt 5
				            .ERR too many parameters for emulation call
				         endif
				        endif
				       endif
				      endif
				     endif
				    endif

				    if emulcall gt 0
				        ; emulation call
				        BYTE            0f0h, 0fh, 0bh      ;; lock ud2 - is the illegal instruction for emulation calls
				        BYTE            TRAPEMUL_&icall     ;; call index
				    else
				        BYTE            0fh, 0bh            ;; ud2 - is the illegal instruction for service calls
				        WORD            icall               ;; call index
				    endif

				    if vectoroutflag gt 0
				        ; return parameters
				        mov  eax,   16[esp]                 ; 4 + the C we pushed
				        mov    [eax],  ebx
				        mov   4[eax],  ecx
				        mov   8[eax],  edx
				        mov  12[eax],  edi
				        mov  16[eax],  esi
				        xor  eax,      eax
				    endif

				        ; restore registers
				        pop  esi
				        pop  edi
				        pop  ebx

				        ; return (return values are in eax/edx -- except if vectoroutflag)
				        ret
				endm


				;
				; initial trap to SPACE for NT threads
				; implementing CPUs in domains
				;
 00000000			.code
Microsoft (R) Macro Assembler Version 7.10.4035		    07/24/22 20:38:35
"SPACE NT process bootstrap executable"			     Page 2 - 1


				        PAGE
				        SUBTTL "SPACE 'CPU' bootstrap code"
				        EXTERNDEF  C bootspacecpu:PROC

				; pointers stored Hat known absolute address so we don't have to link
				; Linked at:  71001000
 00000000  0000000C R		        DWORD   emulationvector
 00000004  00001F0B R		        DWORD   servicevector
 00000008  00000058 R		        DWORD   libraryvector

				; must match TrapTypes.h
 0000000C			emulationvector:
 0000000C			        defemulcall  Noop           ;  0
 0000000C  00000062 R	     1	        DWORD           emul_Noop
				        defemulcall  MapMemory      ;  1
 00000010  00000071 R	     1	        DWORD           emul_MapMemory
				        defemulcall  MapIO          ;  2
 00000014  0000008E R	     1	        DWORD           emul_MapIO
				        defemulcall  MapTrap        ;  3
 00000018  000000A5 R	     1	        DWORD           emul_MapTrap
				        defemulcall  CreatePortal   ;  4
 0000001C  000000C2 R	     1	        DWORD           emul_CreatePortal
				        defemulcall  DestroyPortal  ;  5
 00000020  000000DC R	     1	        DWORD           emul_DestroyPortal
				        defemulcall  CleanCtx       ;  6
 00000024  000000ED R	     1	        DWORD           emul_CleanCtx
				        defemulcall  Resume         ;  7
 00000028  0000005E R	     1	        DWORD           emul_Resume
				        defemulcall  Suspend        ;  8
 0000002C  000000FE R	     1	        DWORD           emul_Suspend
				        defemulcall  Unsuspend      ;  9
 00000030  0000010D R	     1	        DWORD           emul_Unsuspend
				        defemulcall  PopCaller      ; 10
 00000034  00000121 R	     1	        DWORD           emul_PopCaller
				        defemulcall  DiscardToken   ; 11
 00000038  00000130 R	     1	        DWORD           emul_DiscardToken
				        defemulcall  StartCPU       ; 12
 0000003C  00000144 R	     1	        DWORD           emul_StartCPU
				        defemulcall  InterruptCPU   ; 13
 00000040  00000161 R	     1	        DWORD           emul_InterruptCPU
				        defemulcall  AccessDevice   ; 14
 00000044  00000172 R	     1	        DWORD           emul_AccessDevice
				        defemulcall  ManageIrql     ; 15
 00000048  00000189 R	     1	        DWORD           emul_ManageIrql
				        defemulcall  HaltCPU        ; 16
 0000004C  0000019A R	     1	        DWORD           emul_HaltCPU
				        defemulcall  GetSPACEParams ; 17
 00000050  000001A9 R	     1	        DWORD           emul_GetSPACEParams
				        defemulcall  SPACEBreak     ; 18
 00000054  000001DA R	     1	        DWORD           emul_SPACEBreak

				; must match SystemLib.h
				        extern  StudyImage:PROC     ;   SPACEStatus StudyImage(void *imagebase, ulong imagesize, Section imagesections[], int *nimagesections)
 00000058			libraryvector:
 00000058  00000000 E		        DWORD   StudyImage          ;  0

				;
				; bootstrap call -- immediately invokes Resume instruction, passing the NT stack pointer as result
				;
 0000005C 0000005C		bootspacecpu:
 0000005C  33 DB		        xor             ebx, ebx            ; set result to 0
				        ; fall through to Resume

				;
				; Resume
				; Handling is special, because we don't return, and our stack is already deleted 
; ebx already contains the result value
				;
 0000005E			emul_Resume:
 0000005E  F0 0F 0B		        BYTE 0f0h, 0fh, 0bh                 ; lock ud2 - is the illegal instruction for emulation calls
 00000061  07			        BYTE TRAPEMUL_Resume                ; Resume()
				        ;; not reached

				;
				; emit emulation calls - calling conventions must agree with definitions in SPACEOps.h, SPACEOps.c, and Bootstrap.asm
				; third  parameter is 0 if a scalar call, 1 if a vector call, 2 if vector in/out call
				;
				;SPACECall: emulcall, icall,    N,indirflag,vectoroutflag   ; description
				    SPACECall	1, Noop,			0, 0, 0 ; void  Noop()
 00000062		     1	        emul_Noop LABEL PROC
 00000062  8D 44 24 04	     1	        lea  eax,  4[esp]
 00000066  53		     1	        push ebx
 00000067  57		     1	        push edi
 00000068  56		     1	        push esi
 00000069  F0 0F 0B	     1	        BYTE            0f0h, 0fh, 0bh      
 0000006C  00		     1	        BYTE            TRAPEMUL_Noop     
 0000006D  5E		     1	        pop  esi
 0000006E  5F		     1	        pop  edi
 0000006F  5B		     1	        pop  ebx
 00000070  C3		     1	        ret
				    SPACECall	1, MapMemory,		5, 1, 0 ; void  MapMemory(ulong ctx, ulong vpage, ulong ppage, ulong readmask, ulong writemask)
 00000071		     1	        emul_MapMemory LABEL PROC
 00000071  8B 44 24 04	     1	        mov  eax,  4[esp]
 00000075  53		     1	        push ebx
 00000076  57		     1	        push edi
 00000077  56		     1	        push esi
 00000078  8B 18	     1	            mov  ebx,   [eax]
 0000007A  8B 48 04	     1	            mov  ecx,  4[eax]
 0000007D  8B 50 08	     1	            mov  edx,  8[eax]
 00000080  8B 78 0C	     1	            mov  edi, 12[eax]
 00000083  8B 70 10	     1	            mov  esi, 16[eax]
 00000086  F0 0F 0B	     1	        BYTE            0f0h, 0fh, 0bh      
 00000089  01		     1	        BYTE            TRAPEMUL_MapMemory     
 0000008A  5E		     1	        pop  esi
 0000008B  5F		     1	        pop  edi
 0000008C  5B		     1	        pop  ebx
 0000008D  C3		     1	        ret
				    SPACECall	1, MapIO,			3, 1, 0 ; void  MapIO(ushort deviceid, uchar npages, uchar writable, ulong lbasepage, ulong ppage[])
 0000008E		     1	        emul_MapIO LABEL PROC
 0000008E  8B 44 24 04	     1	        mov  eax,  4[esp]
 00000092  53		     1	        push ebx
 00000093  57		     1	        push edi
 00000094  56		     1	        push esi
 00000095  8B 18	     1	            mov  ebx,   [eax]
 00000097  8B 48 04	     1	            mov  ecx,  4[eax]
 0000009A  8B 50 08	     1	            mov  edx,  8[eax]
 0000009D  F0 0F 0B	     1	        BYTE            0f0h, 0fh, 0bh      
 000000A0  02		     1	        BYTE            TRAPEMUL_MapIO     
 000000A1  5E		     1	        pop  esi
 000000A2  5F		     1	        pop  edi
 000000A3  5B		     1	        pop  ebx
 000000A4  C3		     1	        ret
				    SPACECall	1, MapTrap,		    5, 1, 0 ; void  MapTrap(ulong ctx, uchar traptype, uchar global, 
 000000A5		     1	        emul_MapTrap LABEL PROC
 000000A5  8B 44 24 04	     1	        mov  eax,  4[esp]
 000000A9  53		     1	        push ebx
 000000AA  57		     1	        push edi
 000000AB  56		     1	        push esi
 000000AC  8B 18	     1	            mov  ebx,   [eax]
 000000AE  8B 48 04	     1	            mov  ecx,  4[eax]
 000000B1  8B 50 08	     1	            mov  edx,  8[eax]
 000000B4  8B 78 0C	     1	            mov  edi, 12[eax]
 000000B7  8B 70 10	     1	            mov  esi, 16[eax]
 000000BA  F0 0F 0B	     1	        BYTE            0f0h, 0fh, 0bh      
 000000BD  03		     1	        BYTE            TRAPEMUL_MapTrap     
 000000BE  5E		     1	        pop  esi
 000000BF  5F		     1	        pop  edi
 000000C0  5B		     1	        pop  ebx
 000000C1  C3		     1	        ret
				                                            ;                     ulong indexbase, ulong indexlimit, ulong portalid)
				    SPACECall	1, CreatePortal,    4, 1, 0 ; ulong portalid = CreatePortal(uchar type, uchar suspendflag, uchar mode, uchar irql,
 000000C2		     1	        emul_CreatePortal LABEL PROC
 000000C2  8B 44 24 04	     1	        mov  eax,  4[esp]
 000000C6  53		     1	        push ebx
 000000C7  57		     1	        push edi
 000000C8  56		     1	        push esi
 000000C9  8B 18	     1	            mov  ebx,   [eax]
 000000CB  8B 48 04	     1	            mov  ecx,  4[eax]
 000000CE  8B 50 08	     1	            mov  edx,  8[eax]
 000000D1  8B 78 0C	     1	            mov  edi, 12[eax]
 000000D4  F0 0F 0B	     1	        BYTE            0f0h, 0fh, 0bh      
 000000D7  04		     1	        BYTE            TRAPEMUL_CreatePortal     
 000000D8  5E		     1	        pop  esi
 000000D9  5F		     1	        pop  edi
 000000DA  5B		     1	        pop  ebx
 000000DB  C3		     1	        ret
				                                            ;                               ulong ctx, ulong handler, ulong protmask)
				    SPACECall	1, DestroyPortal,	1, 0, 0 ; void  DestroyPortal(ulong portalid)
 000000DC		     1	        emul_DestroyPortal LABEL PROC
 000000DC  8D 44 24 04	     1	        lea  eax,  4[esp]
 000000E0  53		     1	        push ebx
 000000E1  57		     1	        push edi
 000000E2  56		     1	        push esi
 000000E3  8B 18	     1	            mov  ebx,   [eax]
 000000E5  F0 0F 0B	     1	        BYTE            0f0h, 0fh, 0bh      
 000000E8  05		     1	        BYTE            TRAPEMUL_DestroyPortal     
 000000E9  5E		     1	        pop  esi
 000000EA  5F		     1	        pop  edi
 000000EB  5B		     1	        pop  ebx
 000000EC  C3		     1	        ret
				    SPACECall	1, CleanCtx,		1, 0, 0 ; void  CleanCtx(ulong ctx)
 000000ED		     1	        emul_CleanCtx LABEL PROC
 000000ED  8D 44 24 04	     1	        lea  eax,  4[esp]
 000000F1  53		     1	        push ebx
 000000F2  57		     1	        push edi
 000000F3  56		     1	        push esi
 000000F4  8B 18	     1	            mov  ebx,   [eax]
 000000F6  F0 0F 0B	     1	        BYTE            0f0h, 0fh, 0bh      
 000000F9  06		     1	        BYTE            TRAPEMUL_CleanCtx     
 000000FA  5E		     1	        pop  esi
 000000FB  5F		     1	        pop  edi
 000000FC  5B		     1	        pop  ebx
 000000FD  C3		     1	        ret
				;   SPACECall	1, Resume,			1, 0, 0 ; void  Resume(ulong result) -- cannot use SPACEcall because OZ already deleted stack
				    SPACECall	1, Suspend,		    0, 1, 0 ; SPACETOKEN Suspend() - returns token
 000000FE		     1	        emul_Suspend LABEL PROC
 000000FE  8B 44 24 04	     1	        mov  eax,  4[esp]
 00000102  53		     1	        push ebx
 00000103  57		     1	        push edi
 00000104  56		     1	        push esi
 00000105  F0 0F 0B	     1	        BYTE            0f0h, 0fh, 0bh      
 00000108  08		     1	        BYTE            TRAPEMUL_Suspend     
 00000109  5E		     1	        pop  esi
 0000010A  5F		     1	        pop  edi
 0000010B  5B		     1	        pop  ebx
 0000010C  C3		     1	        ret
				    SPACECall	1, Unsuspend,		2, 0, 0 ; void  Unsuspend(SPACETOKEN token)
 0000010D		     1	        emul_Unsuspend LABEL PROC
 0000010D  8D 44 24 04	     1	        lea  eax,  4[esp]
 00000111  53		     1	        push ebx
 00000112  57		     1	        push edi
 00000113  56		     1	        push esi
 00000114  8B 18	     1	            mov  ebx,   [eax]
 00000116  8B 48 04	     1	            mov  ecx,  4[eax]
 00000119  F0 0F 0B	     1	        BYTE            0f0h, 0fh, 0bh      
 0000011C  09		     1	        BYTE            TRAPEMUL_Unsuspend     
 0000011D  5E		     1	        pop  esi
 0000011E  5F		     1	        pop  edi
 0000011F  5B		     1	        pop  ebx
 00000120  C3		     1	        ret
				    SPACECall	1, PopCaller,		0, 0, 0 ; void  PopCaller()
 00000121		     1	        emul_PopCaller LABEL PROC
 00000121  8D 44 24 04	     1	        lea  eax,  4[esp]
 00000125  53		     1	        push ebx
 00000126  57		     1	        push edi
 00000127  56		     1	        push esi
 00000128  F0 0F 0B	     1	        BYTE            0f0h, 0fh, 0bh      
 0000012B  0A		     1	        BYTE            TRAPEMUL_PopCaller     
 0000012C  5E		     1	        pop  esi
 0000012D  5F		     1	        pop  edi
 0000012E  5B		     1	        pop  ebx
 0000012F  C3		     1	        ret
				    SPACECall	1, DiscardToken,	2, 0, 0 ; void  DiscardToken(SPACETOKEN token)
 00000130		     1	        emul_DiscardToken LABEL PROC
 00000130  8D 44 24 04	     1	        lea  eax,  4[esp]
 00000134  53		     1	        push ebx
 00000135  57		     1	        push edi
 00000136  56		     1	        push esi
 00000137  8B 18	     1	            mov  ebx,   [eax]
 00000139  8B 48 04	     1	            mov  ecx,  4[eax]
 0000013C  F0 0F 0B	     1	        BYTE            0f0h, 0fh, 0bh      
 0000013F  0B		     1	        BYTE            TRAPEMUL_DiscardToken     
 00000140  5E		     1	        pop  esi
 00000141  5F		     1	        pop  edi
 00000142  5B		     1	        pop  ebx
 00000143  C3		     1	        ret
				    SPACECall	1, StartCPU,		5, 1, 0 ; void  StartCPU(ulong boot_cpu, ulong boot_ctx, ulong boot_mode, ulong boot_pc, ulong boot_arg)
 00000144		     1	        emul_StartCPU LABEL PROC
 00000144  8B 44 24 04	     1	        mov  eax,  4[esp]
 00000148  53		     1	        push ebx
 00000149  57		     1	        push edi
 0000014A  56		     1	        push esi
 0000014B  8B 18	     1	            mov  ebx,   [eax]
 0000014D  8B 48 04	     1	            mov  ecx,  4[eax]
 00000150  8B 50 08	     1	            mov  edx,  8[eax]
 00000153  8B 78 0C	     1	            mov  edi, 12[eax]
 00000156  8B 70 10	     1	            mov  esi, 16[eax]
 00000159  F0 0F 0B	     1	        BYTE            0f0h, 0fh, 0bh      
 0000015C  0C		     1	        BYTE            TRAPEMUL_StartCPU     
 0000015D  5E		     1	        pop  esi
 0000015E  5F		     1	        pop  edi
 0000015F  5B		     1	        pop  ebx
 00000160  C3		     1	        ret
				    SPACECall	1, InterruptCPU,	1, 1, 0 ; void  InterruptCPU(uchar targetcpu, uchar interrupt, uchar irql)
 00000161		     1	        emul_InterruptCPU LABEL PROC
 00000161  8B 44 24 04	     1	        mov  eax,  4[esp]
 00000165  53		     1	        push ebx
 00000166  57		     1	        push edi
 00000167  56		     1	        push esi
 00000168  8B 18	     1	            mov  ebx,   [eax]
 0000016A  F0 0F 0B	     1	        BYTE            0f0h, 0fh, 0bh      
 0000016D  0D		     1	        BYTE            TRAPEMUL_InterruptCPU     
 0000016E  5E		     1	        pop  esi
 0000016F  5F		     1	        pop  edi
 00000170  5B		     1	        pop  ebx
 00000171  C3		     1	        ret
				    SPACECall	1, AccessDevice,	3, 1, 0 ; ulong AccessDevice(ushort deviceid, uchar op, uchar deviceregister, ulong value, ulong valuex)
 00000172		     1	        emul_AccessDevice LABEL PROC
 00000172  8B 44 24 04	     1	        mov  eax,  4[esp]
 00000176  53		     1	        push ebx
 00000177  57		     1	        push edi
 00000178  56		     1	        push esi
 00000179  8B 18	     1	            mov  ebx,   [eax]
 0000017B  8B 48 04	     1	            mov  ecx,  4[eax]
 0000017E  8B 50 08	     1	            mov  edx,  8[eax]
 00000181  F0 0F 0B	     1	        BYTE            0f0h, 0fh, 0bh      
 00000184  0E		     1	        BYTE            TRAPEMUL_AccessDevice     
 00000185  5E		     1	        pop  esi
 00000186  5F		     1	        pop  edi
 00000187  5B		     1	        pop  ebx
 00000188  C3		     1	        ret
				    SPACECall	1, ManageIrql,		1, 1, 0 ; ulong ManageIrql(IrqlOps op, uchar irql)
 00000189		     1	        emul_ManageIrql LABEL PROC
 00000189  8B 44 24 04	     1	        mov  eax,  4[esp]
 0000018D  53		     1	        push ebx
 0000018E  57		     1	        push edi
 0000018F  56		     1	        push esi
 00000190  8B 18	     1	            mov  ebx,   [eax]
 00000192  F0 0F 0B	     1	        BYTE            0f0h, 0fh, 0bh      
 00000195  0F		     1	        BYTE            TRAPEMUL_ManageIrql     
 00000196  5E		     1	        pop  esi
 00000197  5F		     1	        pop  edi
 00000198  5B		     1	        pop  ebx
 00000199  C3		     1	        ret
				    SPACECall	1, HaltCPU,		    0, 0, 0 ; void  HaltCPU()
 0000019A		     1	        emul_HaltCPU LABEL PROC
 0000019A  8D 44 24 04	     1	        lea  eax,  4[esp]
 0000019E  53		     1	        push ebx
 0000019F  57		     1	        push edi
 000001A0  56		     1	        push esi
 000001A1  F0 0F 0B	     1	        BYTE            0f0h, 0fh, 0bh      
 000001A4  10		     1	        BYTE            TRAPEMUL_HaltCPU     
 000001A5  5E		     1	        pop  esi
 000001A6  5F		     1	        pop  edi
 000001A7  5B		     1	        pop  ebx
 000001A8  C3		     1	        ret
				    SPACECall	1, GetSPACEParams,	5, 1, 1 ; void  GetSPACEParams(...)
 000001A9		     1	        emul_GetSPACEParams LABEL PROC
 000001A9  8B 44 24 04	     1	        mov  eax,  4[esp]
 000001AD  53		     1	        push ebx
 000001AE  57		     1	        push edi
 000001AF  56		     1	        push esi
 000001B0  8B 18	     1	            mov  ebx,   [eax]
 000001B2  8B 48 04	     1	            mov  ecx,  4[eax]
 000001B5  8B 50 08	     1	            mov  edx,  8[eax]
 000001B8  8B 78 0C	     1	            mov  edi, 12[eax]
 000001BB  8B 70 10	     1	            mov  esi, 16[eax]
 000001BE  F0 0F 0B	     1	        BYTE            0f0h, 0fh, 0bh      
 000001C1  11		     1	        BYTE            TRAPEMUL_GetSPACEParams     
 000001C2  8B 44 24 10	     1	        mov  eax,   16[esp]                 
 000001C6  89 18	     1	        mov    [eax],  ebx
 000001C8  89 48 04	     1	        mov   4[eax],  ecx
 000001CB  89 50 08	     1	        mov   8[eax],  edx
 000001CE  89 78 0C	     1	        mov  12[eax],  edi
 000001D1  89 70 10	     1	        mov  16[eax],  esi
 000001D4  33 C0	     1	        xor  eax,      eax
 000001D6  5E		     1	        pop  esi
 000001D7  5F		     1	        pop  edi
 000001D8  5B		     1	        pop  ebx
 000001D9  C3		     1	        ret
				    SPACECall	1, SPACEBreak,	    5, 1, 1 ; void  SPACEBreak(ulong breakvalue, uchar breakmsg[16])
 000001DA		     1	        emul_SPACEBreak LABEL PROC
 000001DA  8B 44 24 04	     1	        mov  eax,  4[esp]
 000001DE  53		     1	        push ebx
 000001DF  57		     1	        push edi
 000001E0  56		     1	        push esi
 000001E1  8B 18	     1	            mov  ebx,   [eax]
 000001E3  8B 48 04	     1	            mov  ecx,  4[eax]
 000001E6  8B 50 08	     1	            mov  edx,  8[eax]
 000001E9  8B 78 0C	     1	            mov  edi, 12[eax]
 000001EC  8B 70 10	     1	            mov  esi, 16[eax]
 000001EF  F0 0F 0B	     1	        BYTE            0f0h, 0fh, 0bh      
 000001F2  12		     1	        BYTE            TRAPEMUL_SPACEBreak     
 000001F3  8B 44 24 10	     1	        mov  eax,   16[esp]                 
 000001F7  89 18	     1	        mov    [eax],  ebx
 000001F9  89 48 04	     1	        mov   4[eax],  ecx
 000001FC  89 50 08	     1	        mov   8[eax],  edx
 000001FF  89 78 0C	     1	        mov  12[eax],  edi
 00000202  89 70 10	     1	        mov  16[eax],  esi
 00000205  33 C0	     1	        xor  eax,      eax
 00000207  5E		     1	        pop  esi
 00000208  5F		     1	        pop  edi
 00000209  5B		     1	        pop  ebx
 0000020A  C3		     1	        ret


				; the table of service calls for BasicOZ:
				; emit actual service calls
 = 00000000			        icall = 0
				        while icall lt TRAPSERV_MAXCALLS
				            ; XXX: nothing indirect or vectorout (so far), but could conditionally operate on the icall encodings if we wanted to add this
				            SPACECall	0, %(icall), 5, 0, 0 ; ulong64 ServiceCall(arg0, arg1, arg2, arg3, arg4)
				            icall = (icall+1)
				        endm
 0000020B		     2	        OZ_0   LABEL PROC
 0000020B  8D 44 24 04	     2	        lea  eax,  4[esp]
 0000020F  53		     2	        push ebx
 00000210  57		     2	        push edi
 00000211  56		     2	        push esi
 00000212  8B 18	     2	            mov  ebx,   [eax]
 00000214  8B 48 04	     2	            mov  ecx,  4[eax]
 00000217  8B 50 08	     2	            mov  edx,  8[eax]
 0000021A  8B 78 0C	     2	            mov  edi, 12[eax]
 0000021D  8B 70 10	     2	            mov  esi, 16[eax]
 00000220  0F 0B	     2	        BYTE            0fh, 0bh            
 00000222  0000		     2	        WORD            0               
 00000224  5E		     2	        pop  esi
 00000225  5F		     2	        pop  edi
 00000226  5B		     2	        pop  ebx
 00000227  C3		     2	        ret
 00000228		     2	        OZ_1   LABEL PROC
 00000228  8D 44 24 04	     2	        lea  eax,  4[esp]
 0000022C  53		     2	        push ebx
 0000022D  57		     2	        push edi
 0000022E  56		     2	        push esi
 0000022F  8B 18	     2	            mov  ebx,   [eax]
 00000231  8B 48 04	     2	            mov  ecx,  4[eax]
 00000234  8B 50 08	     2	            mov  edx,  8[eax]
 00000237  8B 78 0C	     2	            mov  edi, 12[eax]
 0000023A  8B 70 10	     2	            mov  esi, 16[eax]
 0000023D  0F 0B	     2	        BYTE            0fh, 0bh            
 0000023F  0001		     2	        WORD            1               
 00000241  5E		     2	        pop  esi
 00000242  5F		     2	        pop  edi
 00000243  5B		     2	        pop  ebx
 00000244  C3		     2	        ret
 00000245		     2	        OZ_2   LABEL PROC
 00000245  8D 44 24 04	     2	        lea  eax,  4[esp]
 00000249  53		     2	        push ebx
 0000024A  57		     2	        push edi
 0000024B  56		     2	        push esi
 0000024C  8B 18	     2	            mov  ebx,   [eax]
 0000024E  8B 48 04	     2	            mov  ecx,  4[eax]
 00000251  8B 50 08	     2	            mov  edx,  8[eax]
 00000254  8B 78 0C	     2	            mov  edi, 12[eax]
 00000257  8B 70 10	     2	            mov  esi, 16[eax]
 0000025A  0F 0B	     2	        BYTE            0fh, 0bh            
 0000025C  0002		     2	        WORD            2               
 0000025E  5E		     2	        pop  esi
 0000025F  5F		     2	        pop  edi
 00000260  5B		     2	        pop  ebx
 00000261  C3		     2	        ret
 00000262		     2	        OZ_3   LABEL PROC
 00000262  8D 44 24 04	     2	        lea  eax,  4[esp]
 00000266  53		     2	        push ebx
 00000267  57		     2	        push edi
 00000268  56		     2	        push esi
 00000269  8B 18	     2	            mov  ebx,   [eax]
 0000026B  8B 48 04	     2	            mov  ecx,  4[eax]
 0000026E  8B 50 08	     2	            mov  edx,  8[eax]
 00000271  8B 78 0C	     2	            mov  edi, 12[eax]
 00000274  8B 70 10	     2	            mov  esi, 16[eax]
 00000277  0F 0B	     2	        BYTE            0fh, 0bh            
 00000279  0003		     2	        WORD            3               
 0000027B  5E		     2	        pop  esi
 0000027C  5F		     2	        pop  edi
 0000027D  5B		     2	        pop  ebx
 0000027E  C3		     2	        ret
 0000027F		     2	        OZ_4   LABEL PROC
 0000027F  8D 44 24 04	     2	        lea  eax,  4[esp]
 00000283  53		     2	        push ebx
 00000284  57		     2	        push edi
 00000285  56		     2	        push esi
 00000286  8B 18	     2	            mov  ebx,   [eax]
 00000288  8B 48 04	     2	            mov  ecx,  4[eax]
 0000028B  8B 50 08	     2	            mov  edx,  8[eax]
 0000028E  8B 78 0C	     2	            mov  edi, 12[eax]
 00000291  8B 70 10	     2	            mov  esi, 16[eax]
 00000294  0F 0B	     2	        BYTE            0fh, 0bh            
 00000296  0004		     2	        WORD            4               
 00000298  5E		     2	        pop  esi
 00000299  5F		     2	        pop  edi
 0000029A  5B		     2	        pop  ebx
 0000029B  C3		     2	        ret
 0000029C		     2	        OZ_5   LABEL PROC
 0000029C  8D 44 24 04	     2	        lea  eax,  4[esp]
 000002A0  53		     2	        push ebx
 000002A1  57		     2	        push edi
 000002A2  56		     2	        push esi
 000002A3  8B 18	     2	            mov  ebx,   [eax]
 000002A5  8B 48 04	     2	            mov  ecx,  4[eax]
 000002A8  8B 50 08	     2	            mov  edx,  8[eax]
 000002AB  8B 78 0C	     2	            mov  edi, 12[eax]
 000002AE  8B 70 10	     2	            mov  esi, 16[eax]
 000002B1  0F 0B	     2	        BYTE            0fh, 0bh            
 000002B3  0005		     2	        WORD            5               
 000002B5  5E		     2	        pop  esi
 000002B6  5F		     2	        pop  edi
 000002B7  5B		     2	        pop  ebx
 000002B8  C3		     2	        ret
 000002B9		     2	        OZ_6   LABEL PROC
 000002B9  8D 44 24 04	     2	        lea  eax,  4[esp]
 000002BD  53		     2	        push ebx
 000002BE  57		     2	        push edi
 000002BF  56		     2	        push esi
 000002C0  8B 18	     2	            mov  ebx,   [eax]
 000002C2  8B 48 04	     2	            mov  ecx,  4[eax]
 000002C5  8B 50 08	     2	            mov  edx,  8[eax]
 000002C8  8B 78 0C	     2	            mov  edi, 12[eax]
 000002CB  8B 70 10	     2	            mov  esi, 16[eax]
 000002CE  0F 0B	     2	        BYTE            0fh, 0bh            
 000002D0  0006		     2	        WORD            6               
 000002D2  5E		     2	        pop  esi
 000002D3  5F		     2	        pop  edi
 000002D4  5B		     2	        pop  ebx
 000002D5  C3		     2	        ret
 000002D6		     2	        OZ_7   LABEL PROC
 000002D6  8D 44 24 04	     2	        lea  eax,  4[esp]
 000002DA  53		     2	        push ebx
 000002DB  57		     2	        push edi
 000002DC  56		     2	        push esi
 000002DD  8B 18	     2	            mov  ebx,   [eax]
 000002DF  8B 48 04	     2	            mov  ecx,  4[eax]
 000002E2  8B 50 08	     2	            mov  edx,  8[eax]
 000002E5  8B 78 0C	     2	            mov  edi, 12[eax]
 000002E8  8B 70 10	     2	            mov  esi, 16[eax]
 000002EB  0F 0B	     2	        BYTE            0fh, 0bh            
 000002ED  0007		     2	        WORD            7               
 000002EF  5E		     2	        pop  esi
 000002F0  5F		     2	        pop  edi
 000002F1  5B		     2	        pop  ebx
 000002F2  C3		     2	        ret
 000002F3		     2	        OZ_8   LABEL PROC
 000002F3  8D 44 24 04	     2	        lea  eax,  4[esp]
 000002F7  53		     2	        push ebx
 000002F8  57		     2	        push edi
 000002F9  56		     2	        push esi
 000002FA  8B 18	     2	            mov  ebx,   [eax]
 000002FC  8B 48 04	     2	            mov  ecx,  4[eax]
 000002FF  8B 50 08	     2	            mov  edx,  8[eax]
 00000302  8B 78 0C	     2	            mov  edi, 12[eax]
 00000305  8B 70 10	     2	            mov  esi, 16[eax]
 00000308  0F 0B	     2	        BYTE            0fh, 0bh            
 0000030A  0008		     2	        WORD            8               
 0000030C  5E		     2	        pop  esi
 0000030D  5F		     2	        pop  edi
 0000030E  5B		     2	        pop  ebx
 0000030F  C3		     2	        ret
 00000310		     2	        OZ_9   LABEL PROC
 00000310  8D 44 24 04	     2	        lea  eax,  4[esp]
 00000314  53		     2	        push ebx
 00000315  57		     2	        push edi
 00000316  56		     2	        push esi
 00000317  8B 18	     2	            mov  ebx,   [eax]
 00000319  8B 48 04	     2	            mov  ecx,  4[eax]
 0000031C  8B 50 08	     2	            mov  edx,  8[eax]
 0000031F  8B 78 0C	     2	            mov  edi, 12[eax]
 00000322  8B 70 10	     2	            mov  esi, 16[eax]
 00000325  0F 0B	     2	        BYTE            0fh, 0bh            
 00000327  0009		     2	        WORD            9               
 00000329  5E		     2	        pop  esi
 0000032A  5F		     2	        pop  edi
 0000032B  5B		     2	        pop  ebx
 0000032C  C3		     2	        ret
 0000032D		     2	        OZ_10   LABEL PROC
 0000032D  8D 44 24 04	     2	        lea  eax,  4[esp]
 00000331  53		     2	        push ebx
 00000332  57		     2	        push edi
 00000333  56		     2	        push esi
 00000334  8B 18	     2	            mov  ebx,   [eax]
 00000336  8B 48 04	     2	            mov  ecx,  4[eax]
 00000339  8B 50 08	     2	            mov  edx,  8[eax]
 0000033C  8B 78 0C	     2	            mov  edi, 12[eax]
 0000033F  8B 70 10	     2	            mov  esi, 16[eax]
 00000342  0F 0B	     2	        BYTE            0fh, 0bh            
 00000344  000A		     2	        WORD            10               
 00000346  5E		     2	        pop  esi
 00000347  5F		     2	        pop  edi
 00000348  5B		     2	        pop  ebx
 00000349  C3		     2	        ret
 0000034A		     2	        OZ_11   LABEL PROC
 0000034A  8D 44 24 04	     2	        lea  eax,  4[esp]
 0000034E  53		     2	        push ebx
 0000034F  57		     2	        push edi
 00000350  56		     2	        push esi
 00000351  8B 18	     2	            mov  ebx,   [eax]
 00000353  8B 48 04	     2	            mov  ecx,  4[eax]
 00000356  8B 50 08	     2	            mov  edx,  8[eax]
 00000359  8B 78 0C	     2	            mov  edi, 12[eax]
 0000035C  8B 70 10	     2	            mov  esi, 16[eax]
 0000035F  0F 0B	     2	        BYTE            0fh, 0bh            
 00000361  000B		     2	        WORD            11               
 00000363  5E		     2	        pop  esi
 00000364  5F		     2	        pop  edi
 00000365  5B		     2	        pop  ebx
 00000366  C3		     2	        ret
 00000367		     2	        OZ_12   LABEL PROC
 00000367  8D 44 24 04	     2	        lea  eax,  4[esp]
 0000036B  53		     2	        push ebx
 0000036C  57		     2	        push edi
 0000036D  56		     2	        push esi
 0000036E  8B 18	     2	            mov  ebx,   [eax]
 00000370  8B 48 04	     2	            mov  ecx,  4[eax]
 00000373  8B 50 08	     2	            mov  edx,  8[eax]
 00000376  8B 78 0C	     2	            mov  edi, 12[eax]
 00000379  8B 70 10	     2	            mov  esi, 16[eax]
 0000037C  0F 0B	     2	        BYTE            0fh, 0bh            
 0000037E  000C		     2	        WORD            12               
 00000380  5E		     2	        pop  esi
 00000381  5F		     2	        pop  edi
 00000382  5B		     2	        pop  ebx
 00000383  C3		     2	        ret
 00000384		     2	        OZ_13   LABEL PROC
 00000384  8D 44 24 04	     2	        lea  eax,  4[esp]
 00000388  53		     2	        push ebx
 00000389  57		     2	        push edi
 0000038A  56		     2	        push esi
 0000038B  8B 18	     2	            mov  ebx,   [eax]
 0000038D  8B 48 04	     2	            mov  ecx,  4[eax]
 00000390  8B 50 08	     2	            mov  edx,  8[eax]
 00000393  8B 78 0C	     2	            mov  edi, 12[eax]
 00000396  8B 70 10	     2	            mov  esi, 16[eax]
 00000399  0F 0B	     2	        BYTE            0fh, 0bh            
 0000039B  000D		     2	        WORD            13               
 0000039D  5E		     2	        pop  esi
 0000039E  5F		     2	        pop  edi
 0000039F  5B		     2	        pop  ebx
 000003A0  C3		     2	        ret
 000003A1		     2	        OZ_14   LABEL PROC
 000003A1  8D 44 24 04	     2	        lea  eax,  4[esp]
 000003A5  53		     2	        push ebx
 000003A6  57		     2	        push edi
 000003A7  56		     2	        push esi
 000003A8  8B 18	     2	            mov  ebx,   [eax]
 000003AA  8B 48 04	     2	            mov  ecx,  4[eax]
 000003AD  8B 50 08	     2	            mov  edx,  8[eax]
 000003B0  8B 78 0C	     2	            mov  edi, 12[eax]
 000003B3  8B 70 10	     2	            mov  esi, 16[eax]
 000003B6  0F 0B	     2	        BYTE            0fh, 0bh            
 000003B8  000E		     2	        WORD            14               
 000003BA  5E		     2	        pop  esi
 000003BB  5F		     2	        pop  edi
 000003BC  5B		     2	        pop  ebx
 000003BD  C3		     2	        ret
 000003BE		     2	        OZ_15   LABEL PROC
 000003BE  8D 44 24 04	     2	        lea  eax,  4[esp]
 000003C2  53		     2	        push ebx
 000003C3  57		     2	        push edi
 000003C4  56		     2	        push esi
 000003C5  8B 18	     2	            mov  ebx,   [eax]
 000003C7  8B 48 04	     2	            mov  ecx,  4[eax]
 000003CA  8B 50 08	     2	            mov  edx,  8[eax]
 000003CD  8B 78 0C	     2	            mov  edi, 12[eax]
 000003D0  8B 70 10	     2	            mov  esi, 16[eax]
 000003D3  0F 0B	     2	        BYTE            0fh, 0bh            
 000003D5  000F		     2	        WORD            15               
 000003D7  5E		     2	        pop  esi
 000003D8  5F		     2	        pop  edi
 000003D9  5B		     2	        pop  ebx
 000003DA  C3		     2	        ret
 000003DB		     2	        OZ_16   LABEL PROC
 000003DB  8D 44 24 04	     2	        lea  eax,  4[esp]
 000003DF  53		     2	        push ebx
 000003E0  57		     2	        push edi
 000003E1  56		     2	        push esi
 000003E2  8B 18	     2	            mov  ebx,   [eax]
 000003E4  8B 48 04	     2	            mov  ecx,  4[eax]
 000003E7  8B 50 08	     2	            mov  edx,  8[eax]
 000003EA  8B 78 0C	     2	            mov  edi, 12[eax]
 000003ED  8B 70 10	     2	            mov  esi, 16[eax]
 000003F0  0F 0B	     2	        BYTE            0fh, 0bh            
 000003F2  0010		     2	        WORD            16               
 000003F4  5E		     2	        pop  esi
 000003F5  5F		     2	        pop  edi
 000003F6  5B		     2	        pop  ebx
 000003F7  C3		     2	        ret
 000003F8		     2	        OZ_17   LABEL PROC
 000003F8  8D 44 24 04	     2	        lea  eax,  4[esp]
 000003FC  53		     2	        push ebx
 000003FD  57		     2	        push edi
 000003FE  56		     2	        push esi
 000003FF  8B 18	     2	            mov  ebx,   [eax]
 00000401  8B 48 04	     2	            mov  ecx,  4[eax]
 00000404  8B 50 08	     2	            mov  edx,  8[eax]
 00000407  8B 78 0C	     2	            mov  edi, 12[eax]
 0000040A  8B 70 10	     2	            mov  esi, 16[eax]
 0000040D  0F 0B	     2	        BYTE            0fh, 0bh            
 0000040F  0011		     2	        WORD            17               
 00000411  5E		     2	        pop  esi
 00000412  5F		     2	        pop  edi
 00000413  5B		     2	        pop  ebx
 00000414  C3		     2	        ret
 00000415		     2	        OZ_18   LABEL PROC
 00000415  8D 44 24 04	     2	        lea  eax,  4[esp]
 00000419  53		     2	        push ebx
 0000041A  57		     2	        push edi
 0000041B  56		     2	        push esi
 0000041C  8B 18	     2	            mov  ebx,   [eax]
 0000041E  8B 48 04	     2	            mov  ecx,  4[eax]
 00000421  8B 50 08	     2	            mov  edx,  8[eax]
 00000424  8B 78 0C	     2	            mov  edi, 12[eax]
 00000427  8B 70 10	     2	            mov  esi, 16[eax]
 0000042A  0F 0B	     2	        BYTE            0fh, 0bh            
 0000042C  0012		     2	        WORD            18               
 0000042E  5E		     2	        pop  esi
 0000042F  5F		     2	        pop  edi
 00000430  5B		     2	        pop  ebx
 00000431  C3		     2	        ret
 00000432		     2	        OZ_19   LABEL PROC
 00000432  8D 44 24 04	     2	        lea  eax,  4[esp]
 00000436  53		     2	        push ebx
 00000437  57		     2	        push edi
 00000438  56		     2	        push esi
 00000439  8B 18	     2	            mov  ebx,   [eax]
 0000043B  8B 48 04	     2	            mov  ecx,  4[eax]
 0000043E  8B 50 08	     2	            mov  edx,  8[eax]
 00000441  8B 78 0C	     2	            mov  edi, 12[eax]
 00000444  8B 70 10	     2	            mov  esi, 16[eax]
 00000447  0F 0B	     2	        BYTE            0fh, 0bh            
 00000449  0013		     2	        WORD            19               
 0000044B  5E		     2	        pop  esi
 0000044C  5F		     2	        pop  edi
 0000044D  5B		     2	        pop  ebx
 0000044E  C3		     2	        ret
 0000044F		     2	        OZ_20   LABEL PROC
 0000044F  8D 44 24 04	     2	        lea  eax,  4[esp]
 00000453  53		     2	        push ebx
 00000454  57		     2	        push edi
 00000455  56		     2	        push esi
 00000456  8B 18	     2	            mov  ebx,   [eax]
 00000458  8B 48 04	     2	            mov  ecx,  4[eax]
 0000045B  8B 50 08	     2	            mov  edx,  8[eax]
 0000045E  8B 78 0C	     2	            mov  edi, 12[eax]
 00000461  8B 70 10	     2	            mov  esi, 16[eax]
 00000464  0F 0B	     2	        BYTE            0fh, 0bh            
 00000466  0014		     2	        WORD            20               
 00000468  5E		     2	        pop  esi
 00000469  5F		     2	        pop  edi
 0000046A  5B		     2	        pop  ebx
 0000046B  C3		     2	        ret
 0000046C		     2	        OZ_21   LABEL PROC
 0000046C  8D 44 24 04	     2	        lea  eax,  4[esp]
 00000470  53		     2	        push ebx
 00000471  57		     2	        push edi
 00000472  56		     2	        push esi
 00000473  8B 18	     2	            mov  ebx,   [eax]
 00000475  8B 48 04	     2	            mov  ecx,  4[eax]
 00000478  8B 50 08	     2	            mov  edx,  8[eax]
 0000047B  8B 78 0C	     2	            mov  edi, 12[eax]
 0000047E  8B 70 10	     2	            mov  esi, 16[eax]
 00000481  0F 0B	     2	        BYTE            0fh, 0bh            
 00000483  0015		     2	        WORD            21               
 00000485  5E		     2	        pop  esi
 00000486  5F		     2	        pop  edi
 00000487  5B		     2	        pop  ebx
 00000488  C3		     2	        ret
 00000489		     2	        OZ_22   LABEL PROC
 00000489  8D 44 24 04	     2	        lea  eax,  4[esp]
 0000048D  53		     2	        push ebx
 0000048E  57		     2	        push edi
 0000048F  56		     2	        push esi
 00000490  8B 18	     2	            mov  ebx,   [eax]
 00000492  8B 48 04	     2	            mov  ecx,  4[eax]
 00000495  8B 50 08	     2	            mov  edx,  8[eax]
 00000498  8B 78 0C	     2	            mov  edi, 12[eax]
 0000049B  8B 70 10	     2	            mov  esi, 16[eax]
 0000049E  0F 0B	     2	        BYTE            0fh, 0bh            
 000004A0  0016		     2	        WORD            22               
 000004A2  5E		     2	        pop  esi
 000004A3  5F		     2	        pop  edi
 000004A4  5B		     2	        pop  ebx
 000004A5  C3		     2	        ret
 000004A6		     2	        OZ_23   LABEL PROC
 000004A6  8D 44 24 04	     2	        lea  eax,  4[esp]
 000004AA  53		     2	        push ebx
 000004AB  57		     2	        push edi
 000004AC  56		     2	        push esi
 000004AD  8B 18	     2	            mov  ebx,   [eax]
 000004AF  8B 48 04	     2	            mov  ecx,  4[eax]
 000004B2  8B 50 08	     2	            mov  edx,  8[eax]
 000004B5  8B 78 0C	     2	            mov  edi, 12[eax]
 000004B8  8B 70 10	     2	            mov  esi, 16[eax]
 000004BB  0F 0B	     2	        BYTE            0fh, 0bh            
 000004BD  0017		     2	        WORD            23               
 000004BF  5E		     2	        pop  esi
 000004C0  5F		     2	        pop  edi
 000004C1  5B		     2	        pop  ebx
 000004C2  C3		     2	        ret
 000004C3		     2	        OZ_24   LABEL PROC
 000004C3  8D 44 24 04	     2	        lea  eax,  4[esp]
 000004C7  53		     2	        push ebx
 000004C8  57		     2	        push edi
 000004C9  56		     2	        push esi
 000004CA  8B 18	     2	            mov  ebx,   [eax]
 000004CC  8B 48 04	     2	            mov  ecx,  4[eax]
 000004CF  8B 50 08	     2	            mov  edx,  8[eax]
 000004D2  8B 78 0C	     2	            mov  edi, 12[eax]
 000004D5  8B 70 10	     2	            mov  esi, 16[eax]
 000004D8  0F 0B	     2	        BYTE            0fh, 0bh            
 000004DA  0018		     2	        WORD            24               
 000004DC  5E		     2	        pop  esi
 000004DD  5F		     2	        pop  edi
 000004DE  5B		     2	        pop  ebx
 000004DF  C3		     2	        ret
 000004E0		     2	        OZ_25   LABEL PROC
 000004E0  8D 44 24 04	     2	        lea  eax,  4[esp]
 000004E4  53		     2	        push ebx
 000004E5  57		     2	        push edi
 000004E6  56		     2	        push esi
 000004E7  8B 18	     2	            mov  ebx,   [eax]
 000004E9  8B 48 04	     2	            mov  ecx,  4[eax]
 000004EC  8B 50 08	     2	            mov  edx,  8[eax]
 000004EF  8B 78 0C	     2	            mov  edi, 12[eax]
 000004F2  8B 70 10	     2	            mov  esi, 16[eax]
 000004F5  0F 0B	     2	        BYTE            0fh, 0bh            
 000004F7  0019		     2	        WORD            25               
 000004F9  5E		     2	        pop  esi
 000004FA  5F		     2	        pop  edi
 000004FB  5B		     2	        pop  ebx
 000004FC  C3		     2	        ret
 000004FD		     2	        OZ_26   LABEL PROC
 000004FD  8D 44 24 04	     2	        lea  eax,  4[esp]
 00000501  53		     2	        push ebx
 00000502  57		     2	        push edi
 00000503  56		     2	        push esi
 00000504  8B 18	     2	            mov  ebx,   [eax]
 00000506  8B 48 04	     2	            mov  ecx,  4[eax]
 00000509  8B 50 08	     2	            mov  edx,  8[eax]
 0000050C  8B 78 0C	     2	            mov  edi, 12[eax]
 0000050F  8B 70 10	     2	            mov  esi, 16[eax]
 00000512  0F 0B	     2	        BYTE            0fh, 0bh            
 00000514  001A		     2	        WORD            26               
 00000516  5E		     2	        pop  esi
 00000517  5F		     2	        pop  edi
 00000518  5B		     2	        pop  ebx
 00000519  C3		     2	        ret
 0000051A		     2	        OZ_27   LABEL PROC
 0000051A  8D 44 24 04	     2	        lea  eax,  4[esp]
 0000051E  53		     2	        push ebx
 0000051F  57		     2	        push edi
 00000520  56		     2	        push esi
 00000521  8B 18	     2	            mov  ebx,   [eax]
 00000523  8B 48 04	     2	            mov  ecx,  4[eax]
 00000526  8B 50 08	     2	            mov  edx,  8[eax]
 00000529  8B 78 0C	     2	            mov  edi, 12[eax]
 0000052C  8B 70 10	     2	            mov  esi, 16[eax]
 0000052F  0F 0B	     2	        BYTE            0fh, 0bh            
 00000531  001B		     2	        WORD            27               
 00000533  5E		     2	        pop  esi
 00000534  5F		     2	        pop  edi
 00000535  5B		     2	        pop  ebx
 00000536  C3		     2	        ret
 00000537		     2	        OZ_28   LABEL PROC
 00000537  8D 44 24 04	     2	        lea  eax,  4[esp]
 0000053B  53		     2	        push ebx
 0000053C  57		     2	        push edi
 0000053D  56		     2	        push esi
 0000053E  8B 18	     2	            mov  ebx,   [eax]
 00000540  8B 48 04	     2	            mov  ecx,  4[eax]
 00000543  8B 50 08	     2	            mov  edx,  8[eax]
 00000546  8B 78 0C	     2	            mov  edi, 12[eax]
 00000549  8B 70 10	     2	            mov  esi, 16[eax]
 0000054C  0F 0B	     2	        BYTE            0fh, 0bh            
 0000054E  001C		     2	        WORD            28               
 00000550  5E		     2	        pop  esi
 00000551  5F		     2	        pop  edi
 00000552  5B		     2	        pop  ebx
 00000553  C3		     2	        ret
 00000554		     2	        OZ_29   LABEL PROC
 00000554  8D 44 24 04	     2	        lea  eax,  4[esp]
 00000558  53		     2	        push ebx
 00000559  57		     2	        push edi
 0000055A  56		     2	        push esi
 0000055B  8B 18	     2	            mov  ebx,   [eax]
 0000055D  8B 48 04	     2	            mov  ecx,  4[eax]
 00000560  8B 50 08	     2	            mov  edx,  8[eax]
 00000563  8B 78 0C	     2	            mov  edi, 12[eax]
 00000566  8B 70 10	     2	            mov  esi, 16[eax]
 00000569  0F 0B	     2	        BYTE            0fh, 0bh            
 0000056B  001D		     2	        WORD            29               
 0000056D  5E		     2	        pop  esi
 0000056E  5F		     2	        pop  edi
 0000056F  5B		     2	        pop  ebx
 00000570  C3		     2	        ret
 00000571		     2	        OZ_30   LABEL PROC
 00000571  8D 44 24 04	     2	        lea  eax,  4[esp]
 00000575  53		     2	        push ebx
 00000576  57		     2	        push edi
 00000577  56		     2	        push esi
 00000578  8B 18	     2	            mov  ebx,   [eax]
 0000057A  8B 48 04	     2	            mov  ecx,  4[eax]
 0000057D  8B 50 08	     2	            mov  edx,  8[eax]
 00000580  8B 78 0C	     2	            mov  edi, 12[eax]
 00000583  8B 70 10	     2	            mov  esi, 16[eax]
 00000586  0F 0B	     2	        BYTE            0fh, 0bh            
 00000588  001E		     2	        WORD            30               
 0000058A  5E		     2	        pop  esi
 0000058B  5F		     2	        pop  edi
 0000058C  5B		     2	        pop  ebx
 0000058D  C3		     2	        ret
 0000058E		     2	        OZ_31   LABEL PROC
 0000058E  8D 44 24 04	     2	        lea  eax,  4[esp]
 00000592  53		     2	        push ebx
 00000593  57		     2	        push edi
 00000594  56		     2	        push esi
 00000595  8B 18	     2	            mov  ebx,   [eax]
 00000597  8B 48 04	     2	            mov  ecx,  4[eax]
 0000059A  8B 50 08	     2	            mov  edx,  8[eax]
 0000059D  8B 78 0C	     2	            mov  edi, 12[eax]
 000005A0  8B 70 10	     2	            mov  esi, 16[eax]
 000005A3  0F 0B	     2	        BYTE            0fh, 0bh            
 000005A5  001F		     2	        WORD            31               
 000005A7  5E		     2	        pop  esi
 000005A8  5F		     2	        pop  edi
 000005A9  5B		     2	        pop  ebx
 000005AA  C3		     2	        ret
 000005AB		     2	        OZ_32   LABEL PROC
 000005AB  8D 44 24 04	     2	        lea  eax,  4[esp]
 000005AF  53		     2	        push ebx
 000005B0  57		     2	        push edi
 000005B1  56		     2	        push esi
 000005B2  8B 18	     2	            mov  ebx,   [eax]
 000005B4  8B 48 04	     2	            mov  ecx,  4[eax]
 000005B7  8B 50 08	     2	            mov  edx,  8[eax]
 000005BA  8B 78 0C	     2	            mov  edi, 12[eax]
 000005BD  8B 70 10	     2	            mov  esi, 16[eax]
 000005C0  0F 0B	     2	        BYTE            0fh, 0bh            
 000005C2  0020		     2	        WORD            32               
 000005C4  5E		     2	        pop  esi
 000005C5  5F		     2	        pop  edi
 000005C6  5B		     2	        pop  ebx
 000005C7  C3		     2	        ret
 000005C8		     2	        OZ_33   LABEL PROC
 000005C8  8D 44 24 04	     2	        lea  eax,  4[esp]
 000005CC  53		     2	        push ebx
 000005CD  57		     2	        push edi
 000005CE  56		     2	        push esi
 000005CF  8B 18	     2	            mov  ebx,   [eax]
 000005D1  8B 48 04	     2	            mov  ecx,  4[eax]
 000005D4  8B 50 08	     2	            mov  edx,  8[eax]
 000005D7  8B 78 0C	     2	            mov  edi, 12[eax]
 000005DA  8B 70 10	     2	            mov  esi, 16[eax]
 000005DD  0F 0B	     2	        BYTE            0fh, 0bh            
 000005DF  0021		     2	        WORD            33               
 000005E1  5E		     2	        pop  esi
 000005E2  5F		     2	        pop  edi
 000005E3  5B		     2	        pop  ebx
 000005E4  C3		     2	        ret
 000005E5		     2	        OZ_34   LABEL PROC
 000005E5  8D 44 24 04	     2	        lea  eax,  4[esp]
 000005E9  53		     2	        push ebx
 000005EA  57		     2	        push edi
 000005EB  56		     2	        push esi
 000005EC  8B 18	     2	            mov  ebx,   [eax]
 000005EE  8B 48 04	     2	            mov  ecx,  4[eax]
 000005F1  8B 50 08	     2	            mov  edx,  8[eax]
 000005F4  8B 78 0C	     2	            mov  edi, 12[eax]
 000005F7  8B 70 10	     2	            mov  esi, 16[eax]
 000005FA  0F 0B	     2	        BYTE            0fh, 0bh            
 000005FC  0022		     2	        WORD            34               
 000005FE  5E		     2	        pop  esi
 000005FF  5F		     2	        pop  edi
 00000600  5B		     2	        pop  ebx
 00000601  C3		     2	        ret
 00000602		     2	        OZ_35   LABEL PROC
 00000602  8D 44 24 04	     2	        lea  eax,  4[esp]
 00000606  53		     2	        push ebx
 00000607  57		     2	        push edi
 00000608  56		     2	        push esi
 00000609  8B 18	     2	            mov  ebx,   [eax]
 0000060B  8B 48 04	     2	            mov  ecx,  4[eax]
 0000060E  8B 50 08	     2	            mov  edx,  8[eax]
 00000611  8B 78 0C	     2	            mov  edi, 12[eax]
 00000614  8B 70 10	     2	            mov  esi, 16[eax]
 00000617  0F 0B	     2	        BYTE            0fh, 0bh            
 00000619  0023		     2	        WORD            35               
 0000061B  5E		     2	        pop  esi
 0000061C  5F		     2	        pop  edi
 0000061D  5B		     2	        pop  ebx
 0000061E  C3		     2	        ret
 0000061F		     2	        OZ_36   LABEL PROC
 0000061F  8D 44 24 04	     2	        lea  eax,  4[esp]
 00000623  53		     2	        push ebx
 00000624  57		     2	        push edi
 00000625  56		     2	        push esi
 00000626  8B 18	     2	            mov  ebx,   [eax]
 00000628  8B 48 04	     2	            mov  ecx,  4[eax]
 0000062B  8B 50 08	     2	            mov  edx,  8[eax]
 0000062E  8B 78 0C	     2	            mov  edi, 12[eax]
 00000631  8B 70 10	     2	            mov  esi, 16[eax]
 00000634  0F 0B	     2	        BYTE            0fh, 0bh            
 00000636  0024		     2	        WORD            36               
 00000638  5E		     2	        pop  esi
 00000639  5F		     2	        pop  edi
 0000063A  5B		     2	        pop  ebx
 0000063B  C3		     2	        ret
 0000063C		     2	        OZ_37   LABEL PROC
 0000063C  8D 44 24 04	     2	        lea  eax,  4[esp]
 00000640  53		     2	        push ebx
 00000641  57		     2	        push edi
 00000642  56		     2	        push esi
 00000643  8B 18	     2	            mov  ebx,   [eax]
 00000645  8B 48 04	     2	            mov  ecx,  4[eax]
 00000648  8B 50 08	     2	            mov  edx,  8[eax]
 0000064B  8B 78 0C	     2	            mov  edi, 12[eax]
 0000064E  8B 70 10	     2	            mov  esi, 16[eax]
 00000651  0F 0B	     2	        BYTE            0fh, 0bh            
 00000653  0025		     2	        WORD            37               
 00000655  5E		     2	        pop  esi
 00000656  5F		     2	        pop  edi
 00000657  5B		     2	        pop  ebx
 00000658  C3		     2	        ret
 00000659		     2	        OZ_38   LABEL PROC
 00000659  8D 44 24 04	     2	        lea  eax,  4[esp]
 0000065D  53		     2	        push ebx
 0000065E  57		     2	        push edi
 0000065F  56		     2	        push esi
 00000660  8B 18	     2	            mov  ebx,   [eax]
 00000662  8B 48 04	     2	            mov  ecx,  4[eax]
 00000665  8B 50 08	     2	            mov  edx,  8[eax]
 00000668  8B 78 0C	     2	            mov  edi, 12[eax]
 0000066B  8B 70 10	     2	            mov  esi, 16[eax]
 0000066E  0F 0B	     2	        BYTE            0fh, 0bh            
 00000670  0026		     2	        WORD            38               
 00000672  5E		     2	        pop  esi
 00000673  5F		     2	        pop  edi
 00000674  5B		     2	        pop  ebx
 00000675  C3		     2	        ret
 00000676		     2	        OZ_39   LABEL PROC
 00000676  8D 44 24 04	     2	        lea  eax,  4[esp]
 0000067A  53		     2	        push ebx
 0000067B  57		     2	        push edi
 0000067C  56		     2	        push esi
 0000067D  8B 18	     2	            mov  ebx,   [eax]
 0000067F  8B 48 04	     2	            mov  ecx,  4[eax]
 00000682  8B 50 08	     2	            mov  edx,  8[eax]
 00000685  8B 78 0C	     2	            mov  edi, 12[eax]
 00000688  8B 70 10	     2	            mov  esi, 16[eax]
 0000068B  0F 0B	     2	        BYTE            0fh, 0bh            
 0000068D  0027		     2	        WORD            39               
 0000068F  5E		     2	        pop  esi
 00000690  5F		     2	        pop  edi
 00000691  5B		     2	        pop  ebx
 00000692  C3		     2	        ret
 00000693		     2	        OZ_40   LABEL PROC
 00000693  8D 44 24 04	     2	        lea  eax,  4[esp]
 00000697  53		     2	        push ebx
 00000698  57		     2	        push edi
 00000699  56		     2	        push esi
 0000069A  8B 18	     2	            mov  ebx,   [eax]
 0000069C  8B 48 04	     2	            mov  ecx,  4[eax]
 0000069F  8B 50 08	     2	            mov  edx,  8[eax]
 000006A2  8B 78 0C	     2	            mov  edi, 12[eax]
 000006A5  8B 70 10	     2	            mov  esi, 16[eax]
 000006A8  0F 0B	     2	        BYTE            0fh, 0bh            
 000006AA  0028		     2	        WORD            40               
 000006AC  5E		     2	        pop  esi
 000006AD  5F		     2	        pop  edi
 000006AE  5B		     2	        pop  ebx
 000006AF  C3		     2	        ret
 000006B0		     2	        OZ_41   LABEL PROC
 000006B0  8D 44 24 04	     2	        lea  eax,  4[esp]
 000006B4  53		     2	        push ebx
 000006B5  57		     2	        push edi
 000006B6  56		     2	        push esi
 000006B7  8B 18	     2	            mov  ebx,   [eax]
 000006B9  8B 48 04	     2	            mov  ecx,  4[eax]
 000006BC  8B 50 08	     2	            mov  edx,  8[eax]
 000006BF  8B 78 0C	     2	            mov  edi, 12[eax]
 000006C2  8B 70 10	     2	            mov  esi, 16[eax]
 000006C5  0F 0B	     2	        BYTE            0fh, 0bh            
 000006C7  0029		     2	        WORD            41               
 000006C9  5E		     2	        pop  esi
 000006CA  5F		     2	        pop  edi
 000006CB  5B		     2	        pop  ebx
 000006CC  C3		     2	        ret
 000006CD		     2	        OZ_42   LABEL PROC
 000006CD  8D 44 24 04	     2	        lea  eax,  4[esp]
 000006D1  53		     2	        push ebx
 000006D2  57		     2	        push edi
 000006D3  56		     2	        push esi
 000006D4  8B 18	     2	            mov  ebx,   [eax]
 000006D6  8B 48 04	     2	            mov  ecx,  4[eax]
 000006D9  8B 50 08	     2	            mov  edx,  8[eax]
 000006DC  8B 78 0C	     2	            mov  edi, 12[eax]
 000006DF  8B 70 10	     2	            mov  esi, 16[eax]
 000006E2  0F 0B	     2	        BYTE            0fh, 0bh            
 000006E4  002A		     2	        WORD            42               
 000006E6  5E		     2	        pop  esi
 000006E7  5F		     2	        pop  edi
 000006E8  5B		     2	        pop  ebx
 000006E9  C3		     2	        ret
 000006EA		     2	        OZ_43   LABEL PROC
 000006EA  8D 44 24 04	     2	        lea  eax,  4[esp]
 000006EE  53		     2	        push ebx
 000006EF  57		     2	        push edi
 000006F0  56		     2	        push esi
 000006F1  8B 18	     2	            mov  ebx,   [eax]
 000006F3  8B 48 04	     2	            mov  ecx,  4[eax]
 000006F6  8B 50 08	     2	            mov  edx,  8[eax]
 000006F9  8B 78 0C	     2	            mov  edi, 12[eax]
 000006FC  8B 70 10	     2	            mov  esi, 16[eax]
 000006FF  0F 0B	     2	        BYTE            0fh, 0bh            
 00000701  002B		     2	        WORD            43               
 00000703  5E		     2	        pop  esi
 00000704  5F		     2	        pop  edi
 00000705  5B		     2	        pop  ebx
 00000706  C3		     2	        ret
 00000707		     2	        OZ_44   LABEL PROC
 00000707  8D 44 24 04	     2	        lea  eax,  4[esp]
 0000070B  53		     2	        push ebx
 0000070C  57		     2	        push edi
 0000070D  56		     2	        push esi
 0000070E  8B 18	     2	            mov  ebx,   [eax]
 00000710  8B 48 04	     2	            mov  ecx,  4[eax]
 00000713  8B 50 08	     2	            mov  edx,  8[eax]
 00000716  8B 78 0C	     2	            mov  edi, 12[eax]
 00000719  8B 70 10	     2	            mov  esi, 16[eax]
 0000071C  0F 0B	     2	        BYTE            0fh, 0bh            
 0000071E  002C		     2	        WORD            44               
 00000720  5E		     2	        pop  esi
 00000721  5F		     2	        pop  edi
 00000722  5B		     2	        pop  ebx
 00000723  C3		     2	        ret
 00000724		     2	        OZ_45   LABEL PROC
 00000724  8D 44 24 04	     2	        lea  eax,  4[esp]
 00000728  53		     2	        push ebx
 00000729  57		     2	        push edi
 0000072A  56		     2	        push esi
 0000072B  8B 18	     2	            mov  ebx,   [eax]
 0000072D  8B 48 04	     2	            mov  ecx,  4[eax]
 00000730  8B 50 08	     2	            mov  edx,  8[eax]
 00000733  8B 78 0C	     2	            mov  edi, 12[eax]
 00000736  8B 70 10	     2	            mov  esi, 16[eax]
 00000739  0F 0B	     2	        BYTE            0fh, 0bh            
 0000073B  002D		     2	        WORD            45               
 0000073D  5E		     2	        pop  esi
 0000073E  5F		     2	        pop  edi
 0000073F  5B		     2	        pop  ebx
 00000740  C3		     2	        ret
 00000741		     2	        OZ_46   LABEL PROC
 00000741  8D 44 24 04	     2	        lea  eax,  4[esp]
 00000745  53		     2	        push ebx
 00000746  57		     2	        push edi
 00000747  56		     2	        push esi
 00000748  8B 18	     2	            mov  ebx,   [eax]
 0000074A  8B 48 04	     2	            mov  ecx,  4[eax]
 0000074D  8B 50 08	     2	            mov  edx,  8[eax]
 00000750  8B 78 0C	     2	            mov  edi, 12[eax]
 00000753  8B 70 10	     2	            mov  esi, 16[eax]
 00000756  0F 0B	     2	        BYTE            0fh, 0bh            
 00000758  002E		     2	        WORD            46               
 0000075A  5E		     2	        pop  esi
 0000075B  5F		     2	        pop  edi
 0000075C  5B		     2	        pop  ebx
 0000075D  C3		     2	        ret
 0000075E		     2	        OZ_47   LABEL PROC
 0000075E  8D 44 24 04	     2	        lea  eax,  4[esp]
 00000762  53		     2	        push ebx
 00000763  57		     2	        push edi
 00000764  56		     2	        push esi
 00000765  8B 18	     2	            mov  ebx,   [eax]
 00000767  8B 48 04	     2	            mov  ecx,  4[eax]
 0000076A  8B 50 08	     2	            mov  edx,  8[eax]
 0000076D  8B 78 0C	     2	            mov  edi, 12[eax]
 00000770  8B 70 10	     2	            mov  esi, 16[eax]
 00000773  0F 0B	     2	        BYTE            0fh, 0bh            
 00000775  002F		     2	        WORD            47               
 00000777  5E		     2	        pop  esi
 00000778  5F		     2	        pop  edi
 00000779  5B		     2	        pop  ebx
 0000077A  C3		     2	        ret
 0000077B		     2	        OZ_48   LABEL PROC
 0000077B  8D 44 24 04	     2	        lea  eax,  4[esp]
 0000077F  53		     2	        push ebx
 00000780  57		     2	        push edi
 00000781  56		     2	        push esi
 00000782  8B 18	     2	            mov  ebx,   [eax]
 00000784  8B 48 04	     2	            mov  ecx,  4[eax]
 00000787  8B 50 08	     2	            mov  edx,  8[eax]
 0000078A  8B 78 0C	     2	            mov  edi, 12[eax]
 0000078D  8B 70 10	     2	            mov  esi, 16[eax]
 00000790  0F 0B	     2	        BYTE            0fh, 0bh            
 00000792  0030		     2	        WORD            48               
 00000794  5E		     2	        pop  esi
 00000795  5F		     2	        pop  edi
 00000796  5B		     2	        pop  ebx
 00000797  C3		     2	        ret
 00000798		     2	        OZ_49   LABEL PROC
 00000798  8D 44 24 04	     2	        lea  eax,  4[esp]
 0000079C  53		     2	        push ebx
 0000079D  57		     2	        push edi
 0000079E  56		     2	        push esi
 0000079F  8B 18	     2	            mov  ebx,   [eax]
 000007A1  8B 48 04	     2	            mov  ecx,  4[eax]
 000007A4  8B 50 08	     2	            mov  edx,  8[eax]
 000007A7  8B 78 0C	     2	            mov  edi, 12[eax]
 000007AA  8B 70 10	     2	            mov  esi, 16[eax]
 000007AD  0F 0B	     2	        BYTE            0fh, 0bh            
 000007AF  0031		     2	        WORD            49               
 000007B1  5E		     2	        pop  esi
 000007B2  5F		     2	        pop  edi
 000007B3  5B		     2	        pop  ebx
 000007B4  C3		     2	        ret
 000007B5		     2	        OZ_50   LABEL PROC
 000007B5  8D 44 24 04	     2	        lea  eax,  4[esp]
 000007B9  53		     2	        push ebx
 000007BA  57		     2	        push edi
 000007BB  56		     2	        push esi
 000007BC  8B 18	     2	            mov  ebx,   [eax]
 000007BE  8B 48 04	     2	            mov  ecx,  4[eax]
 000007C1  8B 50 08	     2	            mov  edx,  8[eax]
 000007C4  8B 78 0C	     2	            mov  edi, 12[eax]
 000007C7  8B 70 10	     2	            mov  esi, 16[eax]
 000007CA  0F 0B	     2	        BYTE            0fh, 0bh            
 000007CC  0032		     2	        WORD            50               
 000007CE  5E		     2	        pop  esi
 000007CF  5F		     2	        pop  edi
 000007D0  5B		     2	        pop  ebx
 000007D1  C3		     2	        ret
 000007D2		     2	        OZ_51   LABEL PROC
 000007D2  8D 44 24 04	     2	        lea  eax,  4[esp]
 000007D6  53		     2	        push ebx
 000007D7  57		     2	        push edi
 000007D8  56		     2	        push esi
 000007D9  8B 18	     2	            mov  ebx,   [eax]
 000007DB  8B 48 04	     2	            mov  ecx,  4[eax]
 000007DE  8B 50 08	     2	            mov  edx,  8[eax]
 000007E1  8B 78 0C	     2	            mov  edi, 12[eax]
 000007E4  8B 70 10	     2	            mov  esi, 16[eax]
 000007E7  0F 0B	     2	        BYTE            0fh, 0bh            
 000007E9  0033		     2	        WORD            51               
 000007EB  5E		     2	        pop  esi
 000007EC  5F		     2	        pop  edi
 000007ED  5B		     2	        pop  ebx
 000007EE  C3		     2	        ret
 000007EF		     2	        OZ_52   LABEL PROC
 000007EF  8D 44 24 04	     2	        lea  eax,  4[esp]
 000007F3  53		     2	        push ebx
 000007F4  57		     2	        push edi
 000007F5  56		     2	        push esi
 000007F6  8B 18	     2	            mov  ebx,   [eax]
 000007F8  8B 48 04	     2	            mov  ecx,  4[eax]
 000007FB  8B 50 08	     2	            mov  edx,  8[eax]
 000007FE  8B 78 0C	     2	            mov  edi, 12[eax]
 00000801  8B 70 10	     2	            mov  esi, 16[eax]
 00000804  0F 0B	     2	        BYTE            0fh, 0bh            
 00000806  0034		     2	        WORD            52               
 00000808  5E		     2	        pop  esi
 00000809  5F		     2	        pop  edi
 0000080A  5B		     2	        pop  ebx
 0000080B  C3		     2	        ret
 0000080C		     2	        OZ_53   LABEL PROC
 0000080C  8D 44 24 04	     2	        lea  eax,  4[esp]
 00000810  53		     2	        push ebx
 00000811  57		     2	        push edi
 00000812  56		     2	        push esi
 00000813  8B 18	     2	            mov  ebx,   [eax]
 00000815  8B 48 04	     2	            mov  ecx,  4[eax]
 00000818  8B 50 08	     2	            mov  edx,  8[eax]
 0000081B  8B 78 0C	     2	            mov  edi, 12[eax]
 0000081E  8B 70 10	     2	            mov  esi, 16[eax]
 00000821  0F 0B	     2	        BYTE            0fh, 0bh            
 00000823  0035		     2	        WORD            53               
 00000825  5E		     2	        pop  esi
 00000826  5F		     2	        pop  edi
 00000827  5B		     2	        pop  ebx
 00000828  C3		     2	        ret
 00000829		     2	        OZ_54   LABEL PROC
 00000829  8D 44 24 04	     2	        lea  eax,  4[esp]
 0000082D  53		     2	        push ebx
 0000082E  57		     2	        push edi
 0000082F  56		     2	        push esi
 00000830  8B 18	     2	            mov  ebx,   [eax]
 00000832  8B 48 04	     2	            mov  ecx,  4[eax]
 00000835  8B 50 08	     2	            mov  edx,  8[eax]
 00000838  8B 78 0C	     2	            mov  edi, 12[eax]
 0000083B  8B 70 10	     2	            mov  esi, 16[eax]
 0000083E  0F 0B	     2	        BYTE            0fh, 0bh            
 00000840  0036		     2	        WORD            54               
 00000842  5E		     2	        pop  esi
 00000843  5F		     2	        pop  edi
 00000844  5B		     2	        pop  ebx
 00000845  C3		     2	        ret
 00000846		     2	        OZ_55   LABEL PROC
 00000846  8D 44 24 04	     2	        lea  eax,  4[esp]
 0000084A  53		     2	        push ebx
 0000084B  57		     2	        push edi
 0000084C  56		     2	        push esi
 0000084D  8B 18	     2	            mov  ebx,   [eax]
 0000084F  8B 48 04	     2	            mov  ecx,  4[eax]
 00000852  8B 50 08	     2	            mov  edx,  8[eax]
 00000855  8B 78 0C	     2	            mov  edi, 12[eax]
 00000858  8B 70 10	     2	            mov  esi, 16[eax]
 0000085B  0F 0B	     2	        BYTE            0fh, 0bh            
 0000085D  0037		     2	        WORD            55               
 0000085F  5E		     2	        pop  esi
 00000860  5F		     2	        pop  edi
 00000861  5B		     2	        pop  ebx
 00000862  C3		     2	        ret
 00000863		     2	        OZ_56   LABEL PROC
 00000863  8D 44 24 04	     2	        lea  eax,  4[esp]
 00000867  53		     2	        push ebx
 00000868  57		     2	        push edi
 00000869  56		     2	        push esi
 0000086A  8B 18	     2	            mov  ebx,   [eax]
 0000086C  8B 48 04	     2	            mov  ecx,  4[eax]
 0000086F  8B 50 08	     2	            mov  edx,  8[eax]
 00000872  8B 78 0C	     2	            mov  edi, 12[eax]
 00000875  8B 70 10	     2	            mov  esi, 16[eax]
 00000878  0F 0B	     2	        BYTE            0fh, 0bh            
 0000087A  0038		     2	        WORD            56               
 0000087C  5E		     2	        pop  esi
 0000087D  5F		     2	        pop  edi
 0000087E  5B		     2	        pop  ebx
 0000087F  C3		     2	        ret
 00000880		     2	        OZ_57   LABEL PROC
 00000880  8D 44 24 04	     2	        lea  eax,  4[esp]
 00000884  53		     2	        push ebx
 00000885  57		     2	        push edi
 00000886  56		     2	        push esi
 00000887  8B 18	     2	            mov  ebx,   [eax]
 00000889  8B 48 04	     2	            mov  ecx,  4[eax]
 0000088C  8B 50 08	     2	            mov  edx,  8[eax]
 0000088F  8B 78 0C	     2	            mov  edi, 12[eax]
 00000892  8B 70 10	     2	            mov  esi, 16[eax]
 00000895  0F 0B	     2	        BYTE            0fh, 0bh            
 00000897  0039		     2	        WORD            57               
 00000899  5E		     2	        pop  esi
 0000089A  5F		     2	        pop  edi
 0000089B  5B		     2	        pop  ebx
 0000089C  C3		     2	        ret
 0000089D		     2	        OZ_58   LABEL PROC
 0000089D  8D 44 24 04	     2	        lea  eax,  4[esp]
 000008A1  53		     2	        push ebx
 000008A2  57		     2	        push edi
 000008A3  56		     2	        push esi
 000008A4  8B 18	     2	            mov  ebx,   [eax]
 000008A6  8B 48 04	     2	            mov  ecx,  4[eax]
 000008A9  8B 50 08	     2	            mov  edx,  8[eax]
 000008AC  8B 78 0C	     2	            mov  edi, 12[eax]
 000008AF  8B 70 10	     2	            mov  esi, 16[eax]
 000008B2  0F 0B	     2	        BYTE            0fh, 0bh            
 000008B4  003A		     2	        WORD            58               
 000008B6  5E		     2	        pop  esi
 000008B7  5F		     2	        pop  edi
 000008B8  5B		     2	        pop  ebx
 000008B9  C3		     2	        ret
 000008BA		     2	        OZ_59   LABEL PROC
 000008BA  8D 44 24 04	     2	        lea  eax,  4[esp]
 000008BE  53		     2	        push ebx
 000008BF  57		     2	        push edi
 000008C0  56		     2	        push esi
 000008C1  8B 18	     2	            mov  ebx,   [eax]
 000008C3  8B 48 04	     2	            mov  ecx,  4[eax]
 000008C6  8B 50 08	     2	            mov  edx,  8[eax]
 000008C9  8B 78 0C	     2	            mov  edi, 12[eax]
 000008CC  8B 70 10	     2	            mov  esi, 16[eax]
 000008CF  0F 0B	     2	        BYTE            0fh, 0bh            
 000008D1  003B		     2	        WORD            59               
 000008D3  5E		     2	        pop  esi
 000008D4  5F		     2	        pop  edi
 000008D5  5B		     2	        pop  ebx
 000008D6  C3		     2	        ret
 000008D7		     2	        OZ_60   LABEL PROC
 000008D7  8D 44 24 04	     2	        lea  eax,  4[esp]
 000008DB  53		     2	        push ebx
 000008DC  57		     2	        push edi
 000008DD  56		     2	        push esi
 000008DE  8B 18	     2	            mov  ebx,   [eax]
 000008E0  8B 48 04	     2	            mov  ecx,  4[eax]
 000008E3  8B 50 08	     2	            mov  edx,  8[eax]
 000008E6  8B 78 0C	     2	            mov  edi, 12[eax]
 000008E9  8B 70 10	     2	            mov  esi, 16[eax]
 000008EC  0F 0B	     2	        BYTE            0fh, 0bh            
 000008EE  003C		     2	        WORD            60               
 000008F0  5E		     2	        pop  esi
 000008F1  5F		     2	        pop  edi
 000008F2  5B		     2	        pop  ebx
 000008F3  C3		     2	        ret
 000008F4		     2	        OZ_61   LABEL PROC
 000008F4  8D 44 24 04	     2	        lea  eax,  4[esp]
 000008F8  53		     2	        push ebx
 000008F9  57		     2	        push edi
 000008FA  56		     2	        push esi
 000008FB  8B 18	     2	            mov  ebx,   [eax]
 000008FD  8B 48 04	     2	            mov  ecx,  4[eax]
 00000900  8B 50 08	     2	            mov  edx,  8[eax]
 00000903  8B 78 0C	     2	            mov  edi, 12[eax]
 00000906  8B 70 10	     2	            mov  esi, 16[eax]
 00000909  0F 0B	     2	        BYTE            0fh, 0bh            
 0000090B  003D		     2	        WORD            61               
 0000090D  5E		     2	        pop  esi
 0000090E  5F		     2	        pop  edi
 0000090F  5B		     2	        pop  ebx
 00000910  C3		     2	        ret
 00000911		     2	        OZ_62   LABEL PROC
 00000911  8D 44 24 04	     2	        lea  eax,  4[esp]
 00000915  53		     2	        push ebx
 00000916  57		     2	        push edi
 00000917  56		     2	        push esi
 00000918  8B 18	     2	            mov  ebx,   [eax]
 0000091A  8B 48 04	     2	            mov  ecx,  4[eax]
 0000091D  8B 50 08	     2	            mov  edx,  8[eax]
 00000920  8B 78 0C	     2	            mov  edi, 12[eax]
 00000923  8B 70 10	     2	            mov  esi, 16[eax]
 00000926  0F 0B	     2	        BYTE            0fh, 0bh            
 00000928  003E		     2	        WORD            62               
 0000092A  5E		     2	        pop  esi
 0000092B  5F		     2	        pop  edi
 0000092C  5B		     2	        pop  ebx
 0000092D  C3		     2	        ret
 0000092E		     2	        OZ_63   LABEL PROC
 0000092E  8D 44 24 04	     2	        lea  eax,  4[esp]
 00000932  53		     2	        push ebx
 00000933  57		     2	        push edi
 00000934  56		     2	        push esi
 00000935  8B 18	     2	            mov  ebx,   [eax]
 00000937  8B 48 04	     2	            mov  ecx,  4[eax]
 0000093A  8B 50 08	     2	            mov  edx,  8[eax]
 0000093D  8B 78 0C	     2	            mov  edi, 12[eax]
 00000940  8B 70 10	     2	            mov  esi, 16[eax]
 00000943  0F 0B	     2	        BYTE            0fh, 0bh            
 00000945  003F		     2	        WORD            63               
 00000947  5E		     2	        pop  esi
 00000948  5F		     2	        pop  edi
 00000949  5B		     2	        pop  ebx
 0000094A  C3		     2	        ret
 0000094B		     2	        OZ_64   LABEL PROC
 0000094B  8D 44 24 04	     2	        lea  eax,  4[esp]
 0000094F  53		     2	        push ebx
 00000950  57		     2	        push edi
 00000951  56		     2	        push esi
 00000952  8B 18	     2	            mov  ebx,   [eax]
 00000954  8B 48 04	     2	            mov  ecx,  4[eax]
 00000957  8B 50 08	     2	            mov  edx,  8[eax]
 0000095A  8B 78 0C	     2	            mov  edi, 12[eax]
 0000095D  8B 70 10	     2	            mov  esi, 16[eax]
 00000960  0F 0B	     2	        BYTE            0fh, 0bh            
 00000962  0040		     2	        WORD            64               
 00000964  5E		     2	        pop  esi
 00000965  5F		     2	        pop  edi
 00000966  5B		     2	        pop  ebx
 00000967  C3		     2	        ret
 00000968		     2	        OZ_65   LABEL PROC
 00000968  8D 44 24 04	     2	        lea  eax,  4[esp]
 0000096C  53		     2	        push ebx
 0000096D  57		     2	        push edi
 0000096E  56		     2	        push esi
 0000096F  8B 18	     2	            mov  ebx,   [eax]
 00000971  8B 48 04	     2	            mov  ecx,  4[eax]
 00000974  8B 50 08	     2	            mov  edx,  8[eax]
 00000977  8B 78 0C	     2	            mov  edi, 12[eax]
 0000097A  8B 70 10	     2	            mov  esi, 16[eax]
 0000097D  0F 0B	     2	        BYTE            0fh, 0bh            
 0000097F  0041		     2	        WORD            65               
 00000981  5E		     2	        pop  esi
 00000982  5F		     2	        pop  edi
 00000983  5B		     2	        pop  ebx
 00000984  C3		     2	        ret
 00000985		     2	        OZ_66   LABEL PROC
 00000985  8D 44 24 04	     2	        lea  eax,  4[esp]
 00000989  53		     2	        push ebx
 0000098A  57		     2	        push edi
 0000098B  56		     2	        push esi
 0000098C  8B 18	     2	            mov  ebx,   [eax]
 0000098E  8B 48 04	     2	            mov  ecx,  4[eax]
 00000991  8B 50 08	     2	            mov  edx,  8[eax]
 00000994  8B 78 0C	     2	            mov  edi, 12[eax]
 00000997  8B 70 10	     2	            mov  esi, 16[eax]
 0000099A  0F 0B	     2	        BYTE            0fh, 0bh            
 0000099C  0042		     2	        WORD            66               
 0000099E  5E		     2	        pop  esi
 0000099F  5F		     2	        pop  edi
 000009A0  5B		     2	        pop  ebx
 000009A1  C3		     2	        ret
 000009A2		     2	        OZ_67   LABEL PROC
 000009A2  8D 44 24 04	     2	        lea  eax,  4[esp]
 000009A6  53		     2	        push ebx
 000009A7  57		     2	        push edi
 000009A8  56		     2	        push esi
 000009A9  8B 18	     2	            mov  ebx,   [eax]
 000009AB  8B 48 04	     2	            mov  ecx,  4[eax]
 000009AE  8B 50 08	     2	            mov  edx,  8[eax]
 000009B1  8B 78 0C	     2	            mov  edi, 12[eax]
 000009B4  8B 70 10	     2	            mov  esi, 16[eax]
 000009B7  0F 0B	     2	        BYTE            0fh, 0bh            
 000009B9  0043		     2	        WORD            67               
 000009BB  5E		     2	        pop  esi
 000009BC  5F		     2	        pop  edi
 000009BD  5B		     2	        pop  ebx
 000009BE  C3		     2	        ret
 000009BF		     2	        OZ_68   LABEL PROC
 000009BF  8D 44 24 04	     2	        lea  eax,  4[esp]
 000009C3  53		     2	        push ebx
 000009C4  57		     2	        push edi
 000009C5  56		     2	        push esi
 000009C6  8B 18	     2	            mov  ebx,   [eax]
 000009C8  8B 48 04	     2	            mov  ecx,  4[eax]
 000009CB  8B 50 08	     2	            mov  edx,  8[eax]
 000009CE  8B 78 0C	     2	            mov  edi, 12[eax]
 000009D1  8B 70 10	     2	            mov  esi, 16[eax]
 000009D4  0F 0B	     2	        BYTE            0fh, 0bh            
 000009D6  0044		     2	        WORD            68               
 000009D8  5E		     2	        pop  esi
 000009D9  5F		     2	        pop  edi
 000009DA  5B		     2	        pop  ebx
 000009DB  C3		     2	        ret
 000009DC		     2	        OZ_69   LABEL PROC
 000009DC  8D 44 24 04	     2	        lea  eax,  4[esp]
 000009E0  53		     2	        push ebx
 000009E1  57		     2	        push edi
 000009E2  56		     2	        push esi
 000009E3  8B 18	     2	            mov  ebx,   [eax]
 000009E5  8B 48 04	     2	            mov  ecx,  4[eax]
 000009E8  8B 50 08	     2	            mov  edx,  8[eax]
 000009EB  8B 78 0C	     2	            mov  edi, 12[eax]
 000009EE  8B 70 10	     2	            mov  esi, 16[eax]
 000009F1  0F 0B	     2	        BYTE            0fh, 0bh            
 000009F3  0045		     2	        WORD            69               
 000009F5  5E		     2	        pop  esi
 000009F6  5F		     2	        pop  edi
 000009F7  5B		     2	        pop  ebx
 000009F8  C3		     2	        ret
 000009F9		     2	        OZ_70   LABEL PROC
 000009F9  8D 44 24 04	     2	        lea  eax,  4[esp]
 000009FD  53		     2	        push ebx
 000009FE  57		     2	        push edi
 000009FF  56		     2	        push esi
 00000A00  8B 18	     2	            mov  ebx,   [eax]
 00000A02  8B 48 04	     2	            mov  ecx,  4[eax]
 00000A05  8B 50 08	     2	            mov  edx,  8[eax]
 00000A08  8B 78 0C	     2	            mov  edi, 12[eax]
 00000A0B  8B 70 10	     2	            mov  esi, 16[eax]
 00000A0E  0F 0B	     2	        BYTE            0fh, 0bh            
 00000A10  0046		     2	        WORD            70               
 00000A12  5E		     2	        pop  esi
 00000A13  5F		     2	        pop  edi
 00000A14  5B		     2	        pop  ebx
 00000A15  C3		     2	        ret
 00000A16		     2	        OZ_71   LABEL PROC
 00000A16  8D 44 24 04	     2	        lea  eax,  4[esp]
 00000A1A  53		     2	        push ebx
 00000A1B  57		     2	        push edi
 00000A1C  56		     2	        push esi
 00000A1D  8B 18	     2	            mov  ebx,   [eax]
 00000A1F  8B 48 04	     2	            mov  ecx,  4[eax]
 00000A22  8B 50 08	     2	            mov  edx,  8[eax]
 00000A25  8B 78 0C	     2	            mov  edi, 12[eax]
 00000A28  8B 70 10	     2	            mov  esi, 16[eax]
 00000A2B  0F 0B	     2	        BYTE            0fh, 0bh            
 00000A2D  0047		     2	        WORD            71               
 00000A2F  5E		     2	        pop  esi
 00000A30  5F		     2	        pop  edi
 00000A31  5B		     2	        pop  ebx
 00000A32  C3		     2	        ret
 00000A33		     2	        OZ_72   LABEL PROC
 00000A33  8D 44 24 04	     2	        lea  eax,  4[esp]
 00000A37  53		     2	        push ebx
 00000A38  57		     2	        push edi
 00000A39  56		     2	        push esi
 00000A3A  8B 18	     2	            mov  ebx,   [eax]
 00000A3C  8B 48 04	     2	            mov  ecx,  4[eax]
 00000A3F  8B 50 08	     2	            mov  edx,  8[eax]
 00000A42  8B 78 0C	     2	            mov  edi, 12[eax]
 00000A45  8B 70 10	     2	            mov  esi, 16[eax]
 00000A48  0F 0B	     2	        BYTE            0fh, 0bh            
 00000A4A  0048		     2	        WORD            72               
 00000A4C  5E		     2	        pop  esi
 00000A4D  5F		     2	        pop  edi
 00000A4E  5B		     2	        pop  ebx
 00000A4F  C3		     2	        ret
 00000A50		     2	        OZ_73   LABEL PROC
 00000A50  8D 44 24 04	     2	        lea  eax,  4[esp]
 00000A54  53		     2	        push ebx
 00000A55  57		     2	        push edi
 00000A56  56		     2	        push esi
 00000A57  8B 18	     2	            mov  ebx,   [eax]
 00000A59  8B 48 04	     2	            mov  ecx,  4[eax]
 00000A5C  8B 50 08	     2	            mov  edx,  8[eax]
 00000A5F  8B 78 0C	     2	            mov  edi, 12[eax]
 00000A62  8B 70 10	     2	            mov  esi, 16[eax]
 00000A65  0F 0B	     2	        BYTE            0fh, 0bh            
 00000A67  0049		     2	        WORD            73               
 00000A69  5E		     2	        pop  esi
 00000A6A  5F		     2	        pop  edi
 00000A6B  5B		     2	        pop  ebx
 00000A6C  C3		     2	        ret
 00000A6D		     2	        OZ_74   LABEL PROC
 00000A6D  8D 44 24 04	     2	        lea  eax,  4[esp]
 00000A71  53		     2	        push ebx
 00000A72  57		     2	        push edi
 00000A73  56		     2	        push esi
 00000A74  8B 18	     2	            mov  ebx,   [eax]
 00000A76  8B 48 04	     2	            mov  ecx,  4[eax]
 00000A79  8B 50 08	     2	            mov  edx,  8[eax]
 00000A7C  8B 78 0C	     2	            mov  edi, 12[eax]
 00000A7F  8B 70 10	     2	            mov  esi, 16[eax]
 00000A82  0F 0B	     2	        BYTE            0fh, 0bh            
 00000A84  004A		     2	        WORD            74               
 00000A86  5E		     2	        pop  esi
 00000A87  5F		     2	        pop  edi
 00000A88  5B		     2	        pop  ebx
 00000A89  C3		     2	        ret
 00000A8A		     2	        OZ_75   LABEL PROC
 00000A8A  8D 44 24 04	     2	        lea  eax,  4[esp]
 00000A8E  53		     2	        push ebx
 00000A8F  57		     2	        push edi
 00000A90  56		     2	        push esi
 00000A91  8B 18	     2	            mov  ebx,   [eax]
 00000A93  8B 48 04	     2	            mov  ecx,  4[eax]
 00000A96  8B 50 08	     2	            mov  edx,  8[eax]
 00000A99  8B 78 0C	     2	            mov  edi, 12[eax]
 00000A9C  8B 70 10	     2	            mov  esi, 16[eax]
 00000A9F  0F 0B	     2	        BYTE            0fh, 0bh            
 00000AA1  004B		     2	        WORD            75               
 00000AA3  5E		     2	        pop  esi
 00000AA4  5F		     2	        pop  edi
 00000AA5  5B		     2	        pop  ebx
 00000AA6  C3		     2	        ret
 00000AA7		     2	        OZ_76   LABEL PROC
 00000AA7  8D 44 24 04	     2	        lea  eax,  4[esp]
 00000AAB  53		     2	        push ebx
 00000AAC  57		     2	        push edi
 00000AAD  56		     2	        push esi
 00000AAE  8B 18	     2	            mov  ebx,   [eax]
 00000AB0  8B 48 04	     2	            mov  ecx,  4[eax]
 00000AB3  8B 50 08	     2	            mov  edx,  8[eax]
 00000AB6  8B 78 0C	     2	            mov  edi, 12[eax]
 00000AB9  8B 70 10	     2	            mov  esi, 16[eax]
 00000ABC  0F 0B	     2	        BYTE            0fh, 0bh            
 00000ABE  004C		     2	        WORD            76               
 00000AC0  5E		     2	        pop  esi
 00000AC1  5F		     2	        pop  edi
 00000AC2  5B		     2	        pop  ebx
 00000AC3  C3		     2	        ret
 00000AC4		     2	        OZ_77   LABEL PROC
 00000AC4  8D 44 24 04	     2	        lea  eax,  4[esp]
 00000AC8  53		     2	        push ebx
 00000AC9  57		     2	        push edi
 00000ACA  56		     2	        push esi
 00000ACB  8B 18	     2	            mov  ebx,   [eax]
 00000ACD  8B 48 04	     2	            mov  ecx,  4[eax]
 00000AD0  8B 50 08	     2	            mov  edx,  8[eax]
 00000AD3  8B 78 0C	     2	            mov  edi, 12[eax]
 00000AD6  8B 70 10	     2	            mov  esi, 16[eax]
 00000AD9  0F 0B	     2	        BYTE            0fh, 0bh            
 00000ADB  004D		     2	        WORD            77               
 00000ADD  5E		     2	        pop  esi
 00000ADE  5F		     2	        pop  edi
 00000ADF  5B		     2	        pop  ebx
 00000AE0  C3		     2	        ret
 00000AE1		     2	        OZ_78   LABEL PROC
 00000AE1  8D 44 24 04	     2	        lea  eax,  4[esp]
 00000AE5  53		     2	        push ebx
 00000AE6  57		     2	        push edi
 00000AE7  56		     2	        push esi
 00000AE8  8B 18	     2	            mov  ebx,   [eax]
 00000AEA  8B 48 04	     2	            mov  ecx,  4[eax]
 00000AED  8B 50 08	     2	            mov  edx,  8[eax]
 00000AF0  8B 78 0C	     2	            mov  edi, 12[eax]
 00000AF3  8B 70 10	     2	            mov  esi, 16[eax]
 00000AF6  0F 0B	     2	        BYTE            0fh, 0bh            
 00000AF8  004E		     2	        WORD            78               
 00000AFA  5E		     2	        pop  esi
 00000AFB  5F		     2	        pop  edi
 00000AFC  5B		     2	        pop  ebx
 00000AFD  C3		     2	        ret
 00000AFE		     2	        OZ_79   LABEL PROC
 00000AFE  8D 44 24 04	     2	        lea  eax,  4[esp]
 00000B02  53		     2	        push ebx
 00000B03  57		     2	        push edi
 00000B04  56		     2	        push esi
 00000B05  8B 18	     2	            mov  ebx,   [eax]
 00000B07  8B 48 04	     2	            mov  ecx,  4[eax]
 00000B0A  8B 50 08	     2	            mov  edx,  8[eax]
 00000B0D  8B 78 0C	     2	            mov  edi, 12[eax]
 00000B10  8B 70 10	     2	            mov  esi, 16[eax]
 00000B13  0F 0B	     2	        BYTE            0fh, 0bh            
 00000B15  004F		     2	        WORD            79               
 00000B17  5E		     2	        pop  esi
 00000B18  5F		     2	        pop  edi
 00000B19  5B		     2	        pop  ebx
 00000B1A  C3		     2	        ret
 00000B1B		     2	        OZ_80   LABEL PROC
 00000B1B  8D 44 24 04	     2	        lea  eax,  4[esp]
 00000B1F  53		     2	        push ebx
 00000B20  57		     2	        push edi
 00000B21  56		     2	        push esi
 00000B22  8B 18	     2	            mov  ebx,   [eax]
 00000B24  8B 48 04	     2	            mov  ecx,  4[eax]
 00000B27  8B 50 08	     2	            mov  edx,  8[eax]
 00000B2A  8B 78 0C	     2	            mov  edi, 12[eax]
 00000B2D  8B 70 10	     2	            mov  esi, 16[eax]
 00000B30  0F 0B	     2	        BYTE            0fh, 0bh            
 00000B32  0050		     2	        WORD            80               
 00000B34  5E		     2	        pop  esi
 00000B35  5F		     2	        pop  edi
 00000B36  5B		     2	        pop  ebx
 00000B37  C3		     2	        ret
 00000B38		     2	        OZ_81   LABEL PROC
 00000B38  8D 44 24 04	     2	        lea  eax,  4[esp]
 00000B3C  53		     2	        push ebx
 00000B3D  57		     2	        push edi
 00000B3E  56		     2	        push esi
 00000B3F  8B 18	     2	            mov  ebx,   [eax]
 00000B41  8B 48 04	     2	            mov  ecx,  4[eax]
 00000B44  8B 50 08	     2	            mov  edx,  8[eax]
 00000B47  8B 78 0C	     2	            mov  edi, 12[eax]
 00000B4A  8B 70 10	     2	            mov  esi, 16[eax]
 00000B4D  0F 0B	     2	        BYTE            0fh, 0bh            
 00000B4F  0051		     2	        WORD            81               
 00000B51  5E		     2	        pop  esi
 00000B52  5F		     2	        pop  edi
 00000B53  5B		     2	        pop  ebx
 00000B54  C3		     2	        ret
 00000B55		     2	        OZ_82   LABEL PROC
 00000B55  8D 44 24 04	     2	        lea  eax,  4[esp]
 00000B59  53		     2	        push ebx
 00000B5A  57		     2	        push edi
 00000B5B  56		     2	        push esi
 00000B5C  8B 18	     2	            mov  ebx,   [eax]
 00000B5E  8B 48 04	     2	            mov  ecx,  4[eax]
 00000B61  8B 50 08	     2	            mov  edx,  8[eax]
 00000B64  8B 78 0C	     2	            mov  edi, 12[eax]
 00000B67  8B 70 10	     2	            mov  esi, 16[eax]
 00000B6A  0F 0B	     2	        BYTE            0fh, 0bh            
 00000B6C  0052		     2	        WORD            82               
 00000B6E  5E		     2	        pop  esi
 00000B6F  5F		     2	        pop  edi
 00000B70  5B		     2	        pop  ebx
 00000B71  C3		     2	        ret
 00000B72		     2	        OZ_83   LABEL PROC
 00000B72  8D 44 24 04	     2	        lea  eax,  4[esp]
 00000B76  53		     2	        push ebx
 00000B77  57		     2	        push edi
 00000B78  56		     2	        push esi
 00000B79  8B 18	     2	            mov  ebx,   [eax]
 00000B7B  8B 48 04	     2	            mov  ecx,  4[eax]
 00000B7E  8B 50 08	     2	            mov  edx,  8[eax]
 00000B81  8B 78 0C	     2	            mov  edi, 12[eax]
 00000B84  8B 70 10	     2	            mov  esi, 16[eax]
 00000B87  0F 0B	     2	        BYTE            0fh, 0bh            
 00000B89  0053		     2	        WORD            83               
 00000B8B  5E		     2	        pop  esi
 00000B8C  5F		     2	        pop  edi
 00000B8D  5B		     2	        pop  ebx
 00000B8E  C3		     2	        ret
 00000B8F		     2	        OZ_84   LABEL PROC
 00000B8F  8D 44 24 04	     2	        lea  eax,  4[esp]
 00000B93  53		     2	        push ebx
 00000B94  57		     2	        push edi
 00000B95  56		     2	        push esi
 00000B96  8B 18	     2	            mov  ebx,   [eax]
 00000B98  8B 48 04	     2	            mov  ecx,  4[eax]
 00000B9B  8B 50 08	     2	            mov  edx,  8[eax]
 00000B9E  8B 78 0C	     2	            mov  edi, 12[eax]
 00000BA1  8B 70 10	     2	            mov  esi, 16[eax]
 00000BA4  0F 0B	     2	        BYTE            0fh, 0bh            
 00000BA6  0054		     2	        WORD            84               
 00000BA8  5E		     2	        pop  esi
 00000BA9  5F		     2	        pop  edi
 00000BAA  5B		     2	        pop  ebx
 00000BAB  C3		     2	        ret
 00000BAC		     2	        OZ_85   LABEL PROC
 00000BAC  8D 44 24 04	     2	        lea  eax,  4[esp]
 00000BB0  53		     2	        push ebx
 00000BB1  57		     2	        push edi
 00000BB2  56		     2	        push esi
 00000BB3  8B 18	     2	            mov  ebx,   [eax]
 00000BB5  8B 48 04	     2	            mov  ecx,  4[eax]
 00000BB8  8B 50 08	     2	            mov  edx,  8[eax]
 00000BBB  8B 78 0C	     2	            mov  edi, 12[eax]
 00000BBE  8B 70 10	     2	            mov  esi, 16[eax]
 00000BC1  0F 0B	     2	        BYTE            0fh, 0bh            
 00000BC3  0055		     2	        WORD            85               
 00000BC5  5E		     2	        pop  esi
 00000BC6  5F		     2	        pop  edi
 00000BC7  5B		     2	        pop  ebx
 00000BC8  C3		     2	        ret
 00000BC9		     2	        OZ_86   LABEL PROC
 00000BC9  8D 44 24 04	     2	        lea  eax,  4[esp]
 00000BCD  53		     2	        push ebx
 00000BCE  57		     2	        push edi
 00000BCF  56		     2	        push esi
 00000BD0  8B 18	     2	            mov  ebx,   [eax]
 00000BD2  8B 48 04	     2	            mov  ecx,  4[eax]
 00000BD5  8B 50 08	     2	            mov  edx,  8[eax]
 00000BD8  8B 78 0C	     2	            mov  edi, 12[eax]
 00000BDB  8B 70 10	     2	            mov  esi, 16[eax]
 00000BDE  0F 0B	     2	        BYTE            0fh, 0bh            
 00000BE0  0056		     2	        WORD            86               
 00000BE2  5E		     2	        pop  esi
 00000BE3  5F		     2	        pop  edi
 00000BE4  5B		     2	        pop  ebx
 00000BE5  C3		     2	        ret
 00000BE6		     2	        OZ_87   LABEL PROC
 00000BE6  8D 44 24 04	     2	        lea  eax,  4[esp]
 00000BEA  53		     2	        push ebx
 00000BEB  57		     2	        push edi
 00000BEC  56		     2	        push esi
 00000BED  8B 18	     2	            mov  ebx,   [eax]
 00000BEF  8B 48 04	     2	            mov  ecx,  4[eax]
 00000BF2  8B 50 08	     2	            mov  edx,  8[eax]
 00000BF5  8B 78 0C	     2	            mov  edi, 12[eax]
 00000BF8  8B 70 10	     2	            mov  esi, 16[eax]
 00000BFB  0F 0B	     2	        BYTE            0fh, 0bh            
 00000BFD  0057		     2	        WORD            87               
 00000BFF  5E		     2	        pop  esi
 00000C00  5F		     2	        pop  edi
 00000C01  5B		     2	        pop  ebx
 00000C02  C3		     2	        ret
 00000C03		     2	        OZ_88   LABEL PROC
 00000C03  8D 44 24 04	     2	        lea  eax,  4[esp]
 00000C07  53		     2	        push ebx
 00000C08  57		     2	        push edi
 00000C09  56		     2	        push esi
 00000C0A  8B 18	     2	            mov  ebx,   [eax]
 00000C0C  8B 48 04	     2	            mov  ecx,  4[eax]
 00000C0F  8B 50 08	     2	            mov  edx,  8[eax]
 00000C12  8B 78 0C	     2	            mov  edi, 12[eax]
 00000C15  8B 70 10	     2	            mov  esi, 16[eax]
 00000C18  0F 0B	     2	        BYTE            0fh, 0bh            
 00000C1A  0058		     2	        WORD            88               
 00000C1C  5E		     2	        pop  esi
 00000C1D  5F		     2	        pop  edi
 00000C1E  5B		     2	        pop  ebx
 00000C1F  C3		     2	        ret
 00000C20		     2	        OZ_89   LABEL PROC
 00000C20  8D 44 24 04	     2	        lea  eax,  4[esp]
 00000C24  53		     2	        push ebx
 00000C25  57		     2	        push edi
 00000C26  56		     2	        push esi
 00000C27  8B 18	     2	            mov  ebx,   [eax]
 00000C29  8B 48 04	     2	            mov  ecx,  4[eax]
 00000C2C  8B 50 08	     2	            mov  edx,  8[eax]
 00000C2F  8B 78 0C	     2	            mov  edi, 12[eax]
 00000C32  8B 70 10	     2	            mov  esi, 16[eax]
 00000C35  0F 0B	     2	        BYTE            0fh, 0bh            
 00000C37  0059		     2	        WORD            89               
 00000C39  5E		     2	        pop  esi
 00000C3A  5F		     2	        pop  edi
 00000C3B  5B		     2	        pop  ebx
 00000C3C  C3		     2	        ret
 00000C3D		     2	        OZ_90   LABEL PROC
 00000C3D  8D 44 24 04	     2	        lea  eax,  4[esp]
 00000C41  53		     2	        push ebx
 00000C42  57		     2	        push edi
 00000C43  56		     2	        push esi
 00000C44  8B 18	     2	            mov  ebx,   [eax]
 00000C46  8B 48 04	     2	            mov  ecx,  4[eax]
 00000C49  8B 50 08	     2	            mov  edx,  8[eax]
 00000C4C  8B 78 0C	     2	            mov  edi, 12[eax]
 00000C4F  8B 70 10	     2	            mov  esi, 16[eax]
 00000C52  0F 0B	     2	        BYTE            0fh, 0bh            
 00000C54  005A		     2	        WORD            90               
 00000C56  5E		     2	        pop  esi
 00000C57  5F		     2	        pop  edi
 00000C58  5B		     2	        pop  ebx
 00000C59  C3		     2	        ret
 00000C5A		     2	        OZ_91   LABEL PROC
 00000C5A  8D 44 24 04	     2	        lea  eax,  4[esp]
 00000C5E  53		     2	        push ebx
 00000C5F  57		     2	        push edi
 00000C60  56		     2	        push esi
 00000C61  8B 18	     2	            mov  ebx,   [eax]
 00000C63  8B 48 04	     2	            mov  ecx,  4[eax]
 00000C66  8B 50 08	     2	            mov  edx,  8[eax]
 00000C69  8B 78 0C	     2	            mov  edi, 12[eax]
 00000C6C  8B 70 10	     2	            mov  esi, 16[eax]
 00000C6F  0F 0B	     2	        BYTE            0fh, 0bh            
 00000C71  005B		     2	        WORD            91               
 00000C73  5E		     2	        pop  esi
 00000C74  5F		     2	        pop  edi
 00000C75  5B		     2	        pop  ebx
 00000C76  C3		     2	        ret
 00000C77		     2	        OZ_92   LABEL PROC
 00000C77  8D 44 24 04	     2	        lea  eax,  4[esp]
 00000C7B  53		     2	        push ebx
 00000C7C  57		     2	        push edi
 00000C7D  56		     2	        push esi
 00000C7E  8B 18	     2	            mov  ebx,   [eax]
 00000C80  8B 48 04	     2	            mov  ecx,  4[eax]
 00000C83  8B 50 08	     2	            mov  edx,  8[eax]
 00000C86  8B 78 0C	     2	            mov  edi, 12[eax]
 00000C89  8B 70 10	     2	            mov  esi, 16[eax]
 00000C8C  0F 0B	     2	        BYTE            0fh, 0bh            
 00000C8E  005C		     2	        WORD            92               
 00000C90  5E		     2	        pop  esi
 00000C91  5F		     2	        pop  edi
 00000C92  5B		     2	        pop  ebx
 00000C93  C3		     2	        ret
 00000C94		     2	        OZ_93   LABEL PROC
 00000C94  8D 44 24 04	     2	        lea  eax,  4[esp]
 00000C98  53		     2	        push ebx
 00000C99  57		     2	        push edi
 00000C9A  56		     2	        push esi
 00000C9B  8B 18	     2	            mov  ebx,   [eax]
 00000C9D  8B 48 04	     2	            mov  ecx,  4[eax]
 00000CA0  8B 50 08	     2	            mov  edx,  8[eax]
 00000CA3  8B 78 0C	     2	            mov  edi, 12[eax]
 00000CA6  8B 70 10	     2	            mov  esi, 16[eax]
 00000CA9  0F 0B	     2	        BYTE            0fh, 0bh            
 00000CAB  005D		     2	        WORD            93               
 00000CAD  5E		     2	        pop  esi
 00000CAE  5F		     2	        pop  edi
 00000CAF  5B		     2	        pop  ebx
 00000CB0  C3		     2	        ret
 00000CB1		     2	        OZ_94   LABEL PROC
 00000CB1  8D 44 24 04	     2	        lea  eax,  4[esp]
 00000CB5  53		     2	        push ebx
 00000CB6  57		     2	        push edi
 00000CB7  56		     2	        push esi
 00000CB8  8B 18	     2	            mov  ebx,   [eax]
 00000CBA  8B 48 04	     2	            mov  ecx,  4[eax]
 00000CBD  8B 50 08	     2	            mov  edx,  8[eax]
 00000CC0  8B 78 0C	     2	            mov  edi, 12[eax]
 00000CC3  8B 70 10	     2	            mov  esi, 16[eax]
 00000CC6  0F 0B	     2	        BYTE            0fh, 0bh            
 00000CC8  005E		     2	        WORD            94               
 00000CCA  5E		     2	        pop  esi
 00000CCB  5F		     2	        pop  edi
 00000CCC  5B		     2	        pop  ebx
 00000CCD  C3		     2	        ret
 00000CCE		     2	        OZ_95   LABEL PROC
 00000CCE  8D 44 24 04	     2	        lea  eax,  4[esp]
 00000CD2  53		     2	        push ebx
 00000CD3  57		     2	        push edi
 00000CD4  56		     2	        push esi
 00000CD5  8B 18	     2	            mov  ebx,   [eax]
 00000CD7  8B 48 04	     2	            mov  ecx,  4[eax]
 00000CDA  8B 50 08	     2	            mov  edx,  8[eax]
 00000CDD  8B 78 0C	     2	            mov  edi, 12[eax]
 00000CE0  8B 70 10	     2	            mov  esi, 16[eax]
 00000CE3  0F 0B	     2	        BYTE            0fh, 0bh            
 00000CE5  005F		     2	        WORD            95               
 00000CE7  5E		     2	        pop  esi
 00000CE8  5F		     2	        pop  edi
 00000CE9  5B		     2	        pop  ebx
 00000CEA  C3		     2	        ret
 00000CEB		     2	        OZ_96   LABEL PROC
 00000CEB  8D 44 24 04	     2	        lea  eax,  4[esp]
 00000CEF  53		     2	        push ebx
 00000CF0  57		     2	        push edi
 00000CF1  56		     2	        push esi
 00000CF2  8B 18	     2	            mov  ebx,   [eax]
 00000CF4  8B 48 04	     2	            mov  ecx,  4[eax]
 00000CF7  8B 50 08	     2	            mov  edx,  8[eax]
 00000CFA  8B 78 0C	     2	            mov  edi, 12[eax]
 00000CFD  8B 70 10	     2	            mov  esi, 16[eax]
 00000D00  0F 0B	     2	        BYTE            0fh, 0bh            
 00000D02  0060		     2	        WORD            96               
 00000D04  5E		     2	        pop  esi
 00000D05  5F		     2	        pop  edi
 00000D06  5B		     2	        pop  ebx
 00000D07  C3		     2	        ret
 00000D08		     2	        OZ_97   LABEL PROC
 00000D08  8D 44 24 04	     2	        lea  eax,  4[esp]
 00000D0C  53		     2	        push ebx
 00000D0D  57		     2	        push edi
 00000D0E  56		     2	        push esi
 00000D0F  8B 18	     2	            mov  ebx,   [eax]
 00000D11  8B 48 04	     2	            mov  ecx,  4[eax]
 00000D14  8B 50 08	     2	            mov  edx,  8[eax]
 00000D17  8B 78 0C	     2	            mov  edi, 12[eax]
 00000D1A  8B 70 10	     2	            mov  esi, 16[eax]
 00000D1D  0F 0B	     2	        BYTE            0fh, 0bh            
 00000D1F  0061		     2	        WORD            97               
 00000D21  5E		     2	        pop  esi
 00000D22  5F		     2	        pop  edi
 00000D23  5B		     2	        pop  ebx
 00000D24  C3		     2	        ret
 00000D25		     2	        OZ_98   LABEL PROC
 00000D25  8D 44 24 04	     2	        lea  eax,  4[esp]
 00000D29  53		     2	        push ebx
 00000D2A  57		     2	        push edi
 00000D2B  56		     2	        push esi
 00000D2C  8B 18	     2	            mov  ebx,   [eax]
 00000D2E  8B 48 04	     2	            mov  ecx,  4[eax]
 00000D31  8B 50 08	     2	            mov  edx,  8[eax]
 00000D34  8B 78 0C	     2	            mov  edi, 12[eax]
 00000D37  8B 70 10	     2	            mov  esi, 16[eax]
 00000D3A  0F 0B	     2	        BYTE            0fh, 0bh            
 00000D3C  0062		     2	        WORD            98               
 00000D3E  5E		     2	        pop  esi
 00000D3F  5F		     2	        pop  edi
 00000D40  5B		     2	        pop  ebx
 00000D41  C3		     2	        ret
 00000D42		     2	        OZ_99   LABEL PROC
 00000D42  8D 44 24 04	     2	        lea  eax,  4[esp]
 00000D46  53		     2	        push ebx
 00000D47  57		     2	        push edi
 00000D48  56		     2	        push esi
 00000D49  8B 18	     2	            mov  ebx,   [eax]
 00000D4B  8B 48 04	     2	            mov  ecx,  4[eax]
 00000D4E  8B 50 08	     2	            mov  edx,  8[eax]
 00000D51  8B 78 0C	     2	            mov  edi, 12[eax]
 00000D54  8B 70 10	     2	            mov  esi, 16[eax]
 00000D57  0F 0B	     2	        BYTE            0fh, 0bh            
 00000D59  0063		     2	        WORD            99               
 00000D5B  5E		     2	        pop  esi
 00000D5C  5F		     2	        pop  edi
 00000D5D  5B		     2	        pop  ebx
 00000D5E  C3		     2	        ret
 00000D5F		     2	        OZ_100   LABEL PROC
 00000D5F  8D 44 24 04	     2	        lea  eax,  4[esp]
 00000D63  53		     2	        push ebx
 00000D64  57		     2	        push edi
 00000D65  56		     2	        push esi
 00000D66  8B 18	     2	            mov  ebx,   [eax]
 00000D68  8B 48 04	     2	            mov  ecx,  4[eax]
 00000D6B  8B 50 08	     2	            mov  edx,  8[eax]
 00000D6E  8B 78 0C	     2	            mov  edi, 12[eax]
 00000D71  8B 70 10	     2	            mov  esi, 16[eax]
 00000D74  0F 0B	     2	        BYTE            0fh, 0bh            
 00000D76  0064		     2	        WORD            100               
 00000D78  5E		     2	        pop  esi
 00000D79  5F		     2	        pop  edi
 00000D7A  5B		     2	        pop  ebx
 00000D7B  C3		     2	        ret
 00000D7C		     2	        OZ_101   LABEL PROC
 00000D7C  8D 44 24 04	     2	        lea  eax,  4[esp]
 00000D80  53		     2	        push ebx
 00000D81  57		     2	        push edi
 00000D82  56		     2	        push esi
 00000D83  8B 18	     2	            mov  ebx,   [eax]
 00000D85  8B 48 04	     2	            mov  ecx,  4[eax]
 00000D88  8B 50 08	     2	            mov  edx,  8[eax]
 00000D8B  8B 78 0C	     2	            mov  edi, 12[eax]
 00000D8E  8B 70 10	     2	            mov  esi, 16[eax]
 00000D91  0F 0B	     2	        BYTE            0fh, 0bh            
 00000D93  0065		     2	        WORD            101               
 00000D95  5E		     2	        pop  esi
 00000D96  5F		     2	        pop  edi
 00000D97  5B		     2	        pop  ebx
 00000D98  C3		     2	        ret
 00000D99		     2	        OZ_102   LABEL PROC
 00000D99  8D 44 24 04	     2	        lea  eax,  4[esp]
 00000D9D  53		     2	        push ebx
 00000D9E  57		     2	        push edi
 00000D9F  56		     2	        push esi
 00000DA0  8B 18	     2	            mov  ebx,   [eax]
 00000DA2  8B 48 04	     2	            mov  ecx,  4[eax]
 00000DA5  8B 50 08	     2	            mov  edx,  8[eax]
 00000DA8  8B 78 0C	     2	            mov  edi, 12[eax]
 00000DAB  8B 70 10	     2	            mov  esi, 16[eax]
 00000DAE  0F 0B	     2	        BYTE            0fh, 0bh            
 00000DB0  0066		     2	        WORD            102               
 00000DB2  5E		     2	        pop  esi
 00000DB3  5F		     2	        pop  edi
 00000DB4  5B		     2	        pop  ebx
 00000DB5  C3		     2	        ret
 00000DB6		     2	        OZ_103   LABEL PROC
 00000DB6  8D 44 24 04	     2	        lea  eax,  4[esp]
 00000DBA  53		     2	        push ebx
 00000DBB  57		     2	        push edi
 00000DBC  56		     2	        push esi
 00000DBD  8B 18	     2	            mov  ebx,   [eax]
 00000DBF  8B 48 04	     2	            mov  ecx,  4[eax]
 00000DC2  8B 50 08	     2	            mov  edx,  8[eax]
 00000DC5  8B 78 0C	     2	            mov  edi, 12[eax]
 00000DC8  8B 70 10	     2	            mov  esi, 16[eax]
 00000DCB  0F 0B	     2	        BYTE            0fh, 0bh            
 00000DCD  0067		     2	        WORD            103               
 00000DCF  5E		     2	        pop  esi
 00000DD0  5F		     2	        pop  edi
 00000DD1  5B		     2	        pop  ebx
 00000DD2  C3		     2	        ret
 00000DD3		     2	        OZ_104   LABEL PROC
 00000DD3  8D 44 24 04	     2	        lea  eax,  4[esp]
 00000DD7  53		     2	        push ebx
 00000DD8  57		     2	        push edi
 00000DD9  56		     2	        push esi
 00000DDA  8B 18	     2	            mov  ebx,   [eax]
 00000DDC  8B 48 04	     2	            mov  ecx,  4[eax]
 00000DDF  8B 50 08	     2	            mov  edx,  8[eax]
 00000DE2  8B 78 0C	     2	            mov  edi, 12[eax]
 00000DE5  8B 70 10	     2	            mov  esi, 16[eax]
 00000DE8  0F 0B	     2	        BYTE            0fh, 0bh            
 00000DEA  0068		     2	        WORD            104               
 00000DEC  5E		     2	        pop  esi
 00000DED  5F		     2	        pop  edi
 00000DEE  5B		     2	        pop  ebx
 00000DEF  C3		     2	        ret
 00000DF0		     2	        OZ_105   LABEL PROC
 00000DF0  8D 44 24 04	     2	        lea  eax,  4[esp]
 00000DF4  53		     2	        push ebx
 00000DF5  57		     2	        push edi
 00000DF6  56		     2	        push esi
 00000DF7  8B 18	     2	            mov  ebx,   [eax]
 00000DF9  8B 48 04	     2	            mov  ecx,  4[eax]
 00000DFC  8B 50 08	     2	            mov  edx,  8[eax]
 00000DFF  8B 78 0C	     2	            mov  edi, 12[eax]
 00000E02  8B 70 10	     2	            mov  esi, 16[eax]
 00000E05  0F 0B	     2	        BYTE            0fh, 0bh            
 00000E07  0069		     2	        WORD            105               
 00000E09  5E		     2	        pop  esi
 00000E0A  5F		     2	        pop  edi
 00000E0B  5B		     2	        pop  ebx
 00000E0C  C3		     2	        ret
 00000E0D		     2	        OZ_106   LABEL PROC
 00000E0D  8D 44 24 04	     2	        lea  eax,  4[esp]
 00000E11  53		     2	        push ebx
 00000E12  57		     2	        push edi
 00000E13  56		     2	        push esi
 00000E14  8B 18	     2	            mov  ebx,   [eax]
 00000E16  8B 48 04	     2	            mov  ecx,  4[eax]
 00000E19  8B 50 08	     2	            mov  edx,  8[eax]
 00000E1C  8B 78 0C	     2	            mov  edi, 12[eax]
 00000E1F  8B 70 10	     2	            mov  esi, 16[eax]
 00000E22  0F 0B	     2	        BYTE            0fh, 0bh            
 00000E24  006A		     2	        WORD            106               
 00000E26  5E		     2	        pop  esi
 00000E27  5F		     2	        pop  edi
 00000E28  5B		     2	        pop  ebx
 00000E29  C3		     2	        ret
 00000E2A		     2	        OZ_107   LABEL PROC
 00000E2A  8D 44 24 04	     2	        lea  eax,  4[esp]
 00000E2E  53		     2	        push ebx
 00000E2F  57		     2	        push edi
 00000E30  56		     2	        push esi
 00000E31  8B 18	     2	            mov  ebx,   [eax]
 00000E33  8B 48 04	     2	            mov  ecx,  4[eax]
 00000E36  8B 50 08	     2	            mov  edx,  8[eax]
 00000E39  8B 78 0C	     2	            mov  edi, 12[eax]
 00000E3C  8B 70 10	     2	            mov  esi, 16[eax]
 00000E3F  0F 0B	     2	        BYTE            0fh, 0bh            
 00000E41  006B		     2	        WORD            107               
 00000E43  5E		     2	        pop  esi
 00000E44  5F		     2	        pop  edi
 00000E45  5B		     2	        pop  ebx
 00000E46  C3		     2	        ret
 00000E47		     2	        OZ_108   LABEL PROC
 00000E47  8D 44 24 04	     2	        lea  eax,  4[esp]
 00000E4B  53		     2	        push ebx
 00000E4C  57		     2	        push edi
 00000E4D  56		     2	        push esi
 00000E4E  8B 18	     2	            mov  ebx,   [eax]
 00000E50  8B 48 04	     2	            mov  ecx,  4[eax]
 00000E53  8B 50 08	     2	            mov  edx,  8[eax]
 00000E56  8B 78 0C	     2	            mov  edi, 12[eax]
 00000E59  8B 70 10	     2	            mov  esi, 16[eax]
 00000E5C  0F 0B	     2	        BYTE            0fh, 0bh            
 00000E5E  006C		     2	        WORD            108               
 00000E60  5E		     2	        pop  esi
 00000E61  5F		     2	        pop  edi
 00000E62  5B		     2	        pop  ebx
 00000E63  C3		     2	        ret
 00000E64		     2	        OZ_109   LABEL PROC
 00000E64  8D 44 24 04	     2	        lea  eax,  4[esp]
 00000E68  53		     2	        push ebx
 00000E69  57		     2	        push edi
 00000E6A  56		     2	        push esi
 00000E6B  8B 18	     2	            mov  ebx,   [eax]
 00000E6D  8B 48 04	     2	            mov  ecx,  4[eax]
 00000E70  8B 50 08	     2	            mov  edx,  8[eax]
 00000E73  8B 78 0C	     2	            mov  edi, 12[eax]
 00000E76  8B 70 10	     2	            mov  esi, 16[eax]
 00000E79  0F 0B	     2	        BYTE            0fh, 0bh            
 00000E7B  006D		     2	        WORD            109               
 00000E7D  5E		     2	        pop  esi
 00000E7E  5F		     2	        pop  edi
 00000E7F  5B		     2	        pop  ebx
 00000E80  C3		     2	        ret
 00000E81		     2	        OZ_110   LABEL PROC
 00000E81  8D 44 24 04	     2	        lea  eax,  4[esp]
 00000E85  53		     2	        push ebx
 00000E86  57		     2	        push edi
 00000E87  56		     2	        push esi
 00000E88  8B 18	     2	            mov  ebx,   [eax]
 00000E8A  8B 48 04	     2	            mov  ecx,  4[eax]
 00000E8D  8B 50 08	     2	            mov  edx,  8[eax]
 00000E90  8B 78 0C	     2	            mov  edi, 12[eax]
 00000E93  8B 70 10	     2	            mov  esi, 16[eax]
 00000E96  0F 0B	     2	        BYTE            0fh, 0bh            
 00000E98  006E		     2	        WORD            110               
 00000E9A  5E		     2	        pop  esi
 00000E9B  5F		     2	        pop  edi
 00000E9C  5B		     2	        pop  ebx
 00000E9D  C3		     2	        ret
 00000E9E		     2	        OZ_111   LABEL PROC
 00000E9E  8D 44 24 04	     2	        lea  eax,  4[esp]
 00000EA2  53		     2	        push ebx
 00000EA3  57		     2	        push edi
 00000EA4  56		     2	        push esi
 00000EA5  8B 18	     2	            mov  ebx,   [eax]
 00000EA7  8B 48 04	     2	            mov  ecx,  4[eax]
 00000EAA  8B 50 08	     2	            mov  edx,  8[eax]
 00000EAD  8B 78 0C	     2	            mov  edi, 12[eax]
 00000EB0  8B 70 10	     2	            mov  esi, 16[eax]
 00000EB3  0F 0B	     2	        BYTE            0fh, 0bh            
 00000EB5  006F		     2	        WORD            111               
 00000EB7  5E		     2	        pop  esi
 00000EB8  5F		     2	        pop  edi
 00000EB9  5B		     2	        pop  ebx
 00000EBA  C3		     2	        ret
 00000EBB		     2	        OZ_112   LABEL PROC
 00000EBB  8D 44 24 04	     2	        lea  eax,  4[esp]
 00000EBF  53		     2	        push ebx
 00000EC0  57		     2	        push edi
 00000EC1  56		     2	        push esi
 00000EC2  8B 18	     2	            mov  ebx,   [eax]
 00000EC4  8B 48 04	     2	            mov  ecx,  4[eax]
 00000EC7  8B 50 08	     2	            mov  edx,  8[eax]
 00000ECA  8B 78 0C	     2	            mov  edi, 12[eax]
 00000ECD  8B 70 10	     2	            mov  esi, 16[eax]
 00000ED0  0F 0B	     2	        BYTE            0fh, 0bh            
 00000ED2  0070		     2	        WORD            112               
 00000ED4  5E		     2	        pop  esi
 00000ED5  5F		     2	        pop  edi
 00000ED6  5B		     2	        pop  ebx
 00000ED7  C3		     2	        ret
 00000ED8		     2	        OZ_113   LABEL PROC
 00000ED8  8D 44 24 04	     2	        lea  eax,  4[esp]
 00000EDC  53		     2	        push ebx
 00000EDD  57		     2	        push edi
 00000EDE  56		     2	        push esi
 00000EDF  8B 18	     2	            mov  ebx,   [eax]
 00000EE1  8B 48 04	     2	            mov  ecx,  4[eax]
 00000EE4  8B 50 08	     2	            mov  edx,  8[eax]
 00000EE7  8B 78 0C	     2	            mov  edi, 12[eax]
 00000EEA  8B 70 10	     2	            mov  esi, 16[eax]
 00000EED  0F 0B	     2	        BYTE            0fh, 0bh            
 00000EEF  0071		     2	        WORD            113               
 00000EF1  5E		     2	        pop  esi
 00000EF2  5F		     2	        pop  edi
 00000EF3  5B		     2	        pop  ebx
 00000EF4  C3		     2	        ret
 00000EF5		     2	        OZ_114   LABEL PROC
 00000EF5  8D 44 24 04	     2	        lea  eax,  4[esp]
 00000EF9  53		     2	        push ebx
 00000EFA  57		     2	        push edi
 00000EFB  56		     2	        push esi
 00000EFC  8B 18	     2	            mov  ebx,   [eax]
 00000EFE  8B 48 04	     2	            mov  ecx,  4[eax]
 00000F01  8B 50 08	     2	            mov  edx,  8[eax]
 00000F04  8B 78 0C	     2	            mov  edi, 12[eax]
 00000F07  8B 70 10	     2	            mov  esi, 16[eax]
 00000F0A  0F 0B	     2	        BYTE            0fh, 0bh            
 00000F0C  0072		     2	        WORD            114               
 00000F0E  5E		     2	        pop  esi
 00000F0F  5F		     2	        pop  edi
 00000F10  5B		     2	        pop  ebx
 00000F11  C3		     2	        ret
 00000F12		     2	        OZ_115   LABEL PROC
 00000F12  8D 44 24 04	     2	        lea  eax,  4[esp]
 00000F16  53		     2	        push ebx
 00000F17  57		     2	        push edi
 00000F18  56		     2	        push esi
 00000F19  8B 18	     2	            mov  ebx,   [eax]
 00000F1B  8B 48 04	     2	            mov  ecx,  4[eax]
 00000F1E  8B 50 08	     2	            mov  edx,  8[eax]
 00000F21  8B 78 0C	     2	            mov  edi, 12[eax]
 00000F24  8B 70 10	     2	            mov  esi, 16[eax]
 00000F27  0F 0B	     2	        BYTE            0fh, 0bh            
 00000F29  0073		     2	        WORD            115               
 00000F2B  5E		     2	        pop  esi
 00000F2C  5F		     2	        pop  edi
 00000F2D  5B		     2	        pop  ebx
 00000F2E  C3		     2	        ret
 00000F2F		     2	        OZ_116   LABEL PROC
 00000F2F  8D 44 24 04	     2	        lea  eax,  4[esp]
 00000F33  53		     2	        push ebx
 00000F34  57		     2	        push edi
 00000F35  56		     2	        push esi
 00000F36  8B 18	     2	            mov  ebx,   [eax]
 00000F38  8B 48 04	     2	            mov  ecx,  4[eax]
 00000F3B  8B 50 08	     2	            mov  edx,  8[eax]
 00000F3E  8B 78 0C	     2	            mov  edi, 12[eax]
 00000F41  8B 70 10	     2	            mov  esi, 16[eax]
 00000F44  0F 0B	     2	        BYTE            0fh, 0bh            
 00000F46  0074		     2	        WORD            116               
 00000F48  5E		     2	        pop  esi
 00000F49  5F		     2	        pop  edi
 00000F4A  5B		     2	        pop  ebx
 00000F4B  C3		     2	        ret
 00000F4C		     2	        OZ_117   LABEL PROC
 00000F4C  8D 44 24 04	     2	        lea  eax,  4[esp]
 00000F50  53		     2	        push ebx
 00000F51  57		     2	        push edi
 00000F52  56		     2	        push esi
 00000F53  8B 18	     2	            mov  ebx,   [eax]
 00000F55  8B 48 04	     2	            mov  ecx,  4[eax]
 00000F58  8B 50 08	     2	            mov  edx,  8[eax]
 00000F5B  8B 78 0C	     2	            mov  edi, 12[eax]
 00000F5E  8B 70 10	     2	            mov  esi, 16[eax]
 00000F61  0F 0B	     2	        BYTE            0fh, 0bh            
 00000F63  0075		     2	        WORD            117               
 00000F65  5E		     2	        pop  esi
 00000F66  5F		     2	        pop  edi
 00000F67  5B		     2	        pop  ebx
 00000F68  C3		     2	        ret
 00000F69		     2	        OZ_118   LABEL PROC
 00000F69  8D 44 24 04	     2	        lea  eax,  4[esp]
 00000F6D  53		     2	        push ebx
 00000F6E  57		     2	        push edi
 00000F6F  56		     2	        push esi
 00000F70  8B 18	     2	            mov  ebx,   [eax]
 00000F72  8B 48 04	     2	            mov  ecx,  4[eax]
 00000F75  8B 50 08	     2	            mov  edx,  8[eax]
 00000F78  8B 78 0C	     2	            mov  edi, 12[eax]
 00000F7B  8B 70 10	     2	            mov  esi, 16[eax]
 00000F7E  0F 0B	     2	        BYTE            0fh, 0bh            
 00000F80  0076		     2	        WORD            118               
 00000F82  5E		     2	        pop  esi
 00000F83  5F		     2	        pop  edi
 00000F84  5B		     2	        pop  ebx
 00000F85  C3		     2	        ret
 00000F86		     2	        OZ_119   LABEL PROC
 00000F86  8D 44 24 04	     2	        lea  eax,  4[esp]
 00000F8A  53		     2	        push ebx
 00000F8B  57		     2	        push edi
 00000F8C  56		     2	        push esi
 00000F8D  8B 18	     2	            mov  ebx,   [eax]
 00000F8F  8B 48 04	     2	            mov  ecx,  4[eax]
 00000F92  8B 50 08	     2	            mov  edx,  8[eax]
 00000F95  8B 78 0C	     2	            mov  edi, 12[eax]
 00000F98  8B 70 10	     2	            mov  esi, 16[eax]
 00000F9B  0F 0B	     2	        BYTE            0fh, 0bh            
 00000F9D  0077		     2	        WORD            119               
 00000F9F  5E		     2	        pop  esi
 00000FA0  5F		     2	        pop  edi
 00000FA1  5B		     2	        pop  ebx
 00000FA2  C3		     2	        ret
 00000FA3		     2	        OZ_120   LABEL PROC
 00000FA3  8D 44 24 04	     2	        lea  eax,  4[esp]
 00000FA7  53		     2	        push ebx
 00000FA8  57		     2	        push edi
 00000FA9  56		     2	        push esi
 00000FAA  8B 18	     2	            mov  ebx,   [eax]
 00000FAC  8B 48 04	     2	            mov  ecx,  4[eax]
 00000FAF  8B 50 08	     2	            mov  edx,  8[eax]
 00000FB2  8B 78 0C	     2	            mov  edi, 12[eax]
 00000FB5  8B 70 10	     2	            mov  esi, 16[eax]
 00000FB8  0F 0B	     2	        BYTE            0fh, 0bh            
 00000FBA  0078		     2	        WORD            120               
 00000FBC  5E		     2	        pop  esi
 00000FBD  5F		     2	        pop  edi
 00000FBE  5B		     2	        pop  ebx
 00000FBF  C3		     2	        ret
 00000FC0		     2	        OZ_121   LABEL PROC
 00000FC0  8D 44 24 04	     2	        lea  eax,  4[esp]
 00000FC4  53		     2	        push ebx
 00000FC5  57		     2	        push edi
 00000FC6  56		     2	        push esi
 00000FC7  8B 18	     2	            mov  ebx,   [eax]
 00000FC9  8B 48 04	     2	            mov  ecx,  4[eax]
 00000FCC  8B 50 08	     2	            mov  edx,  8[eax]
 00000FCF  8B 78 0C	     2	            mov  edi, 12[eax]
 00000FD2  8B 70 10	     2	            mov  esi, 16[eax]
 00000FD5  0F 0B	     2	        BYTE            0fh, 0bh            
 00000FD7  0079		     2	        WORD            121               
 00000FD9  5E		     2	        pop  esi
 00000FDA  5F		     2	        pop  edi
 00000FDB  5B		     2	        pop  ebx
 00000FDC  C3		     2	        ret
 00000FDD		     2	        OZ_122   LABEL PROC
 00000FDD  8D 44 24 04	     2	        lea  eax,  4[esp]
 00000FE1  53		     2	        push ebx
 00000FE2  57		     2	        push edi
 00000FE3  56		     2	        push esi
 00000FE4  8B 18	     2	            mov  ebx,   [eax]
 00000FE6  8B 48 04	     2	            mov  ecx,  4[eax]
 00000FE9  8B 50 08	     2	            mov  edx,  8[eax]
 00000FEC  8B 78 0C	     2	            mov  edi, 12[eax]
 00000FEF  8B 70 10	     2	            mov  esi, 16[eax]
 00000FF2  0F 0B	     2	        BYTE            0fh, 0bh            
 00000FF4  007A		     2	        WORD            122               
 00000FF6  5E		     2	        pop  esi
 00000FF7  5F		     2	        pop  edi
 00000FF8  5B		     2	        pop  ebx
 00000FF9  C3		     2	        ret
 00000FFA		     2	        OZ_123   LABEL PROC
 00000FFA  8D 44 24 04	     2	        lea  eax,  4[esp]
 00000FFE  53		     2	        push ebx
 00000FFF  57		     2	        push edi
 00001000  56		     2	        push esi
 00001001  8B 18	     2	            mov  ebx,   [eax]
 00001003  8B 48 04	     2	            mov  ecx,  4[eax]
 00001006  8B 50 08	     2	            mov  edx,  8[eax]
 00001009  8B 78 0C	     2	            mov  edi, 12[eax]
 0000100C  8B 70 10	     2	            mov  esi, 16[eax]
 0000100F  0F 0B	     2	        BYTE            0fh, 0bh            
 00001011  007B		     2	        WORD            123               
 00001013  5E		     2	        pop  esi
 00001014  5F		     2	        pop  edi
 00001015  5B		     2	        pop  ebx
 00001016  C3		     2	        ret
 00001017		     2	        OZ_124   LABEL PROC
 00001017  8D 44 24 04	     2	        lea  eax,  4[esp]
 0000101B  53		     2	        push ebx
 0000101C  57		     2	        push edi
 0000101D  56		     2	        push esi
 0000101E  8B 18	     2	            mov  ebx,   [eax]
 00001020  8B 48 04	     2	            mov  ecx,  4[eax]
 00001023  8B 50 08	     2	            mov  edx,  8[eax]
 00001026  8B 78 0C	     2	            mov  edi, 12[eax]
 00001029  8B 70 10	     2	            mov  esi, 16[eax]
 0000102C  0F 0B	     2	        BYTE            0fh, 0bh            
 0000102E  007C		     2	        WORD            124               
 00001030  5E		     2	        pop  esi
 00001031  5F		     2	        pop  edi
 00001032  5B		     2	        pop  ebx
 00001033  C3		     2	        ret
 00001034		     2	        OZ_125   LABEL PROC
 00001034  8D 44 24 04	     2	        lea  eax,  4[esp]
 00001038  53		     2	        push ebx
 00001039  57		     2	        push edi
 0000103A  56		     2	        push esi
 0000103B  8B 18	     2	            mov  ebx,   [eax]
 0000103D  8B 48 04	     2	            mov  ecx,  4[eax]
 00001040  8B 50 08	     2	            mov  edx,  8[eax]
 00001043  8B 78 0C	     2	            mov  edi, 12[eax]
 00001046  8B 70 10	     2	            mov  esi, 16[eax]
 00001049  0F 0B	     2	        BYTE            0fh, 0bh            
 0000104B  007D		     2	        WORD            125               
 0000104D  5E		     2	        pop  esi
 0000104E  5F		     2	        pop  edi
 0000104F  5B		     2	        pop  ebx
 00001050  C3		     2	        ret
 00001051		     2	        OZ_126   LABEL PROC
 00001051  8D 44 24 04	     2	        lea  eax,  4[esp]
 00001055  53		     2	        push ebx
 00001056  57		     2	        push edi
 00001057  56		     2	        push esi
 00001058  8B 18	     2	            mov  ebx,   [eax]
 0000105A  8B 48 04	     2	            mov  ecx,  4[eax]
 0000105D  8B 50 08	     2	            mov  edx,  8[eax]
 00001060  8B 78 0C	     2	            mov  edi, 12[eax]
 00001063  8B 70 10	     2	            mov  esi, 16[eax]
 00001066  0F 0B	     2	        BYTE            0fh, 0bh            
 00001068  007E		     2	        WORD            126               
 0000106A  5E		     2	        pop  esi
 0000106B  5F		     2	        pop  edi
 0000106C  5B		     2	        pop  ebx
 0000106D  C3		     2	        ret
 0000106E		     2	        OZ_127   LABEL PROC
 0000106E  8D 44 24 04	     2	        lea  eax,  4[esp]
 00001072  53		     2	        push ebx
 00001073  57		     2	        push edi
 00001074  56		     2	        push esi
 00001075  8B 18	     2	            mov  ebx,   [eax]
 00001077  8B 48 04	     2	            mov  ecx,  4[eax]
 0000107A  8B 50 08	     2	            mov  edx,  8[eax]
 0000107D  8B 78 0C	     2	            mov  edi, 12[eax]
 00001080  8B 70 10	     2	            mov  esi, 16[eax]
 00001083  0F 0B	     2	        BYTE            0fh, 0bh            
 00001085  007F		     2	        WORD            127               
 00001087  5E		     2	        pop  esi
 00001088  5F		     2	        pop  edi
 00001089  5B		     2	        pop  ebx
 0000108A  C3		     2	        ret
 0000108B		     2	        OZ_128   LABEL PROC
 0000108B  8D 44 24 04	     2	        lea  eax,  4[esp]
 0000108F  53		     2	        push ebx
 00001090  57		     2	        push edi
 00001091  56		     2	        push esi
 00001092  8B 18	     2	            mov  ebx,   [eax]
 00001094  8B 48 04	     2	            mov  ecx,  4[eax]
 00001097  8B 50 08	     2	            mov  edx,  8[eax]
 0000109A  8B 78 0C	     2	            mov  edi, 12[eax]
 0000109D  8B 70 10	     2	            mov  esi, 16[eax]
 000010A0  0F 0B	     2	        BYTE            0fh, 0bh            
 000010A2  0080		     2	        WORD            128               
 000010A4  5E		     2	        pop  esi
 000010A5  5F		     2	        pop  edi
 000010A6  5B		     2	        pop  ebx
 000010A7  C3		     2	        ret
 000010A8		     2	        OZ_129   LABEL PROC
 000010A8  8D 44 24 04	     2	        lea  eax,  4[esp]
 000010AC  53		     2	        push ebx
 000010AD  57		     2	        push edi
 000010AE  56		     2	        push esi
 000010AF  8B 18	     2	            mov  ebx,   [eax]
 000010B1  8B 48 04	     2	            mov  ecx,  4[eax]
 000010B4  8B 50 08	     2	            mov  edx,  8[eax]
 000010B7  8B 78 0C	     2	            mov  edi, 12[eax]
 000010BA  8B 70 10	     2	            mov  esi, 16[eax]
 000010BD  0F 0B	     2	        BYTE            0fh, 0bh            
 000010BF  0081		     2	        WORD            129               
 000010C1  5E		     2	        pop  esi
 000010C2  5F		     2	        pop  edi
 000010C3  5B		     2	        pop  ebx
 000010C4  C3		     2	        ret
 000010C5		     2	        OZ_130   LABEL PROC
 000010C5  8D 44 24 04	     2	        lea  eax,  4[esp]
 000010C9  53		     2	        push ebx
 000010CA  57		     2	        push edi
 000010CB  56		     2	        push esi
 000010CC  8B 18	     2	            mov  ebx,   [eax]
 000010CE  8B 48 04	     2	            mov  ecx,  4[eax]
 000010D1  8B 50 08	     2	            mov  edx,  8[eax]
 000010D4  8B 78 0C	     2	            mov  edi, 12[eax]
 000010D7  8B 70 10	     2	            mov  esi, 16[eax]
 000010DA  0F 0B	     2	        BYTE            0fh, 0bh            
 000010DC  0082		     2	        WORD            130               
 000010DE  5E		     2	        pop  esi
 000010DF  5F		     2	        pop  edi
 000010E0  5B		     2	        pop  ebx
 000010E1  C3		     2	        ret
 000010E2		     2	        OZ_131   LABEL PROC
 000010E2  8D 44 24 04	     2	        lea  eax,  4[esp]
 000010E6  53		     2	        push ebx
 000010E7  57		     2	        push edi
 000010E8  56		     2	        push esi
 000010E9  8B 18	     2	            mov  ebx,   [eax]
 000010EB  8B 48 04	     2	            mov  ecx,  4[eax]
 000010EE  8B 50 08	     2	            mov  edx,  8[eax]
 000010F1  8B 78 0C	     2	            mov  edi, 12[eax]
 000010F4  8B 70 10	     2	            mov  esi, 16[eax]
 000010F7  0F 0B	     2	        BYTE            0fh, 0bh            
 000010F9  0083		     2	        WORD            131               
 000010FB  5E		     2	        pop  esi
 000010FC  5F		     2	        pop  edi
 000010FD  5B		     2	        pop  ebx
 000010FE  C3		     2	        ret
 000010FF		     2	        OZ_132   LABEL PROC
 000010FF  8D 44 24 04	     2	        lea  eax,  4[esp]
 00001103  53		     2	        push ebx
 00001104  57		     2	        push edi
 00001105  56		     2	        push esi
 00001106  8B 18	     2	            mov  ebx,   [eax]
 00001108  8B 48 04	     2	            mov  ecx,  4[eax]
 0000110B  8B 50 08	     2	            mov  edx,  8[eax]
 0000110E  8B 78 0C	     2	            mov  edi, 12[eax]
 00001111  8B 70 10	     2	            mov  esi, 16[eax]
 00001114  0F 0B	     2	        BYTE            0fh, 0bh            
 00001116  0084		     2	        WORD            132               
 00001118  5E		     2	        pop  esi
 00001119  5F		     2	        pop  edi
 0000111A  5B		     2	        pop  ebx
 0000111B  C3		     2	        ret
 0000111C		     2	        OZ_133   LABEL PROC
 0000111C  8D 44 24 04	     2	        lea  eax,  4[esp]
 00001120  53		     2	        push ebx
 00001121  57		     2	        push edi
 00001122  56		     2	        push esi
 00001123  8B 18	     2	            mov  ebx,   [eax]
 00001125  8B 48 04	     2	            mov  ecx,  4[eax]
 00001128  8B 50 08	     2	            mov  edx,  8[eax]
 0000112B  8B 78 0C	     2	            mov  edi, 12[eax]
 0000112E  8B 70 10	     2	            mov  esi, 16[eax]
 00001131  0F 0B	     2	        BYTE            0fh, 0bh            
 00001133  0085		     2	        WORD            133               
 00001135  5E		     2	        pop  esi
 00001136  5F		     2	        pop  edi
 00001137  5B		     2	        pop  ebx
 00001138  C3		     2	        ret
 00001139		     2	        OZ_134   LABEL PROC
 00001139  8D 44 24 04	     2	        lea  eax,  4[esp]
 0000113D  53		     2	        push ebx
 0000113E  57		     2	        push edi
 0000113F  56		     2	        push esi
 00001140  8B 18	     2	            mov  ebx,   [eax]
 00001142  8B 48 04	     2	            mov  ecx,  4[eax]
 00001145  8B 50 08	     2	            mov  edx,  8[eax]
 00001148  8B 78 0C	     2	            mov  edi, 12[eax]
 0000114B  8B 70 10	     2	            mov  esi, 16[eax]
 0000114E  0F 0B	     2	        BYTE            0fh, 0bh            
 00001150  0086		     2	        WORD            134               
 00001152  5E		     2	        pop  esi
 00001153  5F		     2	        pop  edi
 00001154  5B		     2	        pop  ebx
 00001155  C3		     2	        ret
 00001156		     2	        OZ_135   LABEL PROC
 00001156  8D 44 24 04	     2	        lea  eax,  4[esp]
 0000115A  53		     2	        push ebx
 0000115B  57		     2	        push edi
 0000115C  56		     2	        push esi
 0000115D  8B 18	     2	            mov  ebx,   [eax]
 0000115F  8B 48 04	     2	            mov  ecx,  4[eax]
 00001162  8B 50 08	     2	            mov  edx,  8[eax]
 00001165  8B 78 0C	     2	            mov  edi, 12[eax]
 00001168  8B 70 10	     2	            mov  esi, 16[eax]
 0000116B  0F 0B	     2	        BYTE            0fh, 0bh            
 0000116D  0087		     2	        WORD            135               
 0000116F  5E		     2	        pop  esi
 00001170  5F		     2	        pop  edi
 00001171  5B		     2	        pop  ebx
 00001172  C3		     2	        ret
 00001173		     2	        OZ_136   LABEL PROC
 00001173  8D 44 24 04	     2	        lea  eax,  4[esp]
 00001177  53		     2	        push ebx
 00001178  57		     2	        push edi
 00001179  56		     2	        push esi
 0000117A  8B 18	     2	            mov  ebx,   [eax]
 0000117C  8B 48 04	     2	            mov  ecx,  4[eax]
 0000117F  8B 50 08	     2	            mov  edx,  8[eax]
 00001182  8B 78 0C	     2	            mov  edi, 12[eax]
 00001185  8B 70 10	     2	            mov  esi, 16[eax]
 00001188  0F 0B	     2	        BYTE            0fh, 0bh            
 0000118A  0088		     2	        WORD            136               
 0000118C  5E		     2	        pop  esi
 0000118D  5F		     2	        pop  edi
 0000118E  5B		     2	        pop  ebx
 0000118F  C3		     2	        ret
 00001190		     2	        OZ_137   LABEL PROC
 00001190  8D 44 24 04	     2	        lea  eax,  4[esp]
 00001194  53		     2	        push ebx
 00001195  57		     2	        push edi
 00001196  56		     2	        push esi
 00001197  8B 18	     2	            mov  ebx,   [eax]
 00001199  8B 48 04	     2	            mov  ecx,  4[eax]
 0000119C  8B 50 08	     2	            mov  edx,  8[eax]
 0000119F  8B 78 0C	     2	            mov  edi, 12[eax]
 000011A2  8B 70 10	     2	            mov  esi, 16[eax]
 000011A5  0F 0B	     2	        BYTE            0fh, 0bh            
 000011A7  0089		     2	        WORD            137               
 000011A9  5E		     2	        pop  esi
 000011AA  5F		     2	        pop  edi
 000011AB  5B		     2	        pop  ebx
 000011AC  C3		     2	        ret
 000011AD		     2	        OZ_138   LABEL PROC
 000011AD  8D 44 24 04	     2	        lea  eax,  4[esp]
 000011B1  53		     2	        push ebx
 000011B2  57		     2	        push edi
 000011B3  56		     2	        push esi
 000011B4  8B 18	     2	            mov  ebx,   [eax]
 000011B6  8B 48 04	     2	            mov  ecx,  4[eax]
 000011B9  8B 50 08	     2	            mov  edx,  8[eax]
 000011BC  8B 78 0C	     2	            mov  edi, 12[eax]
 000011BF  8B 70 10	     2	            mov  esi, 16[eax]
 000011C2  0F 0B	     2	        BYTE            0fh, 0bh            
 000011C4  008A		     2	        WORD            138               
 000011C6  5E		     2	        pop  esi
 000011C7  5F		     2	        pop  edi
 000011C8  5B		     2	        pop  ebx
 000011C9  C3		     2	        ret
 000011CA		     2	        OZ_139   LABEL PROC
 000011CA  8D 44 24 04	     2	        lea  eax,  4[esp]
 000011CE  53		     2	        push ebx
 000011CF  57		     2	        push edi
 000011D0  56		     2	        push esi
 000011D1  8B 18	     2	            mov  ebx,   [eax]
 000011D3  8B 48 04	     2	            mov  ecx,  4[eax]
 000011D6  8B 50 08	     2	            mov  edx,  8[eax]
 000011D9  8B 78 0C	     2	            mov  edi, 12[eax]
 000011DC  8B 70 10	     2	            mov  esi, 16[eax]
 000011DF  0F 0B	     2	        BYTE            0fh, 0bh            
 000011E1  008B		     2	        WORD            139               
 000011E3  5E		     2	        pop  esi
 000011E4  5F		     2	        pop  edi
 000011E5  5B		     2	        pop  ebx
 000011E6  C3		     2	        ret
 000011E7		     2	        OZ_140   LABEL PROC
 000011E7  8D 44 24 04	     2	        lea  eax,  4[esp]
 000011EB  53		     2	        push ebx
 000011EC  57		     2	        push edi
 000011ED  56		     2	        push esi
 000011EE  8B 18	     2	            mov  ebx,   [eax]
 000011F0  8B 48 04	     2	            mov  ecx,  4[eax]
 000011F3  8B 50 08	     2	            mov  edx,  8[eax]
 000011F6  8B 78 0C	     2	            mov  edi, 12[eax]
 000011F9  8B 70 10	     2	            mov  esi, 16[eax]
 000011FC  0F 0B	     2	        BYTE            0fh, 0bh            
 000011FE  008C		     2	        WORD            140               
 00001200  5E		     2	        pop  esi
 00001201  5F		     2	        pop  edi
 00001202  5B		     2	        pop  ebx
 00001203  C3		     2	        ret
 00001204		     2	        OZ_141   LABEL PROC
 00001204  8D 44 24 04	     2	        lea  eax,  4[esp]
 00001208  53		     2	        push ebx
 00001209  57		     2	        push edi
 0000120A  56		     2	        push esi
 0000120B  8B 18	     2	            mov  ebx,   [eax]
 0000120D  8B 48 04	     2	            mov  ecx,  4[eax]
 00001210  8B 50 08	     2	            mov  edx,  8[eax]
 00001213  8B 78 0C	     2	            mov  edi, 12[eax]
 00001216  8B 70 10	     2	            mov  esi, 16[eax]
 00001219  0F 0B	     2	        BYTE            0fh, 0bh            
 0000121B  008D		     2	        WORD            141               
 0000121D  5E		     2	        pop  esi
 0000121E  5F		     2	        pop  edi
 0000121F  5B		     2	        pop  ebx
 00001220  C3		     2	        ret
 00001221		     2	        OZ_142   LABEL PROC
 00001221  8D 44 24 04	     2	        lea  eax,  4[esp]
 00001225  53		     2	        push ebx
 00001226  57		     2	        push edi
 00001227  56		     2	        push esi
 00001228  8B 18	     2	            mov  ebx,   [eax]
 0000122A  8B 48 04	     2	            mov  ecx,  4[eax]
 0000122D  8B 50 08	     2	            mov  edx,  8[eax]
 00001230  8B 78 0C	     2	            mov  edi, 12[eax]
 00001233  8B 70 10	     2	            mov  esi, 16[eax]
 00001236  0F 0B	     2	        BYTE            0fh, 0bh            
 00001238  008E		     2	        WORD            142               
 0000123A  5E		     2	        pop  esi
 0000123B  5F		     2	        pop  edi
 0000123C  5B		     2	        pop  ebx
 0000123D  C3		     2	        ret
 0000123E		     2	        OZ_143   LABEL PROC
 0000123E  8D 44 24 04	     2	        lea  eax,  4[esp]
 00001242  53		     2	        push ebx
 00001243  57		     2	        push edi
 00001244  56		     2	        push esi
 00001245  8B 18	     2	            mov  ebx,   [eax]
 00001247  8B 48 04	     2	            mov  ecx,  4[eax]
 0000124A  8B 50 08	     2	            mov  edx,  8[eax]
 0000124D  8B 78 0C	     2	            mov  edi, 12[eax]
 00001250  8B 70 10	     2	            mov  esi, 16[eax]
 00001253  0F 0B	     2	        BYTE            0fh, 0bh            
 00001255  008F		     2	        WORD            143               
 00001257  5E		     2	        pop  esi
 00001258  5F		     2	        pop  edi
 00001259  5B		     2	        pop  ebx
 0000125A  C3		     2	        ret
 0000125B		     2	        OZ_144   LABEL PROC
 0000125B  8D 44 24 04	     2	        lea  eax,  4[esp]
 0000125F  53		     2	        push ebx
 00001260  57		     2	        push edi
 00001261  56		     2	        push esi
 00001262  8B 18	     2	            mov  ebx,   [eax]
 00001264  8B 48 04	     2	            mov  ecx,  4[eax]
 00001267  8B 50 08	     2	            mov  edx,  8[eax]
 0000126A  8B 78 0C	     2	            mov  edi, 12[eax]
 0000126D  8B 70 10	     2	            mov  esi, 16[eax]
 00001270  0F 0B	     2	        BYTE            0fh, 0bh            
 00001272  0090		     2	        WORD            144               
 00001274  5E		     2	        pop  esi
 00001275  5F		     2	        pop  edi
 00001276  5B		     2	        pop  ebx
 00001277  C3		     2	        ret
 00001278		     2	        OZ_145   LABEL PROC
 00001278  8D 44 24 04	     2	        lea  eax,  4[esp]
 0000127C  53		     2	        push ebx
 0000127D  57		     2	        push edi
 0000127E  56		     2	        push esi
 0000127F  8B 18	     2	            mov  ebx,   [eax]
 00001281  8B 48 04	     2	            mov  ecx,  4[eax]
 00001284  8B 50 08	     2	            mov  edx,  8[eax]
 00001287  8B 78 0C	     2	            mov  edi, 12[eax]
 0000128A  8B 70 10	     2	            mov  esi, 16[eax]
 0000128D  0F 0B	     2	        BYTE            0fh, 0bh            
 0000128F  0091		     2	        WORD            145               
 00001291  5E		     2	        pop  esi
 00001292  5F		     2	        pop  edi
 00001293  5B		     2	        pop  ebx
 00001294  C3		     2	        ret
 00001295		     2	        OZ_146   LABEL PROC
 00001295  8D 44 24 04	     2	        lea  eax,  4[esp]
 00001299  53		     2	        push ebx
 0000129A  57		     2	        push edi
 0000129B  56		     2	        push esi
 0000129C  8B 18	     2	            mov  ebx,   [eax]
 0000129E  8B 48 04	     2	            mov  ecx,  4[eax]
 000012A1  8B 50 08	     2	            mov  edx,  8[eax]
 000012A4  8B 78 0C	     2	            mov  edi, 12[eax]
 000012A7  8B 70 10	     2	            mov  esi, 16[eax]
 000012AA  0F 0B	     2	        BYTE            0fh, 0bh            
 000012AC  0092		     2	        WORD            146               
 000012AE  5E		     2	        pop  esi
 000012AF  5F		     2	        pop  edi
 000012B0  5B		     2	        pop  ebx
 000012B1  C3		     2	        ret
 000012B2		     2	        OZ_147   LABEL PROC
 000012B2  8D 44 24 04	     2	        lea  eax,  4[esp]
 000012B6  53		     2	        push ebx
 000012B7  57		     2	        push edi
 000012B8  56		     2	        push esi
 000012B9  8B 18	     2	            mov  ebx,   [eax]
 000012BB  8B 48 04	     2	            mov  ecx,  4[eax]
 000012BE  8B 50 08	     2	            mov  edx,  8[eax]
 000012C1  8B 78 0C	     2	            mov  edi, 12[eax]
 000012C4  8B 70 10	     2	            mov  esi, 16[eax]
 000012C7  0F 0B	     2	        BYTE            0fh, 0bh            
 000012C9  0093		     2	        WORD            147               
 000012CB  5E		     2	        pop  esi
 000012CC  5F		     2	        pop  edi
 000012CD  5B		     2	        pop  ebx
 000012CE  C3		     2	        ret
 000012CF		     2	        OZ_148   LABEL PROC
 000012CF  8D 44 24 04	     2	        lea  eax,  4[esp]
 000012D3  53		     2	        push ebx
 000012D4  57		     2	        push edi
 000012D5  56		     2	        push esi
 000012D6  8B 18	     2	            mov  ebx,   [eax]
 000012D8  8B 48 04	     2	            mov  ecx,  4[eax]
 000012DB  8B 50 08	     2	            mov  edx,  8[eax]
 000012DE  8B 78 0C	     2	            mov  edi, 12[eax]
 000012E1  8B 70 10	     2	            mov  esi, 16[eax]
 000012E4  0F 0B	     2	        BYTE            0fh, 0bh            
 000012E6  0094		     2	        WORD            148               
 000012E8  5E		     2	        pop  esi
 000012E9  5F		     2	        pop  edi
 000012EA  5B		     2	        pop  ebx
 000012EB  C3		     2	        ret
 000012EC		     2	        OZ_149   LABEL PROC
 000012EC  8D 44 24 04	     2	        lea  eax,  4[esp]
 000012F0  53		     2	        push ebx
 000012F1  57		     2	        push edi
 000012F2  56		     2	        push esi
 000012F3  8B 18	     2	            mov  ebx,   [eax]
 000012F5  8B 48 04	     2	            mov  ecx,  4[eax]
 000012F8  8B 50 08	     2	            mov  edx,  8[eax]
 000012FB  8B 78 0C	     2	            mov  edi, 12[eax]
 000012FE  8B 70 10	     2	            mov  esi, 16[eax]
 00001301  0F 0B	     2	        BYTE            0fh, 0bh            
 00001303  0095		     2	        WORD            149               
 00001305  5E		     2	        pop  esi
 00001306  5F		     2	        pop  edi
 00001307  5B		     2	        pop  ebx
 00001308  C3		     2	        ret
 00001309		     2	        OZ_150   LABEL PROC
 00001309  8D 44 24 04	     2	        lea  eax,  4[esp]
 0000130D  53		     2	        push ebx
 0000130E  57		     2	        push edi
 0000130F  56		     2	        push esi
 00001310  8B 18	     2	            mov  ebx,   [eax]
 00001312  8B 48 04	     2	            mov  ecx,  4[eax]
 00001315  8B 50 08	     2	            mov  edx,  8[eax]
 00001318  8B 78 0C	     2	            mov  edi, 12[eax]
 0000131B  8B 70 10	     2	            mov  esi, 16[eax]
 0000131E  0F 0B	     2	        BYTE            0fh, 0bh            
 00001320  0096		     2	        WORD            150               
 00001322  5E		     2	        pop  esi
 00001323  5F		     2	        pop  edi
 00001324  5B		     2	        pop  ebx
 00001325  C3		     2	        ret
 00001326		     2	        OZ_151   LABEL PROC
 00001326  8D 44 24 04	     2	        lea  eax,  4[esp]
 0000132A  53		     2	        push ebx
 0000132B  57		     2	        push edi
 0000132C  56		     2	        push esi
 0000132D  8B 18	     2	            mov  ebx,   [eax]
 0000132F  8B 48 04	     2	            mov  ecx,  4[eax]
 00001332  8B 50 08	     2	            mov  edx,  8[eax]
 00001335  8B 78 0C	     2	            mov  edi, 12[eax]
 00001338  8B 70 10	     2	            mov  esi, 16[eax]
 0000133B  0F 0B	     2	        BYTE            0fh, 0bh            
 0000133D  0097		     2	        WORD            151               
 0000133F  5E		     2	        pop  esi
 00001340  5F		     2	        pop  edi
 00001341  5B		     2	        pop  ebx
 00001342  C3		     2	        ret
 00001343		     2	        OZ_152   LABEL PROC
 00001343  8D 44 24 04	     2	        lea  eax,  4[esp]
 00001347  53		     2	        push ebx
 00001348  57		     2	        push edi
 00001349  56		     2	        push esi
 0000134A  8B 18	     2	            mov  ebx,   [eax]
 0000134C  8B 48 04	     2	            mov  ecx,  4[eax]
 0000134F  8B 50 08	     2	            mov  edx,  8[eax]
 00001352  8B 78 0C	     2	            mov  edi, 12[eax]
 00001355  8B 70 10	     2	            mov  esi, 16[eax]
 00001358  0F 0B	     2	        BYTE            0fh, 0bh            
 0000135A  0098		     2	        WORD            152               
 0000135C  5E		     2	        pop  esi
 0000135D  5F		     2	        pop  edi
 0000135E  5B		     2	        pop  ebx
 0000135F  C3		     2	        ret
 00001360		     2	        OZ_153   LABEL PROC
 00001360  8D 44 24 04	     2	        lea  eax,  4[esp]
 00001364  53		     2	        push ebx
 00001365  57		     2	        push edi
 00001366  56		     2	        push esi
 00001367  8B 18	     2	            mov  ebx,   [eax]
 00001369  8B 48 04	     2	            mov  ecx,  4[eax]
 0000136C  8B 50 08	     2	            mov  edx,  8[eax]
 0000136F  8B 78 0C	     2	            mov  edi, 12[eax]
 00001372  8B 70 10	     2	            mov  esi, 16[eax]
 00001375  0F 0B	     2	        BYTE            0fh, 0bh            
 00001377  0099		     2	        WORD            153               
 00001379  5E		     2	        pop  esi
 0000137A  5F		     2	        pop  edi
 0000137B  5B		     2	        pop  ebx
 0000137C  C3		     2	        ret
 0000137D		     2	        OZ_154   LABEL PROC
 0000137D  8D 44 24 04	     2	        lea  eax,  4[esp]
 00001381  53		     2	        push ebx
 00001382  57		     2	        push edi
 00001383  56		     2	        push esi
 00001384  8B 18	     2	            mov  ebx,   [eax]
 00001386  8B 48 04	     2	            mov  ecx,  4[eax]
 00001389  8B 50 08	     2	            mov  edx,  8[eax]
 0000138C  8B 78 0C	     2	            mov  edi, 12[eax]
 0000138F  8B 70 10	     2	            mov  esi, 16[eax]
 00001392  0F 0B	     2	        BYTE            0fh, 0bh            
 00001394  009A		     2	        WORD            154               
 00001396  5E		     2	        pop  esi
 00001397  5F		     2	        pop  edi
 00001398  5B		     2	        pop  ebx
 00001399  C3		     2	        ret
 0000139A		     2	        OZ_155   LABEL PROC
 0000139A  8D 44 24 04	     2	        lea  eax,  4[esp]
 0000139E  53		     2	        push ebx
 0000139F  57		     2	        push edi
 000013A0  56		     2	        push esi
 000013A1  8B 18	     2	            mov  ebx,   [eax]
 000013A3  8B 48 04	     2	            mov  ecx,  4[eax]
 000013A6  8B 50 08	     2	            mov  edx,  8[eax]
 000013A9  8B 78 0C	     2	            mov  edi, 12[eax]
 000013AC  8B 70 10	     2	            mov  esi, 16[eax]
 000013AF  0F 0B	     2	        BYTE            0fh, 0bh            
 000013B1  009B		     2	        WORD            155               
 000013B3  5E		     2	        pop  esi
 000013B4  5F		     2	        pop  edi
 000013B5  5B		     2	        pop  ebx
 000013B6  C3		     2	        ret
 000013B7		     2	        OZ_156   LABEL PROC
 000013B7  8D 44 24 04	     2	        lea  eax,  4[esp]
 000013BB  53		     2	        push ebx
 000013BC  57		     2	        push edi
 000013BD  56		     2	        push esi
 000013BE  8B 18	     2	            mov  ebx,   [eax]
 000013C0  8B 48 04	     2	            mov  ecx,  4[eax]
 000013C3  8B 50 08	     2	            mov  edx,  8[eax]
 000013C6  8B 78 0C	     2	            mov  edi, 12[eax]
 000013C9  8B 70 10	     2	            mov  esi, 16[eax]
 000013CC  0F 0B	     2	        BYTE            0fh, 0bh            
 000013CE  009C		     2	        WORD            156               
 000013D0  5E		     2	        pop  esi
 000013D1  5F		     2	        pop  edi
 000013D2  5B		     2	        pop  ebx
 000013D3  C3		     2	        ret
 000013D4		     2	        OZ_157   LABEL PROC
 000013D4  8D 44 24 04	     2	        lea  eax,  4[esp]
 000013D8  53		     2	        push ebx
 000013D9  57		     2	        push edi
 000013DA  56		     2	        push esi
 000013DB  8B 18	     2	            mov  ebx,   [eax]
 000013DD  8B 48 04	     2	            mov  ecx,  4[eax]
 000013E0  8B 50 08	     2	            mov  edx,  8[eax]
 000013E3  8B 78 0C	     2	            mov  edi, 12[eax]
 000013E6  8B 70 10	     2	            mov  esi, 16[eax]
 000013E9  0F 0B	     2	        BYTE            0fh, 0bh            
 000013EB  009D		     2	        WORD            157               
 000013ED  5E		     2	        pop  esi
 000013EE  5F		     2	        pop  edi
 000013EF  5B		     2	        pop  ebx
 000013F0  C3		     2	        ret
 000013F1		     2	        OZ_158   LABEL PROC
 000013F1  8D 44 24 04	     2	        lea  eax,  4[esp]
 000013F5  53		     2	        push ebx
 000013F6  57		     2	        push edi
 000013F7  56		     2	        push esi
 000013F8  8B 18	     2	            mov  ebx,   [eax]
 000013FA  8B 48 04	     2	            mov  ecx,  4[eax]
 000013FD  8B 50 08	     2	            mov  edx,  8[eax]
 00001400  8B 78 0C	     2	            mov  edi, 12[eax]
 00001403  8B 70 10	     2	            mov  esi, 16[eax]
 00001406  0F 0B	     2	        BYTE            0fh, 0bh            
 00001408  009E		     2	        WORD            158               
 0000140A  5E		     2	        pop  esi
 0000140B  5F		     2	        pop  edi
 0000140C  5B		     2	        pop  ebx
 0000140D  C3		     2	        ret
 0000140E		     2	        OZ_159   LABEL PROC
 0000140E  8D 44 24 04	     2	        lea  eax,  4[esp]
 00001412  53		     2	        push ebx
 00001413  57		     2	        push edi
 00001414  56		     2	        push esi
 00001415  8B 18	     2	            mov  ebx,   [eax]
 00001417  8B 48 04	     2	            mov  ecx,  4[eax]
 0000141A  8B 50 08	     2	            mov  edx,  8[eax]
 0000141D  8B 78 0C	     2	            mov  edi, 12[eax]
 00001420  8B 70 10	     2	            mov  esi, 16[eax]
 00001423  0F 0B	     2	        BYTE            0fh, 0bh            
 00001425  009F		     2	        WORD            159               
 00001427  5E		     2	        pop  esi
 00001428  5F		     2	        pop  edi
 00001429  5B		     2	        pop  ebx
 0000142A  C3		     2	        ret
 0000142B		     2	        OZ_160   LABEL PROC
 0000142B  8D 44 24 04	     2	        lea  eax,  4[esp]
 0000142F  53		     2	        push ebx
 00001430  57		     2	        push edi
 00001431  56		     2	        push esi
 00001432  8B 18	     2	            mov  ebx,   [eax]
 00001434  8B 48 04	     2	            mov  ecx,  4[eax]
 00001437  8B 50 08	     2	            mov  edx,  8[eax]
 0000143A  8B 78 0C	     2	            mov  edi, 12[eax]
 0000143D  8B 70 10	     2	            mov  esi, 16[eax]
 00001440  0F 0B	     2	        BYTE            0fh, 0bh            
 00001442  00A0		     2	        WORD            160               
 00001444  5E		     2	        pop  esi
 00001445  5F		     2	        pop  edi
 00001446  5B		     2	        pop  ebx
 00001447  C3		     2	        ret
 00001448		     2	        OZ_161   LABEL PROC
 00001448  8D 44 24 04	     2	        lea  eax,  4[esp]
 0000144C  53		     2	        push ebx
 0000144D  57		     2	        push edi
 0000144E  56		     2	        push esi
 0000144F  8B 18	     2	            mov  ebx,   [eax]
 00001451  8B 48 04	     2	            mov  ecx,  4[eax]
 00001454  8B 50 08	     2	            mov  edx,  8[eax]
 00001457  8B 78 0C	     2	            mov  edi, 12[eax]
 0000145A  8B 70 10	     2	            mov  esi, 16[eax]
 0000145D  0F 0B	     2	        BYTE            0fh, 0bh            
 0000145F  00A1		     2	        WORD            161               
 00001461  5E		     2	        pop  esi
 00001462  5F		     2	        pop  edi
 00001463  5B		     2	        pop  ebx
 00001464  C3		     2	        ret
 00001465		     2	        OZ_162   LABEL PROC
 00001465  8D 44 24 04	     2	        lea  eax,  4[esp]
 00001469  53		     2	        push ebx
 0000146A  57		     2	        push edi
 0000146B  56		     2	        push esi
 0000146C  8B 18	     2	            mov  ebx,   [eax]
 0000146E  8B 48 04	     2	            mov  ecx,  4[eax]
 00001471  8B 50 08	     2	            mov  edx,  8[eax]
 00001474  8B 78 0C	     2	            mov  edi, 12[eax]
 00001477  8B 70 10	     2	            mov  esi, 16[eax]
 0000147A  0F 0B	     2	        BYTE            0fh, 0bh            
 0000147C  00A2		     2	        WORD            162               
 0000147E  5E		     2	        pop  esi
 0000147F  5F		     2	        pop  edi
 00001480  5B		     2	        pop  ebx
 00001481  C3		     2	        ret
 00001482		     2	        OZ_163   LABEL PROC
 00001482  8D 44 24 04	     2	        lea  eax,  4[esp]
 00001486  53		     2	        push ebx
 00001487  57		     2	        push edi
 00001488  56		     2	        push esi
 00001489  8B 18	     2	            mov  ebx,   [eax]
 0000148B  8B 48 04	     2	            mov  ecx,  4[eax]
 0000148E  8B 50 08	     2	            mov  edx,  8[eax]
 00001491  8B 78 0C	     2	            mov  edi, 12[eax]
 00001494  8B 70 10	     2	            mov  esi, 16[eax]
 00001497  0F 0B	     2	        BYTE            0fh, 0bh            
 00001499  00A3		     2	        WORD            163               
 0000149B  5E		     2	        pop  esi
 0000149C  5F		     2	        pop  edi
 0000149D  5B		     2	        pop  ebx
 0000149E  C3		     2	        ret
 0000149F		     2	        OZ_164   LABEL PROC
 0000149F  8D 44 24 04	     2	        lea  eax,  4[esp]
 000014A3  53		     2	        push ebx
 000014A4  57		     2	        push edi
 000014A5  56		     2	        push esi
 000014A6  8B 18	     2	            mov  ebx,   [eax]
 000014A8  8B 48 04	     2	            mov  ecx,  4[eax]
 000014AB  8B 50 08	     2	            mov  edx,  8[eax]
 000014AE  8B 78 0C	     2	            mov  edi, 12[eax]
 000014B1  8B 70 10	     2	            mov  esi, 16[eax]
 000014B4  0F 0B	     2	        BYTE            0fh, 0bh            
 000014B6  00A4		     2	        WORD            164               
 000014B8  5E		     2	        pop  esi
 000014B9  5F		     2	        pop  edi
 000014BA  5B		     2	        pop  ebx
 000014BB  C3		     2	        ret
 000014BC		     2	        OZ_165   LABEL PROC
 000014BC  8D 44 24 04	     2	        lea  eax,  4[esp]
 000014C0  53		     2	        push ebx
 000014C1  57		     2	        push edi
 000014C2  56		     2	        push esi
 000014C3  8B 18	     2	            mov  ebx,   [eax]
 000014C5  8B 48 04	     2	            mov  ecx,  4[eax]
 000014C8  8B 50 08	     2	            mov  edx,  8[eax]
 000014CB  8B 78 0C	     2	            mov  edi, 12[eax]
 000014CE  8B 70 10	     2	            mov  esi, 16[eax]
 000014D1  0F 0B	     2	        BYTE            0fh, 0bh            
 000014D3  00A5		     2	        WORD            165               
 000014D5  5E		     2	        pop  esi
 000014D6  5F		     2	        pop  edi
 000014D7  5B		     2	        pop  ebx
 000014D8  C3		     2	        ret
 000014D9		     2	        OZ_166   LABEL PROC
 000014D9  8D 44 24 04	     2	        lea  eax,  4[esp]
 000014DD  53		     2	        push ebx
 000014DE  57		     2	        push edi
 000014DF  56		     2	        push esi
 000014E0  8B 18	     2	            mov  ebx,   [eax]
 000014E2  8B 48 04	     2	            mov  ecx,  4[eax]
 000014E5  8B 50 08	     2	            mov  edx,  8[eax]
 000014E8  8B 78 0C	     2	            mov  edi, 12[eax]
 000014EB  8B 70 10	     2	            mov  esi, 16[eax]
 000014EE  0F 0B	     2	        BYTE            0fh, 0bh            
 000014F0  00A6		     2	        WORD            166               
 000014F2  5E		     2	        pop  esi
 000014F3  5F		     2	        pop  edi
 000014F4  5B		     2	        pop  ebx
 000014F5  C3		     2	        ret
 000014F6		     2	        OZ_167   LABEL PROC
 000014F6  8D 44 24 04	     2	        lea  eax,  4[esp]
 000014FA  53		     2	        push ebx
 000014FB  57		     2	        push edi
 000014FC  56		     2	        push esi
 000014FD  8B 18	     2	            mov  ebx,   [eax]
 000014FF  8B 48 04	     2	            mov  ecx,  4[eax]
 00001502  8B 50 08	     2	            mov  edx,  8[eax]
 00001505  8B 78 0C	     2	            mov  edi, 12[eax]
 00001508  8B 70 10	     2	            mov  esi, 16[eax]
 0000150B  0F 0B	     2	        BYTE            0fh, 0bh            
 0000150D  00A7		     2	        WORD            167               
 0000150F  5E		     2	        pop  esi
 00001510  5F		     2	        pop  edi
 00001511  5B		     2	        pop  ebx
 00001512  C3		     2	        ret
 00001513		     2	        OZ_168   LABEL PROC
 00001513  8D 44 24 04	     2	        lea  eax,  4[esp]
 00001517  53		     2	        push ebx
 00001518  57		     2	        push edi
 00001519  56		     2	        push esi
 0000151A  8B 18	     2	            mov  ebx,   [eax]
 0000151C  8B 48 04	     2	            mov  ecx,  4[eax]
 0000151F  8B 50 08	     2	            mov  edx,  8[eax]
 00001522  8B 78 0C	     2	            mov  edi, 12[eax]
 00001525  8B 70 10	     2	            mov  esi, 16[eax]
 00001528  0F 0B	     2	        BYTE            0fh, 0bh            
 0000152A  00A8		     2	        WORD            168               
 0000152C  5E		     2	        pop  esi
 0000152D  5F		     2	        pop  edi
 0000152E  5B		     2	        pop  ebx
 0000152F  C3		     2	        ret
 00001530		     2	        OZ_169   LABEL PROC
 00001530  8D 44 24 04	     2	        lea  eax,  4[esp]
 00001534  53		     2	        push ebx
 00001535  57		     2	        push edi
 00001536  56		     2	        push esi
 00001537  8B 18	     2	            mov  ebx,   [eax]
 00001539  8B 48 04	     2	            mov  ecx,  4[eax]
 0000153C  8B 50 08	     2	            mov  edx,  8[eax]
 0000153F  8B 78 0C	     2	            mov  edi, 12[eax]
 00001542  8B 70 10	     2	            mov  esi, 16[eax]
 00001545  0F 0B	     2	        BYTE            0fh, 0bh            
 00001547  00A9		     2	        WORD            169               
 00001549  5E		     2	        pop  esi
 0000154A  5F		     2	        pop  edi
 0000154B  5B		     2	        pop  ebx
 0000154C  C3		     2	        ret
 0000154D		     2	        OZ_170   LABEL PROC
 0000154D  8D 44 24 04	     2	        lea  eax,  4[esp]
 00001551  53		     2	        push ebx
 00001552  57		     2	        push edi
 00001553  56		     2	        push esi
 00001554  8B 18	     2	            mov  ebx,   [eax]
 00001556  8B 48 04	     2	            mov  ecx,  4[eax]
 00001559  8B 50 08	     2	            mov  edx,  8[eax]
 0000155C  8B 78 0C	     2	            mov  edi, 12[eax]
 0000155F  8B 70 10	     2	            mov  esi, 16[eax]
 00001562  0F 0B	     2	        BYTE            0fh, 0bh            
 00001564  00AA		     2	        WORD            170               
 00001566  5E		     2	        pop  esi
 00001567  5F		     2	        pop  edi
 00001568  5B		     2	        pop  ebx
 00001569  C3		     2	        ret
 0000156A		     2	        OZ_171   LABEL PROC
 0000156A  8D 44 24 04	     2	        lea  eax,  4[esp]
 0000156E  53		     2	        push ebx
 0000156F  57		     2	        push edi
 00001570  56		     2	        push esi
 00001571  8B 18	     2	            mov  ebx,   [eax]
 00001573  8B 48 04	     2	            mov  ecx,  4[eax]
 00001576  8B 50 08	     2	            mov  edx,  8[eax]
 00001579  8B 78 0C	     2	            mov  edi, 12[eax]
 0000157C  8B 70 10	     2	            mov  esi, 16[eax]
 0000157F  0F 0B	     2	        BYTE            0fh, 0bh            
 00001581  00AB		     2	        WORD            171               
 00001583  5E		     2	        pop  esi
 00001584  5F		     2	        pop  edi
 00001585  5B		     2	        pop  ebx
 00001586  C3		     2	        ret
 00001587		     2	        OZ_172   LABEL PROC
 00001587  8D 44 24 04	     2	        lea  eax,  4[esp]
 0000158B  53		     2	        push ebx
 0000158C  57		     2	        push edi
 0000158D  56		     2	        push esi
 0000158E  8B 18	     2	            mov  ebx,   [eax]
 00001590  8B 48 04	     2	            mov  ecx,  4[eax]
 00001593  8B 50 08	     2	            mov  edx,  8[eax]
 00001596  8B 78 0C	     2	            mov  edi, 12[eax]
 00001599  8B 70 10	     2	            mov  esi, 16[eax]
 0000159C  0F 0B	     2	        BYTE            0fh, 0bh            
 0000159E  00AC		     2	        WORD            172               
 000015A0  5E		     2	        pop  esi
 000015A1  5F		     2	        pop  edi
 000015A2  5B		     2	        pop  ebx
 000015A3  C3		     2	        ret
 000015A4		     2	        OZ_173   LABEL PROC
 000015A4  8D 44 24 04	     2	        lea  eax,  4[esp]
 000015A8  53		     2	        push ebx
 000015A9  57		     2	        push edi
 000015AA  56		     2	        push esi
 000015AB  8B 18	     2	            mov  ebx,   [eax]
 000015AD  8B 48 04	     2	            mov  ecx,  4[eax]
 000015B0  8B 50 08	     2	            mov  edx,  8[eax]
 000015B3  8B 78 0C	     2	            mov  edi, 12[eax]
 000015B6  8B 70 10	     2	            mov  esi, 16[eax]
 000015B9  0F 0B	     2	        BYTE            0fh, 0bh            
 000015BB  00AD		     2	        WORD            173               
 000015BD  5E		     2	        pop  esi
 000015BE  5F		     2	        pop  edi
 000015BF  5B		     2	        pop  ebx
 000015C0  C3		     2	        ret
 000015C1		     2	        OZ_174   LABEL PROC
 000015C1  8D 44 24 04	     2	        lea  eax,  4[esp]
 000015C5  53		     2	        push ebx
 000015C6  57		     2	        push edi
 000015C7  56		     2	        push esi
 000015C8  8B 18	     2	            mov  ebx,   [eax]
 000015CA  8B 48 04	     2	            mov  ecx,  4[eax]
 000015CD  8B 50 08	     2	            mov  edx,  8[eax]
 000015D0  8B 78 0C	     2	            mov  edi, 12[eax]
 000015D3  8B 70 10	     2	            mov  esi, 16[eax]
 000015D6  0F 0B	     2	        BYTE            0fh, 0bh            
 000015D8  00AE		     2	        WORD            174               
 000015DA  5E		     2	        pop  esi
 000015DB  5F		     2	        pop  edi
 000015DC  5B		     2	        pop  ebx
 000015DD  C3		     2	        ret
 000015DE		     2	        OZ_175   LABEL PROC
 000015DE  8D 44 24 04	     2	        lea  eax,  4[esp]
 000015E2  53		     2	        push ebx
 000015E3  57		     2	        push edi
 000015E4  56		     2	        push esi
 000015E5  8B 18	     2	            mov  ebx,   [eax]
 000015E7  8B 48 04	     2	            mov  ecx,  4[eax]
 000015EA  8B 50 08	     2	            mov  edx,  8[eax]
 000015ED  8B 78 0C	     2	            mov  edi, 12[eax]
 000015F0  8B 70 10	     2	            mov  esi, 16[eax]
 000015F3  0F 0B	     2	        BYTE            0fh, 0bh            
 000015F5  00AF		     2	        WORD            175               
 000015F7  5E		     2	        pop  esi
 000015F8  5F		     2	        pop  edi
 000015F9  5B		     2	        pop  ebx
 000015FA  C3		     2	        ret
 000015FB		     2	        OZ_176   LABEL PROC
 000015FB  8D 44 24 04	     2	        lea  eax,  4[esp]
 000015FF  53		     2	        push ebx
 00001600  57		     2	        push edi
 00001601  56		     2	        push esi
 00001602  8B 18	     2	            mov  ebx,   [eax]
 00001604  8B 48 04	     2	            mov  ecx,  4[eax]
 00001607  8B 50 08	     2	            mov  edx,  8[eax]
 0000160A  8B 78 0C	     2	            mov  edi, 12[eax]
 0000160D  8B 70 10	     2	            mov  esi, 16[eax]
 00001610  0F 0B	     2	        BYTE            0fh, 0bh            
 00001612  00B0		     2	        WORD            176               
 00001614  5E		     2	        pop  esi
 00001615  5F		     2	        pop  edi
 00001616  5B		     2	        pop  ebx
 00001617  C3		     2	        ret
 00001618		     2	        OZ_177   LABEL PROC
 00001618  8D 44 24 04	     2	        lea  eax,  4[esp]
 0000161C  53		     2	        push ebx
 0000161D  57		     2	        push edi
 0000161E  56		     2	        push esi
 0000161F  8B 18	     2	            mov  ebx,   [eax]
 00001621  8B 48 04	     2	            mov  ecx,  4[eax]
 00001624  8B 50 08	     2	            mov  edx,  8[eax]
 00001627  8B 78 0C	     2	            mov  edi, 12[eax]
 0000162A  8B 70 10	     2	            mov  esi, 16[eax]
 0000162D  0F 0B	     2	        BYTE            0fh, 0bh            
 0000162F  00B1		     2	        WORD            177               
 00001631  5E		     2	        pop  esi
 00001632  5F		     2	        pop  edi
 00001633  5B		     2	        pop  ebx
 00001634  C3		     2	        ret
 00001635		     2	        OZ_178   LABEL PROC
 00001635  8D 44 24 04	     2	        lea  eax,  4[esp]
 00001639  53		     2	        push ebx
 0000163A  57		     2	        push edi
 0000163B  56		     2	        push esi
 0000163C  8B 18	     2	            mov  ebx,   [eax]
 0000163E  8B 48 04	     2	            mov  ecx,  4[eax]
 00001641  8B 50 08	     2	            mov  edx,  8[eax]
 00001644  8B 78 0C	     2	            mov  edi, 12[eax]
 00001647  8B 70 10	     2	            mov  esi, 16[eax]
 0000164A  0F 0B	     2	        BYTE            0fh, 0bh            
 0000164C  00B2		     2	        WORD            178               
 0000164E  5E		     2	        pop  esi
 0000164F  5F		     2	        pop  edi
 00001650  5B		     2	        pop  ebx
 00001651  C3		     2	        ret
 00001652		     2	        OZ_179   LABEL PROC
 00001652  8D 44 24 04	     2	        lea  eax,  4[esp]
 00001656  53		     2	        push ebx
 00001657  57		     2	        push edi
 00001658  56		     2	        push esi
 00001659  8B 18	     2	            mov  ebx,   [eax]
 0000165B  8B 48 04	     2	            mov  ecx,  4[eax]
 0000165E  8B 50 08	     2	            mov  edx,  8[eax]
 00001661  8B 78 0C	     2	            mov  edi, 12[eax]
 00001664  8B 70 10	     2	            mov  esi, 16[eax]
 00001667  0F 0B	     2	        BYTE            0fh, 0bh            
 00001669  00B3		     2	        WORD            179               
 0000166B  5E		     2	        pop  esi
 0000166C  5F		     2	        pop  edi
 0000166D  5B		     2	        pop  ebx
 0000166E  C3		     2	        ret
 0000166F		     2	        OZ_180   LABEL PROC
 0000166F  8D 44 24 04	     2	        lea  eax,  4[esp]
 00001673  53		     2	        push ebx
 00001674  57		     2	        push edi
 00001675  56		     2	        push esi
 00001676  8B 18	     2	            mov  ebx,   [eax]
 00001678  8B 48 04	     2	            mov  ecx,  4[eax]
 0000167B  8B 50 08	     2	            mov  edx,  8[eax]
 0000167E  8B 78 0C	     2	            mov  edi, 12[eax]
 00001681  8B 70 10	     2	            mov  esi, 16[eax]
 00001684  0F 0B	     2	        BYTE            0fh, 0bh            
 00001686  00B4		     2	        WORD            180               
 00001688  5E		     2	        pop  esi
 00001689  5F		     2	        pop  edi
 0000168A  5B		     2	        pop  ebx
 0000168B  C3		     2	        ret
 0000168C		     2	        OZ_181   LABEL PROC
 0000168C  8D 44 24 04	     2	        lea  eax,  4[esp]
 00001690  53		     2	        push ebx
 00001691  57		     2	        push edi
 00001692  56		     2	        push esi
 00001693  8B 18	     2	            mov  ebx,   [eax]
 00001695  8B 48 04	     2	            mov  ecx,  4[eax]
 00001698  8B 50 08	     2	            mov  edx,  8[eax]
 0000169B  8B 78 0C	     2	            mov  edi, 12[eax]
 0000169E  8B 70 10	     2	            mov  esi, 16[eax]
 000016A1  0F 0B	     2	        BYTE            0fh, 0bh            
 000016A3  00B5		     2	        WORD            181               
 000016A5  5E		     2	        pop  esi
 000016A6  5F		     2	        pop  edi
 000016A7  5B		     2	        pop  ebx
 000016A8  C3		     2	        ret
 000016A9		     2	        OZ_182   LABEL PROC
 000016A9  8D 44 24 04	     2	        lea  eax,  4[esp]
 000016AD  53		     2	        push ebx
 000016AE  57		     2	        push edi
 000016AF  56		     2	        push esi
 000016B0  8B 18	     2	            mov  ebx,   [eax]
 000016B2  8B 48 04	     2	            mov  ecx,  4[eax]
 000016B5  8B 50 08	     2	            mov  edx,  8[eax]
 000016B8  8B 78 0C	     2	            mov  edi, 12[eax]
 000016BB  8B 70 10	     2	            mov  esi, 16[eax]
 000016BE  0F 0B	     2	        BYTE            0fh, 0bh            
 000016C0  00B6		     2	        WORD            182               
 000016C2  5E		     2	        pop  esi
 000016C3  5F		     2	        pop  edi
 000016C4  5B		     2	        pop  ebx
 000016C5  C3		     2	        ret
 000016C6		     2	        OZ_183   LABEL PROC
 000016C6  8D 44 24 04	     2	        lea  eax,  4[esp]
 000016CA  53		     2	        push ebx
 000016CB  57		     2	        push edi
 000016CC  56		     2	        push esi
 000016CD  8B 18	     2	            mov  ebx,   [eax]
 000016CF  8B 48 04	     2	            mov  ecx,  4[eax]
 000016D2  8B 50 08	     2	            mov  edx,  8[eax]
 000016D5  8B 78 0C	     2	            mov  edi, 12[eax]
 000016D8  8B 70 10	     2	            mov  esi, 16[eax]
 000016DB  0F 0B	     2	        BYTE            0fh, 0bh            
 000016DD  00B7		     2	        WORD            183               
 000016DF  5E		     2	        pop  esi
 000016E0  5F		     2	        pop  edi
 000016E1  5B		     2	        pop  ebx
 000016E2  C3		     2	        ret
 000016E3		     2	        OZ_184   LABEL PROC
 000016E3  8D 44 24 04	     2	        lea  eax,  4[esp]
 000016E7  53		     2	        push ebx
 000016E8  57		     2	        push edi
 000016E9  56		     2	        push esi
 000016EA  8B 18	     2	            mov  ebx,   [eax]
 000016EC  8B 48 04	     2	            mov  ecx,  4[eax]
 000016EF  8B 50 08	     2	            mov  edx,  8[eax]
 000016F2  8B 78 0C	     2	            mov  edi, 12[eax]
 000016F5  8B 70 10	     2	            mov  esi, 16[eax]
 000016F8  0F 0B	     2	        BYTE            0fh, 0bh            
 000016FA  00B8		     2	        WORD            184               
 000016FC  5E		     2	        pop  esi
 000016FD  5F		     2	        pop  edi
 000016FE  5B		     2	        pop  ebx
 000016FF  C3		     2	        ret
 00001700		     2	        OZ_185   LABEL PROC
 00001700  8D 44 24 04	     2	        lea  eax,  4[esp]
 00001704  53		     2	        push ebx
 00001705  57		     2	        push edi
 00001706  56		     2	        push esi
 00001707  8B 18	     2	            mov  ebx,   [eax]
 00001709  8B 48 04	     2	            mov  ecx,  4[eax]
 0000170C  8B 50 08	     2	            mov  edx,  8[eax]
 0000170F  8B 78 0C	     2	            mov  edi, 12[eax]
 00001712  8B 70 10	     2	            mov  esi, 16[eax]
 00001715  0F 0B	     2	        BYTE            0fh, 0bh            
 00001717  00B9		     2	        WORD            185               
 00001719  5E		     2	        pop  esi
 0000171A  5F		     2	        pop  edi
 0000171B  5B		     2	        pop  ebx
 0000171C  C3		     2	        ret
 0000171D		     2	        OZ_186   LABEL PROC
 0000171D  8D 44 24 04	     2	        lea  eax,  4[esp]
 00001721  53		     2	        push ebx
 00001722  57		     2	        push edi
 00001723  56		     2	        push esi
 00001724  8B 18	     2	            mov  ebx,   [eax]
 00001726  8B 48 04	     2	            mov  ecx,  4[eax]
 00001729  8B 50 08	     2	            mov  edx,  8[eax]
 0000172C  8B 78 0C	     2	            mov  edi, 12[eax]
 0000172F  8B 70 10	     2	            mov  esi, 16[eax]
 00001732  0F 0B	     2	        BYTE            0fh, 0bh            
 00001734  00BA		     2	        WORD            186               
 00001736  5E		     2	        pop  esi
 00001737  5F		     2	        pop  edi
 00001738  5B		     2	        pop  ebx
 00001739  C3		     2	        ret
 0000173A		     2	        OZ_187   LABEL PROC
 0000173A  8D 44 24 04	     2	        lea  eax,  4[esp]
 0000173E  53		     2	        push ebx
 0000173F  57		     2	        push edi
 00001740  56		     2	        push esi
 00001741  8B 18	     2	            mov  ebx,   [eax]
 00001743  8B 48 04	     2	            mov  ecx,  4[eax]
 00001746  8B 50 08	     2	            mov  edx,  8[eax]
 00001749  8B 78 0C	     2	            mov  edi, 12[eax]
 0000174C  8B 70 10	     2	            mov  esi, 16[eax]
 0000174F  0F 0B	     2	        BYTE            0fh, 0bh            
 00001751  00BB		     2	        WORD            187               
 00001753  5E		     2	        pop  esi
 00001754  5F		     2	        pop  edi
 00001755  5B		     2	        pop  ebx
 00001756  C3		     2	        ret
 00001757		     2	        OZ_188   LABEL PROC
 00001757  8D 44 24 04	     2	        lea  eax,  4[esp]
 0000175B  53		     2	        push ebx
 0000175C  57		     2	        push edi
 0000175D  56		     2	        push esi
 0000175E  8B 18	     2	            mov  ebx,   [eax]
 00001760  8B 48 04	     2	            mov  ecx,  4[eax]
 00001763  8B 50 08	     2	            mov  edx,  8[eax]
 00001766  8B 78 0C	     2	            mov  edi, 12[eax]
 00001769  8B 70 10	     2	            mov  esi, 16[eax]
 0000176C  0F 0B	     2	        BYTE            0fh, 0bh            
 0000176E  00BC		     2	        WORD            188               
 00001770  5E		     2	        pop  esi
 00001771  5F		     2	        pop  edi
 00001772  5B		     2	        pop  ebx
 00001773  C3		     2	        ret
 00001774		     2	        OZ_189   LABEL PROC
 00001774  8D 44 24 04	     2	        lea  eax,  4[esp]
 00001778  53		     2	        push ebx
 00001779  57		     2	        push edi
 0000177A  56		     2	        push esi
 0000177B  8B 18	     2	            mov  ebx,   [eax]
 0000177D  8B 48 04	     2	            mov  ecx,  4[eax]
 00001780  8B 50 08	     2	            mov  edx,  8[eax]
 00001783  8B 78 0C	     2	            mov  edi, 12[eax]
 00001786  8B 70 10	     2	            mov  esi, 16[eax]
 00001789  0F 0B	     2	        BYTE            0fh, 0bh            
 0000178B  00BD		     2	        WORD            189               
 0000178D  5E		     2	        pop  esi
 0000178E  5F		     2	        pop  edi
 0000178F  5B		     2	        pop  ebx
 00001790  C3		     2	        ret
 00001791		     2	        OZ_190   LABEL PROC
 00001791  8D 44 24 04	     2	        lea  eax,  4[esp]
 00001795  53		     2	        push ebx
 00001796  57		     2	        push edi
 00001797  56		     2	        push esi
 00001798  8B 18	     2	            mov  ebx,   [eax]
 0000179A  8B 48 04	     2	            mov  ecx,  4[eax]
 0000179D  8B 50 08	     2	            mov  edx,  8[eax]
 000017A0  8B 78 0C	     2	            mov  edi, 12[eax]
 000017A3  8B 70 10	     2	            mov  esi, 16[eax]
 000017A6  0F 0B	     2	        BYTE            0fh, 0bh            
 000017A8  00BE		     2	        WORD            190               
 000017AA  5E		     2	        pop  esi
 000017AB  5F		     2	        pop  edi
 000017AC  5B		     2	        pop  ebx
 000017AD  C3		     2	        ret
 000017AE		     2	        OZ_191   LABEL PROC
 000017AE  8D 44 24 04	     2	        lea  eax,  4[esp]
 000017B2  53		     2	        push ebx
 000017B3  57		     2	        push edi
 000017B4  56		     2	        push esi
 000017B5  8B 18	     2	            mov  ebx,   [eax]
 000017B7  8B 48 04	     2	            mov  ecx,  4[eax]
 000017BA  8B 50 08	     2	            mov  edx,  8[eax]
 000017BD  8B 78 0C	     2	            mov  edi, 12[eax]
 000017C0  8B 70 10	     2	            mov  esi, 16[eax]
 000017C3  0F 0B	     2	        BYTE            0fh, 0bh            
 000017C5  00BF		     2	        WORD            191               
 000017C7  5E		     2	        pop  esi
 000017C8  5F		     2	        pop  edi
 000017C9  5B		     2	        pop  ebx
 000017CA  C3		     2	        ret
 000017CB		     2	        OZ_192   LABEL PROC
 000017CB  8D 44 24 04	     2	        lea  eax,  4[esp]
 000017CF  53		     2	        push ebx
 000017D0  57		     2	        push edi
 000017D1  56		     2	        push esi
 000017D2  8B 18	     2	            mov  ebx,   [eax]
 000017D4  8B 48 04	     2	            mov  ecx,  4[eax]
 000017D7  8B 50 08	     2	            mov  edx,  8[eax]
 000017DA  8B 78 0C	     2	            mov  edi, 12[eax]
 000017DD  8B 70 10	     2	            mov  esi, 16[eax]
 000017E0  0F 0B	     2	        BYTE            0fh, 0bh            
 000017E2  00C0		     2	        WORD            192               
 000017E4  5E		     2	        pop  esi
 000017E5  5F		     2	        pop  edi
 000017E6  5B		     2	        pop  ebx
 000017E7  C3		     2	        ret
 000017E8		     2	        OZ_193   LABEL PROC
 000017E8  8D 44 24 04	     2	        lea  eax,  4[esp]
 000017EC  53		     2	        push ebx
 000017ED  57		     2	        push edi
 000017EE  56		     2	        push esi
 000017EF  8B 18	     2	            mov  ebx,   [eax]
 000017F1  8B 48 04	     2	            mov  ecx,  4[eax]
 000017F4  8B 50 08	     2	            mov  edx,  8[eax]
 000017F7  8B 78 0C	     2	            mov  edi, 12[eax]
 000017FA  8B 70 10	     2	            mov  esi, 16[eax]
 000017FD  0F 0B	     2	        BYTE            0fh, 0bh            
 000017FF  00C1		     2	        WORD            193               
 00001801  5E		     2	        pop  esi
 00001802  5F		     2	        pop  edi
 00001803  5B		     2	        pop  ebx
 00001804  C3		     2	        ret
 00001805		     2	        OZ_194   LABEL PROC
 00001805  8D 44 24 04	     2	        lea  eax,  4[esp]
 00001809  53		     2	        push ebx
 0000180A  57		     2	        push edi
 0000180B  56		     2	        push esi
 0000180C  8B 18	     2	            mov  ebx,   [eax]
 0000180E  8B 48 04	     2	            mov  ecx,  4[eax]
 00001811  8B 50 08	     2	            mov  edx,  8[eax]
 00001814  8B 78 0C	     2	            mov  edi, 12[eax]
 00001817  8B 70 10	     2	            mov  esi, 16[eax]
 0000181A  0F 0B	     2	        BYTE            0fh, 0bh            
 0000181C  00C2		     2	        WORD            194               
 0000181E  5E		     2	        pop  esi
 0000181F  5F		     2	        pop  edi
 00001820  5B		     2	        pop  ebx
 00001821  C3		     2	        ret
 00001822		     2	        OZ_195   LABEL PROC
 00001822  8D 44 24 04	     2	        lea  eax,  4[esp]
 00001826  53		     2	        push ebx
 00001827  57		     2	        push edi
 00001828  56		     2	        push esi
 00001829  8B 18	     2	            mov  ebx,   [eax]
 0000182B  8B 48 04	     2	            mov  ecx,  4[eax]
 0000182E  8B 50 08	     2	            mov  edx,  8[eax]
 00001831  8B 78 0C	     2	            mov  edi, 12[eax]
 00001834  8B 70 10	     2	            mov  esi, 16[eax]
 00001837  0F 0B	     2	        BYTE            0fh, 0bh            
 00001839  00C3		     2	        WORD            195               
 0000183B  5E		     2	        pop  esi
 0000183C  5F		     2	        pop  edi
 0000183D  5B		     2	        pop  ebx
 0000183E  C3		     2	        ret
 0000183F		     2	        OZ_196   LABEL PROC
 0000183F  8D 44 24 04	     2	        lea  eax,  4[esp]
 00001843  53		     2	        push ebx
 00001844  57		     2	        push edi
 00001845  56		     2	        push esi
 00001846  8B 18	     2	            mov  ebx,   [eax]
 00001848  8B 48 04	     2	            mov  ecx,  4[eax]
 0000184B  8B 50 08	     2	            mov  edx,  8[eax]
 0000184E  8B 78 0C	     2	            mov  edi, 12[eax]
 00001851  8B 70 10	     2	            mov  esi, 16[eax]
 00001854  0F 0B	     2	        BYTE            0fh, 0bh            
 00001856  00C4		     2	        WORD            196               
 00001858  5E		     2	        pop  esi
 00001859  5F		     2	        pop  edi
 0000185A  5B		     2	        pop  ebx
 0000185B  C3		     2	        ret
 0000185C		     2	        OZ_197   LABEL PROC
 0000185C  8D 44 24 04	     2	        lea  eax,  4[esp]
 00001860  53		     2	        push ebx
 00001861  57		     2	        push edi
 00001862  56		     2	        push esi
 00001863  8B 18	     2	            mov  ebx,   [eax]
 00001865  8B 48 04	     2	            mov  ecx,  4[eax]
 00001868  8B 50 08	     2	            mov  edx,  8[eax]
 0000186B  8B 78 0C	     2	            mov  edi, 12[eax]
 0000186E  8B 70 10	     2	            mov  esi, 16[eax]
 00001871  0F 0B	     2	        BYTE            0fh, 0bh            
 00001873  00C5		     2	        WORD            197               
 00001875  5E		     2	        pop  esi
 00001876  5F		     2	        pop  edi
 00001877  5B		     2	        pop  ebx
 00001878  C3		     2	        ret
 00001879		     2	        OZ_198   LABEL PROC
 00001879  8D 44 24 04	     2	        lea  eax,  4[esp]
 0000187D  53		     2	        push ebx
 0000187E  57		     2	        push edi
 0000187F  56		     2	        push esi
 00001880  8B 18	     2	            mov  ebx,   [eax]
 00001882  8B 48 04	     2	            mov  ecx,  4[eax]
 00001885  8B 50 08	     2	            mov  edx,  8[eax]
 00001888  8B 78 0C	     2	            mov  edi, 12[eax]
 0000188B  8B 70 10	     2	            mov  esi, 16[eax]
 0000188E  0F 0B	     2	        BYTE            0fh, 0bh            
 00001890  00C6		     2	        WORD            198               
 00001892  5E		     2	        pop  esi
 00001893  5F		     2	        pop  edi
 00001894  5B		     2	        pop  ebx
 00001895  C3		     2	        ret
 00001896		     2	        OZ_199   LABEL PROC
 00001896  8D 44 24 04	     2	        lea  eax,  4[esp]
 0000189A  53		     2	        push ebx
 0000189B  57		     2	        push edi
 0000189C  56		     2	        push esi
 0000189D  8B 18	     2	            mov  ebx,   [eax]
 0000189F  8B 48 04	     2	            mov  ecx,  4[eax]
 000018A2  8B 50 08	     2	            mov  edx,  8[eax]
 000018A5  8B 78 0C	     2	            mov  edi, 12[eax]
 000018A8  8B 70 10	     2	            mov  esi, 16[eax]
 000018AB  0F 0B	     2	        BYTE            0fh, 0bh            
 000018AD  00C7		     2	        WORD            199               
 000018AF  5E		     2	        pop  esi
 000018B0  5F		     2	        pop  edi
 000018B1  5B		     2	        pop  ebx
 000018B2  C3		     2	        ret
 000018B3		     2	        OZ_200   LABEL PROC
 000018B3  8D 44 24 04	     2	        lea  eax,  4[esp]
 000018B7  53		     2	        push ebx
 000018B8  57		     2	        push edi
 000018B9  56		     2	        push esi
 000018BA  8B 18	     2	            mov  ebx,   [eax]
 000018BC  8B 48 04	     2	            mov  ecx,  4[eax]
 000018BF  8B 50 08	     2	            mov  edx,  8[eax]
 000018C2  8B 78 0C	     2	            mov  edi, 12[eax]
 000018C5  8B 70 10	     2	            mov  esi, 16[eax]
 000018C8  0F 0B	     2	        BYTE            0fh, 0bh            
 000018CA  00C8		     2	        WORD            200               
 000018CC  5E		     2	        pop  esi
 000018CD  5F		     2	        pop  edi
 000018CE  5B		     2	        pop  ebx
 000018CF  C3		     2	        ret
 000018D0		     2	        OZ_201   LABEL PROC
 000018D0  8D 44 24 04	     2	        lea  eax,  4[esp]
 000018D4  53		     2	        push ebx
 000018D5  57		     2	        push edi
 000018D6  56		     2	        push esi
 000018D7  8B 18	     2	            mov  ebx,   [eax]
 000018D9  8B 48 04	     2	            mov  ecx,  4[eax]
 000018DC  8B 50 08	     2	            mov  edx,  8[eax]
 000018DF  8B 78 0C	     2	            mov  edi, 12[eax]
 000018E2  8B 70 10	     2	            mov  esi, 16[eax]
 000018E5  0F 0B	     2	        BYTE            0fh, 0bh            
 000018E7  00C9		     2	        WORD            201               
 000018E9  5E		     2	        pop  esi
 000018EA  5F		     2	        pop  edi
 000018EB  5B		     2	        pop  ebx
 000018EC  C3		     2	        ret
 000018ED		     2	        OZ_202   LABEL PROC
 000018ED  8D 44 24 04	     2	        lea  eax,  4[esp]
 000018F1  53		     2	        push ebx
 000018F2  57		     2	        push edi
 000018F3  56		     2	        push esi
 000018F4  8B 18	     2	            mov  ebx,   [eax]
 000018F6  8B 48 04	     2	            mov  ecx,  4[eax]
 000018F9  8B 50 08	     2	            mov  edx,  8[eax]
 000018FC  8B 78 0C	     2	            mov  edi, 12[eax]
 000018FF  8B 70 10	     2	            mov  esi, 16[eax]
 00001902  0F 0B	     2	        BYTE            0fh, 0bh            
 00001904  00CA		     2	        WORD            202               
 00001906  5E		     2	        pop  esi
 00001907  5F		     2	        pop  edi
 00001908  5B		     2	        pop  ebx
 00001909  C3		     2	        ret
 0000190A		     2	        OZ_203   LABEL PROC
 0000190A  8D 44 24 04	     2	        lea  eax,  4[esp]
 0000190E  53		     2	        push ebx
 0000190F  57		     2	        push edi
 00001910  56		     2	        push esi
 00001911  8B 18	     2	            mov  ebx,   [eax]
 00001913  8B 48 04	     2	            mov  ecx,  4[eax]
 00001916  8B 50 08	     2	            mov  edx,  8[eax]
 00001919  8B 78 0C	     2	            mov  edi, 12[eax]
 0000191C  8B 70 10	     2	            mov  esi, 16[eax]
 0000191F  0F 0B	     2	        BYTE            0fh, 0bh            
 00001921  00CB		     2	        WORD            203               
 00001923  5E		     2	        pop  esi
 00001924  5F		     2	        pop  edi
 00001925  5B		     2	        pop  ebx
 00001926  C3		     2	        ret
 00001927		     2	        OZ_204   LABEL PROC
 00001927  8D 44 24 04	     2	        lea  eax,  4[esp]
 0000192B  53		     2	        push ebx
 0000192C  57		     2	        push edi
 0000192D  56		     2	        push esi
 0000192E  8B 18	     2	            mov  ebx,   [eax]
 00001930  8B 48 04	     2	            mov  ecx,  4[eax]
 00001933  8B 50 08	     2	            mov  edx,  8[eax]
 00001936  8B 78 0C	     2	            mov  edi, 12[eax]
 00001939  8B 70 10	     2	            mov  esi, 16[eax]
 0000193C  0F 0B	     2	        BYTE            0fh, 0bh            
 0000193E  00CC		     2	        WORD            204               
 00001940  5E		     2	        pop  esi
 00001941  5F		     2	        pop  edi
 00001942  5B		     2	        pop  ebx
 00001943  C3		     2	        ret
 00001944		     2	        OZ_205   LABEL PROC
 00001944  8D 44 24 04	     2	        lea  eax,  4[esp]
 00001948  53		     2	        push ebx
 00001949  57		     2	        push edi
 0000194A  56		     2	        push esi
 0000194B  8B 18	     2	            mov  ebx,   [eax]
 0000194D  8B 48 04	     2	            mov  ecx,  4[eax]
 00001950  8B 50 08	     2	            mov  edx,  8[eax]
 00001953  8B 78 0C	     2	            mov  edi, 12[eax]
 00001956  8B 70 10	     2	            mov  esi, 16[eax]
 00001959  0F 0B	     2	        BYTE            0fh, 0bh            
 0000195B  00CD		     2	        WORD            205               
 0000195D  5E		     2	        pop  esi
 0000195E  5F		     2	        pop  edi
 0000195F  5B		     2	        pop  ebx
 00001960  C3		     2	        ret
 00001961		     2	        OZ_206   LABEL PROC
 00001961  8D 44 24 04	     2	        lea  eax,  4[esp]
 00001965  53		     2	        push ebx
 00001966  57		     2	        push edi
 00001967  56		     2	        push esi
 00001968  8B 18	     2	            mov  ebx,   [eax]
 0000196A  8B 48 04	     2	            mov  ecx,  4[eax]
 0000196D  8B 50 08	     2	            mov  edx,  8[eax]
 00001970  8B 78 0C	     2	            mov  edi, 12[eax]
 00001973  8B 70 10	     2	            mov  esi, 16[eax]
 00001976  0F 0B	     2	        BYTE            0fh, 0bh            
 00001978  00CE		     2	        WORD            206               
 0000197A  5E		     2	        pop  esi
 0000197B  5F		     2	        pop  edi
 0000197C  5B		     2	        pop  ebx
 0000197D  C3		     2	        ret
 0000197E		     2	        OZ_207   LABEL PROC
 0000197E  8D 44 24 04	     2	        lea  eax,  4[esp]
 00001982  53		     2	        push ebx
 00001983  57		     2	        push edi
 00001984  56		     2	        push esi
 00001985  8B 18	     2	            mov  ebx,   [eax]
 00001987  8B 48 04	     2	            mov  ecx,  4[eax]
 0000198A  8B 50 08	     2	            mov  edx,  8[eax]
 0000198D  8B 78 0C	     2	            mov  edi, 12[eax]
 00001990  8B 70 10	     2	            mov  esi, 16[eax]
 00001993  0F 0B	     2	        BYTE            0fh, 0bh            
 00001995  00CF		     2	        WORD            207               
 00001997  5E		     2	        pop  esi
 00001998  5F		     2	        pop  edi
 00001999  5B		     2	        pop  ebx
 0000199A  C3		     2	        ret
 0000199B		     2	        OZ_208   LABEL PROC
 0000199B  8D 44 24 04	     2	        lea  eax,  4[esp]
 0000199F  53		     2	        push ebx
 000019A0  57		     2	        push edi
 000019A1  56		     2	        push esi
 000019A2  8B 18	     2	            mov  ebx,   [eax]
 000019A4  8B 48 04	     2	            mov  ecx,  4[eax]
 000019A7  8B 50 08	     2	            mov  edx,  8[eax]
 000019AA  8B 78 0C	     2	            mov  edi, 12[eax]
 000019AD  8B 70 10	     2	            mov  esi, 16[eax]
 000019B0  0F 0B	     2	        BYTE            0fh, 0bh            
 000019B2  00D0		     2	        WORD            208               
 000019B4  5E		     2	        pop  esi
 000019B5  5F		     2	        pop  edi
 000019B6  5B		     2	        pop  ebx
 000019B7  C3		     2	        ret
 000019B8		     2	        OZ_209   LABEL PROC
 000019B8  8D 44 24 04	     2	        lea  eax,  4[esp]
 000019BC  53		     2	        push ebx
 000019BD  57		     2	        push edi
 000019BE  56		     2	        push esi
 000019BF  8B 18	     2	            mov  ebx,   [eax]
 000019C1  8B 48 04	     2	            mov  ecx,  4[eax]
 000019C4  8B 50 08	     2	            mov  edx,  8[eax]
 000019C7  8B 78 0C	     2	            mov  edi, 12[eax]
 000019CA  8B 70 10	     2	            mov  esi, 16[eax]
 000019CD  0F 0B	     2	        BYTE            0fh, 0bh            
 000019CF  00D1		     2	        WORD            209               
 000019D1  5E		     2	        pop  esi
 000019D2  5F		     2	        pop  edi
 000019D3  5B		     2	        pop  ebx
 000019D4  C3		     2	        ret
 000019D5		     2	        OZ_210   LABEL PROC
 000019D5  8D 44 24 04	     2	        lea  eax,  4[esp]
 000019D9  53		     2	        push ebx
 000019DA  57		     2	        push edi
 000019DB  56		     2	        push esi
 000019DC  8B 18	     2	            mov  ebx,   [eax]
 000019DE  8B 48 04	     2	            mov  ecx,  4[eax]
 000019E1  8B 50 08	     2	            mov  edx,  8[eax]
 000019E4  8B 78 0C	     2	            mov  edi, 12[eax]
 000019E7  8B 70 10	     2	            mov  esi, 16[eax]
 000019EA  0F 0B	     2	        BYTE            0fh, 0bh            
 000019EC  00D2		     2	        WORD            210               
 000019EE  5E		     2	        pop  esi
 000019EF  5F		     2	        pop  edi
 000019F0  5B		     2	        pop  ebx
 000019F1  C3		     2	        ret
 000019F2		     2	        OZ_211   LABEL PROC
 000019F2  8D 44 24 04	     2	        lea  eax,  4[esp]
 000019F6  53		     2	        push ebx
 000019F7  57		     2	        push edi
 000019F8  56		     2	        push esi
 000019F9  8B 18	     2	            mov  ebx,   [eax]
 000019FB  8B 48 04	     2	            mov  ecx,  4[eax]
 000019FE  8B 50 08	     2	            mov  edx,  8[eax]
 00001A01  8B 78 0C	     2	            mov  edi, 12[eax]
 00001A04  8B 70 10	     2	            mov  esi, 16[eax]
 00001A07  0F 0B	     2	        BYTE            0fh, 0bh            
 00001A09  00D3		     2	        WORD            211               
 00001A0B  5E		     2	        pop  esi
 00001A0C  5F		     2	        pop  edi
 00001A0D  5B		     2	        pop  ebx
 00001A0E  C3		     2	        ret
 00001A0F		     2	        OZ_212   LABEL PROC
 00001A0F  8D 44 24 04	     2	        lea  eax,  4[esp]
 00001A13  53		     2	        push ebx
 00001A14  57		     2	        push edi
 00001A15  56		     2	        push esi
 00001A16  8B 18	     2	            mov  ebx,   [eax]
 00001A18  8B 48 04	     2	            mov  ecx,  4[eax]
 00001A1B  8B 50 08	     2	            mov  edx,  8[eax]
 00001A1E  8B 78 0C	     2	            mov  edi, 12[eax]
 00001A21  8B 70 10	     2	            mov  esi, 16[eax]
 00001A24  0F 0B	     2	        BYTE            0fh, 0bh            
 00001A26  00D4		     2	        WORD            212               
 00001A28  5E		     2	        pop  esi
 00001A29  5F		     2	        pop  edi
 00001A2A  5B		     2	        pop  ebx
 00001A2B  C3		     2	        ret
 00001A2C		     2	        OZ_213   LABEL PROC
 00001A2C  8D 44 24 04	     2	        lea  eax,  4[esp]
 00001A30  53		     2	        push ebx
 00001A31  57		     2	        push edi
 00001A32  56		     2	        push esi
 00001A33  8B 18	     2	            mov  ebx,   [eax]
 00001A35  8B 48 04	     2	            mov  ecx,  4[eax]
 00001A38  8B 50 08	     2	            mov  edx,  8[eax]
 00001A3B  8B 78 0C	     2	            mov  edi, 12[eax]
 00001A3E  8B 70 10	     2	            mov  esi, 16[eax]
 00001A41  0F 0B	     2	        BYTE            0fh, 0bh            
 00001A43  00D5		     2	        WORD            213               
 00001A45  5E		     2	        pop  esi
 00001A46  5F		     2	        pop  edi
 00001A47  5B		     2	        pop  ebx
 00001A48  C3		     2	        ret
 00001A49		     2	        OZ_214   LABEL PROC
 00001A49  8D 44 24 04	     2	        lea  eax,  4[esp]
 00001A4D  53		     2	        push ebx
 00001A4E  57		     2	        push edi
 00001A4F  56		     2	        push esi
 00001A50  8B 18	     2	            mov  ebx,   [eax]
 00001A52  8B 48 04	     2	            mov  ecx,  4[eax]
 00001A55  8B 50 08	     2	            mov  edx,  8[eax]
 00001A58  8B 78 0C	     2	            mov  edi, 12[eax]
 00001A5B  8B 70 10	     2	            mov  esi, 16[eax]
 00001A5E  0F 0B	     2	        BYTE            0fh, 0bh            
 00001A60  00D6		     2	        WORD            214               
 00001A62  5E		     2	        pop  esi
 00001A63  5F		     2	        pop  edi
 00001A64  5B		     2	        pop  ebx
 00001A65  C3		     2	        ret
 00001A66		     2	        OZ_215   LABEL PROC
 00001A66  8D 44 24 04	     2	        lea  eax,  4[esp]
 00001A6A  53		     2	        push ebx
 00001A6B  57		     2	        push edi
 00001A6C  56		     2	        push esi
 00001A6D  8B 18	     2	            mov  ebx,   [eax]
 00001A6F  8B 48 04	     2	            mov  ecx,  4[eax]
 00001A72  8B 50 08	     2	            mov  edx,  8[eax]
 00001A75  8B 78 0C	     2	            mov  edi, 12[eax]
 00001A78  8B 70 10	     2	            mov  esi, 16[eax]
 00001A7B  0F 0B	     2	        BYTE            0fh, 0bh            
 00001A7D  00D7		     2	        WORD            215               
 00001A7F  5E		     2	        pop  esi
 00001A80  5F		     2	        pop  edi
 00001A81  5B		     2	        pop  ebx
 00001A82  C3		     2	        ret
 00001A83		     2	        OZ_216   LABEL PROC
 00001A83  8D 44 24 04	     2	        lea  eax,  4[esp]
 00001A87  53		     2	        push ebx
 00001A88  57		     2	        push edi
 00001A89  56		     2	        push esi
 00001A8A  8B 18	     2	            mov  ebx,   [eax]
 00001A8C  8B 48 04	     2	            mov  ecx,  4[eax]
 00001A8F  8B 50 08	     2	            mov  edx,  8[eax]
 00001A92  8B 78 0C	     2	            mov  edi, 12[eax]
 00001A95  8B 70 10	     2	            mov  esi, 16[eax]
 00001A98  0F 0B	     2	        BYTE            0fh, 0bh            
 00001A9A  00D8		     2	        WORD            216               
 00001A9C  5E		     2	        pop  esi
 00001A9D  5F		     2	        pop  edi
 00001A9E  5B		     2	        pop  ebx
 00001A9F  C3		     2	        ret
 00001AA0		     2	        OZ_217   LABEL PROC
 00001AA0  8D 44 24 04	     2	        lea  eax,  4[esp]
 00001AA4  53		     2	        push ebx
 00001AA5  57		     2	        push edi
 00001AA6  56		     2	        push esi
 00001AA7  8B 18	     2	            mov  ebx,   [eax]
 00001AA9  8B 48 04	     2	            mov  ecx,  4[eax]
 00001AAC  8B 50 08	     2	            mov  edx,  8[eax]
 00001AAF  8B 78 0C	     2	            mov  edi, 12[eax]
 00001AB2  8B 70 10	     2	            mov  esi, 16[eax]
 00001AB5  0F 0B	     2	        BYTE            0fh, 0bh            
 00001AB7  00D9		     2	        WORD            217               
 00001AB9  5E		     2	        pop  esi
 00001ABA  5F		     2	        pop  edi
 00001ABB  5B		     2	        pop  ebx
 00001ABC  C3		     2	        ret
 00001ABD		     2	        OZ_218   LABEL PROC
 00001ABD  8D 44 24 04	     2	        lea  eax,  4[esp]
 00001AC1  53		     2	        push ebx
 00001AC2  57		     2	        push edi
 00001AC3  56		     2	        push esi
 00001AC4  8B 18	     2	            mov  ebx,   [eax]
 00001AC6  8B 48 04	     2	            mov  ecx,  4[eax]
 00001AC9  8B 50 08	     2	            mov  edx,  8[eax]
 00001ACC  8B 78 0C	     2	            mov  edi, 12[eax]
 00001ACF  8B 70 10	     2	            mov  esi, 16[eax]
 00001AD2  0F 0B	     2	        BYTE            0fh, 0bh            
 00001AD4  00DA		     2	        WORD            218               
 00001AD6  5E		     2	        pop  esi
 00001AD7  5F		     2	        pop  edi
 00001AD8  5B		     2	        pop  ebx
 00001AD9  C3		     2	        ret
 00001ADA		     2	        OZ_219   LABEL PROC
 00001ADA  8D 44 24 04	     2	        lea  eax,  4[esp]
 00001ADE  53		     2	        push ebx
 00001ADF  57		     2	        push edi
 00001AE0  56		     2	        push esi
 00001AE1  8B 18	     2	            mov  ebx,   [eax]
 00001AE3  8B 48 04	     2	            mov  ecx,  4[eax]
 00001AE6  8B 50 08	     2	            mov  edx,  8[eax]
 00001AE9  8B 78 0C	     2	            mov  edi, 12[eax]
 00001AEC  8B 70 10	     2	            mov  esi, 16[eax]
 00001AEF  0F 0B	     2	        BYTE            0fh, 0bh            
 00001AF1  00DB		     2	        WORD            219               
 00001AF3  5E		     2	        pop  esi
 00001AF4  5F		     2	        pop  edi
 00001AF5  5B		     2	        pop  ebx
 00001AF6  C3		     2	        ret
 00001AF7		     2	        OZ_220   LABEL PROC
 00001AF7  8D 44 24 04	     2	        lea  eax,  4[esp]
 00001AFB  53		     2	        push ebx
 00001AFC  57		     2	        push edi
 00001AFD  56		     2	        push esi
 00001AFE  8B 18	     2	            mov  ebx,   [eax]
 00001B00  8B 48 04	     2	            mov  ecx,  4[eax]
 00001B03  8B 50 08	     2	            mov  edx,  8[eax]
 00001B06  8B 78 0C	     2	            mov  edi, 12[eax]
 00001B09  8B 70 10	     2	            mov  esi, 16[eax]
 00001B0C  0F 0B	     2	        BYTE            0fh, 0bh            
 00001B0E  00DC		     2	        WORD            220               
 00001B10  5E		     2	        pop  esi
 00001B11  5F		     2	        pop  edi
 00001B12  5B		     2	        pop  ebx
 00001B13  C3		     2	        ret
 00001B14		     2	        OZ_221   LABEL PROC
 00001B14  8D 44 24 04	     2	        lea  eax,  4[esp]
 00001B18  53		     2	        push ebx
 00001B19  57		     2	        push edi
 00001B1A  56		     2	        push esi
 00001B1B  8B 18	     2	            mov  ebx,   [eax]
 00001B1D  8B 48 04	     2	            mov  ecx,  4[eax]
 00001B20  8B 50 08	     2	            mov  edx,  8[eax]
 00001B23  8B 78 0C	     2	            mov  edi, 12[eax]
 00001B26  8B 70 10	     2	            mov  esi, 16[eax]
 00001B29  0F 0B	     2	        BYTE            0fh, 0bh            
 00001B2B  00DD		     2	        WORD            221               
 00001B2D  5E		     2	        pop  esi
 00001B2E  5F		     2	        pop  edi
 00001B2F  5B		     2	        pop  ebx
 00001B30  C3		     2	        ret
 00001B31		     2	        OZ_222   LABEL PROC
 00001B31  8D 44 24 04	     2	        lea  eax,  4[esp]
 00001B35  53		     2	        push ebx
 00001B36  57		     2	        push edi
 00001B37  56		     2	        push esi
 00001B38  8B 18	     2	            mov  ebx,   [eax]
 00001B3A  8B 48 04	     2	            mov  ecx,  4[eax]
 00001B3D  8B 50 08	     2	            mov  edx,  8[eax]
 00001B40  8B 78 0C	     2	            mov  edi, 12[eax]
 00001B43  8B 70 10	     2	            mov  esi, 16[eax]
 00001B46  0F 0B	     2	        BYTE            0fh, 0bh            
 00001B48  00DE		     2	        WORD            222               
 00001B4A  5E		     2	        pop  esi
 00001B4B  5F		     2	        pop  edi
 00001B4C  5B		     2	        pop  ebx
 00001B4D  C3		     2	        ret
 00001B4E		     2	        OZ_223   LABEL PROC
 00001B4E  8D 44 24 04	     2	        lea  eax,  4[esp]
 00001B52  53		     2	        push ebx
 00001B53  57		     2	        push edi
 00001B54  56		     2	        push esi
 00001B55  8B 18	     2	            mov  ebx,   [eax]
 00001B57  8B 48 04	     2	            mov  ecx,  4[eax]
 00001B5A  8B 50 08	     2	            mov  edx,  8[eax]
 00001B5D  8B 78 0C	     2	            mov  edi, 12[eax]
 00001B60  8B 70 10	     2	            mov  esi, 16[eax]
 00001B63  0F 0B	     2	        BYTE            0fh, 0bh            
 00001B65  00DF		     2	        WORD            223               
 00001B67  5E		     2	        pop  esi
 00001B68  5F		     2	        pop  edi
 00001B69  5B		     2	        pop  ebx
 00001B6A  C3		     2	        ret
 00001B6B		     2	        OZ_224   LABEL PROC
 00001B6B  8D 44 24 04	     2	        lea  eax,  4[esp]
 00001B6F  53		     2	        push ebx
 00001B70  57		     2	        push edi
 00001B71  56		     2	        push esi
 00001B72  8B 18	     2	            mov  ebx,   [eax]
 00001B74  8B 48 04	     2	            mov  ecx,  4[eax]
 00001B77  8B 50 08	     2	            mov  edx,  8[eax]
 00001B7A  8B 78 0C	     2	            mov  edi, 12[eax]
 00001B7D  8B 70 10	     2	            mov  esi, 16[eax]
 00001B80  0F 0B	     2	        BYTE            0fh, 0bh            
 00001B82  00E0		     2	        WORD            224               
 00001B84  5E		     2	        pop  esi
 00001B85  5F		     2	        pop  edi
 00001B86  5B		     2	        pop  ebx
 00001B87  C3		     2	        ret
 00001B88		     2	        OZ_225   LABEL PROC
 00001B88  8D 44 24 04	     2	        lea  eax,  4[esp]
 00001B8C  53		     2	        push ebx
 00001B8D  57		     2	        push edi
 00001B8E  56		     2	        push esi
 00001B8F  8B 18	     2	            mov  ebx,   [eax]
 00001B91  8B 48 04	     2	            mov  ecx,  4[eax]
 00001B94  8B 50 08	     2	            mov  edx,  8[eax]
 00001B97  8B 78 0C	     2	            mov  edi, 12[eax]
 00001B9A  8B 70 10	     2	            mov  esi, 16[eax]
 00001B9D  0F 0B	     2	        BYTE            0fh, 0bh            
 00001B9F  00E1		     2	        WORD            225               
 00001BA1  5E		     2	        pop  esi
 00001BA2  5F		     2	        pop  edi
 00001BA3  5B		     2	        pop  ebx
 00001BA4  C3		     2	        ret
 00001BA5		     2	        OZ_226   LABEL PROC
 00001BA5  8D 44 24 04	     2	        lea  eax,  4[esp]
 00001BA9  53		     2	        push ebx
 00001BAA  57		     2	        push edi
 00001BAB  56		     2	        push esi
 00001BAC  8B 18	     2	            mov  ebx,   [eax]
 00001BAE  8B 48 04	     2	            mov  ecx,  4[eax]
 00001BB1  8B 50 08	     2	            mov  edx,  8[eax]
 00001BB4  8B 78 0C	     2	            mov  edi, 12[eax]
 00001BB7  8B 70 10	     2	            mov  esi, 16[eax]
 00001BBA  0F 0B	     2	        BYTE            0fh, 0bh            
 00001BBC  00E2		     2	        WORD            226               
 00001BBE  5E		     2	        pop  esi
 00001BBF  5F		     2	        pop  edi
 00001BC0  5B		     2	        pop  ebx
 00001BC1  C3		     2	        ret
 00001BC2		     2	        OZ_227   LABEL PROC
 00001BC2  8D 44 24 04	     2	        lea  eax,  4[esp]
 00001BC6  53		     2	        push ebx
 00001BC7  57		     2	        push edi
 00001BC8  56		     2	        push esi
 00001BC9  8B 18	     2	            mov  ebx,   [eax]
 00001BCB  8B 48 04	     2	            mov  ecx,  4[eax]
 00001BCE  8B 50 08	     2	            mov  edx,  8[eax]
 00001BD1  8B 78 0C	     2	            mov  edi, 12[eax]
 00001BD4  8B 70 10	     2	            mov  esi, 16[eax]
 00001BD7  0F 0B	     2	        BYTE            0fh, 0bh            
 00001BD9  00E3		     2	        WORD            227               
 00001BDB  5E		     2	        pop  esi
 00001BDC  5F		     2	        pop  edi
 00001BDD  5B		     2	        pop  ebx
 00001BDE  C3		     2	        ret
 00001BDF		     2	        OZ_228   LABEL PROC
 00001BDF  8D 44 24 04	     2	        lea  eax,  4[esp]
 00001BE3  53		     2	        push ebx
 00001BE4  57		     2	        push edi
 00001BE5  56		     2	        push esi
 00001BE6  8B 18	     2	            mov  ebx,   [eax]
 00001BE8  8B 48 04	     2	            mov  ecx,  4[eax]
 00001BEB  8B 50 08	     2	            mov  edx,  8[eax]
 00001BEE  8B 78 0C	     2	            mov  edi, 12[eax]
 00001BF1  8B 70 10	     2	            mov  esi, 16[eax]
 00001BF4  0F 0B	     2	        BYTE            0fh, 0bh            
 00001BF6  00E4		     2	        WORD            228               
 00001BF8  5E		     2	        pop  esi
 00001BF9  5F		     2	        pop  edi
 00001BFA  5B		     2	        pop  ebx
 00001BFB  C3		     2	        ret
 00001BFC		     2	        OZ_229   LABEL PROC
 00001BFC  8D 44 24 04	     2	        lea  eax,  4[esp]
 00001C00  53		     2	        push ebx
 00001C01  57		     2	        push edi
 00001C02  56		     2	        push esi
 00001C03  8B 18	     2	            mov  ebx,   [eax]
 00001C05  8B 48 04	     2	            mov  ecx,  4[eax]
 00001C08  8B 50 08	     2	            mov  edx,  8[eax]
 00001C0B  8B 78 0C	     2	            mov  edi, 12[eax]
 00001C0E  8B 70 10	     2	            mov  esi, 16[eax]
 00001C11  0F 0B	     2	        BYTE            0fh, 0bh            
 00001C13  00E5		     2	        WORD            229               
 00001C15  5E		     2	        pop  esi
 00001C16  5F		     2	        pop  edi
 00001C17  5B		     2	        pop  ebx
 00001C18  C3		     2	        ret
 00001C19		     2	        OZ_230   LABEL PROC
 00001C19  8D 44 24 04	     2	        lea  eax,  4[esp]
 00001C1D  53		     2	        push ebx
 00001C1E  57		     2	        push edi
 00001C1F  56		     2	        push esi
 00001C20  8B 18	     2	            mov  ebx,   [eax]
 00001C22  8B 48 04	     2	            mov  ecx,  4[eax]
 00001C25  8B 50 08	     2	            mov  edx,  8[eax]
 00001C28  8B 78 0C	     2	            mov  edi, 12[eax]
 00001C2B  8B 70 10	     2	            mov  esi, 16[eax]
 00001C2E  0F 0B	     2	        BYTE            0fh, 0bh            
 00001C30  00E6		     2	        WORD            230               
 00001C32  5E		     2	        pop  esi
 00001C33  5F		     2	        pop  edi
 00001C34  5B		     2	        pop  ebx
 00001C35  C3		     2	        ret
 00001C36		     2	        OZ_231   LABEL PROC
 00001C36  8D 44 24 04	     2	        lea  eax,  4[esp]
 00001C3A  53		     2	        push ebx
 00001C3B  57		     2	        push edi
 00001C3C  56		     2	        push esi
 00001C3D  8B 18	     2	            mov  ebx,   [eax]
 00001C3F  8B 48 04	     2	            mov  ecx,  4[eax]
 00001C42  8B 50 08	     2	            mov  edx,  8[eax]
 00001C45  8B 78 0C	     2	            mov  edi, 12[eax]
 00001C48  8B 70 10	     2	            mov  esi, 16[eax]
 00001C4B  0F 0B	     2	        BYTE            0fh, 0bh            
 00001C4D  00E7		     2	        WORD            231               
 00001C4F  5E		     2	        pop  esi
 00001C50  5F		     2	        pop  edi
 00001C51  5B		     2	        pop  ebx
 00001C52  C3		     2	        ret
 00001C53		     2	        OZ_232   LABEL PROC
 00001C53  8D 44 24 04	     2	        lea  eax,  4[esp]
 00001C57  53		     2	        push ebx
 00001C58  57		     2	        push edi
 00001C59  56		     2	        push esi
 00001C5A  8B 18	     2	            mov  ebx,   [eax]
 00001C5C  8B 48 04	     2	            mov  ecx,  4[eax]
 00001C5F  8B 50 08	     2	            mov  edx,  8[eax]
 00001C62  8B 78 0C	     2	            mov  edi, 12[eax]
 00001C65  8B 70 10	     2	            mov  esi, 16[eax]
 00001C68  0F 0B	     2	        BYTE            0fh, 0bh            
 00001C6A  00E8		     2	        WORD            232               
 00001C6C  5E		     2	        pop  esi
 00001C6D  5F		     2	        pop  edi
 00001C6E  5B		     2	        pop  ebx
 00001C6F  C3		     2	        ret
 00001C70		     2	        OZ_233   LABEL PROC
 00001C70  8D 44 24 04	     2	        lea  eax,  4[esp]
 00001C74  53		     2	        push ebx
 00001C75  57		     2	        push edi
 00001C76  56		     2	        push esi
 00001C77  8B 18	     2	            mov  ebx,   [eax]
 00001C79  8B 48 04	     2	            mov  ecx,  4[eax]
 00001C7C  8B 50 08	     2	            mov  edx,  8[eax]
 00001C7F  8B 78 0C	     2	            mov  edi, 12[eax]
 00001C82  8B 70 10	     2	            mov  esi, 16[eax]
 00001C85  0F 0B	     2	        BYTE            0fh, 0bh            
 00001C87  00E9		     2	        WORD            233               
 00001C89  5E		     2	        pop  esi
 00001C8A  5F		     2	        pop  edi
 00001C8B  5B		     2	        pop  ebx
 00001C8C  C3		     2	        ret
 00001C8D		     2	        OZ_234   LABEL PROC
 00001C8D  8D 44 24 04	     2	        lea  eax,  4[esp]
 00001C91  53		     2	        push ebx
 00001C92  57		     2	        push edi
 00001C93  56		     2	        push esi
 00001C94  8B 18	     2	            mov  ebx,   [eax]
 00001C96  8B 48 04	     2	            mov  ecx,  4[eax]
 00001C99  8B 50 08	     2	            mov  edx,  8[eax]
 00001C9C  8B 78 0C	     2	            mov  edi, 12[eax]
 00001C9F  8B 70 10	     2	            mov  esi, 16[eax]
 00001CA2  0F 0B	     2	        BYTE            0fh, 0bh            
 00001CA4  00EA		     2	        WORD            234               
 00001CA6  5E		     2	        pop  esi
 00001CA7  5F		     2	        pop  edi
 00001CA8  5B		     2	        pop  ebx
 00001CA9  C3		     2	        ret
 00001CAA		     2	        OZ_235   LABEL PROC
 00001CAA  8D 44 24 04	     2	        lea  eax,  4[esp]
 00001CAE  53		     2	        push ebx
 00001CAF  57		     2	        push edi
 00001CB0  56		     2	        push esi
 00001CB1  8B 18	     2	            mov  ebx,   [eax]
 00001CB3  8B 48 04	     2	            mov  ecx,  4[eax]
 00001CB6  8B 50 08	     2	            mov  edx,  8[eax]
 00001CB9  8B 78 0C	     2	            mov  edi, 12[eax]
 00001CBC  8B 70 10	     2	            mov  esi, 16[eax]
 00001CBF  0F 0B	     2	        BYTE            0fh, 0bh            
 00001CC1  00EB		     2	        WORD            235               
 00001CC3  5E		     2	        pop  esi
 00001CC4  5F		     2	        pop  edi
 00001CC5  5B		     2	        pop  ebx
 00001CC6  C3		     2	        ret
 00001CC7		     2	        OZ_236   LABEL PROC
 00001CC7  8D 44 24 04	     2	        lea  eax,  4[esp]
 00001CCB  53		     2	        push ebx
 00001CCC  57		     2	        push edi
 00001CCD  56		     2	        push esi
 00001CCE  8B 18	     2	            mov  ebx,   [eax]
 00001CD0  8B 48 04	     2	            mov  ecx,  4[eax]
 00001CD3  8B 50 08	     2	            mov  edx,  8[eax]
 00001CD6  8B 78 0C	     2	            mov  edi, 12[eax]
 00001CD9  8B 70 10	     2	            mov  esi, 16[eax]
 00001CDC  0F 0B	     2	        BYTE            0fh, 0bh            
 00001CDE  00EC		     2	        WORD            236               
 00001CE0  5E		     2	        pop  esi
 00001CE1  5F		     2	        pop  edi
 00001CE2  5B		     2	        pop  ebx
 00001CE3  C3		     2	        ret
 00001CE4		     2	        OZ_237   LABEL PROC
 00001CE4  8D 44 24 04	     2	        lea  eax,  4[esp]
 00001CE8  53		     2	        push ebx
 00001CE9  57		     2	        push edi
 00001CEA  56		     2	        push esi
 00001CEB  8B 18	     2	            mov  ebx,   [eax]
 00001CED  8B 48 04	     2	            mov  ecx,  4[eax]
 00001CF0  8B 50 08	     2	            mov  edx,  8[eax]
 00001CF3  8B 78 0C	     2	            mov  edi, 12[eax]
 00001CF6  8B 70 10	     2	            mov  esi, 16[eax]
 00001CF9  0F 0B	     2	        BYTE            0fh, 0bh            
 00001CFB  00ED		     2	        WORD            237               
 00001CFD  5E		     2	        pop  esi
 00001CFE  5F		     2	        pop  edi
 00001CFF  5B		     2	        pop  ebx
 00001D00  C3		     2	        ret
 00001D01		     2	        OZ_238   LABEL PROC
 00001D01  8D 44 24 04	     2	        lea  eax,  4[esp]
 00001D05  53		     2	        push ebx
 00001D06  57		     2	        push edi
 00001D07  56		     2	        push esi
 00001D08  8B 18	     2	            mov  ebx,   [eax]
 00001D0A  8B 48 04	     2	            mov  ecx,  4[eax]
 00001D0D  8B 50 08	     2	            mov  edx,  8[eax]
 00001D10  8B 78 0C	     2	            mov  edi, 12[eax]
 00001D13  8B 70 10	     2	            mov  esi, 16[eax]
 00001D16  0F 0B	     2	        BYTE            0fh, 0bh            
 00001D18  00EE		     2	        WORD            238               
 00001D1A  5E		     2	        pop  esi
 00001D1B  5F		     2	        pop  edi
 00001D1C  5B		     2	        pop  ebx
 00001D1D  C3		     2	        ret
 00001D1E		     2	        OZ_239   LABEL PROC
 00001D1E  8D 44 24 04	     2	        lea  eax,  4[esp]
 00001D22  53		     2	        push ebx
 00001D23  57		     2	        push edi
 00001D24  56		     2	        push esi
 00001D25  8B 18	     2	            mov  ebx,   [eax]
 00001D27  8B 48 04	     2	            mov  ecx,  4[eax]
 00001D2A  8B 50 08	     2	            mov  edx,  8[eax]
 00001D2D  8B 78 0C	     2	            mov  edi, 12[eax]
 00001D30  8B 70 10	     2	            mov  esi, 16[eax]
 00001D33  0F 0B	     2	        BYTE            0fh, 0bh            
 00001D35  00EF		     2	        WORD            239               
 00001D37  5E		     2	        pop  esi
 00001D38  5F		     2	        pop  edi
 00001D39  5B		     2	        pop  ebx
 00001D3A  C3		     2	        ret
 00001D3B		     2	        OZ_240   LABEL PROC
 00001D3B  8D 44 24 04	     2	        lea  eax,  4[esp]
 00001D3F  53		     2	        push ebx
 00001D40  57		     2	        push edi
 00001D41  56		     2	        push esi
 00001D42  8B 18	     2	            mov  ebx,   [eax]
 00001D44  8B 48 04	     2	            mov  ecx,  4[eax]
 00001D47  8B 50 08	     2	            mov  edx,  8[eax]
 00001D4A  8B 78 0C	     2	            mov  edi, 12[eax]
 00001D4D  8B 70 10	     2	            mov  esi, 16[eax]
 00001D50  0F 0B	     2	        BYTE            0fh, 0bh            
 00001D52  00F0		     2	        WORD            240               
 00001D54  5E		     2	        pop  esi
 00001D55  5F		     2	        pop  edi
 00001D56  5B		     2	        pop  ebx
 00001D57  C3		     2	        ret
 00001D58		     2	        OZ_241   LABEL PROC
 00001D58  8D 44 24 04	     2	        lea  eax,  4[esp]
 00001D5C  53		     2	        push ebx
 00001D5D  57		     2	        push edi
 00001D5E  56		     2	        push esi
 00001D5F  8B 18	     2	            mov  ebx,   [eax]
 00001D61  8B 48 04	     2	            mov  ecx,  4[eax]
 00001D64  8B 50 08	     2	            mov  edx,  8[eax]
 00001D67  8B 78 0C	     2	            mov  edi, 12[eax]
 00001D6A  8B 70 10	     2	            mov  esi, 16[eax]
 00001D6D  0F 0B	     2	        BYTE            0fh, 0bh            
 00001D6F  00F1		     2	        WORD            241               
 00001D71  5E		     2	        pop  esi
 00001D72  5F		     2	        pop  edi
 00001D73  5B		     2	        pop  ebx
 00001D74  C3		     2	        ret
 00001D75		     2	        OZ_242   LABEL PROC
 00001D75  8D 44 24 04	     2	        lea  eax,  4[esp]
 00001D79  53		     2	        push ebx
 00001D7A  57		     2	        push edi
 00001D7B  56		     2	        push esi
 00001D7C  8B 18	     2	            mov  ebx,   [eax]
 00001D7E  8B 48 04	     2	            mov  ecx,  4[eax]
 00001D81  8B 50 08	     2	            mov  edx,  8[eax]
 00001D84  8B 78 0C	     2	            mov  edi, 12[eax]
 00001D87  8B 70 10	     2	            mov  esi, 16[eax]
 00001D8A  0F 0B	     2	        BYTE            0fh, 0bh            
 00001D8C  00F2		     2	        WORD            242               
 00001D8E  5E		     2	        pop  esi
 00001D8F  5F		     2	        pop  edi
 00001D90  5B		     2	        pop  ebx
 00001D91  C3		     2	        ret
 00001D92		     2	        OZ_243   LABEL PROC
 00001D92  8D 44 24 04	     2	        lea  eax,  4[esp]
 00001D96  53		     2	        push ebx
 00001D97  57		     2	        push edi
 00001D98  56		     2	        push esi
 00001D99  8B 18	     2	            mov  ebx,   [eax]
 00001D9B  8B 48 04	     2	            mov  ecx,  4[eax]
 00001D9E  8B 50 08	     2	            mov  edx,  8[eax]
 00001DA1  8B 78 0C	     2	            mov  edi, 12[eax]
 00001DA4  8B 70 10	     2	            mov  esi, 16[eax]
 00001DA7  0F 0B	     2	        BYTE            0fh, 0bh            
 00001DA9  00F3		     2	        WORD            243               
 00001DAB  5E		     2	        pop  esi
 00001DAC  5F		     2	        pop  edi
 00001DAD  5B		     2	        pop  ebx
 00001DAE  C3		     2	        ret
 00001DAF		     2	        OZ_244   LABEL PROC
 00001DAF  8D 44 24 04	     2	        lea  eax,  4[esp]
 00001DB3  53		     2	        push ebx
 00001DB4  57		     2	        push edi
 00001DB5  56		     2	        push esi
 00001DB6  8B 18	     2	            mov  ebx,   [eax]
 00001DB8  8B 48 04	     2	            mov  ecx,  4[eax]
 00001DBB  8B 50 08	     2	            mov  edx,  8[eax]
 00001DBE  8B 78 0C	     2	            mov  edi, 12[eax]
 00001DC1  8B 70 10	     2	            mov  esi, 16[eax]
 00001DC4  0F 0B	     2	        BYTE            0fh, 0bh            
 00001DC6  00F4		     2	        WORD            244               
 00001DC8  5E		     2	        pop  esi
 00001DC9  5F		     2	        pop  edi
 00001DCA  5B		     2	        pop  ebx
 00001DCB  C3		     2	        ret
 00001DCC		     2	        OZ_245   LABEL PROC
 00001DCC  8D 44 24 04	     2	        lea  eax,  4[esp]
 00001DD0  53		     2	        push ebx
 00001DD1  57		     2	        push edi
 00001DD2  56		     2	        push esi
 00001DD3  8B 18	     2	            mov  ebx,   [eax]
 00001DD5  8B 48 04	     2	            mov  ecx,  4[eax]
 00001DD8  8B 50 08	     2	            mov  edx,  8[eax]
 00001DDB  8B 78 0C	     2	            mov  edi, 12[eax]
 00001DDE  8B 70 10	     2	            mov  esi, 16[eax]
 00001DE1  0F 0B	     2	        BYTE            0fh, 0bh            
 00001DE3  00F5		     2	        WORD            245               
 00001DE5  5E		     2	        pop  esi
 00001DE6  5F		     2	        pop  edi
 00001DE7  5B		     2	        pop  ebx
 00001DE8  C3		     2	        ret
 00001DE9		     2	        OZ_246   LABEL PROC
 00001DE9  8D 44 24 04	     2	        lea  eax,  4[esp]
 00001DED  53		     2	        push ebx
 00001DEE  57		     2	        push edi
 00001DEF  56		     2	        push esi
 00001DF0  8B 18	     2	            mov  ebx,   [eax]
 00001DF2  8B 48 04	     2	            mov  ecx,  4[eax]
 00001DF5  8B 50 08	     2	            mov  edx,  8[eax]
 00001DF8  8B 78 0C	     2	            mov  edi, 12[eax]
 00001DFB  8B 70 10	     2	            mov  esi, 16[eax]
 00001DFE  0F 0B	     2	        BYTE            0fh, 0bh            
 00001E00  00F6		     2	        WORD            246               
 00001E02  5E		     2	        pop  esi
 00001E03  5F		     2	        pop  edi
 00001E04  5B		     2	        pop  ebx
 00001E05  C3		     2	        ret
 00001E06		     2	        OZ_247   LABEL PROC
 00001E06  8D 44 24 04	     2	        lea  eax,  4[esp]
 00001E0A  53		     2	        push ebx
 00001E0B  57		     2	        push edi
 00001E0C  56		     2	        push esi
 00001E0D  8B 18	     2	            mov  ebx,   [eax]
 00001E0F  8B 48 04	     2	            mov  ecx,  4[eax]
 00001E12  8B 50 08	     2	            mov  edx,  8[eax]
 00001E15  8B 78 0C	     2	            mov  edi, 12[eax]
 00001E18  8B 70 10	     2	            mov  esi, 16[eax]
 00001E1B  0F 0B	     2	        BYTE            0fh, 0bh            
 00001E1D  00F7		     2	        WORD            247               
 00001E1F  5E		     2	        pop  esi
 00001E20  5F		     2	        pop  edi
 00001E21  5B		     2	        pop  ebx
 00001E22  C3		     2	        ret
 00001E23		     2	        OZ_248   LABEL PROC
 00001E23  8D 44 24 04	     2	        lea  eax,  4[esp]
 00001E27  53		     2	        push ebx
 00001E28  57		     2	        push edi
 00001E29  56		     2	        push esi
 00001E2A  8B 18	     2	            mov  ebx,   [eax]
 00001E2C  8B 48 04	     2	            mov  ecx,  4[eax]
 00001E2F  8B 50 08	     2	            mov  edx,  8[eax]
 00001E32  8B 78 0C	     2	            mov  edi, 12[eax]
 00001E35  8B 70 10	     2	            mov  esi, 16[eax]
 00001E38  0F 0B	     2	        BYTE            0fh, 0bh            
 00001E3A  00F8		     2	        WORD            248               
 00001E3C  5E		     2	        pop  esi
 00001E3D  5F		     2	        pop  edi
 00001E3E  5B		     2	        pop  ebx
 00001E3F  C3		     2	        ret
 00001E40		     2	        OZ_249   LABEL PROC
 00001E40  8D 44 24 04	     2	        lea  eax,  4[esp]
 00001E44  53		     2	        push ebx
 00001E45  57		     2	        push edi
 00001E46  56		     2	        push esi
 00001E47  8B 18	     2	            mov  ebx,   [eax]
 00001E49  8B 48 04	     2	            mov  ecx,  4[eax]
 00001E4C  8B 50 08	     2	            mov  edx,  8[eax]
 00001E4F  8B 78 0C	     2	            mov  edi, 12[eax]
 00001E52  8B 70 10	     2	            mov  esi, 16[eax]
 00001E55  0F 0B	     2	        BYTE            0fh, 0bh            
 00001E57  00F9		     2	        WORD            249               
 00001E59  5E		     2	        pop  esi
 00001E5A  5F		     2	        pop  edi
 00001E5B  5B		     2	        pop  ebx
 00001E5C  C3		     2	        ret
 00001E5D		     2	        OZ_250   LABEL PROC
 00001E5D  8D 44 24 04	     2	        lea  eax,  4[esp]
 00001E61  53		     2	        push ebx
 00001E62  57		     2	        push edi
 00001E63  56		     2	        push esi
 00001E64  8B 18	     2	            mov  ebx,   [eax]
 00001E66  8B 48 04	     2	            mov  ecx,  4[eax]
 00001E69  8B 50 08	     2	            mov  edx,  8[eax]
 00001E6C  8B 78 0C	     2	            mov  edi, 12[eax]
 00001E6F  8B 70 10	     2	            mov  esi, 16[eax]
 00001E72  0F 0B	     2	        BYTE            0fh, 0bh            
 00001E74  00FA		     2	        WORD            250               
 00001E76  5E		     2	        pop  esi
 00001E77  5F		     2	        pop  edi
 00001E78  5B		     2	        pop  ebx
 00001E79  C3		     2	        ret
 00001E7A		     2	        OZ_251   LABEL PROC
 00001E7A  8D 44 24 04	     2	        lea  eax,  4[esp]
 00001E7E  53		     2	        push ebx
 00001E7F  57		     2	        push edi
 00001E80  56		     2	        push esi
 00001E81  8B 18	     2	            mov  ebx,   [eax]
 00001E83  8B 48 04	     2	            mov  ecx,  4[eax]
 00001E86  8B 50 08	     2	            mov  edx,  8[eax]
 00001E89  8B 78 0C	     2	            mov  edi, 12[eax]
 00001E8C  8B 70 10	     2	            mov  esi, 16[eax]
 00001E8F  0F 0B	     2	        BYTE            0fh, 0bh            
 00001E91  00FB		     2	        WORD            251               
 00001E93  5E		     2	        pop  esi
 00001E94  5F		     2	        pop  edi
 00001E95  5B		     2	        pop  ebx
 00001E96  C3		     2	        ret
 00001E97		     2	        OZ_252   LABEL PROC
 00001E97  8D 44 24 04	     2	        lea  eax,  4[esp]
 00001E9B  53		     2	        push ebx
 00001E9C  57		     2	        push edi
 00001E9D  56		     2	        push esi
 00001E9E  8B 18	     2	            mov  ebx,   [eax]
 00001EA0  8B 48 04	     2	            mov  ecx,  4[eax]
 00001EA3  8B 50 08	     2	            mov  edx,  8[eax]
 00001EA6  8B 78 0C	     2	            mov  edi, 12[eax]
 00001EA9  8B 70 10	     2	            mov  esi, 16[eax]
 00001EAC  0F 0B	     2	        BYTE            0fh, 0bh            
 00001EAE  00FC		     2	        WORD            252               
 00001EB0  5E		     2	        pop  esi
 00001EB1  5F		     2	        pop  edi
 00001EB2  5B		     2	        pop  ebx
 00001EB3  C3		     2	        ret
 00001EB4		     2	        OZ_253   LABEL PROC
 00001EB4  8D 44 24 04	     2	        lea  eax,  4[esp]
 00001EB8  53		     2	        push ebx
 00001EB9  57		     2	        push edi
 00001EBA  56		     2	        push esi
 00001EBB  8B 18	     2	            mov  ebx,   [eax]
 00001EBD  8B 48 04	     2	            mov  ecx,  4[eax]
 00001EC0  8B 50 08	     2	            mov  edx,  8[eax]
 00001EC3  8B 78 0C	     2	            mov  edi, 12[eax]
 00001EC6  8B 70 10	     2	            mov  esi, 16[eax]
 00001EC9  0F 0B	     2	        BYTE            0fh, 0bh            
 00001ECB  00FD		     2	        WORD            253               
 00001ECD  5E		     2	        pop  esi
 00001ECE  5F		     2	        pop  edi
 00001ECF  5B		     2	        pop  ebx
 00001ED0  C3		     2	        ret
 00001ED1		     2	        OZ_254   LABEL PROC
 00001ED1  8D 44 24 04	     2	        lea  eax,  4[esp]
 00001ED5  53		     2	        push ebx
 00001ED6  57		     2	        push edi
 00001ED7  56		     2	        push esi
 00001ED8  8B 18	     2	            mov  ebx,   [eax]
 00001EDA  8B 48 04	     2	            mov  ecx,  4[eax]
 00001EDD  8B 50 08	     2	            mov  edx,  8[eax]
 00001EE0  8B 78 0C	     2	            mov  edi, 12[eax]
 00001EE3  8B 70 10	     2	            mov  esi, 16[eax]
 00001EE6  0F 0B	     2	        BYTE            0fh, 0bh            
 00001EE8  00FE		     2	        WORD            254               
 00001EEA  5E		     2	        pop  esi
 00001EEB  5F		     2	        pop  edi
 00001EEC  5B		     2	        pop  ebx
 00001EED  C3		     2	        ret
 00001EEE		     2	        OZ_255   LABEL PROC
 00001EEE  8D 44 24 04	     2	        lea  eax,  4[esp]
 00001EF2  53		     2	        push ebx
 00001EF3  57		     2	        push edi
 00001EF4  56		     2	        push esi
 00001EF5  8B 18	     2	            mov  ebx,   [eax]
 00001EF7  8B 48 04	     2	            mov  ecx,  4[eax]
 00001EFA  8B 50 08	     2	            mov  edx,  8[eax]
 00001EFD  8B 78 0C	     2	            mov  edi, 12[eax]
 00001F00  8B 70 10	     2	            mov  esi, 16[eax]
 00001F03  0F 0B	     2	        BYTE            0fh, 0bh            
 00001F05  00FF		     2	        WORD            255               
 00001F07  5E		     2	        pop  esi
 00001F08  5F		     2	        pop  edi
 00001F09  5B		     2	        pop  ebx
 00001F0A  C3		     2	        ret

				; emit vector
 00001F0B			servicevector:
 = 00000000			        icall = 0
				        while icall lt TRAPSERV_MAXCALLS
				            defservcall %(icall)
				            icall = (icall+1)
				        endm
 00001F0B  0000020B R	     2	        DWORD           OZ_0
 00001F0F  00000228 R	     2	        DWORD           OZ_1
 00001F13  00000245 R	     2	        DWORD           OZ_2
 00001F17  00000262 R	     2	        DWORD           OZ_3
 00001F1B  0000027F R	     2	        DWORD           OZ_4
 00001F1F  0000029C R	     2	        DWORD           OZ_5
 00001F23  000002B9 R	     2	        DWORD           OZ_6
 00001F27  000002D6 R	     2	        DWORD           OZ_7
 00001F2B  000002F3 R	     2	        DWORD           OZ_8
 00001F2F  00000310 R	     2	        DWORD           OZ_9
 00001F33  0000032D R	     2	        DWORD           OZ_10
 00001F37  0000034A R	     2	        DWORD           OZ_11
 00001F3B  00000367 R	     2	        DWORD           OZ_12
 00001F3F  00000384 R	     2	        DWORD           OZ_13
 00001F43  000003A1 R	     2	        DWORD           OZ_14
 00001F47  000003BE R	     2	        DWORD           OZ_15
 00001F4B  000003DB R	     2	        DWORD           OZ_16
 00001F4F  000003F8 R	     2	        DWORD           OZ_17
 00001F53  00000415 R	     2	        DWORD           OZ_18
 00001F57  00000432 R	     2	        DWORD           OZ_19
 00001F5B  0000044F R	     2	        DWORD           OZ_20
 00001F5F  0000046C R	     2	        DWORD           OZ_21
 00001F63  00000489 R	     2	        DWORD           OZ_22
 00001F67  000004A6 R	     2	        DWORD           OZ_23
 00001F6B  000004C3 R	     2	        DWORD           OZ_24
 00001F6F  000004E0 R	     2	        DWORD           OZ_25
 00001F73  000004FD R	     2	        DWORD           OZ_26
 00001F77  0000051A R	     2	        DWORD           OZ_27
 00001F7B  00000537 R	     2	        DWORD           OZ_28
 00001F7F  00000554 R	     2	        DWORD           OZ_29
 00001F83  00000571 R	     2	        DWORD           OZ_30
 00001F87  0000058E R	     2	        DWORD           OZ_31
 00001F8B  000005AB R	     2	        DWORD           OZ_32
 00001F8F  000005C8 R	     2	        DWORD           OZ_33
 00001F93  000005E5 R	     2	        DWORD           OZ_34
 00001F97  00000602 R	     2	        DWORD           OZ_35
 00001F9B  0000061F R	     2	        DWORD           OZ_36
 00001F9F  0000063C R	     2	        DWORD           OZ_37
 00001FA3  00000659 R	     2	        DWORD           OZ_38
 00001FA7  00000676 R	     2	        DWORD           OZ_39
 00001FAB  00000693 R	     2	        DWORD           OZ_40
 00001FAF  000006B0 R	     2	        DWORD           OZ_41
 00001FB3  000006CD R	     2	        DWORD           OZ_42
 00001FB7  000006EA R	     2	        DWORD           OZ_43
 00001FBB  00000707 R	     2	        DWORD           OZ_44
 00001FBF  00000724 R	     2	        DWORD           OZ_45
 00001FC3  00000741 R	     2	        DWORD           OZ_46
 00001FC7  0000075E R	     2	        DWORD           OZ_47
 00001FCB  0000077B R	     2	        DWORD           OZ_48
 00001FCF  00000798 R	     2	        DWORD           OZ_49
 00001FD3  000007B5 R	     2	        DWORD           OZ_50
 00001FD7  000007D2 R	     2	        DWORD           OZ_51
 00001FDB  000007EF R	     2	        DWORD           OZ_52
 00001FDF  0000080C R	     2	        DWORD           OZ_53
 00001FE3  00000829 R	     2	        DWORD           OZ_54
 00001FE7  00000846 R	     2	        DWORD           OZ_55
 00001FEB  00000863 R	     2	        DWORD           OZ_56
 00001FEF  00000880 R	     2	        DWORD           OZ_57
 00001FF3  0000089D R	     2	        DWORD           OZ_58
 00001FF7  000008BA R	     2	        DWORD           OZ_59
 00001FFB  000008D7 R	     2	        DWORD           OZ_60
 00001FFF  000008F4 R	     2	        DWORD           OZ_61
 00002003  00000911 R	     2	        DWORD           OZ_62
 00002007  0000092E R	     2	        DWORD           OZ_63
 0000200B  0000094B R	     2	        DWORD           OZ_64
 0000200F  00000968 R	     2	        DWORD           OZ_65
 00002013  00000985 R	     2	        DWORD           OZ_66
 00002017  000009A2 R	     2	        DWORD           OZ_67
 0000201B  000009BF R	     2	        DWORD           OZ_68
 0000201F  000009DC R	     2	        DWORD           OZ_69
 00002023  000009F9 R	     2	        DWORD           OZ_70
 00002027  00000A16 R	     2	        DWORD           OZ_71
 0000202B  00000A33 R	     2	        DWORD           OZ_72
 0000202F  00000A50 R	     2	        DWORD           OZ_73
 00002033  00000A6D R	     2	        DWORD           OZ_74
 00002037  00000A8A R	     2	        DWORD           OZ_75
 0000203B  00000AA7 R	     2	        DWORD           OZ_76
 0000203F  00000AC4 R	     2	        DWORD           OZ_77
 00002043  00000AE1 R	     2	        DWORD           OZ_78
 00002047  00000AFE R	     2	        DWORD           OZ_79
 0000204B  00000B1B R	     2	        DWORD           OZ_80
 0000204F  00000B38 R	     2	        DWORD           OZ_81
 00002053  00000B55 R	     2	        DWORD           OZ_82
 00002057  00000B72 R	     2	        DWORD           OZ_83
 0000205B  00000B8F R	     2	        DWORD           OZ_84
 0000205F  00000BAC R	     2	        DWORD           OZ_85
 00002063  00000BC9 R	     2	        DWORD           OZ_86
 00002067  00000BE6 R	     2	        DWORD           OZ_87
 0000206B  00000C03 R	     2	        DWORD           OZ_88
 0000206F  00000C20 R	     2	        DWORD           OZ_89
 00002073  00000C3D R	     2	        DWORD           OZ_90
 00002077  00000C5A R	     2	        DWORD           OZ_91
 0000207B  00000C77 R	     2	        DWORD           OZ_92
 0000207F  00000C94 R	     2	        DWORD           OZ_93
 00002083  00000CB1 R	     2	        DWORD           OZ_94
 00002087  00000CCE R	     2	        DWORD           OZ_95
 0000208B  00000CEB R	     2	        DWORD           OZ_96
 0000208F  00000D08 R	     2	        DWORD           OZ_97
 00002093  00000D25 R	     2	        DWORD           OZ_98
 00002097  00000D42 R	     2	        DWORD           OZ_99
 0000209B  00000D5F R	     2	        DWORD           OZ_100
 0000209F  00000D7C R	     2	        DWORD           OZ_101
 000020A3  00000D99 R	     2	        DWORD           OZ_102
 000020A7  00000DB6 R	     2	        DWORD           OZ_103
 000020AB  00000DD3 R	     2	        DWORD           OZ_104
 000020AF  00000DF0 R	     2	        DWORD           OZ_105
 000020B3  00000E0D R	     2	        DWORD           OZ_106
 000020B7  00000E2A R	     2	        DWORD           OZ_107
 000020BB  00000E47 R	     2	        DWORD           OZ_108
 000020BF  00000E64 R	     2	        DWORD           OZ_109
 000020C3  00000E81 R	     2	        DWORD           OZ_110
 000020C7  00000E9E R	     2	        DWORD           OZ_111
 000020CB  00000EBB R	     2	        DWORD           OZ_112
 000020CF  00000ED8 R	     2	        DWORD           OZ_113
 000020D3  00000EF5 R	     2	        DWORD           OZ_114
 000020D7  00000F12 R	     2	        DWORD           OZ_115
 000020DB  00000F2F R	     2	        DWORD           OZ_116
 000020DF  00000F4C R	     2	        DWORD           OZ_117
 000020E3  00000F69 R	     2	        DWORD           OZ_118
 000020E7  00000F86 R	     2	        DWORD           OZ_119
 000020EB  00000FA3 R	     2	        DWORD           OZ_120
 000020EF  00000FC0 R	     2	        DWORD           OZ_121
 000020F3  00000FDD R	     2	        DWORD           OZ_122
 000020F7  00000FFA R	     2	        DWORD           OZ_123
 000020FB  00001017 R	     2	        DWORD           OZ_124
 000020FF  00001034 R	     2	        DWORD           OZ_125
 00002103  00001051 R	     2	        DWORD           OZ_126
 00002107  0000106E R	     2	        DWORD           OZ_127
 0000210B  0000108B R	     2	        DWORD           OZ_128
 0000210F  000010A8 R	     2	        DWORD           OZ_129
 00002113  000010C5 R	     2	        DWORD           OZ_130
 00002117  000010E2 R	     2	        DWORD           OZ_131
 0000211B  000010FF R	     2	        DWORD           OZ_132
 0000211F  0000111C R	     2	        DWORD           OZ_133
 00002123  00001139 R	     2	        DWORD           OZ_134
 00002127  00001156 R	     2	        DWORD           OZ_135
 0000212B  00001173 R	     2	        DWORD           OZ_136
 0000212F  00001190 R	     2	        DWORD           OZ_137
 00002133  000011AD R	     2	        DWORD           OZ_138
 00002137  000011CA R	     2	        DWORD           OZ_139
 0000213B  000011E7 R	     2	        DWORD           OZ_140
 0000213F  00001204 R	     2	        DWORD           OZ_141
 00002143  00001221 R	     2	        DWORD           OZ_142
 00002147  0000123E R	     2	        DWORD           OZ_143
 0000214B  0000125B R	     2	        DWORD           OZ_144
 0000214F  00001278 R	     2	        DWORD           OZ_145
 00002153  00001295 R	     2	        DWORD           OZ_146
 00002157  000012B2 R	     2	        DWORD           OZ_147
 0000215B  000012CF R	     2	        DWORD           OZ_148
 0000215F  000012EC R	     2	        DWORD           OZ_149
 00002163  00001309 R	     2	        DWORD           OZ_150
 00002167  00001326 R	     2	        DWORD           OZ_151
 0000216B  00001343 R	     2	        DWORD           OZ_152
 0000216F  00001360 R	     2	        DWORD           OZ_153
 00002173  0000137D R	     2	        DWORD           OZ_154
 00002177  0000139A R	     2	        DWORD           OZ_155
 0000217B  000013B7 R	     2	        DWORD           OZ_156
 0000217F  000013D4 R	     2	        DWORD           OZ_157
 00002183  000013F1 R	     2	        DWORD           OZ_158
 00002187  0000140E R	     2	        DWORD           OZ_159
 0000218B  0000142B R	     2	        DWORD           OZ_160
 0000218F  00001448 R	     2	        DWORD           OZ_161
 00002193  00001465 R	     2	        DWORD           OZ_162
 00002197  00001482 R	     2	        DWORD           OZ_163
 0000219B  0000149F R	     2	        DWORD           OZ_164
 0000219F  000014BC R	     2	        DWORD           OZ_165
 000021A3  000014D9 R	     2	        DWORD           OZ_166
 000021A7  000014F6 R	     2	        DWORD           OZ_167
 000021AB  00001513 R	     2	        DWORD           OZ_168
 000021AF  00001530 R	     2	        DWORD           OZ_169
 000021B3  0000154D R	     2	        DWORD           OZ_170
 000021B7  0000156A R	     2	        DWORD           OZ_171
 000021BB  00001587 R	     2	        DWORD           OZ_172
 000021BF  000015A4 R	     2	        DWORD           OZ_173
 000021C3  000015C1 R	     2	        DWORD           OZ_174
 000021C7  000015DE R	     2	        DWORD           OZ_175
 000021CB  000015FB R	     2	        DWORD           OZ_176
 000021CF  00001618 R	     2	        DWORD           OZ_177
 000021D3  00001635 R	     2	        DWORD           OZ_178
 000021D7  00001652 R	     2	        DWORD           OZ_179
 000021DB  0000166F R	     2	        DWORD           OZ_180
 000021DF  0000168C R	     2	        DWORD           OZ_181
 000021E3  000016A9 R	     2	        DWORD           OZ_182
 000021E7  000016C6 R	     2	        DWORD           OZ_183
 000021EB  000016E3 R	     2	        DWORD           OZ_184
 000021EF  00001700 R	     2	        DWORD           OZ_185
 000021F3  0000171D R	     2	        DWORD           OZ_186
 000021F7  0000173A R	     2	        DWORD           OZ_187
 000021FB  00001757 R	     2	        DWORD           OZ_188
 000021FF  00001774 R	     2	        DWORD           OZ_189
 00002203  00001791 R	     2	        DWORD           OZ_190
 00002207  000017AE R	     2	        DWORD           OZ_191
 0000220B  000017CB R	     2	        DWORD           OZ_192
 0000220F  000017E8 R	     2	        DWORD           OZ_193
 00002213  00001805 R	     2	        DWORD           OZ_194
 00002217  00001822 R	     2	        DWORD           OZ_195
 0000221B  0000183F R	     2	        DWORD           OZ_196
 0000221F  0000185C R	     2	        DWORD           OZ_197
 00002223  00001879 R	     2	        DWORD           OZ_198
 00002227  00001896 R	     2	        DWORD           OZ_199
 0000222B  000018B3 R	     2	        DWORD           OZ_200
 0000222F  000018D0 R	     2	        DWORD           OZ_201
 00002233  000018ED R	     2	        DWORD           OZ_202
 00002237  0000190A R	     2	        DWORD           OZ_203
 0000223B  00001927 R	     2	        DWORD           OZ_204
 0000223F  00001944 R	     2	        DWORD           OZ_205
 00002243  00001961 R	     2	        DWORD           OZ_206
 00002247  0000197E R	     2	        DWORD           OZ_207
 0000224B  0000199B R	     2	        DWORD           OZ_208
 0000224F  000019B8 R	     2	        DWORD           OZ_209
 00002253  000019D5 R	     2	        DWORD           OZ_210
 00002257  000019F2 R	     2	        DWORD           OZ_211
 0000225B  00001A0F R	     2	        DWORD           OZ_212
 0000225F  00001A2C R	     2	        DWORD           OZ_213
 00002263  00001A49 R	     2	        DWORD           OZ_214
 00002267  00001A66 R	     2	        DWORD           OZ_215
 0000226B  00001A83 R	     2	        DWORD           OZ_216
 0000226F  00001AA0 R	     2	        DWORD           OZ_217
 00002273  00001ABD R	     2	        DWORD           OZ_218
 00002277  00001ADA R	     2	        DWORD           OZ_219
 0000227B  00001AF7 R	     2	        DWORD           OZ_220
 0000227F  00001B14 R	     2	        DWORD           OZ_221
 00002283  00001B31 R	     2	        DWORD           OZ_222
 00002287  00001B4E R	     2	        DWORD           OZ_223
 0000228B  00001B6B R	     2	        DWORD           OZ_224
 0000228F  00001B88 R	     2	        DWORD           OZ_225
 00002293  00001BA5 R	     2	        DWORD           OZ_226
 00002297  00001BC2 R	     2	        DWORD           OZ_227
 0000229B  00001BDF R	     2	        DWORD           OZ_228
 0000229F  00001BFC R	     2	        DWORD           OZ_229
 000022A3  00001C19 R	     2	        DWORD           OZ_230
 000022A7  00001C36 R	     2	        DWORD           OZ_231
 000022AB  00001C53 R	     2	        DWORD           OZ_232
 000022AF  00001C70 R	     2	        DWORD           OZ_233
 000022B3  00001C8D R	     2	        DWORD           OZ_234
 000022B7  00001CAA R	     2	        DWORD           OZ_235
 000022BB  00001CC7 R	     2	        DWORD           OZ_236
 000022BF  00001CE4 R	     2	        DWORD           OZ_237
 000022C3  00001D01 R	     2	        DWORD           OZ_238
 000022C7  00001D1E R	     2	        DWORD           OZ_239
 000022CB  00001D3B R	     2	        DWORD           OZ_240
 000022CF  00001D58 R	     2	        DWORD           OZ_241
 000022D3  00001D75 R	     2	        DWORD           OZ_242
 000022D7  00001D92 R	     2	        DWORD           OZ_243
 000022DB  00001DAF R	     2	        DWORD           OZ_244
 000022DF  00001DCC R	     2	        DWORD           OZ_245
 000022E3  00001DE9 R	     2	        DWORD           OZ_246
 000022E7  00001E06 R	     2	        DWORD           OZ_247
 000022EB  00001E23 R	     2	        DWORD           OZ_248
 000022EF  00001E40 R	     2	        DWORD           OZ_249
 000022F3  00001E5D R	     2	        DWORD           OZ_250
 000022F7  00001E7A R	     2	        DWORD           OZ_251
 000022FB  00001E97 R	     2	        DWORD           OZ_252
 000022FF  00001EB4 R	     2	        DWORD           OZ_253
 00002303  00001ED1 R	     2	        DWORD           OZ_254
 00002307  00001EEE R	     2	        DWORD           OZ_255
 0000230B
				; end of file
				    end

Microsoft (R) Macro Assembler Version 7.10.4035		    07/24/22 20:38:35
"SPACE NT process bootstrap executable"			     Symbols 3 - 1
"SPACE 'CPU' bootstrap code"



Macros:

                N a m e                 Type

SPACECall  . . . . . . . . . . .	Proc
defemulcall  . . . . . . . . . .	Proc
defservcall  . . . . . . . . . .	Proc


Segments and Groups:

                N a m e                 Size     Length   Align   Combine Class

FLAT . . . . . . . . . . . . . .	GROUP
_DATA  . . . . . . . . . . . . .	32 Bit	 00000000 Para	  Public  'DATA'	
_TEXT  . . . . . . . . . . . . .	32 Bit	 0000230B Para	  Public  'CODE'	


Procedures,  parameters and locals:

                N a m e                 Type     Value    Attr

$$$00001 . . . . . . . . . . . .	P Near	 0000000C _TEXT	Length= 00000050 Private C
  libraryvector  . . . . . . . .	L Near	 00000058 _TEXT	
$$$00002 . . . . . . . . . . . .	P Near	 0000005C _TEXT	Length= 000022AF Private C
  emul_Resume  . . . . . . . . .	L Near	 0000005E _TEXT	
  servicevector  . . . . . . . .	L Near	 00001F0B _TEXT	


Symbols:

                N a m e                 Type     Value    Attr

-D_WIN32_WINNT . . . . . . . . .	Text   	 0x0501
@CodeSize  . . . . . . . . . . .	Number	 00000000h   
@DataSize  . . . . . . . . . . .	Number	 00000000h   
@Interface . . . . . . . . . . .	Number	 00000001h   
@Model . . . . . . . . . . . . .	Number	 00000007h   
@code  . . . . . . . . . . . . .	Text   	 _TEXT
@data  . . . . . . . . . . . . .	Text   	 FLAT
@fardata?  . . . . . . . . . . .	Text   	 FLAT
@fardata . . . . . . . . . . . .	Text   	 FLAT
@stack . . . . . . . . . . . . .	Text   	 FLAT
FPO  . . . . . . . . . . . . . .	Text   	 0
OZ_0 . . . . . . . . . . . . . .	L Near	 0000020B _TEXT	
OZ_100 . . . . . . . . . . . . .	L Near	 00000D5F _TEXT	
OZ_101 . . . . . . . . . . . . .	L Near	 00000D7C _TEXT	
OZ_102 . . . . . . . . . . . . .	L Near	 00000D99 _TEXT	
OZ_103 . . . . . . . . . . . . .	L Near	 00000DB6 _TEXT	
OZ_104 . . . . . . . . . . . . .	L Near	 00000DD3 _TEXT	
OZ_105 . . . . . . . . . . . . .	L Near	 00000DF0 _TEXT	
OZ_106 . . . . . . . . . . . . .	L Near	 00000E0D _TEXT	
OZ_107 . . . . . . . . . . . . .	L Near	 00000E2A _TEXT	
OZ_108 . . . . . . . . . . . . .	L Near	 00000E47 _TEXT	
OZ_109 . . . . . . . . . . . . .	L Near	 00000E64 _TEXT	
OZ_10  . . . . . . . . . . . . .	L Near	 0000032D _TEXT	
OZ_110 . . . . . . . . . . . . .	L Near	 00000E81 _TEXT	
OZ_111 . . . . . . . . . . . . .	L Near	 00000E9E _TEXT	
OZ_112 . . . . . . . . . . . . .	L Near	 00000EBB _TEXT	
OZ_113 . . . . . . . . . . . . .	L Near	 00000ED8 _TEXT	
OZ_114 . . . . . . . . . . . . .	L Near	 00000EF5 _TEXT	
OZ_115 . . . . . . . . . . . . .	L Near	 00000F12 _TEXT	
OZ_116 . . . . . . . . . . . . .	L Near	 00000F2F _TEXT	
OZ_117 . . . . . . . . . . . . .	L Near	 00000F4C _TEXT	
OZ_118 . . . . . . . . . . . . .	L Near	 00000F69 _TEXT	
OZ_119 . . . . . . . . . . . . .	L Near	 00000F86 _TEXT	
OZ_11  . . . . . . . . . . . . .	L Near	 0000034A _TEXT	
OZ_120 . . . . . . . . . . . . .	L Near	 00000FA3 _TEXT	
OZ_121 . . . . . . . . . . . . .	L Near	 00000FC0 _TEXT	
OZ_122 . . . . . . . . . . . . .	L Near	 00000FDD _TEXT	
OZ_123 . . . . . . . . . . . . .	L Near	 00000FFA _TEXT	
OZ_124 . . . . . . . . . . . . .	L Near	 00001017 _TEXT	
OZ_125 . . . . . . . . . . . . .	L Near	 00001034 _TEXT	
OZ_126 . . . . . . . . . . . . .	L Near	 00001051 _TEXT	
OZ_127 . . . . . . . . . . . . .	L Near	 0000106E _TEXT	
OZ_128 . . . . . . . . . . . . .	L Near	 0000108B _TEXT	
OZ_129 . . . . . . . . . . . . .	L Near	 000010A8 _TEXT	
OZ_12  . . . . . . . . . . . . .	L Near	 00000367 _TEXT	
OZ_130 . . . . . . . . . . . . .	L Near	 000010C5 _TEXT	
OZ_131 . . . . . . . . . . . . .	L Near	 000010E2 _TEXT	
OZ_132 . . . . . . . . . . . . .	L Near	 000010FF _TEXT	
OZ_133 . . . . . . . . . . . . .	L Near	 0000111C _TEXT	
OZ_134 . . . . . . . . . . . . .	L Near	 00001139 _TEXT	
OZ_135 . . . . . . . . . . . . .	L Near	 00001156 _TEXT	
OZ_136 . . . . . . . . . . . . .	L Near	 00001173 _TEXT	
OZ_137 . . . . . . . . . . . . .	L Near	 00001190 _TEXT	
OZ_138 . . . . . . . . . . . . .	L Near	 000011AD _TEXT	
OZ_139 . . . . . . . . . . . . .	L Near	 000011CA _TEXT	
OZ_13  . . . . . . . . . . . . .	L Near	 00000384 _TEXT	
OZ_140 . . . . . . . . . . . . .	L Near	 000011E7 _TEXT	
OZ_141 . . . . . . . . . . . . .	L Near	 00001204 _TEXT	
OZ_142 . . . . . . . . . . . . .	L Near	 00001221 _TEXT	
OZ_143 . . . . . . . . . . . . .	L Near	 0000123E _TEXT	
OZ_144 . . . . . . . . . . . . .	L Near	 0000125B _TEXT	
OZ_145 . . . . . . . . . . . . .	L Near	 00001278 _TEXT	
OZ_146 . . . . . . . . . . . . .	L Near	 00001295 _TEXT	
OZ_147 . . . . . . . . . . . . .	L Near	 000012B2 _TEXT	
OZ_148 . . . . . . . . . . . . .	L Near	 000012CF _TEXT	
OZ_149 . . . . . . . . . . . . .	L Near	 000012EC _TEXT	
OZ_14  . . . . . . . . . . . . .	L Near	 000003A1 _TEXT	
OZ_150 . . . . . . . . . . . . .	L Near	 00001309 _TEXT	
OZ_151 . . . . . . . . . . . . .	L Near	 00001326 _TEXT	
OZ_152 . . . . . . . . . . . . .	L Near	 00001343 _TEXT	
OZ_153 . . . . . . . . . . . . .	L Near	 00001360 _TEXT	
OZ_154 . . . . . . . . . . . . .	L Near	 0000137D _TEXT	
OZ_155 . . . . . . . . . . . . .	L Near	 0000139A _TEXT	
OZ_156 . . . . . . . . . . . . .	L Near	 000013B7 _TEXT	
OZ_157 . . . . . . . . . . . . .	L Near	 000013D4 _TEXT	
OZ_158 . . . . . . . . . . . . .	L Near	 000013F1 _TEXT	
OZ_159 . . . . . . . . . . . . .	L Near	 0000140E _TEXT	
OZ_15  . . . . . . . . . . . . .	L Near	 000003BE _TEXT	
OZ_160 . . . . . . . . . . . . .	L Near	 0000142B _TEXT	
OZ_161 . . . . . . . . . . . . .	L Near	 00001448 _TEXT	
OZ_162 . . . . . . . . . . . . .	L Near	 00001465 _TEXT	
OZ_163 . . . . . . . . . . . . .	L Near	 00001482 _TEXT	
OZ_164 . . . . . . . . . . . . .	L Near	 0000149F _TEXT	
OZ_165 . . . . . . . . . . . . .	L Near	 000014BC _TEXT	
OZ_166 . . . . . . . . . . . . .	L Near	 000014D9 _TEXT	
OZ_167 . . . . . . . . . . . . .	L Near	 000014F6 _TEXT	
OZ_168 . . . . . . . . . . . . .	L Near	 00001513 _TEXT	
OZ_169 . . . . . . . . . . . . .	L Near	 00001530 _TEXT	
OZ_16  . . . . . . . . . . . . .	L Near	 000003DB _TEXT	
OZ_170 . . . . . . . . . . . . .	L Near	 0000154D _TEXT	
OZ_171 . . . . . . . . . . . . .	L Near	 0000156A _TEXT	
OZ_172 . . . . . . . . . . . . .	L Near	 00001587 _TEXT	
OZ_173 . . . . . . . . . . . . .	L Near	 000015A4 _TEXT	
OZ_174 . . . . . . . . . . . . .	L Near	 000015C1 _TEXT	
OZ_175 . . . . . . . . . . . . .	L Near	 000015DE _TEXT	
OZ_176 . . . . . . . . . . . . .	L Near	 000015FB _TEXT	
OZ_177 . . . . . . . . . . . . .	L Near	 00001618 _TEXT	
OZ_178 . . . . . . . . . . . . .	L Near	 00001635 _TEXT	
OZ_179 . . . . . . . . . . . . .	L Near	 00001652 _TEXT	
OZ_17  . . . . . . . . . . . . .	L Near	 000003F8 _TEXT	
OZ_180 . . . . . . . . . . . . .	L Near	 0000166F _TEXT	
OZ_181 . . . . . . . . . . . . .	L Near	 0000168C _TEXT	
OZ_182 . . . . . . . . . . . . .	L Near	 000016A9 _TEXT	
OZ_183 . . . . . . . . . . . . .	L Near	 000016C6 _TEXT	
OZ_184 . . . . . . . . . . . . .	L Near	 000016E3 _TEXT	
OZ_185 . . . . . . . . . . . . .	L Near	 00001700 _TEXT	
OZ_186 . . . . . . . . . . . . .	L Near	 0000171D _TEXT	
OZ_187 . . . . . . . . . . . . .	L Near	 0000173A _TEXT	
OZ_188 . . . . . . . . . . . . .	L Near	 00001757 _TEXT	
OZ_189 . . . . . . . . . . . . .	L Near	 00001774 _TEXT	
OZ_18  . . . . . . . . . . . . .	L Near	 00000415 _TEXT	
OZ_190 . . . . . . . . . . . . .	L Near	 00001791 _TEXT	
OZ_191 . . . . . . . . . . . . .	L Near	 000017AE _TEXT	
OZ_192 . . . . . . . . . . . . .	L Near	 000017CB _TEXT	
OZ_193 . . . . . . . . . . . . .	L Near	 000017E8 _TEXT	
OZ_194 . . . . . . . . . . . . .	L Near	 00001805 _TEXT	
OZ_195 . . . . . . . . . . . . .	L Near	 00001822 _TEXT	
OZ_196 . . . . . . . . . . . . .	L Near	 0000183F _TEXT	
OZ_197 . . . . . . . . . . . . .	L Near	 0000185C _TEXT	
OZ_198 . . . . . . . . . . . . .	L Near	 00001879 _TEXT	
OZ_199 . . . . . . . . . . . . .	L Near	 00001896 _TEXT	
OZ_19  . . . . . . . . . . . . .	L Near	 00000432 _TEXT	
OZ_1 . . . . . . . . . . . . . .	L Near	 00000228 _TEXT	
OZ_200 . . . . . . . . . . . . .	L Near	 000018B3 _TEXT	
OZ_201 . . . . . . . . . . . . .	L Near	 000018D0 _TEXT	
OZ_202 . . . . . . . . . . . . .	L Near	 000018ED _TEXT	
OZ_203 . . . . . . . . . . . . .	L Near	 0000190A _TEXT	
OZ_204 . . . . . . . . . . . . .	L Near	 00001927 _TEXT	
OZ_205 . . . . . . . . . . . . .	L Near	 00001944 _TEXT	
OZ_206 . . . . . . . . . . . . .	L Near	 00001961 _TEXT	
OZ_207 . . . . . . . . . . . . .	L Near	 0000197E _TEXT	
OZ_208 . . . . . . . . . . . . .	L Near	 0000199B _TEXT	
OZ_209 . . . . . . . . . . . . .	L Near	 000019B8 _TEXT	
OZ_20  . . . . . . . . . . . . .	L Near	 0000044F _TEXT	
OZ_210 . . . . . . . . . . . . .	L Near	 000019D5 _TEXT	
OZ_211 . . . . . . . . . . . . .	L Near	 000019F2 _TEXT	
OZ_212 . . . . . . . . . . . . .	L Near	 00001A0F _TEXT	
OZ_213 . . . . . . . . . . . . .	L Near	 00001A2C _TEXT	
OZ_214 . . . . . . . . . . . . .	L Near	 00001A49 _TEXT	
OZ_215 . . . . . . . . . . . . .	L Near	 00001A66 _TEXT	
OZ_216 . . . . . . . . . . . . .	L Near	 00001A83 _TEXT	
OZ_217 . . . . . . . . . . . . .	L Near	 00001AA0 _TEXT	
OZ_218 . . . . . . . . . . . . .	L Near	 00001ABD _TEXT	
OZ_219 . . . . . . . . . . . . .	L Near	 00001ADA _TEXT	
OZ_21  . . . . . . . . . . . . .	L Near	 0000046C _TEXT	
OZ_220 . . . . . . . . . . . . .	L Near	 00001AF7 _TEXT	
OZ_221 . . . . . . . . . . . . .	L Near	 00001B14 _TEXT	
OZ_222 . . . . . . . . . . . . .	L Near	 00001B31 _TEXT	
OZ_223 . . . . . . . . . . . . .	L Near	 00001B4E _TEXT	
OZ_224 . . . . . . . . . . . . .	L Near	 00001B6B _TEXT	
OZ_225 . . . . . . . . . . . . .	L Near	 00001B88 _TEXT	
OZ_226 . . . . . . . . . . . . .	L Near	 00001BA5 _TEXT	
OZ_227 . . . . . . . . . . . . .	L Near	 00001BC2 _TEXT	
OZ_228 . . . . . . . . . . . . .	L Near	 00001BDF _TEXT	
OZ_229 . . . . . . . . . . . . .	L Near	 00001BFC _TEXT	
OZ_22  . . . . . . . . . . . . .	L Near	 00000489 _TEXT	
OZ_230 . . . . . . . . . . . . .	L Near	 00001C19 _TEXT	
OZ_231 . . . . . . . . . . . . .	L Near	 00001C36 _TEXT	
OZ_232 . . . . . . . . . . . . .	L Near	 00001C53 _TEXT	
OZ_233 . . . . . . . . . . . . .	L Near	 00001C70 _TEXT	
OZ_234 . . . . . . . . . . . . .	L Near	 00001C8D _TEXT	
OZ_235 . . . . . . . . . . . . .	L Near	 00001CAA _TEXT	
OZ_236 . . . . . . . . . . . . .	L Near	 00001CC7 _TEXT	
OZ_237 . . . . . . . . . . . . .	L Near	 00001CE4 _TEXT	
OZ_238 . . . . . . . . . . . . .	L Near	 00001D01 _TEXT	
OZ_239 . . . . . . . . . . . . .	L Near	 00001D1E _TEXT	
OZ_23  . . . . . . . . . . . . .	L Near	 000004A6 _TEXT	
OZ_240 . . . . . . . . . . . . .	L Near	 00001D3B _TEXT	
OZ_241 . . . . . . . . . . . . .	L Near	 00001D58 _TEXT	
OZ_242 . . . . . . . . . . . . .	L Near	 00001D75 _TEXT	
OZ_243 . . . . . . . . . . . . .	L Near	 00001D92 _TEXT	
OZ_244 . . . . . . . . . . . . .	L Near	 00001DAF _TEXT	
OZ_245 . . . . . . . . . . . . .	L Near	 00001DCC _TEXT	
OZ_246 . . . . . . . . . . . . .	L Near	 00001DE9 _TEXT	
OZ_247 . . . . . . . . . . . . .	L Near	 00001E06 _TEXT	
OZ_248 . . . . . . . . . . . . .	L Near	 00001E23 _TEXT	
OZ_249 . . . . . . . . . . . . .	L Near	 00001E40 _TEXT	
OZ_24  . . . . . . . . . . . . .	L Near	 000004C3 _TEXT	
OZ_250 . . . . . . . . . . . . .	L Near	 00001E5D _TEXT	
OZ_251 . . . . . . . . . . . . .	L Near	 00001E7A _TEXT	
OZ_252 . . . . . . . . . . . . .	L Near	 00001E97 _TEXT	
OZ_253 . . . . . . . . . . . . .	L Near	 00001EB4 _TEXT	
OZ_254 . . . . . . . . . . . . .	L Near	 00001ED1 _TEXT	
OZ_255 . . . . . . . . . . . . .	L Near	 00001EEE _TEXT	
OZ_25  . . . . . . . . . . . . .	L Near	 000004E0 _TEXT	
OZ_26  . . . . . . . . . . . . .	L Near	 000004FD _TEXT	
OZ_27  . . . . . . . . . . . . .	L Near	 0000051A _TEXT	
OZ_28  . . . . . . . . . . . . .	L Near	 00000537 _TEXT	
OZ_29  . . . . . . . . . . . . .	L Near	 00000554 _TEXT	
OZ_2 . . . . . . . . . . . . . .	L Near	 00000245 _TEXT	
OZ_30  . . . . . . . . . . . . .	L Near	 00000571 _TEXT	
OZ_31  . . . . . . . . . . . . .	L Near	 0000058E _TEXT	
OZ_32  . . . . . . . . . . . . .	L Near	 000005AB _TEXT	
OZ_33  . . . . . . . . . . . . .	L Near	 000005C8 _TEXT	
OZ_34  . . . . . . . . . . . . .	L Near	 000005E5 _TEXT	
OZ_35  . . . . . . . . . . . . .	L Near	 00000602 _TEXT	
OZ_36  . . . . . . . . . . . . .	L Near	 0000061F _TEXT	
OZ_37  . . . . . . . . . . . . .	L Near	 0000063C _TEXT	
OZ_38  . . . . . . . . . . . . .	L Near	 00000659 _TEXT	
OZ_39  . . . . . . . . . . . . .	L Near	 00000676 _TEXT	
OZ_3 . . . . . . . . . . . . . .	L Near	 00000262 _TEXT	
OZ_40  . . . . . . . . . . . . .	L Near	 00000693 _TEXT	
OZ_41  . . . . . . . . . . . . .	L Near	 000006B0 _TEXT	
OZ_42  . . . . . . . . . . . . .	L Near	 000006CD _TEXT	
OZ_43  . . . . . . . . . . . . .	L Near	 000006EA _TEXT	
OZ_44  . . . . . . . . . . . . .	L Near	 00000707 _TEXT	
OZ_45  . . . . . . . . . . . . .	L Near	 00000724 _TEXT	
OZ_46  . . . . . . . . . . . . .	L Near	 00000741 _TEXT	
OZ_47  . . . . . . . . . . . . .	L Near	 0000075E _TEXT	
OZ_48  . . . . . . . . . . . . .	L Near	 0000077B _TEXT	
OZ_49  . . . . . . . . . . . . .	L Near	 00000798 _TEXT	
OZ_4 . . . . . . . . . . . . . .	L Near	 0000027F _TEXT	
OZ_50  . . . . . . . . . . . . .	L Near	 000007B5 _TEXT	
OZ_51  . . . . . . . . . . . . .	L Near	 000007D2 _TEXT	
OZ_52  . . . . . . . . . . . . .	L Near	 000007EF _TEXT	
OZ_53  . . . . . . . . . . . . .	L Near	 0000080C _TEXT	
OZ_54  . . . . . . . . . . . . .	L Near	 00000829 _TEXT	
OZ_55  . . . . . . . . . . . . .	L Near	 00000846 _TEXT	
OZ_56  . . . . . . . . . . . . .	L Near	 00000863 _TEXT	
OZ_57  . . . . . . . . . . . . .	L Near	 00000880 _TEXT	
OZ_58  . . . . . . . . . . . . .	L Near	 0000089D _TEXT	
OZ_59  . . . . . . . . . . . . .	L Near	 000008BA _TEXT	
OZ_5 . . . . . . . . . . . . . .	L Near	 0000029C _TEXT	
OZ_60  . . . . . . . . . . . . .	L Near	 000008D7 _TEXT	
OZ_61  . . . . . . . . . . . . .	L Near	 000008F4 _TEXT	
OZ_62  . . . . . . . . . . . . .	L Near	 00000911 _TEXT	
OZ_63  . . . . . . . . . . . . .	L Near	 0000092E _TEXT	
OZ_64  . . . . . . . . . . . . .	L Near	 0000094B _TEXT	
OZ_65  . . . . . . . . . . . . .	L Near	 00000968 _TEXT	
OZ_66  . . . . . . . . . . . . .	L Near	 00000985 _TEXT	
OZ_67  . . . . . . . . . . . . .	L Near	 000009A2 _TEXT	
OZ_68  . . . . . . . . . . . . .	L Near	 000009BF _TEXT	
OZ_69  . . . . . . . . . . . . .	L Near	 000009DC _TEXT	
OZ_6 . . . . . . . . . . . . . .	L Near	 000002B9 _TEXT	
OZ_70  . . . . . . . . . . . . .	L Near	 000009F9 _TEXT	
OZ_71  . . . . . . . . . . . . .	L Near	 00000A16 _TEXT	
OZ_72  . . . . . . . . . . . . .	L Near	 00000A33 _TEXT	
OZ_73  . . . . . . . . . . . . .	L Near	 00000A50 _TEXT	
OZ_74  . . . . . . . . . . . . .	L Near	 00000A6D _TEXT	
OZ_75  . . . . . . . . . . . . .	L Near	 00000A8A _TEXT	
OZ_76  . . . . . . . . . . . . .	L Near	 00000AA7 _TEXT	
OZ_77  . . . . . . . . . . . . .	L Near	 00000AC4 _TEXT	
OZ_78  . . . . . . . . . . . . .	L Near	 00000AE1 _TEXT	
OZ_79  . . . . . . . . . . . . .	L Near	 00000AFE _TEXT	
OZ_7 . . . . . . . . . . . . . .	L Near	 000002D6 _TEXT	
OZ_80  . . . . . . . . . . . . .	L Near	 00000B1B _TEXT	
OZ_81  . . . . . . . . . . . . .	L Near	 00000B38 _TEXT	
OZ_82  . . . . . . . . . . . . .	L Near	 00000B55 _TEXT	
OZ_83  . . . . . . . . . . . . .	L Near	 00000B72 _TEXT	
OZ_84  . . . . . . . . . . . . .	L Near	 00000B8F _TEXT	
OZ_85  . . . . . . . . . . . . .	L Near	 00000BAC _TEXT	
OZ_86  . . . . . . . . . . . . .	L Near	 00000BC9 _TEXT	
OZ_87  . . . . . . . . . . . . .	L Near	 00000BE6 _TEXT	
OZ_88  . . . . . . . . . . . . .	L Near	 00000C03 _TEXT	
OZ_89  . . . . . . . . . . . . .	L Near	 00000C20 _TEXT	
OZ_8 . . . . . . . . . . . . . .	L Near	 000002F3 _TEXT	
OZ_90  . . . . . . . . . . . . .	L Near	 00000C3D _TEXT	
OZ_91  . . . . . . . . . . . . .	L Near	 00000C5A _TEXT	
OZ_92  . . . . . . . . . . . . .	L Near	 00000C77 _TEXT	
OZ_93  . . . . . . . . . . . . .	L Near	 00000C94 _TEXT	
OZ_94  . . . . . . . . . . . . .	L Near	 00000CB1 _TEXT	
OZ_95  . . . . . . . . . . . . .	L Near	 00000CCE _TEXT	
OZ_96  . . . . . . . . . . . . .	L Near	 00000CEB _TEXT	
OZ_97  . . . . . . . . . . . . .	L Near	 00000D08 _TEXT	
OZ_98  . . . . . . . . . . . . .	L Near	 00000D25 _TEXT	
OZ_99  . . . . . . . . . . . . .	L Near	 00000D42 _TEXT	
OZ_9 . . . . . . . . . . . . . .	L Near	 00000310 _TEXT	
STD_CALL . . . . . . . . . . . .	Text   	 
StudyImage . . . . . . . . . . .	L Near	 00000000 FLAT	External C
TRAPEMUL_AccessDevice  . . . . .	Number	 0000000Eh   
TRAPEMUL_CleanCtx  . . . . . . .	Number	 00000006h   
TRAPEMUL_CreatePortal  . . . . .	Number	 00000004h   
TRAPEMUL_DestroyPortal . . . . .	Number	 00000005h   
TRAPEMUL_DiscardToken  . . . . .	Number	 0000000Bh   
TRAPEMUL_GetSPACEParams  . . . .	Number	 00000011h   
TRAPEMUL_HaltCPU . . . . . . . .	Number	 00000010h   
TRAPEMUL_InterruptCPU  . . . . .	Number	 0000000Dh   
TRAPEMUL_ManageIRQL  . . . . . .	Number	 0000000Fh   
TRAPEMUL_MapIO . . . . . . . . .	Number	 00000002h   
TRAPEMUL_MapMemory . . . . . . .	Number	 00000001h   
TRAPEMUL_MapTrap . . . . . . . .	Number	 00000003h   
TRAPEMUL_Noop  . . . . . . . . .	Number	 00000000h   
TRAPEMUL_PopCaller . . . . . . .	Number	 0000000Ah   
TRAPEMUL_Resume  . . . . . . . .	Number	 00000007h   
TRAPEMUL_SPACEBreak  . . . . . .	Number	 00000012h   
TRAPEMUL_StartCPU  . . . . . . .	Number	 0000000Ch   
TRAPEMUL_Suspend . . . . . . . .	Number	 00000008h   
TRAPEMUL_Unsuspend . . . . . . .	Number	 00000009h   
TRAPSERV_MAXCALLS  . . . . . . .	Number	 00000100h   
WIN32_LEAN_AND_MEAN  . . . . . .	Text   	 1
WINVER . . . . . . . . . . . . .	Text   	 0x0501
_X86_  . . . . . . . . . . . . .	Text   	 1
__ . . . . . . . . . . . . . . .	Text   	 
_  . . . . . . . . . . . . . . .	Text   	 
bootspacecpu . . . . . . . . . .	L Near	 0000005C _TEXT	Public C
emul_AccessDevice  . . . . . . .	L Near	 00000172 _TEXT	
emul_CleanCtx  . . . . . . . . .	L Near	 000000ED _TEXT	
emul_CreatePortal  . . . . . . .	L Near	 000000C2 _TEXT	
emul_DestroyPortal . . . . . . .	L Near	 000000DC _TEXT	
emul_DiscardToken  . . . . . . .	L Near	 00000130 _TEXT	
emul_GetSPACEParams  . . . . . .	L Near	 000001A9 _TEXT	
emul_HaltCPU . . . . . . . . . .	L Near	 0000019A _TEXT	
emul_InterruptCPU  . . . . . . .	L Near	 00000161 _TEXT	
emul_ManageIrql  . . . . . . . .	L Near	 00000189 _TEXT	
emul_MapIO . . . . . . . . . . .	L Near	 0000008E _TEXT	
emul_MapMemory . . . . . . . . .	L Near	 00000071 _TEXT	
emul_MapTrap . . . . . . . . . .	L Near	 000000A5 _TEXT	
emul_Noop  . . . . . . . . . . .	L Near	 00000062 _TEXT	
emul_PopCaller . . . . . . . . .	L Near	 00000121 _TEXT	
emul_Resume  . . . . . . . . . .	L Near	 0000005E _TEXT	
emul_SPACEBreak  . . . . . . . .	L Near	 000001DA _TEXT	
emul_StartCPU  . . . . . . . . .	L Near	 00000144 _TEXT	
emul_Suspend . . . . . . . . . .	L Near	 000000FE _TEXT	
emul_Unsuspend . . . . . . . . .	L Near	 0000010D _TEXT	
emulationvector  . . . . . . . .	L Near	 0000000C _TEXT	
i386 . . . . . . . . . . . . . .	Text   	 1
icall  . . . . . . . . . . . . .	Number	 00000100h   
libraryvector  . . . . . . . . .	L Near	 00000058 _TEXT	
servicevector  . . . . . . . . .	L Near	 00001F0B _TEXT	

	   0 Warnings
	   0 Errors
